MODULE Linux arm 21DEDEBB8E614F36F33F8DBC7FADA9980 libKODI_adsp-arm.so
FUNC 4238 3c 0 std::basic_string<char, std::char_traits<char>, std::allocator<char> >::_Rep::_M_dispose
FUNC 4284 5c 0 _GLOBAL__sub_I_eh_globals.cc
FUNC 42e0 18 0 _GLOBAL__sub_I_eh_alloc.cc
FUNC 42f8 84 0 _GLOBAL__sub_I_system_error.cc
FUNC 43b0 28 0 CAddonSoundPlay::Play
FUNC 43d8 28 0 CAddonSoundPlay::Stop
FUNC 4400 30 0 CAddonSoundPlay::IsPlaying
FUNC 4430 2c 0 CAddonSoundPlay::SetChannel
FUNC 445c 30 0 CAddonSoundPlay::GetChannel
FUNC 448c 2c 0 CAddonSoundPlay::SetVolume
FUNC 44b8 30 0 CAddonSoundPlay::GetVolume
FUNC 44e8 9c 0 CAddonSoundPlay::~CAddonSoundPlay
FUNC 4584 1c 0 CAddonSoundPlay::~CAddonSoundPlay
FUNC 45a0 84 0 ADSP_register_me
FUNC 4624 20 0 ADSP_unregister_me
FUNC 4644 20 0 ADSP_add_menu_hook
FUNC 4664 20 0 ADSP_remove_menu_hook
FUNC 4684 20 0 ADSP_register_mode
FUNC 46a4 20 0 ADSP_unregister_mode
FUNC 46c4 1c 0 ADSP_release_sound_play
FUNC 46e0 ec 0 CAddonSoundPlay::CAddonSoundPlay
FUNC 47cc 40 0 ADSP_get_sound_play
FUNC 480c 44 0 read_sleb128
FUNC 4850 11c 0 read_encoded_value_with_base
FUNC 496c 74 0 base_of_encoded_value
FUNC 49e0 e0 0 parse_lsda_header
FUNC 4ac0 668 0 __cxxabiv1::__gxx_personality_v0
FUNC 5128 8 0 __cxxabiv1::__cxa_get_exception_ptr
FUNC 5130 e0 0 __cxxabiv1::__cxa_begin_catch
FUNC 5210 d8 0 __cxxabiv1::__cxa_end_catch
FUNC 52e8 18 0 std::uncaught_exception
FUNC 5300 a4 0 operator new
FUNC 53a4 70 0 __cxxabiv1::__is_gxx_exception_class
FUNC 5414 2c 0 __cxa_call_terminate
FUNC 5440 168 0 __cxa_call_unexpected
FUNC 55a8 34 0 __eh_globals_init::~__eh_globals_init
FUNC 55dc 3c 0 eh_globals_dtor
FUNC 5618 48 0 __cxxabiv1::__cxa_get_globals_fast
FUNC 5660 90 0 __cxxabiv1::__cxa_get_globals
FUNC 56f0 5c 0 __cxxabiv1::__class_type_info::__do_upcast
FUNC 574c 14 0 __cxxabiv1::__class_type_info::__do_find_public_src
FUNC 5760 28 0 __cxxabiv1::__class_type_info::~__class_type_info
FUNC 5788 1c 0 __cxxabiv1::__class_type_info::~__class_type_info
FUNC 57a4 2c 0 __cxxabiv1::__class_type_info::__do_upcast
FUNC 57d0 44 0 __cxxabiv1::__class_type_info::__do_catch
FUNC 5814 78 0 __cxxabiv1::__class_type_info::__do_dyncast
FUNC 588c 60 0 __gxx_exception_cleanup
FUNC 58ec b8 0 __cxxabiv1::__cxa_throw
FUNC 59a4 b0 0 __cxxabiv1::__cxa_rethrow
FUNC 5a54 18 0 std::exception::~exception
FUNC 5a6c 28 0 std::bad_exception::~bad_exception
FUNC 5a94 18 0 __cxxabiv1::__forced_unwind::~__forced_unwind
FUNC 5aac 18 0 __cxxabiv1::__foreign_exception::~__foreign_exception
FUNC 5ac4 10 0 std::exception::what
FUNC 5ad4 10 0 std::bad_exception::what
FUNC 5ae4 1c 0 std::exception::~exception
FUNC 5b00 1c 0 std::bad_exception::~bad_exception
FUNC 5b1c 1c 0 __cxxabiv1::__forced_unwind::~__forced_unwind
FUNC 5b38 1c 0 __cxxabiv1::__foreign_exception::~__foreign_exception
FUNC 5b54 c 0 operator delete
FUNC 5b70 144 0 __cxa_type_match
FUNC 5cb4 b4 0 __cxa_begin_cleanup
FUNC 5d68 b4 0 __gnu_end_cleanup
FUNC 5e1c 34 0 __cxxabiv1::__terminate
FUNC 5e50 18 0 std::terminate
FUNC 5e68 c 0 __cxxabiv1::__unexpected
FUNC 5e74 18 0 std::unexpected
FUNC 5e8c 1c 0 std::set_terminate
FUNC 5ea8 1c 0 std::set_unexpected
FUNC 5ec4 10 0 __gnu_cxx::__concurrence_lock_error::what
FUNC 5ed4 10 0 __gnu_cxx::__concurrence_unlock_error::what
FUNC 5ee4 28 0 __gnu_cxx::__concurrence_unlock_error::~__concurrence_unlock_error
FUNC 5f0c 28 0 __gnu_cxx::__concurrence_lock_error::~__concurrence_lock_error
FUNC 5f34 30 0 __gnu_cxx::__concurrence_unlock_error::~__concurrence_unlock_error
FUNC 5f64 30 0 __gnu_cxx::__concurrence_lock_error::~__concurrence_lock_error
FUNC 5f94 3c 0 __gnu_cxx::__throw_concurrence_lock_error
FUNC 5fd0 3c 0 __gnu_cxx::__throw_concurrence_unlock_error
FUNC 600c e0 0 __cxxabiv1::__cxa_allocate_exception
FUNC 60ec a0 0 __cxxabiv1::__cxa_free_exception
FUNC 618c dc 0 __cxxabiv1::__cxa_allocate_dependent_exception
FUNC 6268 a8 0 __cxxabiv1::__cxa_free_dependent_exception
FUNC 6310 10 0 __aeabiv1::__aeabi_atexit
FUNC 6320 1c 0 std::set_new_handler
FUNC 633c 20 0 __cxxabiv1::__cxa_pure_virtual
FUNC 635c 20 0 __cxxabiv1::__cxa_deleted_virtual
FUNC 637c 10 0 std::bad_alloc::what
FUNC 638c 28 0 std::bad_alloc::~bad_alloc
FUNC 63b4 1c 0 std::bad_alloc::~bad_alloc
FUNC 63d0 8 0 std::basic_string<char, std::char_traits<char>, std::allocator<char> >::data
FUNC 63d8 c 0 std::basic_string<char, std::char_traits<char>, std::allocator<char> >::length
FUNC 63e4 8 0 std::basic_string<char, std::char_traits<char>, std::allocator<char> >::_M_data
FUNC 63ec c 0 std::basic_string<char, std::char_traits<char>, std::allocator<char> >::_M_data
FUNC 63f8 c 0 std::basic_string<char, std::char_traits<char>, std::allocator<char> >::_M_rep
FUNC 6404 8 0 std::basic_string<char, std::char_traits<char>, std::allocator<char> >::_M_ibegin
FUNC 640c 10 0 std::basic_string<char, std::char_traits<char>, std::allocator<char> >::_M_iend
FUNC 641c 24 0 std::basic_string<char, std::char_traits<char>, std::allocator<char> >::_M_check
FUNC 6440 2c 0 std::basic_string<char, std::char_traits<char>, std::allocator<char> >::_M_check_length
FUNC 646c 18 0 std::basic_string<char, std::char_traits<char>, std::allocator<char> >::_M_limit
FUNC 6484 2c 0 std::basic_string<char, std::char_traits<char>, std::allocator<char> >::_M_disjunct
FUNC 64b0 18 0 std::basic_string<char, std::char_traits<char>, std::allocator<char> >::_M_copy
FUNC 64c8 18 0 std::basic_string<char, std::char_traits<char>, std::allocator<char> >::_M_move
FUNC 64e0 1c 0 std::basic_string<char, std::char_traits<char>, std::allocator<char> >::_M_assign
FUNC 64fc 1c 0 std::basic_string<char, std::char_traits<char>, std::allocator<char> >::_S_copy_chars
FUNC 6518 1c 0 std::basic_string<char, std::char_traits<char>, std::allocator<char> >::_S_copy_chars
FUNC 6534 1c 0 std::basic_string<char, std::char_traits<char>, std::allocator<char> >::_S_copy_chars
FUNC 6550 1c 0 std::basic_string<char, std::char_traits<char>, std::allocator<char> >::_S_copy_chars
FUNC 656c 8 0 std::basic_string<char, std::char_traits<char>, std::allocator<char> >::_S_compare
FUNC 6574 10 0 std::basic_string<char, std::char_traits<char>, std::allocator<char> >::_S_empty_rep
FUNC 6584 18 0 std::basic_string<char, std::char_traits<char>, std::allocator<char> >::basic_string
FUNC 659c 20 0 std::basic_string<char, std::char_traits<char>, std::allocator<char> >::basic_string
FUNC 65bc 8 0 std::basic_string<char, std::char_traits<char>, std::allocator<char> >::begin
FUNC 65c4 10 0 std::basic_string<char, std::char_traits<char>, std::allocator<char> >::end
FUNC 65d4 14 0 std::basic_string<char, std::char_traits<char>, std::allocator<char> >::rbegin
FUNC 65e8 c 0 std::basic_string<char, std::char_traits<char>, std::allocator<char> >::rend
FUNC 65f4 8 0 std::basic_string<char, std::char_traits<char>, std::allocator<char> >::cbegin
FUNC 65fc 10 0 std::basic_string<char, std::char_traits<char>, std::allocator<char> >::cend
FUNC 660c 14 0 std::basic_string<char, std::char_traits<char>, std::allocator<char> >::crbegin
FUNC 6620 c 0 std::basic_string<char, std::char_traits<char>, std::allocator<char> >::crend
FUNC 662c c 0 std::basic_string<char, std::char_traits<char>, std::allocator<char> >::size
FUNC 6638 8 0 std::basic_string<char, std::char_traits<char>, std::allocator<char> >::max_size
FUNC 6640 c 0 std::basic_string<char, std::char_traits<char>, std::allocator<char> >::capacity
FUNC 664c 14 0 std::basic_string<char, std::char_traits<char>, std::allocator<char> >::empty
FUNC 6660 c 0 std::basic_string<char, std::char_traits<char>, std::allocator<char> >::operator[]
FUNC 666c 2c 0 std::basic_string<char, std::char_traits<char>, std::allocator<char> >::at
FUNC 6698 8 0 std::basic_string<char, std::char_traits<char>, std::allocator<char> >::front
FUNC 66a0 14 0 std::basic_string<char, std::char_traits<char>, std::allocator<char> >::back
FUNC 66b4 6c 0 std::basic_string<char, std::char_traits<char>, std::allocator<char> >::copy
FUNC 6720 34 0 std::basic_string<char, std::char_traits<char>, std::allocator<char> >::swap
FUNC 6754 14 0 std::basic_string<char, std::char_traits<char>, std::allocator<char> >::operator=
FUNC 6768 14 0 std::basic_string<char, std::char_traits<char>, std::allocator<char> >::assign
FUNC 677c 8 0 std::basic_string<char, std::char_traits<char>, std::allocator<char> >::c_str
FUNC 6784 4 0 std::basic_string<char, std::char_traits<char>, std::allocator<char> >::get_allocator
FUNC 6788 9c 0 std::basic_string<char, std::char_traits<char>, std::allocator<char> >::find
FUNC 6824 c 0 std::basic_string<char, std::char_traits<char>, std::allocator<char> >::find
FUNC 6830 30 0 std::basic_string<char, std::char_traits<char>, std::allocator<char> >::find
FUNC 6860 3c 0 std::basic_string<char, std::char_traits<char>, std::allocator<char> >::find
FUNC 689c 64 0 std::basic_string<char, std::char_traits<char>, std::allocator<char> >::rfind
FUNC 6900 c 0 std::basic_string<char, std::char_traits<char>, std::allocator<char> >::rfind
FUNC 690c 30 0 std::basic_string<char, std::char_traits<char>, std::allocator<char> >::rfind
FUNC 693c 44 0 std::basic_string<char, std::char_traits<char>, std::allocator<char> >::rfind
FUNC 6980 58 0 std::basic_string<char, std::char_traits<char>, std::allocator<char> >::find_first_of
FUNC 69d8 c 0 std::basic_string<char, std::char_traits<char>, std::allocator<char> >::find_first_of
FUNC 69e4 30 0 std::basic_string<char, std::char_traits<char>, std::allocator<char> >::find_first_of
FUNC 6a14 4 0 std::basic_string<char, std::char_traits<char>, std::allocator<char> >::find_first_of
FUNC 6a18 68 0 std::basic_string<char, std::char_traits<char>, std::allocator<char> >::find_last_of
FUNC 6a80 c 0 std::basic_string<char, std::char_traits<char>, std::allocator<char> >::find_last_of
FUNC 6a8c 30 0 std::basic_string<char, std::char_traits<char>, std::allocator<char> >::find_last_of
FUNC 6abc 4 0 std::basic_string<char, std::char_traits<char>, std::allocator<char> >::find_last_of
FUNC 6ac0 58 0 std::basic_string<char, std::char_traits<char>, std::allocator<char> >::find_first_not_of
FUNC 6b18 c 0 std::basic_string<char, std::char_traits<char>, std::allocator<char> >::find_first_not_of
FUNC 6b24 30 0 std::basic_string<char, std::char_traits<char>, std::allocator<char> >::find_first_not_of
FUNC 6b54 4c 0 std::basic_string<char, std::char_traits<char>, std::allocator<char> >::find_first_not_of
FUNC 6ba0 64 0 std::basic_string<char, std::char_traits<char>, std::allocator<char> >::find_last_not_of
FUNC 6c04 c 0 std::basic_string<char, std::char_traits<char>, std::allocator<char> >::find_last_not_of
FUNC 6c10 30 0 std::basic_string<char, std::char_traits<char>, std::allocator<char> >::find_last_not_of
FUNC 6c40 44 0 std::basic_string<char, std::char_traits<char>, std::allocator<char> >::find_last_not_of
FUNC 6c84 30 0 std::basic_string<char, std::char_traits<char>, std::allocator<char> >::compare
FUNC 6cb4 60 0 std::basic_string<char, std::char_traits<char>, std::allocator<char> >::compare
FUNC 6d14 7c 0 std::basic_string<char, std::char_traits<char>, std::allocator<char> >::compare
FUNC 6d90 40 0 std::basic_string<char, std::char_traits<char>, std::allocator<char> >::compare
FUNC 6dd0 6c 0 std::basic_string<char, std::char_traits<char>, std::allocator<char> >::compare
FUNC 6e3c 5c 0 std::basic_string<char, std::char_traits<char>, std::allocator<char> >::compare
FUNC 6e98 8 0 std::basic_string<char, std::char_traits<char>, std::allocator<char> >::_Alloc_hider::_Alloc_hider
FUNC 6ea0 10 0 std::basic_string<char, std::char_traits<char>, std::allocator<char> >::_Rep::_S_empty_rep
FUNC 6eb0 c 0 std::basic_string<char, std::char_traits<char>, std::allocator<char> >::_Rep::_M_is_leaked
FUNC 6ebc 14 0 std::basic_string<char, std::char_traits<char>, std::allocator<char> >::_Rep::_M_is_shared
FUNC 6ed0 c 0 std::basic_string<char, std::char_traits<char>, std::allocator<char> >::_Rep::_M_set_leaked
FUNC 6edc c 0 std::basic_string<char, std::char_traits<char>, std::allocator<char> >::_Rep::_M_set_sharable
FUNC 6ee8 28 0 std::basic_string<char, std::char_traits<char>, std::allocator<char> >::_Rep::_M_set_length_and_sharable
FUNC 6f10 8 0 std::basic_string<char, std::char_traits<char>, std::allocator<char> >::_Rep::_M_refdata
FUNC 6f18 84 0 std::basic_string<char, std::char_traits<char>, std::allocator<char> >::_Rep::_S_create
FUNC 6f9c 84 0 std::basic_string<char, std::char_traits<char>, std::allocator<char> >::_S_construct
FUNC 7020 24 0 std::basic_string<char, std::char_traits<char>, std::allocator<char> >::basic_string
FUNC 7044 24 0 std::basic_string<char, std::char_traits<char>, std::allocator<char> >::basic_string
FUNC 7068 4 0 std::basic_string<char, std::char_traits<char>, std::allocator<char> >::_S_construct_aux_2
FUNC 706c 4 0 std::basic_string<char, std::char_traits<char>, std::allocator<char> >::_Rep::_M_destroy
FUNC 7070 18 0 std::basic_string<char, std::char_traits<char>, std::allocator<char> >::_Rep::_M_dispose
FUNC 7088 40 0 std::basic_string<char, std::char_traits<char>, std::allocator<char> >::~basic_string
FUNC 70c8 164 0 std::basic_string<char, std::char_traits<char>, std::allocator<char> >::_M_mutate
FUNC 722c 50 0 std::basic_string<char, std::char_traits<char>, std::allocator<char> >::_M_leak_hard
FUNC 727c 14 0 std::basic_string<char, std::char_traits<char>, std::allocator<char> >::_M_leak
FUNC 7290 28 0 std::basic_string<char, std::char_traits<char>, std::allocator<char> >::begin
FUNC 72b8 34 0 std::basic_string<char, std::char_traits<char>, std::allocator<char> >::rend
FUNC 72ec 2c 0 std::basic_string<char, std::char_traits<char>, std::allocator<char> >::end
FUNC 7318 2c 0 std::basic_string<char, std::char_traits<char>, std::allocator<char> >::operator[]
FUNC 7344 28 0 std::basic_string<char, std::char_traits<char>, std::allocator<char> >::front
FUNC 736c 30 0 std::basic_string<char, std::char_traits<char>, std::allocator<char> >::back
FUNC 739c 48 0 std::basic_string<char, std::char_traits<char>, std::allocator<char> >::at
FUNC 73e4 3c 0 std::basic_string<char, std::char_traits<char>, std::allocator<char> >::rbegin
FUNC 7420 14 0 std::basic_string<char, std::char_traits<char>, std::allocator<char> >::clear
FUNC 7434 44 0 std::basic_string<char, std::char_traits<char>, std::allocator<char> >::erase
FUNC 7478 34 0 std::basic_string<char, std::char_traits<char>, std::allocator<char> >::erase
FUNC 74ac 40 0 std::basic_string<char, std::char_traits<char>, std::allocator<char> >::erase
FUNC 74ec 78 0 std::basic_string<char, std::char_traits<char>, std::allocator<char> >::_M_replace_aux
FUNC 7564 2c 0 std::basic_string<char, std::char_traits<char>, std::allocator<char> >::assign
FUNC 7590 30 0 std::basic_string<char, std::char_traits<char>, std::allocator<char> >::operator=
FUNC 75c0 40 0 std::basic_string<char, std::char_traits<char>, std::allocator<char> >::insert
FUNC 7600 40 0 std::basic_string<char, std::char_traits<char>, std::allocator<char> >::insert
FUNC 7640 40 0 std::basic_string<char, std::char_traits<char>, std::allocator<char> >::replace
FUNC 7680 20 0 std::basic_string<char, std::char_traits<char>, std::allocator<char> >::replace
FUNC 76a0 2c 0 std::basic_string<char, std::char_traits<char>, std::allocator<char> >::insert
FUNC 76cc 58 0 std::basic_string<char, std::char_traits<char>, std::allocator<char> >::_M_replace_safe
FUNC 7724 f4 0 std::basic_string<char, std::char_traits<char>, std::allocator<char> >::assign
FUNC 7818 28 0 std::basic_string<char, std::char_traits<char>, std::allocator<char> >::operator=
FUNC 7840 40 0 std::basic_string<char, std::char_traits<char>, std::allocator<char> >::assign
FUNC 7880 28 0 std::basic_string<char, std::char_traits<char>, std::allocator<char> >::assign
FUNC 78a8 18 0 std::basic_string<char, std::char_traits<char>, std::allocator<char> >::assign
FUNC 78c0 28 0 std::basic_string<char, std::char_traits<char>, std::allocator<char> >::operator=
FUNC 78e8 184 0 std::basic_string<char, std::char_traits<char>, std::allocator<char> >::insert
FUNC 7a6c 28 0 std::basic_string<char, std::char_traits<char>, std::allocator<char> >::insert
FUNC 7a94 44 0 std::basic_string<char, std::char_traits<char>, std::allocator<char> >::insert
FUNC 7ad8 30 0 std::basic_string<char, std::char_traits<char>, std::allocator<char> >::insert
FUNC 7b08 c 0 std::basic_string<char, std::char_traits<char>, std::allocator<char> >::insert
FUNC 7b14 38 0 std::basic_string<char, std::char_traits<char>, std::allocator<char> >::pop_back
FUNC 7b4c 40 0 std::basic_string<char, std::char_traits<char>, std::allocator<char> >::_Rep::_M_refcopy
FUNC 7b8c 84 0 std::basic_string<char, std::char_traits<char>, std::allocator<char> >::_Rep::_M_clone
FUNC 7c10 88 0 std::basic_string<char, std::char_traits<char>, std::allocator<char> >::reserve
FUNC 7c98 30 0 std::basic_string<char, std::char_traits<char>, std::allocator<char> >::shrink_to_fit
FUNC 7cc8 ac 0 std::basic_string<char, std::char_traits<char>, std::allocator<char> >::append
FUNC 7d74 4 0 std::basic_string<char, std::char_traits<char>, std::allocator<char> >::operator+=
FUNC 7d78 d8 0 std::basic_string<char, std::char_traits<char>, std::allocator<char> >::append
FUNC 7e50 104 0 std::basic_string<char, std::char_traits<char>, std::allocator<char> >::append
FUNC 7f54 18 0 std::basic_string<char, std::char_traits<char>, std::allocator<char> >::operator+=
FUNC 7f6c 28 0 std::basic_string<char, std::char_traits<char>, std::allocator<char> >::append
FUNC 7f94 18 0 std::basic_string<char, std::char_traits<char>, std::allocator<char> >::append
FUNC 7fac 28 0 std::basic_string<char, std::char_traits<char>, std::allocator<char> >::operator+=
FUNC 7fd4 c0 0 std::basic_string<char, std::char_traits<char>, std::allocator<char> >::append
FUNC 8094 4c 0 std::basic_string<char, std::char_traits<char>, std::allocator<char> >::resize
FUNC 80e0 8 0 std::basic_string<char, std::char_traits<char>, std::allocator<char> >::resize
FUNC 80e8 74 0 std::basic_string<char, std::char_traits<char>, std::allocator<char> >::push_back
FUNC 815c 78 0 std::basic_string<char, std::char_traits<char>, std::allocator<char> >::operator+=
FUNC 81d4 58 0 std::basic_string<char, std::char_traits<char>, std::allocator<char> >::_Rep::_M_grab
FUNC 822c 88 0 std::basic_string<char, std::char_traits<char>, std::allocator<char> >::basic_string
FUNC 82b4 c4 0 std::basic_string<char, std::char_traits<char>, std::allocator<char> >::assign
FUNC 8378 4 0 std::basic_string<char, std::char_traits<char>, std::allocator<char> >::operator=
FUNC 837c 98 0 std::operator+<char, std::char_traits<char>, std::allocator<char> >
FUNC 8414 88 0 std::operator+<char, std::char_traits<char>, std::allocator<char> >
FUNC 849c 54 0 std::operator+<char, std::char_traits<char>, std::allocator<char> >
FUNC 84f0 90 0 std::basic_string<char, std::char_traits<char>, std::allocator<char> >::_S_construct<__gnu_cxx::__normal_iterator<char*, std::basic_string<char> > >
FUNC 8580 28 0 std::basic_string<char, std::char_traits<char>, std::allocator<char> >::basic_string<__gnu_cxx::__normal_iterator<char*, std::basic_string<char> > >
FUNC 85a8 c4 0 std::basic_string<char, std::char_traits<char>, std::allocator<char> >::_S_construct<char*>
FUNC 866c 60 0 std::basic_string<char, std::char_traits<char>, std::allocator<char> >::basic_string
FUNC 86cc 34 0 std::basic_string<char, std::char_traits<char>, std::allocator<char> >::substr
FUNC 8700 58 0 std::basic_string<char, std::char_traits<char>, std::allocator<char> >::basic_string
FUNC 8758 28 0 std::basic_string<char, std::char_traits<char>, std::allocator<char> >::basic_string<char*>
FUNC 8780 c4 0 std::basic_string<char, std::char_traits<char>, std::allocator<char> >::_S_construct<char const*>
FUNC 8844 28 0 std::basic_string<char, std::char_traits<char>, std::allocator<char> >::basic_string
FUNC 886c 1b4 0 std::basic_string<char, std::char_traits<char>, std::allocator<char> >::replace
FUNC 8a20 20 0 std::basic_string<char, std::char_traits<char>, std::allocator<char> >::replace
FUNC 8a40 48 0 std::basic_string<char, std::char_traits<char>, std::allocator<char> >::replace
FUNC 8a88 40 0 std::basic_string<char, std::char_traits<char>, std::allocator<char> >::replace
FUNC 8ac8 10 0 std::basic_string<char, std::char_traits<char>, std::allocator<char> >::replace
FUNC 8ad8 2c 0 std::basic_string<char, std::char_traits<char>, std::allocator<char> >::replace
FUNC 8b04 44 0 std::basic_string<char, std::char_traits<char>, std::allocator<char> >::replace
FUNC 8b48 24 0 std::basic_string<char, std::char_traits<char>, std::allocator<char> >::replace
FUNC 8b6c 24 0 std::basic_string<char, std::char_traits<char>, std::allocator<char> >::replace
FUNC 8b90 1c 0 std::basic_string<char, std::char_traits<char>, std::allocator<char> >::replace
FUNC 8bac 24 0 std::basic_string<char, std::char_traits<char>, std::allocator<char> >::replace
FUNC 8bd0 24 0 std::basic_string<char, std::char_traits<char>, std::allocator<char> >::replace
FUNC 8bf4 40 0 std::basic_string<char, std::char_traits<char>, std::allocator<char> >::basic_string
FUNC 8c34 3c 0 std::basic_string<char, std::char_traits<char>, std::allocator<char> >::basic_string
FUNC 8c70 28 0 std::basic_string<char, std::char_traits<char>, std::allocator<char> >::basic_string<char const*>
FUNC 8c98 18 0 __gnu_cxx::operator==<char*, std::basic_string<char> >
FUNC 8cb0 18 0 __gnu_cxx::operator==<char const*, std::basic_string<char> >
FUNC 8cc8 18 0 std::type_info::~type_info
FUNC 8ce0 8 0 std::type_info::__is_pointer_p
FUNC 8ce8 8 0 std::type_info::__is_function_p
FUNC 8cf0 8 0 std::type_info::__do_upcast
FUNC 8cf8 28 0 std::type_info::~type_info
FUNC 8d20 4c 0 std::type_info::operator==
FUNC 8d6c 4 0 std::type_info::__do_catch
FUNC 8d70 28 0 __cxxabiv1::__si_class_type_info::~__si_class_type_info
FUNC 8d98 1c 0 __cxxabiv1::__si_class_type_info::~__si_class_type_info
FUNC 8db4 64 0 __cxxabiv1::__si_class_type_info::__do_find_public_src
FUNC 8e18 e0 0 __cxxabiv1::__si_class_type_info::__do_dyncast
FUNC 8ef8 40 0 __cxxabiv1::__si_class_type_info::__do_upcast
FUNC 8f38 4c 0 std::__throw_bad_exception
FUNC 8f84 4c 0 std::__throw_bad_alloc
FUNC 8fd0 4c 0 std::__throw_bad_cast
FUNC 901c 4c 0 std::__throw_bad_typeid
FUNC 9068 88 0 std::__throw_logic_error
FUNC 90f0 88 0 std::__throw_domain_error
FUNC 9178 88 0 std::__throw_invalid_argument
FUNC 9200 88 0 std::__throw_length_error
FUNC 9288 88 0 std::__throw_out_of_range
FUNC 9310 88 0 std::__throw_runtime_error
FUNC 9398 88 0 std::__throw_range_error
FUNC 9420 88 0 std::__throw_overflow_error
FUNC 94a8 88 0 std::__throw_underflow_error
FUNC 9530 74 0 std::__throw_ios_failure
FUNC 95a4 b4 0 std::__throw_system_error
FUNC 9658 b4 0 std::__throw_future_error
FUNC 970c 4c 0 std::__throw_bad_function_call
FUNC 9758 48 0 std::__throw_regex_error
FUNC 97a0 10 0 std::bad_function_call::what
FUNC 97b0 28 0 std::bad_function_call::~bad_function_call
FUNC 97d8 30 0 std::bad_function_call::~bad_function_call
FUNC 9808 4 0 std::__future_base::_State_base::_M_run_deferred
FUNC 980c 10 0 future_error_category::name
FUNC 981c 28 0 future_error_category::~future_error_category
FUNC 9844 30 0 future_error_category::~future_error_category
FUNC 9874 28 0 std::future_error::~future_error
FUNC 989c 30 0 std::future_error::~future_error
FUNC 98cc 28 0 std::__future_base::_Result_base::~_Result_base
FUNC 98f4 30 0 std::__future_base::_Result_base::~_Result_base
FUNC 9924 48 0 std::__future_base::_State_base::~_State_base
FUNC 996c 1c 0 std::__future_base::_State_base::~_State_base
FUNC 9988 80 0 std::future_error::what
FUNC 9a08 f4 0 future_error_category::message
FUNC 9afc 94 0 std::future_category
FUNC 9b90 28 0 std::__future_base::_Result_base::_Result_base
FUNC 9bb8 e0 0 __cxxabiv1::__cxa_guard_acquire
FUNC 9c98 58 0 __cxxabiv1::__cxa_guard_abort
FUNC 9cf0 54 0 __cxxabiv1::__cxa_guard_release
FUNC 9d44 10 0 std::bad_typeid::what
FUNC 9d54 28 0 std::bad_typeid::~bad_typeid
FUNC 9d7c 1c 0 std::bad_typeid::~bad_typeid
FUNC 9d98 1b4 0 __gnu_cxx::__verbose_terminate_handler
FUNC 9f4c 1d0 0 d_make_comp
FUNC a11c 6c 0 d_make_name
FUNC a188 13c 0 d_cv_qualifiers
FUNC a2c4 58 0 d_ref_qualifier
FUNC a31c f4 0 d_clone_suffix
FUNC a410 244 0 d_substitution
FUNC a654 5c 0 d_append_char
FUNC a6b0 7c 0 d_number
FUNC a72c 60 0 d_number_component
FUNC a78c 54 0 d_compact_number
FUNC a7e0 80 0 d_template_param
FUNC a860 34 0 d_discriminator
FUNC a894 f8 0 d_source_name
FUNC a98c 9c 0 d_call_offset
FUNC aa28 88 0 d_lookup_template_argument
FUNC aab0 19c 0 d_find_pack
FUNC ac4c cc 0 d_growable_string_callback_adapter
FUNC ad18 158 0 d_expr_primary
FUNC ae70 170 0 d_template_args
FUNC afe0 4b0 0 d_name
FUNC b490 b88 0 d_type
FUNC c018 108 0 d_parmlist
FUNC c120 68 0 d_bare_function_type
FUNC c188 874 0 d_encoding
FUNC c9fc 194 0 d_operator_name
FUNC cb90 468 0 d_unqualified_name
FUNC cff8 61c 0 d_expression
FUNC d614 ac 0 d_exprlist
FUNC d6c0 84 0 d_append_string
FUNC d744 3554 0 d_print_comp
FUNC 10c98 20 0 d_print_comp
FUNC 10cb8 778 0 d_print_mod
FUNC 11430 398 0 d_print_mod_list
FUNC 117c8 264 0 d_print_array_type
FUNC 11a2c 2d8 0 d_print_function_type
FUNC 11d04 238 0 d_print_cast
FUNC 11f3c a4 0 d_print_expr_op
FUNC 11fe0 110 0 d_print_subexpr
FUNC 120f0 31c 0 d_demangle_callback
FUNC 1240c 14c 0 __cxa_demangle
FUNC 12558 2c 0 __gcclibcxx_demangle_callback
FUNC 12584 4 0 std::__exception_ptr::exception_ptr::_M_safe_bool_dummy
FUNC 12588 68 0 __gxx_dependent_exception_cleanup
FUNC 125f0 c 0 std::__exception_ptr::exception_ptr::exception_ptr
FUNC 125fc 1c 0 std::__exception_ptr::exception_ptr::exception_ptr
FUNC 12618 30 0 std::__exception_ptr::exception_ptr::_M_addref
FUNC 12648 18 0 std::__exception_ptr::exception_ptr::exception_ptr
FUNC 12660 1c 0 std::__exception_ptr::exception_ptr::exception_ptr
FUNC 1267c 64 0 std::__exception_ptr::exception_ptr::_M_release
FUNC 126e0 14 0 std::__exception_ptr::exception_ptr::~exception_ptr
FUNC 126f4 8 0 std::__exception_ptr::exception_ptr::_M_get
FUNC 126fc 14 0 std::__exception_ptr::exception_ptr::swap
FUNC 12710 38 0 std::__exception_ptr::exception_ptr::operator=
FUNC 12748 10 0 std::__exception_ptr::exception_ptr::operator!
FUNC 12758 34 0 std::__exception_ptr::exception_ptr::operator std::__exception_ptr::exception_ptr::__safe_bool
FUNC 1278c c 0 std::__exception_ptr::exception_ptr::__cxa_exception_type
FUNC 12798 18 0 std::__exception_ptr::operator==
FUNC 127b0 14 0 std::__exception_ptr::operator!=
FUNC 127c4 a0 0 std::current_exception
FUNC 12864 c0 0 std::rethrow_exception
FUNC 12924 10 0 std::bad_cast::what
FUNC 12934 28 0 std::bad_cast::~bad_cast
FUNC 1295c 1c 0 std::bad_cast::~bad_cast
FUNC 12978 8 0 std::logic_error::what
FUNC 12980 8 0 std::runtime_error::what
FUNC 12988 84 0 std::logic_error::~logic_error
FUNC 12a0c 1c 0 std::logic_error::~logic_error
FUNC 12a28 28 0 std::domain_error::~domain_error
FUNC 12a50 30 0 std::domain_error::~domain_error
FUNC 12a80 28 0 std::invalid_argument::~invalid_argument
FUNC 12aa8 30 0 std::invalid_argument::~invalid_argument
FUNC 12ad8 28 0 std::length_error::~length_error
FUNC 12b00 30 0 std::length_error::~length_error
FUNC 12b30 28 0 std::out_of_range::~out_of_range
FUNC 12b58 30 0 std::out_of_range::~out_of_range
FUNC 12b88 84 0 std::runtime_error::~runtime_error
FUNC 12c0c 1c 0 std::runtime_error::~runtime_error
FUNC 12c28 28 0 std::range_error::~range_error
FUNC 12c50 30 0 std::range_error::~range_error
FUNC 12c80 28 0 std::overflow_error::~overflow_error
FUNC 12ca8 30 0 std::overflow_error::~overflow_error
FUNC 12cd8 28 0 std::underflow_error::~underflow_error
FUNC 12d00 30 0 std::underflow_error::~underflow_error
FUNC 12d30 34 0 std::logic_error::logic_error
FUNC 12d64 28 0 std::domain_error::domain_error
FUNC 12d8c 28 0 std::invalid_argument::invalid_argument
FUNC 12db4 28 0 std::length_error::length_error
FUNC 12ddc 28 0 std::out_of_range::out_of_range
FUNC 12e04 34 0 std::runtime_error::runtime_error
FUNC 12e38 28 0 std::range_error::range_error
FUNC 12e60 28 0 std::overflow_error::overflow_error
FUNC 12e88 28 0 std::underflow_error::underflow_error
FUNC 12eb0 8 0 std::ios_base::failure::what
FUNC 12eb8 84 0 std::ios_base::failure::~failure
FUNC 12f3c 1c 0 std::ios_base::failure::~failure
FUNC 12f58 4c 0 std::ios_base::failure::failure
FUNC 12fa4 c 0 std::condition_variable::condition_variable
FUNC 12fb0 14 0 std::condition_variable::~condition_variable
FUNC 12fc4 18 0 std::condition_variable::wait
FUNC 12fdc 14 0 std::condition_variable::notify_one
FUNC 12ff0 14 0 std::condition_variable::notify_all
FUNC 13004 10 0 std::condition_variable_any::condition_variable_any
FUNC 13014 14 0 std::condition_variable_any::~condition_variable_any
FUNC 13028 28 0 std::regex_error::~regex_error
FUNC 13050 30 0 std::regex_error::~regex_error
FUNC 13080 c0 0 std::regex_error::regex_error
FUNC 13140 10 0 generic_error_category::name
FUNC 13150 10 0 system_error_category::name
FUNC 13160 18 0 std::error_category::~error_category
FUNC 13178 c 0 std::error_category::default_error_condition
FUNC 13184 60 0 std::error_category::equivalent
FUNC 131e4 28 0 std::error_category::equivalent
FUNC 1320c 18 0 system_error_category::~system_error_category
FUNC 13224 18 0 generic_error_category::~generic_error_category
FUNC 1323c 28 0 std::error_category::~error_category
FUNC 13264 28 0 system_error_category::~system_error_category
FUNC 1328c 28 0 generic_error_category::~generic_error_category
FUNC 132b4 28 0 std::system_error::~system_error
FUNC 132dc 30 0 std::system_error::~system_error
FUNC 1330c 30 0 system_error_category::message
FUNC 1333c 30 0 generic_error_category::message
FUNC 1336c 18 0 std::error_category::error_category
FUNC 13384 10 0 std::system_category
FUNC 13394 10 0 std::generic_category
FUNC 133a4 24 0 std::error_code::default_error_condition
FUNC 133c8 2c 0 __cxxabiv1::__cxa_current_exception_type
FUNC 133f4 18 0 selfrel_offset31
FUNC 1340c ac 0 search_EIT_table
FUNC 134b8 50 0 __gnu_unwind_get_pr_addr
FUNC 13508 10c 0 get_eit_entry
FUNC 13614 6c 0 restore_non_core_regs
FUNC 13680 14 0 _Unwind_decode_typeinfo_ptr
FUNC 13694 8 0 __gnu_unwind_24bit
FUNC 1369c 4 0 _Unwind_DebugHook
FUNC 136a0 64 0 unwind_phase2
FUNC 13704 124 0 unwind_phase2_forced
FUNC 13828 8 0 _Unwind_GetCFA
FUNC 13830 a4 0 __gnu_Unwind_RaiseException
FUNC 138d4 1c 0 __gnu_Unwind_ForcedUnwind
FUNC 138f0 74 0 __gnu_Unwind_Resume
FUNC 13964 20 0 __gnu_Unwind_Resume_or_Rethrow
FUNC 13984 4 0 _Unwind_Complete
FUNC 13988 20 0 _Unwind_DeleteException
FUNC 139a8 5c 0 _Unwind_VRS_Get
FUNC 13a04 28 0 _Unwind_GetGR
FUNC 13a2c 5c 0 _Unwind_VRS_Set
FUNC 13a88 2c 0 _Unwind_SetGR
FUNC 13ab4 c4 0 __gnu_Unwind_Backtrace
FUNC 13b78 3f0 0 __gnu_unwind_pr_common
FUNC 13f68 8 0 __aeabi_unwind_cpp_pr0
FUNC 13f70 8 0 __aeabi_unwind_cpp_pr1
FUNC 13f78 8 0 __aeabi_unwind_cpp_pr2
FUNC 13f80 34c 0 _Unwind_VRS_Pop
FUNC 14474 60 0 next_unwind_byte
FUNC 144d4 28 0 _Unwind_GetGR
FUNC 144fc 4 0 unwind_UCB_from_context
FUNC 14500 37c 0 __gnu_unwind_execute
FUNC 1487c 40 0 __gnu_unwind_frame
FUNC 148bc 10 0 _Unwind_GetRegionStart
FUNC 148cc 1c 0 _Unwind_GetLanguageSpecificData
FUNC 148e8 8 0 _Unwind_GetDataRelBase
FUNC 148f0 8 0 _Unwind_GetTextRelBase
PUBLIC 43b0 0 CAddonSoundPlay::Play()
PUBLIC 43d8 0 CAddonSoundPlay::Stop()
PUBLIC 4400 0 CAddonSoundPlay::IsPlaying()
PUBLIC 4430 0 CAddonSoundPlay::SetChannel(AE_DSP_CHANNEL)
PUBLIC 445c 0 CAddonSoundPlay::GetChannel()
PUBLIC 448c 0 CAddonSoundPlay::SetVolume(float)
PUBLIC 44b8 0 CAddonSoundPlay::GetVolume()
PUBLIC 44e8 0 CAddonSoundPlay::~CAddonSoundPlay()
PUBLIC 4584 0 CAddonSoundPlay::~CAddonSoundPlay()
PUBLIC 45a0 0 ADSP_register_me
PUBLIC 4624 0 ADSP_unregister_me
PUBLIC 4644 0 ADSP_add_menu_hook
PUBLIC 4664 0 ADSP_remove_menu_hook
PUBLIC 4684 0 ADSP_register_mode
PUBLIC 46a4 0 ADSP_unregister_mode
PUBLIC 46c4 0 ADSP_release_sound_play
PUBLIC 46e0 0 CAddonSoundPlay::CAddonSoundPlay(void*, void*, char const*)
PUBLIC 47cc 0 ADSP_get_sound_play
PUBLIC 5128 0 __cxa_get_exception_ptr
PUBLIC 5130 0 __cxa_begin_catch
PUBLIC 5210 0 __cxa_end_catch
PUBLIC 52e8 0 std::uncaught_exception()
PUBLIC 5300 0 operator new(unsigned int)
PUBLIC 5440 0 __cxa_call_unexpected
PUBLIC 5618 0 __cxa_get_globals_fast
PUBLIC 5660 0 __cxa_get_globals
PUBLIC 56f0 0 __cxxabiv1::__class_type_info::__do_upcast(__cxxabiv1::__class_type_info const*, void**) const
PUBLIC 574c 0 __cxxabiv1::__class_type_info::__do_find_public_src(int, void const*, __cxxabiv1::__class_type_info const*, void const*) const
PUBLIC 5760 0 __cxxabiv1::__class_type_info::~__class_type_info()
PUBLIC 5788 0 __cxxabiv1::__class_type_info::~__class_type_info()
PUBLIC 57a4 0 __cxxabiv1::__class_type_info::__do_upcast(__cxxabiv1::__class_type_info const*, void const*, __cxxabiv1::__class_type_info::__upcast_result&) const
PUBLIC 57d0 0 __cxxabiv1::__class_type_info::__do_catch(std::type_info const*, void**, unsigned int) const
PUBLIC 5814 0 __cxxabiv1::__class_type_info::__do_dyncast(int, __cxxabiv1::__class_type_info::__sub_kind, __cxxabiv1::__class_type_info const*, void const*, __cxxabiv1::__class_type_info const*, void const*, __cxxabiv1::__class_type_info::__dyncast_result&) const
PUBLIC 58ec 0 __cxa_throw
PUBLIC 59a4 0 __cxa_rethrow
PUBLIC 5a54 0 std::exception::~exception()
PUBLIC 5a6c 0 std::bad_exception::~bad_exception()
PUBLIC 5a94 0 __cxxabiv1::__forced_unwind::~__forced_unwind()
PUBLIC 5aac 0 __cxxabiv1::__foreign_exception::~__foreign_exception()
PUBLIC 5ac4 0 std::exception::what() const
PUBLIC 5ad4 0 std::bad_exception::what() const
PUBLIC 5ae4 0 std::exception::~exception()
PUBLIC 5b00 0 std::bad_exception::~bad_exception()
PUBLIC 5b1c 0 __cxxabiv1::__forced_unwind::~__forced_unwind()
PUBLIC 5b38 0 __cxxabiv1::__foreign_exception::~__foreign_exception()
PUBLIC 5b54 0 operator delete(void*)
PUBLIC 5b60 0 __cxa_end_cleanup
PUBLIC 5b70 0 __cxa_type_match
PUBLIC 5cb4 0 __cxa_begin_cleanup
PUBLIC 5d68 0 __gnu_end_cleanup
PUBLIC 5e1c 0 __cxxabiv1::__terminate(void (*)())
PUBLIC 5e50 0 std::terminate()
PUBLIC 5e68 0 __cxxabiv1::__unexpected(void (*)())
PUBLIC 5e74 0 std::unexpected()
PUBLIC 5e8c 0 std::set_terminate(void (*)())
PUBLIC 5ea8 0 std::set_unexpected(void (*)())
PUBLIC 600c 0 __cxa_allocate_exception
PUBLIC 60ec 0 __cxa_free_exception
PUBLIC 618c 0 __cxa_allocate_dependent_exception
PUBLIC 6268 0 __cxa_free_dependent_exception
PUBLIC 6320 0 std::set_new_handler(void (*)())
PUBLIC 633c 0 __cxa_pure_virtual
PUBLIC 635c 0 __cxa_deleted_virtual
PUBLIC 637c 0 std::bad_alloc::what() const
PUBLIC 638c 0 std::bad_alloc::~bad_alloc()
PUBLIC 63b4 0 std::bad_alloc::~bad_alloc()
PUBLIC 8d70 0 __cxxabiv1::__si_class_type_info::~__si_class_type_info()
PUBLIC 8d98 0 __cxxabiv1::__si_class_type_info::~__si_class_type_info()
PUBLIC 8db4 0 __cxxabiv1::__si_class_type_info::__do_find_public_src(int, void const*, __cxxabiv1::__class_type_info const*, void const*) const
PUBLIC 8e18 0 __cxxabiv1::__si_class_type_info::__do_dyncast(int, __cxxabiv1::__class_type_info::__sub_kind, __cxxabiv1::__class_type_info const*, void const*, __cxxabiv1::__class_type_info const*, void const*, __cxxabiv1::__class_type_info::__dyncast_result&) const
PUBLIC 8ef8 0 __cxxabiv1::__si_class_type_info::__do_upcast(__cxxabiv1::__class_type_info const*, void const*, __cxxabiv1::__class_type_info::__upcast_result&) const
PUBLIC 9bb8 0 __cxa_guard_acquire
PUBLIC 9c98 0 __cxa_guard_abort
PUBLIC 9cf0 0 __cxa_guard_release
PUBLIC 9d44 0 std::bad_typeid::what() const
PUBLIC 9d54 0 std::bad_typeid::~bad_typeid()
PUBLIC 9d7c 0 std::bad_typeid::~bad_typeid()
PUBLIC 9d98 0 __gnu_cxx::__verbose_terminate_handler()
PUBLIC 1240c 0 __cxa_demangle
PUBLIC 12558 0 __gcclibcxx_demangle_callback
PUBLIC 12584 0 std::__exception_ptr::exception_ptr::_M_safe_bool_dummy()
PUBLIC 125f0 0 std::__exception_ptr::exception_ptr::exception_ptr()
PUBLIC 125fc 0 std::__exception_ptr::exception_ptr::exception_ptr(void (std::__exception_ptr::exception_ptr::*)())
PUBLIC 12618 0 std::__exception_ptr::exception_ptr::_M_addref()
PUBLIC 12648 0 std::__exception_ptr::exception_ptr::exception_ptr(void*)
PUBLIC 12660 0 std::__exception_ptr::exception_ptr::exception_ptr(std::__exception_ptr::exception_ptr const&)
PUBLIC 1267c 0 std::__exception_ptr::exception_ptr::_M_release()
PUBLIC 126e0 0 std::__exception_ptr::exception_ptr::~exception_ptr()
PUBLIC 126f4 0 std::__exception_ptr::exception_ptr::_M_get() const
PUBLIC 126fc 0 std::__exception_ptr::exception_ptr::swap(std::__exception_ptr::exception_ptr&)
PUBLIC 12710 0 std::__exception_ptr::exception_ptr::operator=(std::__exception_ptr::exception_ptr const&)
PUBLIC 12748 0 std::__exception_ptr::exception_ptr::operator!() const
PUBLIC 12758 0 std::__exception_ptr::exception_ptr::operator void (std::__exception_ptr::exception_ptr::*)()() const
PUBLIC 1278c 0 std::__exception_ptr::exception_ptr::__cxa_exception_type() const
PUBLIC 12798 0 std::__exception_ptr::operator==(std::__exception_ptr::exception_ptr const&, std::__exception_ptr::exception_ptr const&)
PUBLIC 127b0 0 std::__exception_ptr::operator!=(std::__exception_ptr::exception_ptr const&, std::__exception_ptr::exception_ptr const&)
PUBLIC 127c4 0 std::current_exception()
PUBLIC 12864 0 std::rethrow_exception(std::__exception_ptr::exception_ptr)
PUBLIC 12924 0 std::bad_cast::what() const
PUBLIC 12934 0 std::bad_cast::~bad_cast()
PUBLIC 1295c 0 std::bad_cast::~bad_cast()
PUBLIC 133c8 0 __cxa_current_exception_type
PUBLIC 13828 0 _Unwind_GetCFA
PUBLIC 13830 0 __gnu_Unwind_RaiseException
PUBLIC 138d4 0 __gnu_Unwind_ForcedUnwind
PUBLIC 138f0 0 __gnu_Unwind_Resume
PUBLIC 13964 0 __gnu_Unwind_Resume_or_Rethrow
PUBLIC 13984 0 _Unwind_Complete
PUBLIC 13988 0 _Unwind_DeleteException
PUBLIC 139a8 0 _Unwind_VRS_Get
PUBLIC 13a2c 0 _Unwind_VRS_Set
PUBLIC 13ab4 0 __gnu_Unwind_Backtrace
PUBLIC 13f68 0 __aeabi_unwind_cpp_pr0
PUBLIC 13f70 0 __aeabi_unwind_cpp_pr1
PUBLIC 13f78 0 __aeabi_unwind_cpp_pr2
PUBLIC 13f80 0 _Unwind_VRS_Pop
PUBLIC 142cc 0 restore_core_regs
PUBLIC 142e0 0 __gnu_Unwind_Restore_VFP
PUBLIC 142e8 0 __gnu_Unwind_Save_VFP
PUBLIC 142f0 0 __gnu_Unwind_Restore_VFP_D
PUBLIC 142f8 0 __gnu_Unwind_Save_VFP_D
PUBLIC 14300 0 __gnu_Unwind_Restore_VFP_D_16_to_31
PUBLIC 14308 0 __gnu_Unwind_Save_VFP_D_16_to_31
PUBLIC 14310 0 __gnu_Unwind_Restore_WMMXD
PUBLIC 14354 0 __gnu_Unwind_Save_WMMXD
PUBLIC 14398 0 __gnu_Unwind_Restore_WMMXC
PUBLIC 143ac 0 __gnu_Unwind_Save_WMMXC
PUBLIC 143c0 0 _Unwind_RaiseException
PUBLIC 143e4 0 _Unwind_Resume
PUBLIC 14408 0 _Unwind_Resume_or_Rethrow
PUBLIC 1442c 0 ___Unwind_ForcedUnwind
PUBLIC 14450 0 ___Unwind_Backtrace
PUBLIC 14500 0 __gnu_unwind_execute
PUBLIC 1487c 0 __gnu_unwind_frame
PUBLIC 148bc 0 _Unwind_GetRegionStart
PUBLIC 148cc 0 _Unwind_GetLanguageSpecificData
PUBLIC 148e8 0 _Unwind_GetDataRelBase
PUBLIC 148f0 0 _Unwind_GetTextRelBase
STACK CFI INIT 43b0 28 .cfa: sp 0 + .ra: lr
STACK CFI 43b8 .cfa: sp 8 + .ra: .cfa -4 + ^ r3: .cfa -8 + ^
STACK CFI INIT 43d8 28 .cfa: sp 0 + .ra: lr
STACK CFI 43e0 .cfa: sp 8 + .ra: .cfa -4 + ^ r3: .cfa -8 + ^
STACK CFI INIT 4400 30 .cfa: sp 0 + .ra: lr
STACK CFI 4408 .cfa: sp 8 + .ra: .cfa -4 + ^ r3: .cfa -8 + ^
STACK CFI INIT 4430 2c .cfa: sp 0 + .ra: lr
STACK CFI 443c .cfa: sp 8 + .ra: .cfa -4 + ^ r3: .cfa -8 + ^
STACK CFI INIT 445c 30 .cfa: sp 0 + .ra: lr
STACK CFI 4464 .cfa: sp 8 + .ra: .cfa -4 + ^ r3: .cfa -8 + ^
STACK CFI INIT 448c 2c .cfa: sp 0 + .ra: lr
STACK CFI 4498 .cfa: sp 8 + .ra: .cfa -4 + ^ r3: .cfa -8 + ^
STACK CFI INIT 44b8 30 .cfa: sp 0 + .ra: lr
STACK CFI 44c0 .cfa: sp 8 + .ra: .cfa -4 + ^ r3: .cfa -8 + ^
STACK CFI INIT 44e8 9c .cfa: sp 0 + .ra: lr
STACK CFI 44f4 .cfa: sp 8 + .ra: .cfa -4 + ^ r4: .cfa -8 + ^
STACK CFI 4500 .cfa: sp 16 +
STACK CFI INIT 4584 1c .cfa: sp 0 + .ra: lr
STACK CFI 4588 .cfa: sp 8 + .ra: .cfa -4 + ^ r4: .cfa -8 + ^
STACK CFI INIT 45a0 84 .cfa: sp 0 + .ra: lr
STACK CFI 45a8 .cfa: sp 8 + .ra: .cfa -4 + ^ r4: .cfa -8 + ^
STACK CFI INIT 4624 20 .cfa: sp 0 + .ra: lr
STACK CFI 4630 .cfa: sp 8 + .ra: .cfa -4 + ^ r3: .cfa -8 + ^
STACK CFI INIT 4644 20 .cfa: sp 0 + .ra: lr
STACK CFI 464c .cfa: sp 8 + .ra: .cfa -4 + ^ r3: .cfa -8 + ^
STACK CFI INIT 4664 20 .cfa: sp 0 + .ra: lr
STACK CFI 466c .cfa: sp 8 + .ra: .cfa -4 + ^ r3: .cfa -8 + ^
STACK CFI INIT 4684 20 .cfa: sp 0 + .ra: lr
STACK CFI 468c .cfa: sp 8 + .ra: .cfa -4 + ^ r3: .cfa -8 + ^
STACK CFI INIT 46a4 20 .cfa: sp 0 + .ra: lr
STACK CFI 46ac .cfa: sp 8 + .ra: .cfa -4 + ^ r3: .cfa -8 + ^
STACK CFI INIT 46c4 1c .cfa: sp 0 + .ra: lr
STACK CFI 46c8 .cfa: sp 8 + .ra: .cfa -4 + ^ r3: .cfa -8 + ^
STACK CFI INIT 46e0 ec .cfa: sp 0 + .ra: lr
STACK CFI 46e4 .cfa: sp 24 + .ra: .cfa -4 + ^ r4: .cfa -24 + ^ r5: .cfa -20 + ^ r6: .cfa -16 + ^ r7: .cfa -12 + ^ r8: .cfa -8 + ^
STACK CFI 46f4 .cfa: sp 32 +
STACK CFI INIT 47cc 40 .cfa: sp 0 + .ra: lr
STACK CFI 47d0 .cfa: sp 24 + .ra: .cfa -4 + ^ r3: .cfa -24 + ^ r4: .cfa -20 + ^ r5: .cfa -16 + ^ r6: .cfa -12 + ^ r7: .cfa -8 + ^
STACK CFI INIT 480c 44 .cfa: sp 0 + .ra: lr
STACK CFI 4818 .cfa: sp 4 + r4: .cfa -4 + ^
STACK CFI INIT 4850 11c .cfa: sp 0 + .ra: lr
STACK CFI 4858 .cfa: sp 24 + .ra: .cfa -4 + ^ r4: .cfa -24 + ^ r5: .cfa -20 + ^ r6: .cfa -16 + ^ r7: .cfa -12 + ^ r8: .cfa -8 + ^
STACK CFI 4860 .cfa: sp 40 +
STACK CFI INIT 496c 74 .cfa: sp 0 + .ra: lr
STACK CFI 4974 .cfa: sp 8 + .ra: .cfa -4 + ^ r3: .cfa -8 + ^
STACK CFI INIT 49e0 e0 .cfa: sp 0 + .ra: lr
STACK CFI 49e4 .cfa: sp 24 + .ra: .cfa -4 + ^ r3: .cfa -24 + ^ r4: .cfa -20 + ^ r5: .cfa -16 + ^ r6: .cfa -12 + ^ r7: .cfa -8 + ^
STACK CFI INIT 4ac0 668 .cfa: sp 0 + .ra: lr
STACK CFI 4ac8 .cfa: sp 36 + .ra: .cfa -4 + ^ r10: .cfa -12 + ^ r11: .cfa -8 + ^ r4: .cfa -36 + ^ r5: .cfa -32 + ^ r6: .cfa -28 + ^ r7: .cfa -24 + ^ r8: .cfa -20 + ^ r9: .cfa -16 + ^
STACK CFI 4ad0 .cfa: sp 128 +
STACK CFI INIT 5128 8 .cfa: sp 0 + .ra: lr
STACK CFI INIT 5130 e0 .cfa: sp 0 + .ra: lr
STACK CFI 5134 .cfa: sp 8 + .ra: .cfa -4 + ^ r4: .cfa -8 + ^
STACK CFI INIT 5210 d8 .cfa: sp 0 + .ra: lr
STACK CFI 5214 .cfa: sp 8 + .ra: .cfa -4 + ^ r3: .cfa -8 + ^
STACK CFI INIT 52e8 18 .cfa: sp 0 + .ra: lr
STACK CFI 52ec .cfa: sp 8 + .ra: .cfa -4 + ^ r3: .cfa -8 + ^
STACK CFI INIT 5300 a4 .cfa: sp 0 + .ra: lr
STACK CFI 5308 .cfa: sp 16 + .ra: .cfa -4 + ^ r4: .cfa -16 + ^ r5: .cfa -12 + ^ r6: .cfa -8 + ^
STACK CFI INIT 53a4 70 .cfa: sp 0 + .ra: lr
STACK CFI INIT 5414 2c .cfa: sp 0 + .ra: lr
STACK CFI 5418 .cfa: sp 8 + .ra: .cfa -4 + ^ r4: .cfa -8 + ^
STACK CFI INIT 5440 168 .cfa: sp 0 + .ra: lr
STACK CFI 5444 .cfa: sp 36 + .ra: .cfa -4 + ^ r10: .cfa -12 + ^ r11: .cfa -8 + ^ r4: .cfa -36 + ^ r5: .cfa -32 + ^ r6: .cfa -28 + ^ r7: .cfa -24 + ^ r8: .cfa -20 + ^ r9: .cfa -16 + ^
STACK CFI 5448 .cfa: sp 64 +
STACK CFI INIT 55a8 34 .cfa: sp 0 + .ra: lr
STACK CFI 55ac .cfa: sp 8 + .ra: .cfa -4 + ^ r4: .cfa -8 + ^
STACK CFI INIT 55dc 3c .cfa: sp 0 + .ra: lr
STACK CFI 55e0 .cfa: sp 16 + .ra: .cfa -4 + ^ r3: .cfa -16 + ^ r4: .cfa -12 + ^ r5: .cfa -8 + ^
STACK CFI INIT 5618 48 .cfa: sp 0 + .ra: lr
STACK CFI 561c .cfa: sp 8 + .ra: .cfa -4 + ^ r3: .cfa -8 + ^
STACK CFI INIT 5660 90 .cfa: sp 0 + .ra: lr
STACK CFI 5668 .cfa: sp 8 + .ra: .cfa -4 + ^ r4: .cfa -8 + ^
STACK CFI INIT 4284 5c .cfa: sp 0 + .ra: lr
STACK CFI 4288 .cfa: sp 8 + .ra: .cfa -4 + ^ r4: .cfa -8 + ^
STACK CFI INIT 56f0 5c .cfa: sp 0 + .ra: lr
STACK CFI 56f8 .cfa: sp 12 + .ra: .cfa -4 + ^ r4: .cfa -12 + ^ r5: .cfa -8 + ^
STACK CFI 56fc .cfa: sp 32 +
STACK CFI INIT 574c 14 .cfa: sp 0 + .ra: lr
STACK CFI INIT 5760 28 .cfa: sp 0 + .ra: lr
STACK CFI 5768 .cfa: sp 8 + .ra: .cfa -4 + ^ r4: .cfa -8 + ^
STACK CFI INIT 5788 1c .cfa: sp 0 + .ra: lr
STACK CFI 578c .cfa: sp 8 + .ra: .cfa -4 + ^ r4: .cfa -8 + ^
STACK CFI INIT 57a4 2c .cfa: sp 0 + .ra: lr
STACK CFI 57a8 .cfa: sp 16 + .ra: .cfa -4 + ^ r3: .cfa -16 + ^ r4: .cfa -12 + ^ r5: .cfa -8 + ^
STACK CFI INIT 57d0 44 .cfa: sp 0 + .ra: lr
STACK CFI 57d4 .cfa: sp 24 + .ra: .cfa -4 + ^ r3: .cfa -24 + ^ r4: .cfa -20 + ^ r5: .cfa -16 + ^ r6: .cfa -12 + ^ r7: .cfa -8 + ^
STACK CFI INIT 5814 78 .cfa: sp 0 + .ra: lr
STACK CFI 5818 .cfa: sp 16 + .ra: .cfa -4 + ^ r4: .cfa -16 + ^ r5: .cfa -12 + ^ r6: .cfa -8 + ^
STACK CFI 581c .cfa: sp 24 +
STACK CFI INIT 588c 60 .cfa: sp 0 + .ra: lr
STACK CFI 5894 .cfa: sp 8 + .ra: .cfa -4 + ^ r4: .cfa -8 + ^
STACK CFI INIT 58ec b8 .cfa: sp 0 + .ra: lr
STACK CFI 58f0 .cfa: sp 32 + .ra: .cfa -4 + ^ r3: .cfa -32 + ^ r4: .cfa -28 + ^ r5: .cfa -24 + ^ r6: .cfa -20 + ^ r7: .cfa -16 + ^ r8: .cfa -12 + ^ r9: .cfa -8 + ^
STACK CFI INIT 59a4 b0 .cfa: sp 0 + .ra: lr
STACK CFI 59a8 .cfa: sp 8 + .ra: .cfa -4 + ^ r4: .cfa -8 + ^
STACK CFI INIT 5a54 18 .cfa: sp 0 + .ra: lr
STACK CFI INIT 5a6c 28 .cfa: sp 0 + .ra: lr
STACK CFI 5a74 .cfa: sp 8 + .ra: .cfa -4 + ^ r4: .cfa -8 + ^
STACK CFI INIT 5a94 18 .cfa: sp 0 + .ra: lr
STACK CFI INIT 5aac 18 .cfa: sp 0 + .ra: lr
STACK CFI INIT 5ac4 10 .cfa: sp 0 + .ra: lr
STACK CFI INIT 5ad4 10 .cfa: sp 0 + .ra: lr
STACK CFI INIT 5ae4 1c .cfa: sp 0 + .ra: lr
STACK CFI 5ae8 .cfa: sp 8 + .ra: .cfa -4 + ^ r4: .cfa -8 + ^
STACK CFI INIT 5b00 1c .cfa: sp 0 + .ra: lr
STACK CFI 5b04 .cfa: sp 8 + .ra: .cfa -4 + ^ r4: .cfa -8 + ^
STACK CFI INIT 5b1c 1c .cfa: sp 0 + .ra: lr
STACK CFI 5b20 .cfa: sp 8 + .ra: .cfa -4 + ^ r4: .cfa -8 + ^
STACK CFI INIT 5b38 1c .cfa: sp 0 + .ra: lr
STACK CFI 5b3c .cfa: sp 8 + .ra: .cfa -4 + ^ r4: .cfa -8 + ^
STACK CFI INIT 5b54 c .cfa: sp 0 + .ra: lr
STACK CFI INIT 5b70 144 .cfa: sp 0 + .ra: lr
STACK CFI 5b74 .cfa: sp 20 + .ra: .cfa -4 + ^ r4: .cfa -20 + ^ r5: .cfa -16 + ^ r6: .cfa -12 + ^ r7: .cfa -8 + ^
STACK CFI 5b80 .cfa: sp 32 +
STACK CFI INIT 5cb4 b4 .cfa: sp 0 + .ra: lr
STACK CFI 5cb8 .cfa: sp 8 + .ra: .cfa -4 + ^ r4: .cfa -8 + ^
STACK CFI INIT 5d68 b4 .cfa: sp 0 + .ra: lr
STACK CFI 5d6c .cfa: sp 8 + .ra: .cfa -4 + ^ r3: .cfa -8 + ^
STACK CFI INIT 5e1c 34 .cfa: sp 0 + .ra: lr
STACK CFI 5e20 .cfa: sp 8 + .ra: .cfa -4 + ^ r3: .cfa -8 + ^
STACK CFI INIT 5e50 18 .cfa: sp 0 + .ra: lr
STACK CFI 5e54 .cfa: sp 8 + .ra: .cfa -4 + ^ r3: .cfa -8 + ^
STACK CFI INIT 5e68 c .cfa: sp 0 + .ra: lr
STACK CFI 5e6c .cfa: sp 8 + .ra: .cfa -4 + ^ r3: .cfa -8 + ^
STACK CFI INIT 5e74 18 .cfa: sp 0 + .ra: lr
STACK CFI 5e78 .cfa: sp 8 + .ra: .cfa -4 + ^ r3: .cfa -8 + ^
STACK CFI INIT 5e8c 1c .cfa: sp 0 + .ra: lr
STACK CFI INIT 5ea8 1c .cfa: sp 0 + .ra: lr
STACK CFI INIT 5ec4 10 .cfa: sp 0 + .ra: lr
STACK CFI INIT 5ed4 10 .cfa: sp 0 + .ra: lr
STACK CFI INIT 5ee4 28 .cfa: sp 0 + .ra: lr
STACK CFI 5eec .cfa: sp 8 + .ra: .cfa -4 + ^ r4: .cfa -8 + ^
STACK CFI INIT 5f0c 28 .cfa: sp 0 + .ra: lr
STACK CFI 5f14 .cfa: sp 8 + .ra: .cfa -4 + ^ r4: .cfa -8 + ^
STACK CFI INIT 5f34 30 .cfa: sp 0 + .ra: lr
STACK CFI 5f3c .cfa: sp 8 + .ra: .cfa -4 + ^ r4: .cfa -8 + ^
STACK CFI INIT 5f64 30 .cfa: sp 0 + .ra: lr
STACK CFI 5f6c .cfa: sp 8 + .ra: .cfa -4 + ^ r4: .cfa -8 + ^
STACK CFI INIT 5f94 3c .cfa: sp 0 + .ra: lr
STACK CFI 5f98 .cfa: sp 8 + .ra: .cfa -4 + ^ r3: .cfa -8 + ^
STACK CFI INIT 5fd0 3c .cfa: sp 0 + .ra: lr
STACK CFI 5fd4 .cfa: sp 8 + .ra: .cfa -4 + ^ r3: .cfa -8 + ^
STACK CFI INIT 600c e0 .cfa: sp 0 + .ra: lr
STACK CFI 6010 .cfa: sp 16 + .ra: .cfa -4 + ^ r3: .cfa -16 + ^ r4: .cfa -12 + ^ r5: .cfa -8 + ^
STACK CFI INIT 60ec a0 .cfa: sp 0 + .ra: lr
STACK CFI 60f4 .cfa: sp 8 + .ra: .cfa -4 + ^ r4: .cfa -8 + ^
STACK CFI INIT 618c dc .cfa: sp 0 + .ra: lr
STACK CFI 6190 .cfa: sp 8 + .ra: .cfa -4 + ^ r4: .cfa -8 + ^
STACK CFI INIT 6268 a8 .cfa: sp 0 + .ra: lr
STACK CFI 6270 .cfa: sp 8 + .ra: .cfa -4 + ^ r4: .cfa -8 + ^
STACK CFI INIT 42e0 18 .cfa: sp 0 + .ra: lr
STACK CFI INIT 6310 10 .cfa: sp 0 + .ra: lr
STACK CFI INIT 6320 1c .cfa: sp 0 + .ra: lr
STACK CFI INIT 633c 20 .cfa: sp 0 + .ra: lr
STACK CFI 6348 .cfa: sp 8 + .ra: .cfa -4 + ^ r3: .cfa -8 + ^
STACK CFI INIT 635c 20 .cfa: sp 0 + .ra: lr
STACK CFI 6368 .cfa: sp 8 + .ra: .cfa -4 + ^ r3: .cfa -8 + ^
STACK CFI INIT 637c 10 .cfa: sp 0 + .ra: lr
STACK CFI INIT 638c 28 .cfa: sp 0 + .ra: lr
STACK CFI 6394 .cfa: sp 8 + .ra: .cfa -4 + ^ r4: .cfa -8 + ^
STACK CFI INIT 63b4 1c .cfa: sp 0 + .ra: lr
STACK CFI 63b8 .cfa: sp 8 + .ra: .cfa -4 + ^ r4: .cfa -8 + ^
STACK CFI INIT 63d0 8 .cfa: sp 0 + .ra: lr
STACK CFI INIT 63d8 c .cfa: sp 0 + .ra: lr
STACK CFI INIT 63e4 8 .cfa: sp 0 + .ra: lr
STACK CFI INIT 63ec c .cfa: sp 0 + .ra: lr
STACK CFI INIT 63f8 c .cfa: sp 0 + .ra: lr
STACK CFI INIT 6404 8 .cfa: sp 0 + .ra: lr
STACK CFI INIT 640c 10 .cfa: sp 0 + .ra: lr
STACK CFI INIT 641c 24 .cfa: sp 0 + .ra: lr
STACK CFI 6420 .cfa: sp 8 + .ra: .cfa -4 + ^ r3: .cfa -8 + ^
STACK CFI INIT 6440 2c .cfa: sp 0 + .ra: lr
STACK CFI 6444 .cfa: sp 8 + .ra: .cfa -4 + ^ r4: .cfa -8 + ^
STACK CFI INIT 646c 18 .cfa: sp 0 + .ra: lr
STACK CFI INIT 6484 2c .cfa: sp 0 + .ra: lr
STACK CFI INIT 64b0 18 .cfa: sp 0 + .ra: lr
STACK CFI INIT 64c8 18 .cfa: sp 0 + .ra: lr
STACK CFI INIT 64e0 1c .cfa: sp 0 + .ra: lr
STACK CFI INIT 64fc 1c .cfa: sp 0 + .ra: lr
STACK CFI INIT 6518 1c .cfa: sp 0 + .ra: lr
STACK CFI INIT 6534 1c .cfa: sp 0 + .ra: lr
STACK CFI INIT 6550 1c .cfa: sp 0 + .ra: lr
STACK CFI INIT 656c 8 .cfa: sp 0 + .ra: lr
STACK CFI INIT 6574 10 .cfa: sp 0 + .ra: lr
STACK CFI INIT 6584 18 .cfa: sp 0 + .ra: lr
STACK CFI INIT 659c 20 .cfa: sp 0 + .ra: lr
STACK CFI INIT 65bc 8 .cfa: sp 0 + .ra: lr
STACK CFI INIT 65c4 10 .cfa: sp 0 + .ra: lr
STACK CFI INIT 65d4 14 .cfa: sp 0 + .ra: lr
STACK CFI INIT 65e8 c .cfa: sp 0 + .ra: lr
STACK CFI INIT 65f4 8 .cfa: sp 0 + .ra: lr
STACK CFI INIT 65fc 10 .cfa: sp 0 + .ra: lr
STACK CFI INIT 660c 14 .cfa: sp 0 + .ra: lr
STACK CFI INIT 6620 c .cfa: sp 0 + .ra: lr
STACK CFI INIT 662c c .cfa: sp 0 + .ra: lr
STACK CFI INIT 6638 8 .cfa: sp 0 + .ra: lr
STACK CFI INIT 6640 c .cfa: sp 0 + .ra: lr
STACK CFI INIT 664c 14 .cfa: sp 0 + .ra: lr
STACK CFI INIT 6660 c .cfa: sp 0 + .ra: lr
STACK CFI INIT 666c 2c .cfa: sp 0 + .ra: lr
STACK CFI 6674 .cfa: sp 8 + .ra: .cfa -4 + ^ r3: .cfa -8 + ^
STACK CFI INIT 6698 8 .cfa: sp 0 + .ra: lr
STACK CFI INIT 66a0 14 .cfa: sp 0 + .ra: lr
STACK CFI INIT 66b4 6c .cfa: sp 0 + .ra: lr
STACK CFI 66b8 .cfa: sp 16 + .ra: .cfa -4 + ^ r3: .cfa -16 + ^ r4: .cfa -12 + ^ r5: .cfa -8 + ^
STACK CFI INIT 6720 34 .cfa: sp 0 + .ra: lr
STACK CFI INIT 6754 14 .cfa: sp 0 + .ra: lr
STACK CFI 6758 .cfa: sp 8 + .ra: .cfa -4 + ^ r4: .cfa -8 + ^
STACK CFI INIT 6768 14 .cfa: sp 0 + .ra: lr
STACK CFI 676c .cfa: sp 8 + .ra: .cfa -4 + ^ r4: .cfa -8 + ^
STACK CFI INIT 677c 8 .cfa: sp 0 + .ra: lr
STACK CFI INIT 6784 4 .cfa: sp 0 + .ra: lr
STACK CFI INIT 6788 9c .cfa: sp 0 + .ra: lr
STACK CFI 678c .cfa: sp 40 + .ra: .cfa -4 + ^ r10: .cfa -12 + ^ r11: .cfa -8 + ^ r3: .cfa -40 + ^ r4: .cfa -36 + ^ r5: .cfa -32 + ^ r6: .cfa -28 + ^ r7: .cfa -24 + ^ r8: .cfa -20 + ^ r9: .cfa -16 + ^
STACK CFI INIT 6824 c .cfa: sp 0 + .ra: lr
STACK CFI INIT 6830 30 .cfa: sp 0 + .ra: lr
STACK CFI 6834 .cfa: sp 16 + .ra: .cfa -4 + ^ r4: .cfa -16 + ^ r5: .cfa -12 + ^ r6: .cfa -8 + ^
STACK CFI INIT 6860 3c .cfa: sp 0 + .ra: lr
STACK CFI 6864 .cfa: sp 8 + .ra: .cfa -4 + ^ r4: .cfa -8 + ^
STACK CFI INIT 689c 64 .cfa: sp 0 + .ra: lr
STACK CFI 68a0 .cfa: sp 24 + .ra: .cfa -4 + ^ r3: .cfa -24 + ^ r4: .cfa -20 + ^ r5: .cfa -16 + ^ r6: .cfa -12 + ^ r7: .cfa -8 + ^
STACK CFI INIT 6900 c .cfa: sp 0 + .ra: lr
STACK CFI INIT 690c 30 .cfa: sp 0 + .ra: lr
STACK CFI 6910 .cfa: sp 16 + .ra: .cfa -4 + ^ r4: .cfa -16 + ^ r5: .cfa -12 + ^ r6: .cfa -8 + ^
STACK CFI INIT 693c 44 .cfa: sp 0 + .ra: lr
STACK CFI INIT 6980 58 .cfa: sp 0 + .ra: lr
STACK CFI 6984 .cfa: sp 24 + .ra: .cfa -4 + ^ r4: .cfa -24 + ^ r5: .cfa -20 + ^ r6: .cfa -16 + ^ r7: .cfa -12 + ^ r8: .cfa -8 + ^
STACK CFI INIT 69d8 c .cfa: sp 0 + .ra: lr
STACK CFI INIT 69e4 30 .cfa: sp 0 + .ra: lr
STACK CFI 69e8 .cfa: sp 16 + .ra: .cfa -4 + ^ r4: .cfa -16 + ^ r5: .cfa -12 + ^ r6: .cfa -8 + ^
STACK CFI INIT 6a14 4 .cfa: sp 0 + .ra: lr
STACK CFI INIT 6a18 68 .cfa: sp 0 + .ra: lr
STACK CFI 6a1c .cfa: sp 24 + .ra: .cfa -4 + ^ r3: .cfa -24 + ^ r4: .cfa -20 + ^ r5: .cfa -16 + ^ r6: .cfa -12 + ^ r7: .cfa -8 + ^
STACK CFI INIT 6a80 c .cfa: sp 0 + .ra: lr
STACK CFI INIT 6a8c 30 .cfa: sp 0 + .ra: lr
STACK CFI 6a90 .cfa: sp 16 + .ra: .cfa -4 + ^ r4: .cfa -16 + ^ r5: .cfa -12 + ^ r6: .cfa -8 + ^
STACK CFI INIT 6abc 4 .cfa: sp 0 + .ra: lr
STACK CFI INIT 6ac0 58 .cfa: sp 0 + .ra: lr
STACK CFI 6ac4 .cfa: sp 24 + .ra: .cfa -4 + ^ r4: .cfa -24 + ^ r5: .cfa -20 + ^ r6: .cfa -16 + ^ r7: .cfa -12 + ^ r8: .cfa -8 + ^
STACK CFI INIT 6b18 c .cfa: sp 0 + .ra: lr
STACK CFI INIT 6b24 30 .cfa: sp 0 + .ra: lr
STACK CFI 6b28 .cfa: sp 16 + .ra: .cfa -4 + ^ r4: .cfa -16 + ^ r5: .cfa -12 + ^ r6: .cfa -8 + ^
STACK CFI INIT 6b54 4c .cfa: sp 0 + .ra: lr
STACK CFI INIT 6ba0 64 .cfa: sp 0 + .ra: lr
STACK CFI 6ba4 .cfa: sp 24 + .ra: .cfa -4 + ^ r3: .cfa -24 + ^ r4: .cfa -20 + ^ r5: .cfa -16 + ^ r6: .cfa -12 + ^ r7: .cfa -8 + ^
STACK CFI INIT 6c04 c .cfa: sp 0 + .ra: lr
STACK CFI INIT 6c10 30 .cfa: sp 0 + .ra: lr
STACK CFI 6c14 .cfa: sp 16 + .ra: .cfa -4 + ^ r4: .cfa -16 + ^ r5: .cfa -12 + ^ r6: .cfa -8 + ^
STACK CFI INIT 6c40 44 .cfa: sp 0 + .ra: lr
STACK CFI INIT 6c84 30 .cfa: sp 0 + .ra: lr
STACK CFI 6c90 .cfa: sp 16 + .ra: .cfa -4 + ^ r3: .cfa -16 + ^ r4: .cfa -12 + ^ r5: .cfa -8 + ^
STACK CFI INIT 6cb4 60 .cfa: sp 0 + .ra: lr
STACK CFI 6cbc .cfa: sp 16 + .ra: .cfa -4 + ^ r3: .cfa -16 + ^ r4: .cfa -12 + ^ r5: .cfa -8 + ^
STACK CFI INIT 6d14 7c .cfa: sp 0 + .ra: lr
STACK CFI 6d1c .cfa: sp 16 + .ra: .cfa -4 + ^ r3: .cfa -16 + ^ r4: .cfa -12 + ^ r5: .cfa -8 + ^
STACK CFI INIT 6d90 40 .cfa: sp 0 + .ra: lr
STACK CFI 6d94 .cfa: sp 16 + .ra: .cfa -4 + ^ r4: .cfa -16 + ^ r5: .cfa -12 + ^ r6: .cfa -8 + ^
STACK CFI INIT 6dd0 6c .cfa: sp 0 + .ra: lr
STACK CFI 6dd4 .cfa: sp 24 + .ra: .cfa -4 + ^ r4: .cfa -24 + ^ r5: .cfa -20 + ^ r6: .cfa -16 + ^ r7: .cfa -12 + ^ r8: .cfa -8 + ^
STACK CFI INIT 6e3c 5c .cfa: sp 0 + .ra: lr
STACK CFI 6e44 .cfa: sp 16 + .ra: .cfa -4 + ^ r3: .cfa -16 + ^ r4: .cfa -12 + ^ r5: .cfa -8 + ^
STACK CFI INIT 6e98 8 .cfa: sp 0 + .ra: lr
STACK CFI INIT 6ea0 10 .cfa: sp 0 + .ra: lr
STACK CFI INIT 6eb0 c .cfa: sp 0 + .ra: lr
STACK CFI INIT 6ebc 14 .cfa: sp 0 + .ra: lr
STACK CFI INIT 6ed0 c .cfa: sp 0 + .ra: lr
STACK CFI INIT 6edc c .cfa: sp 0 + .ra: lr
STACK CFI INIT 6ee8 28 .cfa: sp 0 + .ra: lr
STACK CFI INIT 6f10 8 .cfa: sp 0 + .ra: lr
STACK CFI INIT 6f18 84 .cfa: sp 0 + .ra: lr
STACK CFI 6f20 .cfa: sp 8 + .ra: .cfa -4 + ^ r4: .cfa -8 + ^
STACK CFI INIT 6f9c 84 .cfa: sp 0 + .ra: lr
STACK CFI 6fa0 .cfa: sp 16 + .ra: .cfa -4 + ^ r4: .cfa -16 + ^ r5: .cfa -12 + ^ r6: .cfa -8 + ^
STACK CFI INIT 7020 24 .cfa: sp 0 + .ra: lr
STACK CFI 7024 .cfa: sp 8 + .ra: .cfa -4 + ^ r4: .cfa -8 + ^
STACK CFI INIT 7044 24 .cfa: sp 0 + .ra: lr
STACK CFI 7048 .cfa: sp 8 + .ra: .cfa -4 + ^ r4: .cfa -8 + ^
STACK CFI INIT 7068 4 .cfa: sp 0 + .ra: lr
STACK CFI INIT 706c 4 .cfa: sp 0 + .ra: lr
STACK CFI INIT 4238 3c .cfa: sp 0 + .ra: lr
STACK CFI 423c .cfa: sp 4 + r4: .cfa -4 + ^
STACK CFI INIT 7070 18 .cfa: sp 0 + .ra: lr
STACK CFI INIT 7088 40 .cfa: sp 0 + .ra: lr
STACK CFI 708c .cfa: sp 8 + .ra: .cfa -4 + ^ r4: .cfa -8 + ^
STACK CFI 7098 .cfa: sp 16 +
STACK CFI INIT 70c8 164 .cfa: sp 0 + .ra: lr
STACK CFI 70d0 .cfa: sp 36 + .ra: .cfa -4 + ^ r10: .cfa -12 + ^ r11: .cfa -8 + ^ r4: .cfa -36 + ^ r5: .cfa -32 + ^ r6: .cfa -28 + ^ r7: .cfa -24 + ^ r8: .cfa -20 + ^ r9: .cfa -16 + ^
STACK CFI 70f4 .cfa: sp 48 +
STACK CFI INIT 722c 50 .cfa: sp 0 + .ra: lr
STACK CFI 7244 .cfa: sp 8 + .ra: .cfa -4 + ^ r4: .cfa -8 + ^
STACK CFI INIT 727c 14 .cfa: sp 0 + .ra: lr
STACK CFI INIT 7290 28 .cfa: sp 0 + .ra: lr
STACK CFI 7298 .cfa: sp 8 + .ra: .cfa -4 + ^ r4: .cfa -8 + ^
STACK CFI INIT 72b8 34 .cfa: sp 0 + .ra: lr
STACK CFI 72bc .cfa: sp 16 + .ra: .cfa -4 + ^ r3: .cfa -16 + ^ r4: .cfa -12 + ^ r5: .cfa -8 + ^
STACK CFI INIT 72ec 2c .cfa: sp 0 + .ra: lr
STACK CFI 72f4 .cfa: sp 8 + .ra: .cfa -4 + ^ r4: .cfa -8 + ^
STACK CFI INIT 7318 2c .cfa: sp 0 + .ra: lr
STACK CFI 731c .cfa: sp 16 + .ra: .cfa -4 + ^ r3: .cfa -16 + ^ r4: .cfa -12 + ^ r5: .cfa -8 + ^
STACK CFI INIT 7344 28 .cfa: sp 0 + .ra: lr
STACK CFI 734c .cfa: sp 8 + .ra: .cfa -4 + ^ r4: .cfa -8 + ^
STACK CFI INIT 736c 30 .cfa: sp 0 + .ra: lr
STACK CFI 7370 .cfa: sp 16 + .ra: .cfa -4 + ^ r3: .cfa -16 + ^ r4: .cfa -12 + ^ r5: .cfa -8 + ^
STACK CFI INIT 739c 48 .cfa: sp 0 + .ra: lr
STACK CFI 73a0 .cfa: sp 16 + .ra: .cfa -4 + ^ r3: .cfa -16 + ^ r4: .cfa -12 + ^ r5: .cfa -8 + ^
STACK CFI INIT 73e4 3c .cfa: sp 0 + .ra: lr
STACK CFI 73e8 .cfa: sp 16 + .ra: .cfa -4 + ^ r3: .cfa -16 + ^ r4: .cfa -12 + ^ r5: .cfa -8 + ^
STACK CFI INIT 7420 14 .cfa: sp 0 + .ra: lr
STACK CFI INIT 7434 44 .cfa: sp 0 + .ra: lr
STACK CFI 743c .cfa: sp 8 + .ra: .cfa -4 + ^ r4: .cfa -8 + ^
STACK CFI INIT 7478 34 .cfa: sp 0 + .ra: lr
STACK CFI 747c .cfa: sp 16 + .ra: .cfa -4 + ^ r3: .cfa -16 + ^ r4: .cfa -12 + ^ r5: .cfa -8 + ^
STACK CFI INIT 74ac 40 .cfa: sp 0 + .ra: lr
STACK CFI 74b4 .cfa: sp 16 + .ra: .cfa -4 + ^ r3: .cfa -16 + ^ r4: .cfa -12 + ^ r5: .cfa -8 + ^
STACK CFI INIT 74ec 78 .cfa: sp 0 + .ra: lr
STACK CFI 74f0 .cfa: sp 24 + .ra: .cfa -4 + ^ r3: .cfa -24 + ^ r4: .cfa -20 + ^ r5: .cfa -16 + ^ r6: .cfa -12 + ^ r7: .cfa -8 + ^
STACK CFI INIT 7564 2c .cfa: sp 0 + .ra: lr
STACK CFI 7570 .cfa: sp 4 + .ra: .cfa -4 + ^
STACK CFI 7574 .cfa: sp 16 +
STACK CFI INIT 7590 30 .cfa: sp 0 + .ra: lr
STACK CFI 759c .cfa: sp 8 + .ra: .cfa -4 + ^ r4: .cfa -8 + ^
STACK CFI 75a0 .cfa: sp 16 +
STACK CFI INIT 75c0 40 .cfa: sp 0 + .ra: lr
STACK CFI 75c8 .cfa: sp 4 + .ra: .cfa -4 + ^
STACK CFI 75cc .cfa: sp 16 +
STACK CFI INIT 7600 40 .cfa: sp 0 + .ra: lr
STACK CFI 7604 .cfa: sp 12 + .ra: .cfa -4 + ^ r4: .cfa -12 + ^ r5: .cfa -8 + ^
STACK CFI 7608 .cfa: sp 24 +
STACK CFI INIT 7640 40 .cfa: sp 0 + .ra: lr
STACK CFI 7644 .cfa: sp 16 + .ra: .cfa -4 + ^ r4: .cfa -16 + ^ r5: .cfa -12 + ^ r6: .cfa -8 + ^
STACK CFI INIT 7680 20 .cfa: sp 0 + .ra: lr
STACK CFI 7684 .cfa: sp 4 + r4: .cfa -4 + ^
STACK CFI INIT 76a0 2c .cfa: sp 0 + .ra: lr
STACK CFI 76a4 .cfa: sp 4 + .ra: .cfa -4 + ^
STACK CFI 76a8 .cfa: sp 16 +
STACK CFI INIT 76cc 58 .cfa: sp 0 + .ra: lr
STACK CFI 76d0 .cfa: sp 24 + .ra: .cfa -4 + ^ r3: .cfa -24 + ^ r4: .cfa -20 + ^ r5: .cfa -16 + ^ r6: .cfa -12 + ^ r7: .cfa -8 + ^
STACK CFI INIT 7724 f4 .cfa: sp 0 + .ra: lr
STACK CFI 7730 .cfa: sp 16 + .ra: .cfa -4 + ^ r4: .cfa -16 + ^ r5: .cfa -12 + ^ r6: .cfa -8 + ^
STACK CFI 7738 .cfa: sp 24 +
STACK CFI INIT 7818 28 .cfa: sp 0 + .ra: lr
STACK CFI 781c .cfa: sp 8 + .ra: .cfa -4 + ^ r4: .cfa -8 + ^
STACK CFI 7820 .cfa: sp 16 +
STACK CFI INIT 7840 40 .cfa: sp 0 + .ra: lr
STACK CFI 7848 .cfa: sp 8 + .ra: .cfa -4 + ^ r3: .cfa -8 + ^
STACK CFI INIT 7880 28 .cfa: sp 0 + .ra: lr
STACK CFI 7884 .cfa: sp 16 + .ra: .cfa -4 + ^ r3: .cfa -16 + ^ r4: .cfa -12 + ^ r5: .cfa -8 + ^
STACK CFI INIT 78a8 18 .cfa: sp 0 + .ra: lr
STACK CFI 78ac .cfa: sp 8 +
STACK CFI INIT 78c0 28 .cfa: sp 0 + .ra: lr
STACK CFI 78c4 .cfa: sp 16 + .ra: .cfa -4 + ^ r3: .cfa -16 + ^ r4: .cfa -12 + ^ r5: .cfa -8 + ^
STACK CFI INIT 78e8 184 .cfa: sp 0 + .ra: lr
STACK CFI 78ec .cfa: sp 24 + .ra: .cfa -4 + ^ r4: .cfa -24 + ^ r5: .cfa -20 + ^ r6: .cfa -16 + ^ r7: .cfa -12 + ^ r8: .cfa -8 + ^
STACK CFI 78f8 .cfa: sp 32 +
STACK CFI INIT 7a6c 28 .cfa: sp 0 + .ra: lr
STACK CFI 7a70 .cfa: sp 4 + r4: .cfa -4 + ^
STACK CFI 7a74 .cfa: sp 16 +
STACK CFI INIT 7a94 44 .cfa: sp 0 + .ra: lr
STACK CFI 7a9c .cfa: sp 8 + .ra: .cfa -4 + ^ r4: .cfa -8 + ^
STACK CFI INIT 7ad8 30 .cfa: sp 0 + .ra: lr
STACK CFI 7adc .cfa: sp 16 + .ra: .cfa -4 + ^ r4: .cfa -16 + ^ r5: .cfa -12 + ^ r6: .cfa -8 + ^
STACK CFI INIT 7b08 c .cfa: sp 0 + .ra: lr
STACK CFI INIT 7b14 38 .cfa: sp 0 + .ra: lr
STACK CFI 7b1c .cfa: sp 8 + .ra: .cfa -4 + ^ r4: .cfa -8 + ^
STACK CFI INIT 7b4c 40 .cfa: sp 0 + .ra: lr
STACK CFI INIT 7b8c 84 .cfa: sp 0 + .ra: lr
STACK CFI 7b90 .cfa: sp 16 + .ra: .cfa -4 + ^ r3: .cfa -16 + ^ r4: .cfa -12 + ^ r5: .cfa -8 + ^
STACK CFI INIT 7c10 88 .cfa: sp 0 + .ra: lr
STACK CFI 7c14 .cfa: sp 16 + .ra: .cfa -4 + ^ r4: .cfa -16 + ^ r5: .cfa -12 + ^ r6: .cfa -8 + ^
STACK CFI 7c20 .cfa: sp 24 +
STACK CFI INIT 7c98 30 .cfa: sp 0 + .ra: lr
STACK CFI 7c9c .cfa: sp 8 + .ra: .cfa -4 + ^ r3: .cfa -8 + ^
STACK CFI INIT 7cc8 ac .cfa: sp 0 + .ra: lr
STACK CFI 7ccc .cfa: sp 24 + .ra: .cfa -4 + ^ r3: .cfa -24 + ^ r4: .cfa -20 + ^ r5: .cfa -16 + ^ r6: .cfa -12 + ^ r7: .cfa -8 + ^
STACK CFI INIT 7d74 4 .cfa: sp 0 + .ra: lr
STACK CFI INIT 7d78 d8 .cfa: sp 0 + .ra: lr
STACK CFI 7d7c .cfa: sp 24 + .ra: .cfa -4 + ^ r4: .cfa -24 + ^ r5: .cfa -20 + ^ r6: .cfa -16 + ^ r7: .cfa -12 + ^ r8: .cfa -8 + ^
STACK CFI INIT 7e50 104 .cfa: sp 0 + .ra: lr
STACK CFI 7e54 .cfa: sp 24 + .ra: .cfa -4 + ^ r3: .cfa -24 + ^ r4: .cfa -20 + ^ r5: .cfa -16 + ^ r6: .cfa -12 + ^ r7: .cfa -8 + ^
STACK CFI INIT 7f54 18 .cfa: sp 0 + .ra: lr
STACK CFI 7f58 .cfa: sp 8 +
STACK CFI INIT 7f6c 28 .cfa: sp 0 + .ra: lr
STACK CFI 7f70 .cfa: sp 16 + .ra: .cfa -4 + ^ r3: .cfa -16 + ^ r4: .cfa -12 + ^ r5: .cfa -8 + ^
STACK CFI INIT 7f94 18 .cfa: sp 0 + .ra: lr
STACK CFI 7f98 .cfa: sp 8 +
STACK CFI INIT 7fac 28 .cfa: sp 0 + .ra: lr
STACK CFI 7fb0 .cfa: sp 16 + .ra: .cfa -4 + ^ r3: .cfa -16 + ^ r4: .cfa -12 + ^ r5: .cfa -8 + ^
STACK CFI INIT 7fd4 c0 .cfa: sp 0 + .ra: lr
STACK CFI 7fd8 .cfa: sp 24 + .ra: .cfa -4 + ^ r3: .cfa -24 + ^ r4: .cfa -20 + ^ r5: .cfa -16 + ^ r6: .cfa -12 + ^ r7: .cfa -8 + ^
STACK CFI INIT 8094 4c .cfa: sp 0 + .ra: lr
STACK CFI 80a0 .cfa: sp 8 + .ra: .cfa -4 + ^ r4: .cfa -8 + ^
STACK CFI INIT 80e0 8 .cfa: sp 0 + .ra: lr
STACK CFI INIT 80e8 74 .cfa: sp 0 + .ra: lr
STACK CFI 80f0 .cfa: sp 16 + .ra: .cfa -4 + ^ r4: .cfa -16 + ^ r5: .cfa -12 + ^ r6: .cfa -8 + ^
STACK CFI INIT 815c 78 .cfa: sp 0 + .ra: lr
STACK CFI 8164 .cfa: sp 16 + .ra: .cfa -4 + ^ r4: .cfa -16 + ^ r5: .cfa -12 + ^ r6: .cfa -8 + ^
STACK CFI INIT 81d4 58 .cfa: sp 0 + .ra: lr
STACK CFI INIT 822c 88 .cfa: sp 0 + .ra: lr
STACK CFI 8234 .cfa: sp 8 + .ra: .cfa -4 + ^ r4: .cfa -8 + ^
STACK CFI 8240 .cfa: sp 16 +
STACK CFI INIT 82b4 c4 .cfa: sp 0 + .ra: lr
STACK CFI 82c0 .cfa: sp 12 + .ra: .cfa -4 + ^ r4: .cfa -12 + ^ r5: .cfa -8 + ^
STACK CFI 82d4 .cfa: sp 24 +
STACK CFI INIT 8378 4 .cfa: sp 0 + .ra: lr
STACK CFI INIT 837c 98 .cfa: sp 0 + .ra: lr
STACK CFI 8380 .cfa: sp 20 + .ra: .cfa -4 + ^ r4: .cfa -20 + ^ r5: .cfa -16 + ^ r6: .cfa -12 + ^ r7: .cfa -8 + ^
STACK CFI 8388 .cfa: sp 32 +
STACK CFI INIT 8414 88 .cfa: sp 0 + .ra: lr
STACK CFI 841c .cfa: sp 16 + .ra: .cfa -4 + ^ r4: .cfa -16 + ^ r5: .cfa -12 + ^ r6: .cfa -8 + ^
STACK CFI 8434 .cfa: sp 24 +
STACK CFI INIT 849c 54 .cfa: sp 0 + .ra: lr
STACK CFI 84a0 .cfa: sp 12 + .ra: .cfa -4 + ^ r4: .cfa -12 + ^ r5: .cfa -8 + ^
STACK CFI 84ac .cfa: sp 24 +
STACK CFI INIT 84f0 90 .cfa: sp 0 + .ra: lr
STACK CFI 84f8 .cfa: sp 16 + .ra: .cfa -4 + ^ r4: .cfa -16 + ^ r5: .cfa -12 + ^ r6: .cfa -8 + ^
STACK CFI INIT 8580 28 .cfa: sp 0 + .ra: lr
STACK CFI 8584 .cfa: sp 8 + .ra: .cfa -4 + ^ r4: .cfa -8 + ^
STACK CFI INIT 85a8 c4 .cfa: sp 0 + .ra: lr
STACK CFI 85b4 .cfa: sp 16 + .ra: .cfa -4 + ^ r4: .cfa -16 + ^ r5: .cfa -12 + ^ r6: .cfa -8 + ^
STACK CFI INIT 866c 60 .cfa: sp 0 + .ra: lr
STACK CFI 8674 .cfa: sp 8 + .ra: .cfa -4 + ^ r4: .cfa -8 + ^
STACK CFI 8680 .cfa: sp 16 +
STACK CFI INIT 86cc 34 .cfa: sp 0 + .ra: lr
STACK CFI 86d4 .cfa: sp 8 + .ra: .cfa -4 + ^ r4: .cfa -8 + ^
STACK CFI INIT 8700 58 .cfa: sp 0 + .ra: lr
STACK CFI 8708 .cfa: sp 8 + .ra: .cfa -4 + ^ r4: .cfa -8 + ^
STACK CFI INIT 8758 28 .cfa: sp 0 + .ra: lr
STACK CFI 875c .cfa: sp 8 + .ra: .cfa -4 + ^ r4: .cfa -8 + ^
STACK CFI INIT 8780 c4 .cfa: sp 0 + .ra: lr
STACK CFI 878c .cfa: sp 16 + .ra: .cfa -4 + ^ r4: .cfa -16 + ^ r5: .cfa -12 + ^ r6: .cfa -8 + ^
STACK CFI INIT 8844 28 .cfa: sp 0 + .ra: lr
STACK CFI 8848 .cfa: sp 8 + .ra: .cfa -4 + ^ r4: .cfa -8 + ^
STACK CFI INIT 886c 1b4 .cfa: sp 0 + .ra: lr
STACK CFI 8870 .cfa: sp 24 + .ra: .cfa -4 + ^ r4: .cfa -24 + ^ r5: .cfa -20 + ^ r6: .cfa -16 + ^ r7: .cfa -12 + ^ r8: .cfa -8 + ^
STACK CFI 887c .cfa: sp 40 +
STACK CFI INIT 8a20 20 .cfa: sp 0 + .ra: lr
STACK CFI 8a28 .cfa: sp 4 + .ra: .cfa -4 + ^
STACK CFI 8a2c .cfa: sp 16 +
STACK CFI INIT 8a40 48 .cfa: sp 0 + .ra: lr
STACK CFI 8a48 .cfa: sp 16 + .ra: .cfa -4 + ^ r4: .cfa -16 + ^ r5: .cfa -12 + ^ r6: .cfa -8 + ^
STACK CFI INIT 8a88 40 .cfa: sp 0 + .ra: lr
STACK CFI 8a8c .cfa: sp 20 + .ra: .cfa -4 + ^ r4: .cfa -20 + ^ r5: .cfa -16 + ^ r6: .cfa -12 + ^ r7: .cfa -8 + ^
STACK CFI 8a94 .cfa: sp 32 +
STACK CFI INIT 8ac8 10 .cfa: sp 0 + .ra: lr
STACK CFI INIT 8ad8 2c .cfa: sp 0 + .ra: lr
STACK CFI 8ae4 .cfa: sp 4 + .ra: .cfa -4 + ^
STACK CFI 8ae8 .cfa: sp 16 +
STACK CFI INIT 8b04 44 .cfa: sp 0 + .ra: lr
STACK CFI 8b08 .cfa: sp 20 + .ra: .cfa -4 + ^ r4: .cfa -20 + ^ r5: .cfa -16 + ^ r6: .cfa -12 + ^ r7: .cfa -8 + ^
STACK CFI 8b10 .cfa: sp 32 +
STACK CFI INIT 8b48 24 .cfa: sp 0 + .ra: lr
STACK CFI 8b4c .cfa: sp 4 + r4: .cfa -4 + ^
STACK CFI INIT 8b6c 24 .cfa: sp 0 + .ra: lr
STACK CFI 8b70 .cfa: sp 4 + r4: .cfa -4 + ^
STACK CFI INIT 8b90 1c .cfa: sp 0 + .ra: lr
STACK CFI 8b94 .cfa: sp 8 +
STACK CFI INIT 8bac 24 .cfa: sp 0 + .ra: lr
STACK CFI 8bb0 .cfa: sp 4 + r4: .cfa -4 + ^
STACK CFI INIT 8bd0 24 .cfa: sp 0 + .ra: lr
STACK CFI 8bd4 .cfa: sp 4 + r4: .cfa -4 + ^
STACK CFI INIT 8bf4 40 .cfa: sp 0 + .ra: lr
STACK CFI 8bf8 .cfa: sp 16 + .ra: .cfa -4 + ^ r4: .cfa -16 + ^ r5: .cfa -12 + ^ r6: .cfa -8 + ^
STACK CFI INIT 8c34 3c .cfa: sp 0 + .ra: lr
STACK CFI 8c38 .cfa: sp 8 + .ra: .cfa -4 + ^ r4: .cfa -8 + ^
STACK CFI 8c3c .cfa: sp 16 +
STACK CFI INIT 8c70 28 .cfa: sp 0 + .ra: lr
STACK CFI 8c74 .cfa: sp 8 + .ra: .cfa -4 + ^ r4: .cfa -8 + ^
STACK CFI INIT 8c98 18 .cfa: sp 0 + .ra: lr
STACK CFI INIT 8cb0 18 .cfa: sp 0 + .ra: lr
STACK CFI INIT 8cc8 18 .cfa: sp 0 + .ra: lr
STACK CFI INIT 8ce0 8 .cfa: sp 0 + .ra: lr
STACK CFI INIT 8ce8 8 .cfa: sp 0 + .ra: lr
STACK CFI INIT 8cf0 8 .cfa: sp 0 + .ra: lr
STACK CFI INIT 8cf8 28 .cfa: sp 0 + .ra: lr
STACK CFI 8d00 .cfa: sp 8 + .ra: .cfa -4 + ^ r4: .cfa -8 + ^
STACK CFI INIT 8d20 4c .cfa: sp 0 + .ra: lr
STACK CFI 8d28 .cfa: sp 8 + .ra: .cfa -4 + ^ r3: .cfa -8 + ^
STACK CFI INIT 8d6c 4 .cfa: sp 0 + .ra: lr
STACK CFI INIT 8d70 28 .cfa: sp 0 + .ra: lr
STACK CFI 8d78 .cfa: sp 8 + .ra: .cfa -4 + ^ r4: .cfa -8 + ^
STACK CFI INIT 8d98 1c .cfa: sp 0 + .ra: lr
STACK CFI 8d9c .cfa: sp 8 + .ra: .cfa -4 + ^ r4: .cfa -8 + ^
STACK CFI INIT 8db4 64 .cfa: sp 0 + .ra: lr
STACK CFI 8db8 .cfa: sp 16 + .ra: .cfa -4 + ^ r4: .cfa -16 + ^ r5: .cfa -12 + ^ r6: .cfa -8 + ^
STACK CFI 8dbc .cfa: sp 32 +
STACK CFI INIT 8e18 e0 .cfa: sp 0 + .ra: lr
STACK CFI 8e1c .cfa: sp 36 + .ra: .cfa -4 + ^ r10: .cfa -12 + ^ r11: .cfa -8 + ^ r4: .cfa -36 + ^ r5: .cfa -32 + ^ r6: .cfa -28 + ^ r7: .cfa -24 + ^ r8: .cfa -20 + ^ r9: .cfa -16 + ^
STACK CFI 8e20 .cfa: sp 56 +
STACK CFI INIT 8ef8 40 .cfa: sp 0 + .ra: lr
STACK CFI 8efc .cfa: sp 24 + .ra: .cfa -4 + ^ r3: .cfa -24 + ^ r4: .cfa -20 + ^ r5: .cfa -16 + ^ r6: .cfa -12 + ^ r7: .cfa -8 + ^
STACK CFI INIT 8f38 4c .cfa: sp 0 + .ra: lr
STACK CFI 8f3c .cfa: sp 8 + .ra: .cfa -4 + ^ r4: .cfa -8 + ^
STACK CFI INIT 8f84 4c .cfa: sp 0 + .ra: lr
STACK CFI 8f88 .cfa: sp 8 + .ra: .cfa -4 + ^ r4: .cfa -8 + ^
STACK CFI INIT 8fd0 4c .cfa: sp 0 + .ra: lr
STACK CFI 8fd4 .cfa: sp 8 + .ra: .cfa -4 + ^ r4: .cfa -8 + ^
STACK CFI INIT 901c 4c .cfa: sp 0 + .ra: lr
STACK CFI 9020 .cfa: sp 8 + .ra: .cfa -4 + ^ r4: .cfa -8 + ^
STACK CFI INIT 9068 88 .cfa: sp 0 + .ra: lr
STACK CFI 906c .cfa: sp 16 + .ra: .cfa -4 + ^ r4: .cfa -16 + ^ r5: .cfa -12 + ^ r6: .cfa -8 + ^
STACK CFI 9074 .cfa: sp 32 +
STACK CFI INIT 90f0 88 .cfa: sp 0 + .ra: lr
STACK CFI 90f4 .cfa: sp 16 + .ra: .cfa -4 + ^ r4: .cfa -16 + ^ r5: .cfa -12 + ^ r6: .cfa -8 + ^
STACK CFI 90fc .cfa: sp 32 +
STACK CFI INIT 9178 88 .cfa: sp 0 + .ra: lr
STACK CFI 917c .cfa: sp 16 + .ra: .cfa -4 + ^ r4: .cfa -16 + ^ r5: .cfa -12 + ^ r6: .cfa -8 + ^
STACK CFI 9184 .cfa: sp 32 +
STACK CFI INIT 9200 88 .cfa: sp 0 + .ra: lr
STACK CFI 9204 .cfa: sp 16 + .ra: .cfa -4 + ^ r4: .cfa -16 + ^ r5: .cfa -12 + ^ r6: .cfa -8 + ^
STACK CFI 920c .cfa: sp 32 +
STACK CFI INIT 9288 88 .cfa: sp 0 + .ra: lr
STACK CFI 928c .cfa: sp 16 + .ra: .cfa -4 + ^ r4: .cfa -16 + ^ r5: .cfa -12 + ^ r6: .cfa -8 + ^
STACK CFI 9294 .cfa: sp 32 +
STACK CFI INIT 9310 88 .cfa: sp 0 + .ra: lr
STACK CFI 9314 .cfa: sp 16 + .ra: .cfa -4 + ^ r4: .cfa -16 + ^ r5: .cfa -12 + ^ r6: .cfa -8 + ^
STACK CFI 931c .cfa: sp 32 +
STACK CFI INIT 9398 88 .cfa: sp 0 + .ra: lr
STACK CFI 939c .cfa: sp 16 + .ra: .cfa -4 + ^ r4: .cfa -16 + ^ r5: .cfa -12 + ^ r6: .cfa -8 + ^
STACK CFI 93a4 .cfa: sp 32 +
STACK CFI INIT 9420 88 .cfa: sp 0 + .ra: lr
STACK CFI 9424 .cfa: sp 16 + .ra: .cfa -4 + ^ r4: .cfa -16 + ^ r5: .cfa -12 + ^ r6: .cfa -8 + ^
STACK CFI 942c .cfa: sp 32 +
STACK CFI INIT 94a8 88 .cfa: sp 0 + .ra: lr
STACK CFI 94ac .cfa: sp 16 + .ra: .cfa -4 + ^ r4: .cfa -16 + ^ r5: .cfa -12 + ^ r6: .cfa -8 + ^
STACK CFI 94b4 .cfa: sp 32 +
STACK CFI INIT 9530 74 .cfa: sp 0 + .ra: lr
STACK CFI 9534 .cfa: sp 16 + .ra: .cfa -4 + ^ r4: .cfa -16 + ^ r5: .cfa -12 + ^ r6: .cfa -8 + ^
STACK CFI 953c .cfa: sp 32 +
STACK CFI INIT 95a4 b4 .cfa: sp 0 + .ra: lr
STACK CFI 95a8 .cfa: sp 20 + .ra: .cfa -4 + ^ r4: .cfa -20 + ^ r5: .cfa -16 + ^ r6: .cfa -12 + ^ r7: .cfa -8 + ^
STACK CFI 95b0 .cfa: sp 32 +
STACK CFI INIT 9658 b4 .cfa: sp 0 + .ra: lr
STACK CFI 965c .cfa: sp 20 + .ra: .cfa -4 + ^ r4: .cfa -20 + ^ r5: .cfa -16 + ^ r6: .cfa -12 + ^ r7: .cfa -8 + ^
STACK CFI 9664 .cfa: sp 40 +
STACK CFI INIT 970c 4c .cfa: sp 0 + .ra: lr
STACK CFI 9710 .cfa: sp 8 + .ra: .cfa -4 + ^ r4: .cfa -8 + ^
STACK CFI INIT 9758 48 .cfa: sp 0 + .ra: lr
STACK CFI 975c .cfa: sp 16 + .ra: .cfa -4 + ^ r3: .cfa -16 + ^ r4: .cfa -12 + ^ r5: .cfa -8 + ^
STACK CFI INIT 97a0 10 .cfa: sp 0 + .ra: lr
STACK CFI INIT 97b0 28 .cfa: sp 0 + .ra: lr
STACK CFI 97b8 .cfa: sp 8 + .ra: .cfa -4 + ^ r4: .cfa -8 + ^
STACK CFI INIT 97d8 30 .cfa: sp 0 + .ra: lr
STACK CFI 97e0 .cfa: sp 8 + .ra: .cfa -4 + ^ r4: .cfa -8 + ^
STACK CFI INIT 9808 4 .cfa: sp 0 + .ra: lr
STACK CFI INIT 980c 10 .cfa: sp 0 + .ra: lr
STACK CFI INIT 981c 28 .cfa: sp 0 + .ra: lr
STACK CFI 9824 .cfa: sp 8 + .ra: .cfa -4 + ^ r4: .cfa -8 + ^
STACK CFI INIT 9844 30 .cfa: sp 0 + .ra: lr
STACK CFI 984c .cfa: sp 8 + .ra: .cfa -4 + ^ r4: .cfa -8 + ^
STACK CFI INIT 9874 28 .cfa: sp 0 + .ra: lr
STACK CFI 987c .cfa: sp 8 + .ra: .cfa -4 + ^ r4: .cfa -8 + ^
STACK CFI INIT 989c 30 .cfa: sp 0 + .ra: lr
STACK CFI 98a4 .cfa: sp 8 + .ra: .cfa -4 + ^ r4: .cfa -8 + ^
STACK CFI INIT 98cc 28 .cfa: sp 0 + .ra: lr
STACK CFI 98d4 .cfa: sp 8 + .ra: .cfa -4 + ^ r4: .cfa -8 + ^
STACK CFI INIT 98f4 30 .cfa: sp 0 + .ra: lr
STACK CFI 98fc .cfa: sp 8 + .ra: .cfa -4 + ^ r4: .cfa -8 + ^
STACK CFI INIT 9924 48 .cfa: sp 0 + .ra: lr
STACK CFI 992c .cfa: sp 8 + .ra: .cfa -4 + ^ r4: .cfa -8 + ^
STACK CFI INIT 996c 1c .cfa: sp 0 + .ra: lr
STACK CFI 9970 .cfa: sp 8 + .ra: .cfa -4 + ^ r4: .cfa -8 + ^
STACK CFI INIT 9988 80 .cfa: sp 0 + .ra: lr
STACK CFI 9998 .cfa: sp 8 + .ra: .cfa -4 + ^ r4: .cfa -8 + ^
STACK CFI 999c .cfa: sp 16 +
STACK CFI INIT 9a08 f4 .cfa: sp 0 + .ra: lr
STACK CFI 9a14 .cfa: sp 8 + .ra: .cfa -4 + ^ r4: .cfa -8 + ^
STACK CFI 9a20 .cfa: sp 16 +
STACK CFI INIT 9afc 94 .cfa: sp 0 + .ra: lr
STACK CFI 9b00 .cfa: sp 16 + .ra: .cfa -4 + ^ r4: .cfa -16 + ^ r5: .cfa -12 + ^ r6: .cfa -8 + ^
STACK CFI INIT 9b90 28 .cfa: sp 0 + .ra: lr
STACK CFI 9b98 .cfa: sp 8 + .ra: .cfa -4 + ^ r4: .cfa -8 + ^
STACK CFI INIT 9bb8 e0 .cfa: sp 0 + .ra: lr
STACK CFI 9bbc .cfa: sp 28 + .ra: .cfa -4 + ^ r4: .cfa -28 + ^ r5: .cfa -24 + ^ r6: .cfa -20 + ^ r7: .cfa -16 + ^ r8: .cfa -12 + ^ r9: .cfa -8 + ^
STACK CFI 9bc8 .cfa: sp 48 +
STACK CFI INIT 9c98 58 .cfa: sp 0 + .ra: lr
STACK CFI 9c9c .cfa: sp 8 + .ra: .cfa -4 + ^ r4: .cfa -8 + ^
STACK CFI INIT 9cf0 54 .cfa: sp 0 + .ra: lr
STACK CFI 9cf4 .cfa: sp 8 + .ra: .cfa -4 + ^ r3: .cfa -8 + ^
STACK CFI INIT 9d44 10 .cfa: sp 0 + .ra: lr
STACK CFI INIT 9d54 28 .cfa: sp 0 + .ra: lr
STACK CFI 9d5c .cfa: sp 8 + .ra: .cfa -4 + ^ r4: .cfa -8 + ^
STACK CFI INIT 9d7c 1c .cfa: sp 0 + .ra: lr
STACK CFI 9d80 .cfa: sp 8 + .ra: .cfa -4 + ^ r4: .cfa -8 + ^
STACK CFI INIT 9d98 1b4 .cfa: sp 0 + .ra: lr
STACK CFI 9da0 .cfa: sp 20 + .ra: .cfa -4 + ^ r4: .cfa -20 + ^ r5: .cfa -16 + ^ r6: .cfa -12 + ^ r7: .cfa -8 + ^
STACK CFI 9dac .cfa: sp 32 +
STACK CFI INIT 9f4c 1d0 .cfa: sp 0 + .ra: lr
STACK CFI 9f54 .cfa: sp 12 + r4: .cfa -12 + ^ r5: .cfa -8 + ^ r6: .cfa -4 + ^
STACK CFI INIT a11c 6c .cfa: sp 0 + .ra: lr
STACK CFI a128 .cfa: sp 12 + r4: .cfa -12 + ^ r5: .cfa -8 + ^ r6: .cfa -4 + ^
STACK CFI INIT a188 13c .cfa: sp 0 + .ra: lr
STACK CFI a18c .cfa: sp 32 + .ra: .cfa -4 + ^ r3: .cfa -32 + ^ r4: .cfa -28 + ^ r5: .cfa -24 + ^ r6: .cfa -20 + ^ r7: .cfa -16 + ^ r8: .cfa -12 + ^ r9: .cfa -8 + ^
STACK CFI INIT a2c4 58 .cfa: sp 0 + .ra: lr
STACK CFI INIT a31c f4 .cfa: sp 0 + .ra: lr
STACK CFI a320 .cfa: sp 24 + .ra: .cfa -4 + ^ r4: .cfa -24 + ^ r5: .cfa -20 + ^ r6: .cfa -16 + ^ r7: .cfa -12 + ^ r8: .cfa -8 + ^
STACK CFI INIT a410 244 .cfa: sp 0 + .ra: lr
STACK CFI a418 .cfa: sp 24 + r4: .cfa -24 + ^ r5: .cfa -20 + ^ r6: .cfa -16 + ^ r7: .cfa -12 + ^ r8: .cfa -8 + ^ r9: .cfa -4 + ^
STACK CFI INIT a654 5c .cfa: sp 0 + .ra: lr
STACK CFI a65c .cfa: sp 16 + .ra: .cfa -4 + ^ r4: .cfa -16 + ^ r5: .cfa -12 + ^ r6: .cfa -8 + ^
STACK CFI INIT a6b0 7c .cfa: sp 0 + .ra: lr
STACK CFI a6b8 .cfa: sp 8 + r4: .cfa -8 + ^ r5: .cfa -4 + ^
STACK CFI INIT a72c 60 .cfa: sp 0 + .ra: lr
STACK CFI a738 .cfa: sp 8 + .ra: .cfa -4 + ^ r4: .cfa -8 + ^
STACK CFI INIT a78c 54 .cfa: sp 0 + .ra: lr
STACK CFI a794 .cfa: sp 8 + .ra: .cfa -4 + ^ r4: .cfa -8 + ^
STACK CFI INIT a7e0 80 .cfa: sp 0 + .ra: lr
STACK CFI a7e4 .cfa: sp 16 + .ra: .cfa -4 + ^ r3: .cfa -16 + ^ r4: .cfa -12 + ^ r5: .cfa -8 + ^
STACK CFI INIT a860 34 .cfa: sp 0 + .ra: lr
STACK CFI a864 .cfa: sp 8 + .ra: .cfa -4 + ^ r3: .cfa -8 + ^
STACK CFI INIT a894 f8 .cfa: sp 0 + .ra: lr
STACK CFI a898 .cfa: sp 16 + .ra: .cfa -4 + ^ r4: .cfa -16 + ^ r5: .cfa -12 + ^ r6: .cfa -8 + ^
STACK CFI INIT a98c 9c .cfa: sp 0 + .ra: lr
STACK CFI a994 .cfa: sp 16 + .ra: .cfa -4 + ^ r3: .cfa -16 + ^ r4: .cfa -12 + ^ r5: .cfa -8 + ^
STACK CFI INIT aa28 88 .cfa: sp 0 + .ra: lr
STACK CFI INIT aab0 19c .cfa: sp 0 + .ra: lr
STACK CFI aab4 .cfa: sp 16 + .ra: .cfa -4 + ^ r3: .cfa -16 + ^ r4: .cfa -12 + ^ r5: .cfa -8 + ^
STACK CFI INIT ac4c cc .cfa: sp 0 + .ra: lr
STACK CFI ac54 .cfa: sp 24 + .ra: .cfa -4 + ^ r4: .cfa -24 + ^ r5: .cfa -20 + ^ r6: .cfa -16 + ^ r7: .cfa -12 + ^ r8: .cfa -8 + ^
STACK CFI INIT ad18 158 .cfa: sp 0 + .ra: lr
STACK CFI ad1c .cfa: sp 24 + .ra: .cfa -4 + ^ r3: .cfa -24 + ^ r4: .cfa -20 + ^ r5: .cfa -16 + ^ r6: .cfa -12 + ^ r7: .cfa -8 + ^
STACK CFI INIT ae70 170 .cfa: sp 0 + .ra: lr
STACK CFI ae78 .cfa: sp 16 + .ra: .cfa -4 + ^ r4: .cfa -16 + ^ r5: .cfa -12 + ^ r6: .cfa -8 + ^
STACK CFI ae80 .cfa: sp 24 +
STACK CFI INIT afe0 4b0 .cfa: sp 0 + .ra: lr
STACK CFI afe8 .cfa: sp 24 + .ra: .cfa -4 + ^ r4: .cfa -24 + ^ r5: .cfa -20 + ^ r6: .cfa -16 + ^ r7: .cfa -12 + ^ r8: .cfa -8 + ^
STACK CFI aff0 .cfa: sp 32 +
STACK CFI INIT b490 b88 .cfa: sp 0 + .ra: lr
STACK CFI b498 .cfa: sp 20 + .ra: .cfa -4 + ^ r4: .cfa -20 + ^ r5: .cfa -16 + ^ r6: .cfa -12 + ^ r7: .cfa -8 + ^
STACK CFI b4a0 .cfa: sp 32 +
STACK CFI INIT c018 108 .cfa: sp 0 + .ra: lr
STACK CFI c020 .cfa: sp 12 + .ra: .cfa -4 + ^ r4: .cfa -12 + ^ r5: .cfa -8 + ^
STACK CFI c028 .cfa: sp 24 +
STACK CFI INIT c120 68 .cfa: sp 0 + .ra: lr
STACK CFI c128 .cfa: sp 16 + .ra: .cfa -4 + ^ r4: .cfa -16 + ^ r5: .cfa -12 + ^ r6: .cfa -8 + ^
STACK CFI INIT c188 874 .cfa: sp 0 + .ra: lr
STACK CFI c190 .cfa: sp 32 + .ra: .cfa -4 + ^ r10: .cfa -8 + ^ r4: .cfa -32 + ^ r5: .cfa -28 + ^ r6: .cfa -24 + ^ r7: .cfa -20 + ^ r8: .cfa -16 + ^ r9: .cfa -12 + ^
STACK CFI INIT c9fc 194 .cfa: sp 0 + .ra: lr
STACK CFI ca04 .cfa: sp 24 + .ra: .cfa -4 + ^ r4: .cfa -24 + ^ r5: .cfa -20 + ^ r6: .cfa -16 + ^ r7: .cfa -12 + ^ r8: .cfa -8 + ^
STACK CFI INIT cb90 468 .cfa: sp 0 + .ra: lr
STACK CFI cb98 .cfa: sp 24 + .ra: .cfa -4 + ^ r4: .cfa -24 + ^ r5: .cfa -20 + ^ r6: .cfa -16 + ^ r7: .cfa -12 + ^ r8: .cfa -8 + ^
STACK CFI INIT cff8 61c .cfa: sp 0 + .ra: lr
STACK CFI d000 .cfa: sp 24 + .ra: .cfa -4 + ^ r4: .cfa -24 + ^ r5: .cfa -20 + ^ r6: .cfa -16 + ^ r7: .cfa -12 + ^ r8: .cfa -8 + ^
STACK CFI INIT d614 ac .cfa: sp 0 + .ra: lr
STACK CFI d61c .cfa: sp 16 + .ra: .cfa -4 + ^ r4: .cfa -16 + ^ r5: .cfa -12 + ^ r6: .cfa -8 + ^
STACK CFI d628 .cfa: sp 24 +
STACK CFI INIT d6c0 84 .cfa: sp 0 + .ra: lr
STACK CFI d6c4 .cfa: sp 24 + .ra: .cfa -4 + ^ r4: .cfa -24 + ^ r5: .cfa -20 + ^ r6: .cfa -16 + ^ r7: .cfa -12 + ^ r8: .cfa -8 + ^
STACK CFI INIT d744 3554 .cfa: sp 0 + .ra: lr
STACK CFI d74c .cfa: sp 36 + .ra: .cfa -4 + ^ r10: .cfa -12 + ^ r11: .cfa -8 + ^ r4: .cfa -36 + ^ r5: .cfa -32 + ^ r6: .cfa -28 + ^ r7: .cfa -24 + ^ r8: .cfa -20 + ^ r9: .cfa -16 + ^
STACK CFI d754 .cfa: sp 128 +
STACK CFI INIT 10c98 20 .cfa: sp 0 + .ra: lr
STACK CFI INIT 10cb8 778 .cfa: sp 0 + .ra: lr
STACK CFI 10cc0 .cfa: sp 32 + .ra: .cfa -4 + ^ r10: .cfa -8 + ^ r4: .cfa -32 + ^ r5: .cfa -28 + ^ r6: .cfa -24 + ^ r7: .cfa -20 + ^ r8: .cfa -16 + ^ r9: .cfa -12 + ^
STACK CFI INIT 11430 398 .cfa: sp 0 + .ra: lr
STACK CFI 11434 .cfa: sp 36 + .ra: .cfa -4 + ^ r10: .cfa -12 + ^ r11: .cfa -8 + ^ r4: .cfa -36 + ^ r5: .cfa -32 + ^ r6: .cfa -28 + ^ r7: .cfa -24 + ^ r8: .cfa -20 + ^ r9: .cfa -16 + ^
STACK CFI 1143c .cfa: sp 72 +
STACK CFI INIT 117c8 264 .cfa: sp 0 + .ra: lr
STACK CFI 117cc .cfa: sp 40 + .ra: .cfa -4 + ^ r10: .cfa -12 + ^ r11: .cfa -8 + ^ r3: .cfa -40 + ^ r4: .cfa -36 + ^ r5: .cfa -32 + ^ r6: .cfa -28 + ^ r7: .cfa -24 + ^ r8: .cfa -20 + ^ r9: .cfa -16 + ^
STACK CFI INIT 11a2c 2d8 .cfa: sp 0 + .ra: lr
STACK CFI 11a30 .cfa: sp 32 + .ra: .cfa -4 + ^ r3: .cfa -32 + ^ r4: .cfa -28 + ^ r5: .cfa -24 + ^ r6: .cfa -20 + ^ r7: .cfa -16 + ^ r8: .cfa -12 + ^ r9: .cfa -8 + ^
STACK CFI INIT 11d04 238 .cfa: sp 0 + .ra: lr
STACK CFI 11d08 .cfa: sp 24 + .ra: .cfa -4 + ^ r4: .cfa -24 + ^ r5: .cfa -20 + ^ r6: .cfa -16 + ^ r7: .cfa -12 + ^ r8: .cfa -8 + ^
STACK CFI 11d14 .cfa: sp 32 +
STACK CFI INIT 11f3c a4 .cfa: sp 0 + .ra: lr
STACK CFI 11f44 .cfa: sp 32 + .ra: .cfa -4 + ^ r3: .cfa -32 + ^ r4: .cfa -28 + ^ r5: .cfa -24 + ^ r6: .cfa -20 + ^ r7: .cfa -16 + ^ r8: .cfa -12 + ^ r9: .cfa -8 + ^
STACK CFI INIT 11fe0 110 .cfa: sp 0 + .ra: lr
STACK CFI 11fe4 .cfa: sp 24 + .ra: .cfa -4 + ^ r3: .cfa -24 + ^ r4: .cfa -20 + ^ r5: .cfa -16 + ^ r6: .cfa -12 + ^ r7: .cfa -8 + ^
STACK CFI INIT 120f0 31c .cfa: sp 0 + .ra: lr
STACK CFI 120f4 .cfa: sp 32 + .ra: .cfa -4 + ^ r11: .cfa -8 + ^ r4: .cfa -32 + ^ r5: .cfa -28 + ^ r6: .cfa -24 + ^ r7: .cfa -20 + ^ r8: .cfa -16 + ^ r9: .cfa -12 + ^
STACK CFI 120f8 .cfa: r11 4 +
STACK CFI INIT 1240c 14c .cfa: sp 0 + .ra: lr
STACK CFI 12414 .cfa: sp 24 + .ra: .cfa -4 + ^ r4: .cfa -24 + ^ r5: .cfa -20 + ^ r6: .cfa -16 + ^ r7: .cfa -12 + ^ r8: .cfa -8 + ^
STACK CFI 1241c .cfa: sp 40 +
STACK CFI INIT 12558 2c .cfa: sp 0 + .ra: lr
STACK CFI 12564 .cfa: sp 8 + .ra: .cfa -4 + ^ r3: .cfa -8 + ^
STACK CFI INIT 12584 4 .cfa: sp 0 + .ra: lr
STACK CFI INIT 12588 68 .cfa: sp 0 + .ra: lr
STACK CFI 12594 .cfa: sp 8 + .ra: .cfa -4 + ^ r4: .cfa -8 + ^
STACK CFI INIT 125f0 c .cfa: sp 0 + .ra: lr
STACK CFI INIT 125fc 1c .cfa: sp 0 + .ra: lr
STACK CFI 12600 .cfa: sp 8 +
STACK CFI INIT 12618 30 .cfa: sp 0 + .ra: lr
STACK CFI INIT 12648 18 .cfa: sp 0 + .ra: lr
STACK CFI 1264c .cfa: sp 8 + .ra: .cfa -4 + ^ r4: .cfa -8 + ^
STACK CFI INIT 12660 1c .cfa: sp 0 + .ra: lr
STACK CFI 12668 .cfa: sp 8 + .ra: .cfa -4 + ^ r4: .cfa -8 + ^
STACK CFI INIT 1267c 64 .cfa: sp 0 + .ra: lr
STACK CFI 12684 .cfa: sp 8 + .ra: .cfa -4 + ^ r4: .cfa -8 + ^
STACK CFI INIT 126e0 14 .cfa: sp 0 + .ra: lr
STACK CFI 126e4 .cfa: sp 8 + .ra: .cfa -4 + ^ r4: .cfa -8 + ^
STACK CFI INIT 126f4 8 .cfa: sp 0 + .ra: lr
STACK CFI INIT 126fc 14 .cfa: sp 0 + .ra: lr
STACK CFI INIT 12710 38 .cfa: sp 0 + .ra: lr
STACK CFI 12714 .cfa: sp 12 + .ra: .cfa -4 + ^ r4: .cfa -12 + ^ r5: .cfa -8 + ^
STACK CFI 12718 .cfa: sp 24 +
STACK CFI INIT 12748 10 .cfa: sp 0 + .ra: lr
STACK CFI INIT 12758 34 .cfa: sp 0 + .ra: lr
STACK CFI INIT 1278c c .cfa: sp 0 + .ra: lr
STACK CFI INIT 12798 18 .cfa: sp 0 + .ra: lr
STACK CFI INIT 127b0 14 .cfa: sp 0 + .ra: lr
STACK CFI 127b4 .cfa: sp 8 + .ra: .cfa -4 + ^ r3: .cfa -8 + ^
STACK CFI INIT 127c4 a0 .cfa: sp 0 + .ra: lr
STACK CFI 127c8 .cfa: sp 8 + .ra: .cfa -4 + ^ r4: .cfa -8 + ^
STACK CFI INIT 12864 c0 .cfa: sp 0 + .ra: lr
STACK CFI 12868 .cfa: sp 16 + .ra: .cfa -4 + ^ r4: .cfa -16 + ^ r5: .cfa -12 + ^ r6: .cfa -8 + ^
STACK CFI INIT 12924 10 .cfa: sp 0 + .ra: lr
STACK CFI INIT 12934 28 .cfa: sp 0 + .ra: lr
STACK CFI 1293c .cfa: sp 8 + .ra: .cfa -4 + ^ r4: .cfa -8 + ^
STACK CFI INIT 1295c 1c .cfa: sp 0 + .ra: lr
STACK CFI 12960 .cfa: sp 8 + .ra: .cfa -4 + ^ r4: .cfa -8 + ^
STACK CFI INIT 12978 8 .cfa: sp 0 + .ra: lr
STACK CFI INIT 12980 8 .cfa: sp 0 + .ra: lr
STACK CFI INIT 12988 84 .cfa: sp 0 + .ra: lr
STACK CFI 12994 .cfa: sp 8 + .ra: .cfa -4 + ^ r4: .cfa -8 + ^
STACK CFI 129a8 .cfa: sp 16 +
STACK CFI INIT 12a0c 1c .cfa: sp 0 + .ra: lr
STACK CFI 12a10 .cfa: sp 8 + .ra: .cfa -4 + ^ r4: .cfa -8 + ^
STACK CFI INIT 12a28 28 .cfa: sp 0 + .ra: lr
STACK CFI 12a30 .cfa: sp 8 + .ra: .cfa -4 + ^ r4: .cfa -8 + ^
STACK CFI INIT 12a50 30 .cfa: sp 0 + .ra: lr
STACK CFI 12a58 .cfa: sp 8 + .ra: .cfa -4 + ^ r4: .cfa -8 + ^
STACK CFI INIT 12a80 28 .cfa: sp 0 + .ra: lr
STACK CFI 12a88 .cfa: sp 8 + .ra: .cfa -4 + ^ r4: .cfa -8 + ^
STACK CFI INIT 12aa8 30 .cfa: sp 0 + .ra: lr
STACK CFI 12ab0 .cfa: sp 8 + .ra: .cfa -4 + ^ r4: .cfa -8 + ^
STACK CFI INIT 12ad8 28 .cfa: sp 0 + .ra: lr
STACK CFI 12ae0 .cfa: sp 8 + .ra: .cfa -4 + ^ r4: .cfa -8 + ^
STACK CFI INIT 12b00 30 .cfa: sp 0 + .ra: lr
STACK CFI 12b08 .cfa: sp 8 + .ra: .cfa -4 + ^ r4: .cfa -8 + ^
STACK CFI INIT 12b30 28 .cfa: sp 0 + .ra: lr
STACK CFI 12b38 .cfa: sp 8 + .ra: .cfa -4 + ^ r4: .cfa -8 + ^
STACK CFI INIT 12b58 30 .cfa: sp 0 + .ra: lr
STACK CFI 12b60 .cfa: sp 8 + .ra: .cfa -4 + ^ r4: .cfa -8 + ^
STACK CFI INIT 12b88 84 .cfa: sp 0 + .ra: lr
STACK CFI 12b94 .cfa: sp 8 + .ra: .cfa -4 + ^ r4: .cfa -8 + ^
STACK CFI 12ba8 .cfa: sp 16 +
STACK CFI INIT 12c0c 1c .cfa: sp 0 + .ra: lr
STACK CFI 12c10 .cfa: sp 8 + .ra: .cfa -4 + ^ r4: .cfa -8 + ^
STACK CFI INIT 12c28 28 .cfa: sp 0 + .ra: lr
STACK CFI 12c30 .cfa: sp 8 + .ra: .cfa -4 + ^ r4: .cfa -8 + ^
STACK CFI INIT 12c50 30 .cfa: sp 0 + .ra: lr
STACK CFI 12c58 .cfa: sp 8 + .ra: .cfa -4 + ^ r4: .cfa -8 + ^
STACK CFI INIT 12c80 28 .cfa: sp 0 + .ra: lr
STACK CFI 12c88 .cfa: sp 8 + .ra: .cfa -4 + ^ r4: .cfa -8 + ^
STACK CFI INIT 12ca8 30 .cfa: sp 0 + .ra: lr
STACK CFI 12cb0 .cfa: sp 8 + .ra: .cfa -4 + ^ r4: .cfa -8 + ^
STACK CFI INIT 12cd8 28 .cfa: sp 0 + .ra: lr
STACK CFI 12ce0 .cfa: sp 8 + .ra: .cfa -4 + ^ r4: .cfa -8 + ^
STACK CFI INIT 12d00 30 .cfa: sp 0 + .ra: lr
STACK CFI 12d08 .cfa: sp 8 + .ra: .cfa -4 + ^ r4: .cfa -8 + ^
STACK CFI INIT 12d30 34 .cfa: sp 0 + .ra: lr
STACK CFI 12d38 .cfa: sp 8 + .ra: .cfa -4 + ^ r4: .cfa -8 + ^
STACK CFI INIT 12d64 28 .cfa: sp 0 + .ra: lr
STACK CFI 12d68 .cfa: sp 8 + .ra: .cfa -4 + ^ r4: .cfa -8 + ^
STACK CFI INIT 12d8c 28 .cfa: sp 0 + .ra: lr
STACK CFI 12d90 .cfa: sp 8 + .ra: .cfa -4 + ^ r4: .cfa -8 + ^
STACK CFI INIT 12db4 28 .cfa: sp 0 + .ra: lr
STACK CFI 12db8 .cfa: sp 8 + .ra: .cfa -4 + ^ r4: .cfa -8 + ^
STACK CFI INIT 12ddc 28 .cfa: sp 0 + .ra: lr
STACK CFI 12de0 .cfa: sp 8 + .ra: .cfa -4 + ^ r4: .cfa -8 + ^
STACK CFI INIT 12e04 34 .cfa: sp 0 + .ra: lr
STACK CFI 12e0c .cfa: sp 8 + .ra: .cfa -4 + ^ r4: .cfa -8 + ^
STACK CFI INIT 12e38 28 .cfa: sp 0 + .ra: lr
STACK CFI 12e3c .cfa: sp 8 + .ra: .cfa -4 + ^ r4: .cfa -8 + ^
STACK CFI INIT 12e60 28 .cfa: sp 0 + .ra: lr
STACK CFI 12e64 .cfa: sp 8 + .ra: .cfa -4 + ^ r4: .cfa -8 + ^
STACK CFI INIT 12e88 28 .cfa: sp 0 + .ra: lr
STACK CFI 12e8c .cfa: sp 8 + .ra: .cfa -4 + ^ r4: .cfa -8 + ^
STACK CFI INIT 12eb0 8 .cfa: sp 0 + .ra: lr
STACK CFI INIT 12eb8 84 .cfa: sp 0 + .ra: lr
STACK CFI 12ec4 .cfa: sp 8 + .ra: .cfa -4 + ^ r4: .cfa -8 + ^
STACK CFI 12ed8 .cfa: sp 16 +
STACK CFI INIT 12f3c 1c .cfa: sp 0 + .ra: lr
STACK CFI 12f40 .cfa: sp 8 + .ra: .cfa -4 + ^ r4: .cfa -8 + ^
STACK CFI INIT 12f58 4c .cfa: sp 0 + .ra: lr
STACK CFI 12f5c .cfa: sp 16 + .ra: .cfa -4 + ^ r3: .cfa -16 + ^ r4: .cfa -12 + ^ r5: .cfa -8 + ^
STACK CFI INIT 12fa4 c .cfa: sp 0 + .ra: lr
STACK CFI INIT 12fb0 14 .cfa: sp 0 + .ra: lr
STACK CFI 12fb4 .cfa: sp 8 + .ra: .cfa -4 + ^ r4: .cfa -8 + ^
STACK CFI INIT 12fc4 18 .cfa: sp 0 + .ra: lr
STACK CFI 12fc8 .cfa: sp 8 + .ra: .cfa -4 + ^ r3: .cfa -8 + ^
STACK CFI INIT 12fdc 14 .cfa: sp 0 + .ra: lr
STACK CFI 12fe0 .cfa: sp 8 + .ra: .cfa -4 + ^ r3: .cfa -8 + ^
STACK CFI INIT 12ff0 14 .cfa: sp 0 + .ra: lr
STACK CFI 12ff4 .cfa: sp 8 + .ra: .cfa -4 + ^ r3: .cfa -8 + ^
STACK CFI INIT 13004 10 .cfa: sp 0 + .ra: lr
STACK CFI INIT 13014 14 .cfa: sp 0 + .ra: lr
STACK CFI 13018 .cfa: sp 8 + .ra: .cfa -4 + ^ r4: .cfa -8 + ^
STACK CFI INIT 13028 28 .cfa: sp 0 + .ra: lr
STACK CFI 13030 .cfa: sp 8 + .ra: .cfa -4 + ^ r4: .cfa -8 + ^
STACK CFI INIT 13050 30 .cfa: sp 0 + .ra: lr
STACK CFI 13058 .cfa: sp 8 + .ra: .cfa -4 + ^ r4: .cfa -8 + ^
STACK CFI INIT 13080 c0 .cfa: sp 0 + .ra: lr
STACK CFI 13084 .cfa: sp 16 + .ra: .cfa -4 + ^ r4: .cfa -16 + ^ r5: .cfa -12 + ^ r6: .cfa -8 + ^
STACK CFI 13088 .cfa: sp 32 +
STACK CFI INIT 13140 10 .cfa: sp 0 + .ra: lr
STACK CFI INIT 13150 10 .cfa: sp 0 + .ra: lr
STACK CFI INIT 13160 18 .cfa: sp 0 + .ra: lr
STACK CFI INIT 13178 c .cfa: sp 0 + .ra: lr
STACK CFI INIT 13184 60 .cfa: sp 0 + .ra: lr
STACK CFI 13190 .cfa: sp 8 + .ra: .cfa -4 + ^ r4: .cfa -8 + ^
STACK CFI 13194 .cfa: sp 16 +
STACK CFI INIT 131e4 28 .cfa: sp 0 + .ra: lr
STACK CFI INIT 1320c 18 .cfa: sp 0 + .ra: lr
STACK CFI INIT 13224 18 .cfa: sp 0 + .ra: lr
STACK CFI INIT 1323c 28 .cfa: sp 0 + .ra: lr
STACK CFI 13244 .cfa: sp 8 + .ra: .cfa -4 + ^ r4: .cfa -8 + ^
STACK CFI INIT 13264 28 .cfa: sp 0 + .ra: lr
STACK CFI 1326c .cfa: sp 8 + .ra: .cfa -4 + ^ r4: .cfa -8 + ^
STACK CFI INIT 1328c 28 .cfa: sp 0 + .ra: lr
STACK CFI 13294 .cfa: sp 8 + .ra: .cfa -4 + ^ r4: .cfa -8 + ^
STACK CFI INIT 132b4 28 .cfa: sp 0 + .ra: lr
STACK CFI 132bc .cfa: sp 8 + .ra: .cfa -4 + ^ r4: .cfa -8 + ^
STACK CFI INIT 132dc 30 .cfa: sp 0 + .ra: lr
STACK CFI 132e4 .cfa: sp 8 + .ra: .cfa -4 + ^ r4: .cfa -8 + ^
STACK CFI INIT 1330c 30 .cfa: sp 0 + .ra: lr
STACK CFI 13310 .cfa: sp 8 + .ra: .cfa -4 + ^ r4: .cfa -8 + ^
STACK CFI 13318 .cfa: sp 16 +
STACK CFI INIT 1333c 30 .cfa: sp 0 + .ra: lr
STACK CFI 13340 .cfa: sp 8 + .ra: .cfa -4 + ^ r4: .cfa -8 + ^
STACK CFI 13348 .cfa: sp 16 +
STACK CFI INIT 1336c 18 .cfa: sp 0 + .ra: lr
STACK CFI INIT 13384 10 .cfa: sp 0 + .ra: lr
STACK CFI INIT 13394 10 .cfa: sp 0 + .ra: lr
STACK CFI INIT 133a4 24 .cfa: sp 0 + .ra: lr
STACK CFI 133ac .cfa: sp 8 + .ra: .cfa -4 + ^ r4: .cfa -8 + ^
STACK CFI INIT 42f8 84 .cfa: sp 0 + .ra: lr
STACK CFI 42fc .cfa: sp 8 + .ra: .cfa -4 + ^ r4: .cfa -8 + ^
STACK CFI INIT 133c8 2c .cfa: sp 0 + .ra: lr
STACK CFI 133cc .cfa: sp 8 + .ra: .cfa -4 + ^ r3: .cfa -8 + ^
STACK CFI INIT 133f4 18 .cfa: sp 0 + .ra: lr
STACK CFI INIT 1340c ac .cfa: sp 0 + .ra: lr
STACK CFI 13410 .cfa: sp 48 + .ra: .cfa -4 + ^ r0: .cfa -48 + ^ r1: .cfa -44 + ^ r10: .cfa -12 + ^ r11: .cfa -8 + ^ r2: .cfa -40 + ^ r4: .cfa -36 + ^ r5: .cfa -32 + ^ r6: .cfa -28 + ^ r7: .cfa -24 + ^ r8: .cfa -20 + ^ r9: .cfa -16 + ^
STACK CFI INIT 134b8 50 .cfa: sp 0 + .ra: lr
STACK CFI INIT 13508 10c .cfa: sp 0 + .ra: lr
STACK CFI 13510 .cfa: sp 24 + .ra: .cfa -4 + ^ r0: .cfa -24 + ^ r1: .cfa -20 + ^ r2: .cfa -16 + ^ r4: .cfa -12 + ^ r5: .cfa -8 + ^
STACK CFI INIT 13614 6c .cfa: sp 0 + .ra: lr
STACK CFI 1361c .cfa: sp 8 + .ra: .cfa -4 + ^ r4: .cfa -8 + ^
STACK CFI INIT 13680 14 .cfa: sp 0 + .ra: lr
STACK CFI INIT 13694 8 .cfa: sp 0 + .ra: lr
STACK CFI INIT 1369c 4 .cfa: sp 0 + .ra: lr
STACK CFI INIT 136a0 64 .cfa: sp 0 + .ra: lr
STACK CFI 136a4 .cfa: sp 16 + .ra: .cfa -4 + ^ r4: .cfa -16 + ^ r5: .cfa -12 + ^ r6: .cfa -8 + ^
STACK CFI INIT 13704 124 .cfa: sp 0 + .ra: lr
STACK CFI 13708 .cfa: sp 36 + .ra: .cfa -4 + ^ r10: .cfa -12 + ^ r11: .cfa -8 + ^ r4: .cfa -36 + ^ r5: .cfa -32 + ^ r6: .cfa -28 + ^ r7: .cfa -24 + ^ r8: .cfa -20 + ^ r9: .cfa -16 + ^
STACK CFI 13724 .cfa: sp 1008 +
STACK CFI INIT 13828 8 .cfa: sp 0 + .ra: lr
STACK CFI INIT 13830 a4 .cfa: sp 0 + .ra: lr
STACK CFI 13838 .cfa: sp 20 + .ra: .cfa -4 + ^ r4: .cfa -20 + ^ r5: .cfa -16 + ^ r6: .cfa -12 + ^ r7: .cfa -8 + ^
STACK CFI 1384c .cfa: sp 504 +
STACK CFI INIT 138d4 1c .cfa: sp 0 + .ra: lr
STACK CFI INIT 138f0 74 .cfa: sp 0 + .ra: lr
STACK CFI 138f4 .cfa: sp 16 + .ra: .cfa -4 + ^ r4: .cfa -16 + ^ r5: .cfa -12 + ^ r6: .cfa -8 + ^
STACK CFI INIT 13964 20 .cfa: sp 0 + .ra: lr
STACK CFI INIT 13984 4 .cfa: sp 0 + .ra: lr
STACK CFI INIT 13988 20 .cfa: sp 0 + .ra: lr
STACK CFI 1398c .cfa: sp 8 + .ra: .cfa -4 + ^ r3: .cfa -8 + ^
STACK CFI INIT 139a8 5c .cfa: sp 0 + .ra: lr
STACK CFI INIT 13a04 28 .cfa: sp 0 + .ra: lr
STACK CFI 13a08 .cfa: sp 24 + .ra: .cfa -4 + ^ r0: .cfa -24 + ^ r1: .cfa -20 + ^ r2: .cfa -16 + ^ r3: .cfa -12 + ^ r4: .cfa -8 + ^
STACK CFI INIT 13a2c 5c .cfa: sp 0 + .ra: lr
STACK CFI INIT 13a88 2c .cfa: sp 0 + .ra: lr
STACK CFI 13a8c .cfa: sp 24 + .ra: .cfa -4 + ^ r0: .cfa -24 + ^ r1: .cfa -20 + ^ r2: .cfa -16 + ^ r3: .cfa -12 + ^ r4: .cfa -8 + ^
STACK CFI INIT 13ab4 c4 .cfa: sp 0 + .ra: lr
STACK CFI 13abc .cfa: sp 24 + .ra: .cfa -4 + ^ r4: .cfa -24 + ^ r5: .cfa -20 + ^ r6: .cfa -16 + ^ r7: .cfa -12 + ^ r8: .cfa -8 + ^
STACK CFI 13ad0 .cfa: sp 592 +
STACK CFI INIT 13b78 3f0 .cfa: sp 0 + .ra: lr
STACK CFI 13b7c .cfa: sp 36 + .ra: .cfa -4 + ^ r10: .cfa -12 + ^ r11: .cfa -8 + ^ r4: .cfa -36 + ^ r5: .cfa -32 + ^ r6: .cfa -28 + ^ r7: .cfa -24 + ^ r8: .cfa -20 + ^ r9: .cfa -16 + ^
STACK CFI 13b88 .cfa: sp 72 +
STACK CFI INIT 13f68 8 .cfa: sp 0 + .ra: lr
STACK CFI INIT 13f70 8 .cfa: sp 0 + .ra: lr
STACK CFI INIT 13f78 8 .cfa: sp 0 + .ra: lr
STACK CFI INIT 13f80 34c .cfa: sp 0 + .ra: lr
STACK CFI 13f84 .cfa: sp 28 + .ra: .cfa -4 + ^ r4: .cfa -28 + ^ r5: .cfa -24 + ^ r6: .cfa -20 + ^ r7: .cfa -16 + ^ r8: .cfa -12 + ^ r9: .cfa -8 + ^
STACK CFI 13f8c .cfa: sp 296 +
STACK CFI INIT 14474 60 .cfa: sp 0 + .ra: lr
STACK CFI INIT 144d4 28 .cfa: sp 0 + .ra: lr
STACK CFI 144d8 .cfa: sp 24 + .ra: .cfa -4 + ^ r0: .cfa -24 + ^ r1: .cfa -20 + ^ r2: .cfa -16 + ^ r3: .cfa -12 + ^ r4: .cfa -8 + ^
STACK CFI INIT 144fc 4 .cfa: sp 0 + .ra: lr
STACK CFI INIT 14500 37c .cfa: sp 0 + .ra: lr
STACK CFI 14504 .cfa: sp 48 + .ra: .cfa -4 + ^ r0: .cfa -48 + ^ r1: .cfa -44 + ^ r10: .cfa -8 + ^ r2: .cfa -40 + ^ r3: .cfa -36 + ^ r4: .cfa -32 + ^ r5: .cfa -28 + ^ r6: .cfa -24 + ^ r7: .cfa -20 + ^ r8: .cfa -16 + ^ r9: .cfa -12 + ^
STACK CFI INIT 1487c 40 .cfa: sp 0 + .ra: lr
STACK CFI 14880 .cfa: sp 24 + .ra: .cfa -4 + ^ r0: .cfa -24 + ^ r1: .cfa -20 + ^ r2: .cfa -16 + ^ r3: .cfa -12 + ^ r4: .cfa -8 + ^
STACK CFI INIT 148bc 10 .cfa: sp 0 + .ra: lr
STACK CFI 148c0 .cfa: sp 8 + .ra: .cfa -4 + ^ r3: .cfa -8 + ^
STACK CFI INIT 148cc 1c .cfa: sp 0 + .ra: lr
STACK CFI 148d0 .cfa: sp 8 + .ra: .cfa -4 + ^ r3: .cfa -8 + ^
STACK CFI INIT 148e8 8 .cfa: sp 0 + .ra: lr
STACK CFI 148ec .cfa: sp 8 + .ra: .cfa -4 + ^ r3: .cfa -8 + ^
STACK CFI INIT 148f0 8 .cfa: sp 0 + .ra: lr
STACK CFI 148f4 .cfa: sp 8 + .ra: .cfa -4 + ^ r3: .cfa -8 + ^
