MODULE Linux arm E17188DFA3140A90D0AF0BE0EA429D3D0 libdvdcss-arm.so
FUNC 2788 8e0 0 CryptKey
FUNC 3068 304 0 DecryptKey
FUNC 336c 534 0 GetBusKey
FUNC 38a0 124 0 GetASF
FUNC 39c4 88 0 PrintKey
FUNC 3a4c eb0 0 CrackTitleKey
FUNC 48fc 250 0 _dvdcss_test
FUNC 4b4c cd0 0 _dvdcss_disckey
FUNC 581c 87c 0 _dvdcss_title
FUNC 6098 100 0 _dvdcss_unscramble
FUNC 6198 2c 0 libc_readv
FUNC 61c4 194 0 libc_read
FUNC 6358 8c 0 libc_seek
FUNC 63e4 3c 0 _dvdcss_use_ioctls
FUNC 6420 10c 0 _dvdcss_check
FUNC 652c 1a8 0 _dvdcss_open
FUNC 66d4 c4 0 _dvdcss_raw_open
FUNC 6798 34 0 _dvdcss_close
FUNC 67d0 4c 0 _print_error
FUNC 681c 58 0 ioctl_ReadCopyright
FUNC 6874 7c 0 ioctl_ReadDiscKey
FUNC 68f0 60 0 ioctl_ReadTitleKey
FUNC 6950 50 0 ioctl_ReportAgid
FUNC 69a0 68 0 ioctl_ReportChallenge
FUNC 6a08 58 0 ioctl_ReportASF
FUNC 6a60 60 0 ioctl_ReportKey1
FUNC 6ac0 48 0 ioctl_InvalidateAgid
FUNC 6b08 54 0 ioctl_SendChallenge
FUNC 6b5c 54 0 ioctl_SendKey2
FUNC 6bb0 64 0 ioctl_ReportRPC
FUNC 6c14 9d0 0 dvdcss_open
FUNC 75e4 c 0 dvdcss_error
FUNC 75f0 5c 0 dvdcss_seek
FUNC 764c c8 0 dvdcss_read
FUNC 7714 b0 0 dvdcss_readv
FUNC 77c4 54 0 dvdcss_close
FUNC 7818 4 0 dvdcss_title
FUNC 781c 8 0 dvdcss_is_scrambled
FUNC 7824 4 0 __wrap_dlopen
FUNC 7828 4 0 __wrap_popen
FUNC 782c 4 0 __wrap_calloc
FUNC 7830 4 0 __wrap_malloc
FUNC 7834 4 0 __wrap_realloc
FUNC 7838 4 0 __wrap_free
FUNC 783c 1c 0 __wrap_open
FUNC 7858 1c 0 __wrap_open64
FUNC 7874 4 0 __wrap_close
FUNC 7878 4 0 __wrap_write
FUNC 787c 4 0 __wrap_read
FUNC 7880 4 0 __wrap_lseek
FUNC 7884 4 0 __wrap_lseek64
FUNC 7888 4 0 __wrap_fclose
FUNC 788c 4 0 __wrap_ferror
FUNC 7890 4 0 __wrap_clearerr
FUNC 7894 4 0 __wrap_feof
FUNC 7898 4 0 __wrap_fileno
FUNC 789c 4 0 __wrap_fopen
FUNC 78a0 4 0 __wrap_fopen64
FUNC 78a4 4 0 __wrap_fdopen
FUNC 78a8 4 0 __wrap_freopen
FUNC 78ac 4 0 __wrap_fread
FUNC 78b0 4 0 __wrap_fwrite
FUNC 78b4 4 0 __wrap_fflush
FUNC 78b8 4 0 __wrap_fputc
FUNC 78bc 4 0 __wrap_fputs
FUNC 78c0 4 0 __wrap__IO_putc
FUNC 78c4 4 0 __wrap_fseek
FUNC 78c8 4 0 __wrap_fseeko64
FUNC 78cc 4 0 __wrap_ftell
FUNC 78d0 4 0 __wrap_ftello64
FUNC 78d4 4 0 __wrap_rewind
FUNC 78d8 4 0 __wrap_fgetpos
FUNC 78dc 4 0 __wrap_fgetpos64
FUNC 78e0 4 0 __wrap_fsetpos
FUNC 78e4 4 0 __wrap_fsetpos64
FUNC 78e8 4 0 __wrap_opendir
FUNC 78ec 4 0 __wrap_readdir
FUNC 78f0 4 0 __wrap_readdir64
FUNC 78f4 4 0 __wrap_closedir
FUNC 78f8 4 0 __wrap_rewinddir
FUNC 78fc 30 0 __wrap_fprintf
FUNC 792c 4 0 __wrap_vfprintf
FUNC 7930 40 0 __wrap_printf
FUNC 7970 4 0 __wrap_fgetc
FUNC 7974 4 0 __wrap_fgets
FUNC 7978 4 0 __wrap__IO_getc
FUNC 797c 4 0 __wrap__IO_getc_unlocked
FUNC 7980 4 0 __wrap_getc_unlocked
FUNC 7984 4 0 __wrap_ungetc
FUNC 7988 4 0 __wrap_getc
FUNC 798c 30 0 __wrap_ioctl
FUNC 79bc 4 0 __wrap__stat
FUNC 79c0 4 0 __wrap_stat
FUNC 79c4 c 0 __wrap___xstat64
FUNC 79d0 c 0 __wrap___lxstat64
FUNC 79dc 4 0 __wrap_flockfile
FUNC 79e0 4 0 __wrap_ftrylockfile
FUNC 79e4 4 0 __wrap_funlockfile
FUNC 79e8 c 0 __wrap___fxstat64
FUNC 79f4 4 0 __wrap_fstat
FUNC 79f8 4 0 __wrap_setvbuf
FUNC 79fc 4 0 __wrap_getmntent
FUNC 7ad8 18 0 selfrel_offset31
FUNC 7af0 ac 0 search_EIT_table
FUNC 7b9c 50 0 __gnu_unwind_get_pr_addr
FUNC 7bec 110 0 get_eit_entry
FUNC 7cfc 6c 0 restore_non_core_regs
FUNC 7d68 14 0 _Unwind_decode_typeinfo_ptr
FUNC 7d7c 8 0 __gnu_unwind_24bit
FUNC 7d84 4 0 _Unwind_DebugHook
FUNC 7d88 64 0 unwind_phase2
FUNC 7dec 124 0 unwind_phase2_forced
FUNC 7f10 8 0 _Unwind_GetCFA
FUNC 7f18 a4 0 __gnu_Unwind_RaiseException
FUNC 7fbc 1c 0 __gnu_Unwind_ForcedUnwind
FUNC 7fd8 74 0 __gnu_Unwind_Resume
FUNC 804c 20 0 __gnu_Unwind_Resume_or_Rethrow
FUNC 806c 4 0 _Unwind_Complete
FUNC 8070 20 0 _Unwind_DeleteException
FUNC 8090 5c 0 _Unwind_VRS_Get
FUNC 80ec 28 0 _Unwind_GetGR
FUNC 8114 5c 0 _Unwind_VRS_Set
FUNC 8170 2c 0 _Unwind_SetGR
FUNC 819c c4 0 __gnu_Unwind_Backtrace
FUNC 8260 3f4 0 __gnu_unwind_pr_common
FUNC 8654 8 0 __aeabi_unwind_cpp_pr0
FUNC 865c 8 0 __aeabi_unwind_cpp_pr1
FUNC 8664 8 0 __aeabi_unwind_cpp_pr2
FUNC 866c 358 0 _Unwind_VRS_Pop
FUNC 8b6c 60 0 next_unwind_byte
FUNC 8bcc 28 0 _Unwind_GetGR
FUNC 8bf4 4 0 unwind_UCB_from_context
FUNC 8bf8 37c 0 __gnu_unwind_execute
FUNC 8f74 40 0 __gnu_unwind_frame
FUNC 8fb4 10 0 _Unwind_GetRegionStart
FUNC 8fc4 1c 0 _Unwind_GetLanguageSpecificData
FUNC 8fe0 8 0 _Unwind_GetDataRelBase
FUNC 8fe8 8 0 _Unwind_GetTextRelBase
PUBLIC 6c14 0 dvdcss_open
PUBLIC 75e4 0 dvdcss_error
PUBLIC 75f0 0 dvdcss_seek
PUBLIC 764c 0 dvdcss_read
PUBLIC 7714 0 dvdcss_readv
PUBLIC 77c4 0 dvdcss_close
PUBLIC 7818 0 dvdcss_title
PUBLIC 781c 0 dvdcss_is_scrambled
PUBLIC 7824 0 __wrap_dlopen
PUBLIC 7828 0 __wrap_popen
PUBLIC 782c 0 __wrap_calloc
PUBLIC 7830 0 __wrap_malloc
PUBLIC 7834 0 __wrap_realloc
PUBLIC 7838 0 __wrap_free
PUBLIC 783c 0 __wrap_open
PUBLIC 7858 0 __wrap_open64
PUBLIC 7874 0 __wrap_close
PUBLIC 7878 0 __wrap_write
PUBLIC 787c 0 __wrap_read
PUBLIC 7880 0 __wrap_lseek
PUBLIC 7884 0 __wrap_lseek64
PUBLIC 7888 0 __wrap_fclose
PUBLIC 788c 0 __wrap_ferror
PUBLIC 7890 0 __wrap_clearerr
PUBLIC 7894 0 __wrap_feof
PUBLIC 7898 0 __wrap_fileno
PUBLIC 789c 0 __wrap_fopen
PUBLIC 78a0 0 __wrap_fopen64
PUBLIC 78a4 0 __wrap_fdopen
PUBLIC 78a8 0 __wrap_freopen
PUBLIC 78ac 0 __wrap_fread
PUBLIC 78b0 0 __wrap_fwrite
PUBLIC 78b4 0 __wrap_fflush
PUBLIC 78b8 0 __wrap_fputc
PUBLIC 78bc 0 __wrap_fputs
PUBLIC 78c0 0 __wrap__IO_putc
PUBLIC 78c4 0 __wrap_fseek
PUBLIC 78c8 0 __wrap_fseeko64
PUBLIC 78cc 0 __wrap_ftell
PUBLIC 78d0 0 __wrap_ftello64
PUBLIC 78d4 0 __wrap_rewind
PUBLIC 78d8 0 __wrap_fgetpos
PUBLIC 78dc 0 __wrap_fgetpos64
PUBLIC 78e0 0 __wrap_fsetpos
PUBLIC 78e4 0 __wrap_fsetpos64
PUBLIC 78e8 0 __wrap_opendir
PUBLIC 78ec 0 __wrap_readdir
PUBLIC 78f0 0 __wrap_readdir64
PUBLIC 78f4 0 __wrap_closedir
PUBLIC 78f8 0 __wrap_rewinddir
PUBLIC 78fc 0 __wrap_fprintf
PUBLIC 792c 0 __wrap_vfprintf
PUBLIC 7930 0 __wrap_printf
PUBLIC 7970 0 __wrap_fgetc
PUBLIC 7974 0 __wrap_fgets
PUBLIC 7978 0 __wrap__IO_getc
PUBLIC 797c 0 __wrap__IO_getc_unlocked
PUBLIC 7980 0 __wrap_getc_unlocked
PUBLIC 7984 0 __wrap_ungetc
PUBLIC 7988 0 __wrap_getc
PUBLIC 798c 0 __wrap_ioctl
PUBLIC 79bc 0 __wrap__stat
PUBLIC 79c0 0 __wrap_stat
PUBLIC 79c4 0 __wrap___xstat64
PUBLIC 79d0 0 __wrap___lxstat64
PUBLIC 79dc 0 __wrap_flockfile
PUBLIC 79e0 0 __wrap_ftrylockfile
PUBLIC 79e4 0 __wrap_funlockfile
PUBLIC 79e8 0 __wrap___fxstat64
PUBLIC 79f4 0 __wrap_fstat
PUBLIC 79f8 0 __wrap_setvbuf
PUBLIC 79fc 0 __wrap_getmntent
PUBLIC 7a00 0 __aeabi_uidiv
PUBLIC 7aa8 0 __aeabi_uidivmod
PUBLIC 7ac8 0 __aeabi_idiv0
PUBLIC 7f10 0 _Unwind_GetCFA
PUBLIC 7f18 0 __gnu_Unwind_RaiseException
PUBLIC 7fbc 0 __gnu_Unwind_ForcedUnwind
PUBLIC 7fd8 0 __gnu_Unwind_Resume
PUBLIC 804c 0 __gnu_Unwind_Resume_or_Rethrow
PUBLIC 806c 0 _Unwind_Complete
PUBLIC 8070 0 _Unwind_DeleteException
PUBLIC 8090 0 _Unwind_VRS_Get
PUBLIC 8114 0 _Unwind_VRS_Set
PUBLIC 819c 0 __gnu_Unwind_Backtrace
PUBLIC 8654 0 __aeabi_unwind_cpp_pr0
PUBLIC 865c 0 __aeabi_unwind_cpp_pr1
PUBLIC 8664 0 __aeabi_unwind_cpp_pr2
PUBLIC 866c 0 _Unwind_VRS_Pop
PUBLIC 89c4 0 restore_core_regs
PUBLIC 89d8 0 __gnu_Unwind_Restore_VFP
PUBLIC 89e0 0 __gnu_Unwind_Save_VFP
PUBLIC 89e8 0 __gnu_Unwind_Restore_VFP_D
PUBLIC 89f0 0 __gnu_Unwind_Save_VFP_D
PUBLIC 89f8 0 __gnu_Unwind_Restore_VFP_D_16_to_31
PUBLIC 8a00 0 __gnu_Unwind_Save_VFP_D_16_to_31
PUBLIC 8a08 0 __gnu_Unwind_Restore_WMMXD
PUBLIC 8a4c 0 __gnu_Unwind_Save_WMMXD
PUBLIC 8a90 0 __gnu_Unwind_Restore_WMMXC
PUBLIC 8aa4 0 __gnu_Unwind_Save_WMMXC
PUBLIC 8ab8 0 ___Unwind_RaiseException
PUBLIC 8adc 0 ___Unwind_Resume
PUBLIC 8b00 0 ___Unwind_Resume_or_Rethrow
PUBLIC 8b24 0 ___Unwind_ForcedUnwind
PUBLIC 8b48 0 ___Unwind_Backtrace
PUBLIC 8bf8 0 __gnu_unwind_execute
PUBLIC 8f74 0 __gnu_unwind_frame
PUBLIC 8fb4 0 _Unwind_GetRegionStart
PUBLIC 8fc4 0 _Unwind_GetLanguageSpecificData
PUBLIC 8fe0 0 _Unwind_GetDataRelBase
PUBLIC 8fe8 0 _Unwind_GetTextRelBase
STACK CFI INIT 2788 8e0 .cfa: sp 0 + .ra: lr
STACK CFI 278c .cfa: sp 32 + r10: .cfa -8 + ^ r11: .cfa -4 + ^ r4: .cfa -32 + ^ r5: .cfa -28 + ^ r6: .cfa -24 + ^ r7: .cfa -20 + ^ r8: .cfa -16 + ^ r9: .cfa -12 + ^
STACK CFI 2798 .cfa: sp 120 +
STACK CFI INIT 3068 304 .cfa: sp 0 + .ra: lr
STACK CFI 306c .cfa: sp 32 + r10: .cfa -8 + ^ r11: .cfa -4 + ^ r4: .cfa -32 + ^ r5: .cfa -28 + ^ r6: .cfa -24 + ^ r7: .cfa -20 + ^ r8: .cfa -16 + ^ r9: .cfa -12 + ^
STACK CFI 3070 .cfa: sp 64 +
STACK CFI INIT 336c 534 .cfa: sp 0 + .ra: lr
STACK CFI 3374 .cfa: sp 36 + .ra: .cfa -4 + ^ r10: .cfa -12 + ^ r11: .cfa -8 + ^ r4: .cfa -36 + ^ r5: .cfa -32 + ^ r6: .cfa -28 + ^ r7: .cfa -24 + ^ r8: .cfa -20 + ^ r9: .cfa -16 + ^
STACK CFI 337c .cfa: sp 112 +
STACK CFI INIT 38a0 124 .cfa: sp 0 + .ra: lr
STACK CFI 38a4 .cfa: sp 8 + .ra: .cfa -4 + ^ r4: .cfa -8 + ^
STACK CFI 38a8 .cfa: sp 16 +
STACK CFI INIT 39c4 88 .cfa: sp 0 + .ra: lr
STACK CFI 39c8 .cfa: sp 16 + .ra: .cfa -4 + ^ r4: .cfa -16 + ^ r5: .cfa -12 + ^ r6: .cfa -8 + ^
STACK CFI 39d8 .cfa: sp 32 +
STACK CFI INIT 3a4c eb0 .cfa: sp 0 + .ra: lr
STACK CFI 3a50 .cfa: sp 36 + .ra: .cfa -4 + ^ r10: .cfa -12 + ^ r11: .cfa -8 + ^ r4: .cfa -36 + ^ r5: .cfa -32 + ^ r6: .cfa -28 + ^ r7: .cfa -24 + ^ r8: .cfa -20 + ^ r9: .cfa -16 + ^
STACK CFI 3a60 .cfa: sp 2228 +
STACK CFI 3a68 .cfa: sp 2240 +
STACK CFI INIT 48fc 250 .cfa: sp 0 + .ra: lr
STACK CFI 4900 .cfa: sp 20 + .ra: .cfa -4 + ^ r4: .cfa -20 + ^ r5: .cfa -16 + ^ r6: .cfa -12 + ^ r7: .cfa -8 + ^
STACK CFI 4904 .cfa: sp 64 +
STACK CFI INIT 4b4c cd0 .cfa: sp 0 + .ra: lr
STACK CFI 4b50 .cfa: sp 36 + .ra: .cfa -4 + ^ r10: .cfa -12 + ^ r11: .cfa -8 + ^ r4: .cfa -36 + ^ r5: .cfa -32 + ^ r6: .cfa -28 + ^ r7: .cfa -24 + ^ r8: .cfa -20 + ^ r9: .cfa -16 + ^
STACK CFI 4b54 .cfa: sp 2212 +
STACK CFI 4b5c .cfa: sp 2224 +
STACK CFI INIT 581c 87c .cfa: sp 0 + .ra: lr
STACK CFI 5824 .cfa: sp 36 + .ra: .cfa -4 + ^ r10: .cfa -12 + ^ r11: .cfa -8 + ^ r4: .cfa -36 + ^ r5: .cfa -32 + ^ r6: .cfa -28 + ^ r7: .cfa -24 + ^ r8: .cfa -20 + ^ r9: .cfa -16 + ^
STACK CFI 5830 .cfa: sp 128 +
STACK CFI INIT 6098 100 .cfa: sp 0 + .ra: lr
STACK CFI 609c .cfa: sp 28 + r10: .cfa -4 + ^ r4: .cfa -28 + ^ r5: .cfa -24 + ^ r6: .cfa -20 + ^ r7: .cfa -16 + ^ r8: .cfa -12 + ^ r9: .cfa -8 + ^
STACK CFI INIT 6198 2c .cfa: sp 0 + .ra: lr
STACK CFI 619c .cfa: sp 8 + .ra: .cfa -4 + ^ r4: .cfa -8 + ^
STACK CFI INIT 61c4 194 .cfa: sp 0 + .ra: lr
STACK CFI 61cc .cfa: sp 36 + .ra: .cfa -4 + ^ r10: .cfa -12 + ^ r11: .cfa -8 + ^ r4: .cfa -36 + ^ r5: .cfa -32 + ^ r6: .cfa -28 + ^ r7: .cfa -24 + ^ r8: .cfa -20 + ^ r9: .cfa -16 + ^
STACK CFI 61d8 .cfa: sp 48 +
STACK CFI INIT 6358 8c .cfa: sp 0 + .ra: lr
STACK CFI 635c .cfa: sp 16 + .ra: .cfa -4 + ^ r4: .cfa -16 + ^ r5: .cfa -12 + ^ r6: .cfa -8 + ^
STACK CFI 6368 .cfa: sp 24 +
STACK CFI INIT 63e4 3c .cfa: sp 0 + .ra: lr
STACK CFI 63e8 .cfa: sp 4 + .ra: .cfa -4 + ^
STACK CFI 63ec .cfa: sp 112 +
STACK CFI INIT 6420 10c .cfa: sp 0 + .ra: lr
STACK CFI 642c .cfa: sp 20 + .ra: .cfa -4 + ^ r4: .cfa -20 + ^ r5: .cfa -16 + ^ r6: .cfa -12 + ^ r7: .cfa -8 + ^
STACK CFI 6438 .cfa: sp 40 +
STACK CFI INIT 652c 1a8 .cfa: sp 0 + .ra: lr
STACK CFI 6530 .cfa: sp 24 + .ra: .cfa -4 + ^ r4: .cfa -24 + ^ r5: .cfa -20 + ^ r6: .cfa -16 + ^ r7: .cfa -12 + ^ r8: .cfa -8 + ^
STACK CFI INIT 66d4 c4 .cfa: sp 0 + .ra: lr
STACK CFI 66d8 .cfa: sp 24 + .ra: .cfa -4 + ^ r3: .cfa -24 + ^ r4: .cfa -20 + ^ r5: .cfa -16 + ^ r6: .cfa -12 + ^ r7: .cfa -8 + ^
STACK CFI INIT 6798 34 .cfa: sp 0 + .ra: lr
STACK CFI 679c .cfa: sp 16 + .ra: .cfa -4 + ^ r3: .cfa -16 + ^ r4: .cfa -12 + ^ r5: .cfa -8 + ^
STACK CFI INIT 67d0 4c .cfa: sp 0 + .ra: lr
STACK CFI 67d4 .cfa: sp 16 + .ra: .cfa -4 + ^ r3: .cfa -16 + ^ r4: .cfa -12 + ^ r5: .cfa -8 + ^
STACK CFI INIT 681c 58 .cfa: sp 0 + .ra: lr
STACK CFI 6820 .cfa: sp 20 + .ra: .cfa -4 + ^ r4: .cfa -20 + ^ r5: .cfa -16 + ^ r6: .cfa -12 + ^ r7: .cfa -8 + ^
STACK CFI 6824 .cfa: sp 2068 +
STACK CFI 6828 .cfa: sp 2080 +
STACK CFI INIT 6874 7c .cfa: sp 0 + .ra: lr
STACK CFI 6878 .cfa: sp 24 + .ra: .cfa -4 + ^ r4: .cfa -24 + ^ r5: .cfa -20 + ^ r6: .cfa -16 + ^ r7: .cfa -12 + ^ r8: .cfa -8 + ^
STACK CFI 687c .cfa: sp 2072 +
STACK CFI 6880 .cfa: sp 2080 +
STACK CFI INIT 68f0 60 .cfa: sp 0 + .ra: lr
STACK CFI 68f4 .cfa: sp 12 + .ra: .cfa -4 + ^ r4: .cfa -12 + ^ r5: .cfa -8 + ^
STACK CFI 6900 .cfa: sp 32 +
STACK CFI INIT 6950 50 .cfa: sp 0 + .ra: lr
STACK CFI 6954 .cfa: sp 8 + .ra: .cfa -4 + ^ r4: .cfa -8 + ^
STACK CFI 6960 .cfa: sp 24 +
STACK CFI INIT 69a0 68 .cfa: sp 0 + .ra: lr
STACK CFI 69a4 .cfa: sp 12 + .ra: .cfa -4 + ^ r4: .cfa -12 + ^ r5: .cfa -8 + ^
STACK CFI 69b0 .cfa: sp 32 +
STACK CFI INIT 6a08 58 .cfa: sp 0 + .ra: lr
STACK CFI 6a0c .cfa: sp 12 + .ra: .cfa -4 + ^ r4: .cfa -12 + ^ r5: .cfa -8 + ^
STACK CFI 6a18 .cfa: sp 32 +
STACK CFI INIT 6a60 60 .cfa: sp 0 + .ra: lr
STACK CFI 6a64 .cfa: sp 12 + .ra: .cfa -4 + ^ r4: .cfa -12 + ^ r5: .cfa -8 + ^
STACK CFI 6a70 .cfa: sp 32 +
STACK CFI INIT 6ac0 48 .cfa: sp 0 + .ra: lr
STACK CFI 6ac4 .cfa: sp 8 + .ra: .cfa -4 + ^ r4: .cfa -8 + ^
STACK CFI 6ad0 .cfa: sp 24 +
STACK CFI INIT 6b08 54 .cfa: sp 0 + .ra: lr
STACK CFI 6b14 .cfa: sp 16 + .ra: .cfa -4 + ^ r4: .cfa -16 + ^ r5: .cfa -12 + ^ r6: .cfa -8 + ^
STACK CFI 6b18 .cfa: sp 32 +
STACK CFI INIT 6b5c 54 .cfa: sp 0 + .ra: lr
STACK CFI 6b68 .cfa: sp 12 + .ra: .cfa -4 + ^ r4: .cfa -12 + ^ r5: .cfa -8 + ^
STACK CFI 6b6c .cfa: sp 32 +
STACK CFI INIT 6bb0 64 .cfa: sp 0 + .ra: lr
STACK CFI 6bb4 .cfa: sp 16 + .ra: .cfa -4 + ^ r4: .cfa -16 + ^ r5: .cfa -12 + ^ r6: .cfa -8 + ^
STACK CFI 6bb8 .cfa: sp 32 +
STACK CFI INIT 6c14 9d0 .cfa: sp 0 + .ra: lr
STACK CFI 6c18 .cfa: sp 36 + .ra: .cfa -4 + ^ r10: .cfa -12 + ^ r11: .cfa -8 + ^ r4: .cfa -36 + ^ r5: .cfa -32 + ^ r6: .cfa -28 + ^ r7: .cfa -24 + ^ r8: .cfa -20 + ^ r9: .cfa -16 + ^
STACK CFI 6c24 .cfa: sp 8292 +
STACK CFI 6c28 .cfa: sp 8304 +
STACK CFI INIT 75e4 c .cfa: sp 0 + .ra: lr
STACK CFI INIT 75f0 5c .cfa: sp 0 + .ra: lr
STACK CFI 75f8 .cfa: sp 16 + .ra: .cfa -4 + ^ r3: .cfa -16 + ^ r4: .cfa -12 + ^ r5: .cfa -8 + ^
STACK CFI INIT 764c c8 .cfa: sp 0 + .ra: lr
STACK CFI 7650 .cfa: sp 24 + .ra: .cfa -4 + ^ r3: .cfa -24 + ^ r4: .cfa -20 + ^ r5: .cfa -16 + ^ r6: .cfa -12 + ^ r7: .cfa -8 + ^
STACK CFI INIT 7714 b0 .cfa: sp 0 + .ra: lr
STACK CFI 7718 .cfa: sp 32 + .ra: .cfa -4 + ^ r3: .cfa -32 + ^ r4: .cfa -28 + ^ r5: .cfa -24 + ^ r6: .cfa -20 + ^ r7: .cfa -16 + ^ r8: .cfa -12 + ^ r9: .cfa -8 + ^
STACK CFI INIT 77c4 54 .cfa: sp 0 + .ra: lr
STACK CFI 77c8 .cfa: sp 16 + .ra: .cfa -4 + ^ r3: .cfa -16 + ^ r4: .cfa -12 + ^ r5: .cfa -8 + ^
STACK CFI INIT 7818 4 .cfa: sp 0 + .ra: lr
STACK CFI INIT 781c 8 .cfa: sp 0 + .ra: lr
STACK CFI INIT 7824 4 .cfa: sp 0 + .ra: lr
STACK CFI INIT 7828 4 .cfa: sp 0 + .ra: lr
STACK CFI INIT 782c 4 .cfa: sp 0 + .ra: lr
STACK CFI INIT 7830 4 .cfa: sp 0 + .ra: lr
STACK CFI INIT 7834 4 .cfa: sp 0 + .ra: lr
STACK CFI INIT 7838 4 .cfa: sp 0 + .ra: lr
STACK CFI INIT 783c 1c .cfa: sp 0 + .ra: lr
STACK CFI 7840 .cfa: sp 12 + r1: .cfa -12 + ^ r2: .cfa -8 + ^ r3: .cfa -4 + ^
STACK CFI 7844 .cfa: sp 16 + .ra: .cfa -16 + ^
STACK CFI INIT 7858 1c .cfa: sp 0 + .ra: lr
STACK CFI 785c .cfa: sp 12 + r1: .cfa -12 + ^ r2: .cfa -8 + ^ r3: .cfa -4 + ^
STACK CFI 7860 .cfa: sp 16 + .ra: .cfa -16 + ^
STACK CFI INIT 7874 4 .cfa: sp 0 + .ra: lr
STACK CFI INIT 7878 4 .cfa: sp 0 + .ra: lr
STACK CFI INIT 787c 4 .cfa: sp 0 + .ra: lr
STACK CFI INIT 7880 4 .cfa: sp 0 + .ra: lr
STACK CFI INIT 7884 4 .cfa: sp 0 + .ra: lr
STACK CFI INIT 7888 4 .cfa: sp 0 + .ra: lr
STACK CFI INIT 788c 4 .cfa: sp 0 + .ra: lr
STACK CFI INIT 7890 4 .cfa: sp 0 + .ra: lr
STACK CFI INIT 7894 4 .cfa: sp 0 + .ra: lr
STACK CFI INIT 7898 4 .cfa: sp 0 + .ra: lr
STACK CFI INIT 789c 4 .cfa: sp 0 + .ra: lr
STACK CFI INIT 78a0 4 .cfa: sp 0 + .ra: lr
STACK CFI INIT 78a4 4 .cfa: sp 0 + .ra: lr
STACK CFI INIT 78a8 4 .cfa: sp 0 + .ra: lr
STACK CFI INIT 78ac 4 .cfa: sp 0 + .ra: lr
STACK CFI INIT 78b0 4 .cfa: sp 0 + .ra: lr
STACK CFI INIT 78b4 4 .cfa: sp 0 + .ra: lr
STACK CFI INIT 78b8 4 .cfa: sp 0 + .ra: lr
STACK CFI INIT 78bc 4 .cfa: sp 0 + .ra: lr
STACK CFI INIT 78c0 4 .cfa: sp 0 + .ra: lr
STACK CFI INIT 78c4 4 .cfa: sp 0 + .ra: lr
STACK CFI INIT 78c8 4 .cfa: sp 0 + .ra: lr
STACK CFI INIT 78cc 4 .cfa: sp 0 + .ra: lr
STACK CFI INIT 78d0 4 .cfa: sp 0 + .ra: lr
STACK CFI INIT 78d4 4 .cfa: sp 0 + .ra: lr
STACK CFI INIT 78d8 4 .cfa: sp 0 + .ra: lr
STACK CFI INIT 78dc 4 .cfa: sp 0 + .ra: lr
STACK CFI INIT 78e0 4 .cfa: sp 0 + .ra: lr
STACK CFI INIT 78e4 4 .cfa: sp 0 + .ra: lr
STACK CFI INIT 78e8 4 .cfa: sp 0 + .ra: lr
STACK CFI INIT 78ec 4 .cfa: sp 0 + .ra: lr
STACK CFI INIT 78f0 4 .cfa: sp 0 + .ra: lr
STACK CFI INIT 78f4 4 .cfa: sp 0 + .ra: lr
STACK CFI INIT 78f8 4 .cfa: sp 0 + .ra: lr
STACK CFI INIT 78fc 30 .cfa: sp 0 + .ra: lr
STACK CFI 7900 .cfa: sp 12 + r1: .cfa -12 + ^ r2: .cfa -8 + ^ r3: .cfa -4 + ^
STACK CFI 7904 .cfa: sp 16 + .ra: .cfa -16 + ^
STACK CFI 7908 .cfa: sp 24 +
STACK CFI INIT 792c 4 .cfa: sp 0 + .ra: lr
STACK CFI INIT 7930 40 .cfa: sp 0 + .ra: lr
STACK CFI 7934 .cfa: sp 16 + r0: .cfa -16 + ^ r1: .cfa -12 + ^ r2: .cfa -8 + ^ r3: .cfa -4 + ^
STACK CFI 793c .cfa: sp 20 + .ra: .cfa -20 + ^
STACK CFI 7940 .cfa: sp 32 +
STACK CFI INIT 7970 4 .cfa: sp 0 + .ra: lr
STACK CFI INIT 7974 4 .cfa: sp 0 + .ra: lr
STACK CFI INIT 7978 4 .cfa: sp 0 + .ra: lr
STACK CFI INIT 797c 4 .cfa: sp 0 + .ra: lr
STACK CFI INIT 7980 4 .cfa: sp 0 + .ra: lr
STACK CFI INIT 7984 4 .cfa: sp 0 + .ra: lr
STACK CFI INIT 7988 4 .cfa: sp 0 + .ra: lr
STACK CFI INIT 798c 30 .cfa: sp 0 + .ra: lr
STACK CFI 7990 .cfa: sp 12 + r1: .cfa -12 + ^ r2: .cfa -8 + ^ r3: .cfa -4 + ^
STACK CFI 7994 .cfa: sp 16 + .ra: .cfa -16 + ^
STACK CFI 7998 .cfa: sp 24 +
STACK CFI INIT 79bc 4 .cfa: sp 0 + .ra: lr
STACK CFI INIT 79c0 4 .cfa: sp 0 + .ra: lr
STACK CFI INIT 79c4 c .cfa: sp 0 + .ra: lr
STACK CFI INIT 79d0 c .cfa: sp 0 + .ra: lr
STACK CFI INIT 79dc 4 .cfa: sp 0 + .ra: lr
STACK CFI INIT 79e0 4 .cfa: sp 0 + .ra: lr
STACK CFI INIT 79e4 4 .cfa: sp 0 + .ra: lr
STACK CFI INIT 79e8 c .cfa: sp 0 + .ra: lr
STACK CFI INIT 79f4 4 .cfa: sp 0 + .ra: lr
STACK CFI INIT 79f8 4 .cfa: sp 0 + .ra: lr
STACK CFI INIT 79fc 4 .cfa: sp 0 + .ra: lr
STACK CFI INIT 7a00 a8 .cfa: sp 0 + .ra: lr
STACK CFI INIT 7ad8 18 .cfa: sp 0 + .ra: lr
STACK CFI INIT 7af0 ac .cfa: sp 0 + .ra: lr
STACK CFI 7af4 .cfa: sp 48 + .ra: .cfa -4 + ^ r0: .cfa -48 + ^ r1: .cfa -44 + ^ r10: .cfa -12 + ^ r11: .cfa -8 + ^ r2: .cfa -40 + ^ r4: .cfa -36 + ^ r5: .cfa -32 + ^ r6: .cfa -28 + ^ r7: .cfa -24 + ^ r8: .cfa -20 + ^ r9: .cfa -16 + ^
STACK CFI INIT 7b9c 50 .cfa: sp 0 + .ra: lr
STACK CFI INIT 7bec 110 .cfa: sp 0 + .ra: lr
STACK CFI 7bf4 .cfa: sp 24 + .ra: .cfa -4 + ^ r0: .cfa -24 + ^ r1: .cfa -20 + ^ r2: .cfa -16 + ^ r4: .cfa -12 + ^ r5: .cfa -8 + ^
STACK CFI INIT 7cfc 6c .cfa: sp 0 + .ra: lr
STACK CFI 7d04 .cfa: sp 8 + .ra: .cfa -4 + ^ r4: .cfa -8 + ^
STACK CFI INIT 7d68 14 .cfa: sp 0 + .ra: lr
STACK CFI INIT 7d7c 8 .cfa: sp 0 + .ra: lr
STACK CFI INIT 7d84 4 .cfa: sp 0 + .ra: lr
STACK CFI INIT 7d88 64 .cfa: sp 0 + .ra: lr
STACK CFI 7d8c .cfa: sp 16 + .ra: .cfa -4 + ^ r4: .cfa -16 + ^ r5: .cfa -12 + ^ r6: .cfa -8 + ^
STACK CFI INIT 7dec 124 .cfa: sp 0 + .ra: lr
STACK CFI 7df0 .cfa: sp 36 + .ra: .cfa -4 + ^ r10: .cfa -12 + ^ r11: .cfa -8 + ^ r4: .cfa -36 + ^ r5: .cfa -32 + ^ r6: .cfa -28 + ^ r7: .cfa -24 + ^ r8: .cfa -20 + ^ r9: .cfa -16 + ^
STACK CFI 7e0c .cfa: sp 1008 +
STACK CFI INIT 7f10 8 .cfa: sp 0 + .ra: lr
STACK CFI INIT 7f18 a4 .cfa: sp 0 + .ra: lr
STACK CFI 7f1c .cfa: sp 20 + .ra: .cfa -4 + ^ r4: .cfa -20 + ^ r5: .cfa -16 + ^ r6: .cfa -12 + ^ r7: .cfa -8 + ^
STACK CFI 7f38 .cfa: sp 504 +
STACK CFI INIT 7fbc 1c .cfa: sp 0 + .ra: lr
STACK CFI INIT 7fd8 74 .cfa: sp 0 + .ra: lr
STACK CFI 7fdc .cfa: sp 16 + .ra: .cfa -4 + ^ r4: .cfa -16 + ^ r5: .cfa -12 + ^ r6: .cfa -8 + ^
STACK CFI INIT 804c 20 .cfa: sp 0 + .ra: lr
STACK CFI INIT 806c 4 .cfa: sp 0 + .ra: lr
STACK CFI INIT 8070 20 .cfa: sp 0 + .ra: lr
STACK CFI 8074 .cfa: sp 8 + .ra: .cfa -4 + ^ r3: .cfa -8 + ^
STACK CFI INIT 8090 5c .cfa: sp 0 + .ra: lr
STACK CFI INIT 80ec 28 .cfa: sp 0 + .ra: lr
STACK CFI 80f0 .cfa: sp 24 + .ra: .cfa -4 + ^ r0: .cfa -24 + ^ r1: .cfa -20 + ^ r2: .cfa -16 + ^ r3: .cfa -12 + ^ r4: .cfa -8 + ^
STACK CFI INIT 8114 5c .cfa: sp 0 + .ra: lr
STACK CFI INIT 8170 2c .cfa: sp 0 + .ra: lr
STACK CFI 8174 .cfa: sp 24 + .ra: .cfa -4 + ^ r0: .cfa -24 + ^ r1: .cfa -20 + ^ r2: .cfa -16 + ^ r3: .cfa -12 + ^ r4: .cfa -8 + ^
STACK CFI INIT 819c c4 .cfa: sp 0 + .ra: lr
STACK CFI 81a0 .cfa: sp 24 + .ra: .cfa -4 + ^ r4: .cfa -24 + ^ r5: .cfa -20 + ^ r6: .cfa -16 + ^ r7: .cfa -12 + ^ r8: .cfa -8 + ^
STACK CFI 81bc .cfa: sp 592 +
STACK CFI INIT 8260 3f4 .cfa: sp 0 + .ra: lr
STACK CFI 8264 .cfa: sp 36 + .ra: .cfa -4 + ^ r10: .cfa -12 + ^ r11: .cfa -8 + ^ r4: .cfa -36 + ^ r5: .cfa -32 + ^ r6: .cfa -28 + ^ r7: .cfa -24 + ^ r8: .cfa -20 + ^ r9: .cfa -16 + ^
STACK CFI 8270 .cfa: sp 72 +
STACK CFI INIT 8654 8 .cfa: sp 0 + .ra: lr
STACK CFI INIT 865c 8 .cfa: sp 0 + .ra: lr
STACK CFI INIT 8664 8 .cfa: sp 0 + .ra: lr
STACK CFI INIT 866c 358 .cfa: sp 0 + .ra: lr
STACK CFI 8670 .cfa: sp 28 + .ra: .cfa -4 + ^ r4: .cfa -28 + ^ r5: .cfa -24 + ^ r6: .cfa -20 + ^ r7: .cfa -16 + ^ r8: .cfa -12 + ^ r9: .cfa -8 + ^
STACK CFI 8678 .cfa: sp 296 +
STACK CFI INIT 8b6c 60 .cfa: sp 0 + .ra: lr
STACK CFI INIT 8bcc 28 .cfa: sp 0 + .ra: lr
STACK CFI 8bd0 .cfa: sp 24 + .ra: .cfa -4 + ^ r0: .cfa -24 + ^ r1: .cfa -20 + ^ r2: .cfa -16 + ^ r3: .cfa -12 + ^ r4: .cfa -8 + ^
STACK CFI INIT 8bf4 4 .cfa: sp 0 + .ra: lr
STACK CFI INIT 8bf8 37c .cfa: sp 0 + .ra: lr
STACK CFI 8bfc .cfa: sp 48 + .ra: .cfa -4 + ^ r0: .cfa -48 + ^ r1: .cfa -44 + ^ r10: .cfa -8 + ^ r2: .cfa -40 + ^ r3: .cfa -36 + ^ r4: .cfa -32 + ^ r5: .cfa -28 + ^ r6: .cfa -24 + ^ r7: .cfa -20 + ^ r8: .cfa -16 + ^ r9: .cfa -12 + ^
STACK CFI INIT 8f74 40 .cfa: sp 0 + .ra: lr
STACK CFI 8f78 .cfa: sp 24 + .ra: .cfa -4 + ^ r0: .cfa -24 + ^ r1: .cfa -20 + ^ r2: .cfa -16 + ^ r3: .cfa -12 + ^ r4: .cfa -8 + ^
STACK CFI INIT 8fb4 10 .cfa: sp 0 + .ra: lr
STACK CFI 8fb8 .cfa: sp 8 + .ra: .cfa -4 + ^ r3: .cfa -8 + ^
STACK CFI INIT 8fc4 1c .cfa: sp 0 + .ra: lr
STACK CFI 8fc8 .cfa: sp 8 + .ra: .cfa -4 + ^ r3: .cfa -8 + ^
STACK CFI INIT 8fe0 8 .cfa: sp 0 + .ra: lr
STACK CFI 8fe4 .cfa: sp 8 + .ra: .cfa -4 + ^ r3: .cfa -8 + ^
STACK CFI INIT 8fe8 8 .cfa: sp 0 + .ra: lr
STACK CFI 8fec .cfa: sp 8 + .ra: .cfa -4 + ^ r3: .cfa -8 + ^
