MODULE Linux arm C5F2EC56165809FA4DF389EA92134E5D0 libXBMC_codec-arm.so
FUNC c80 8c 0 CODEC_register_me
FUNC d0c 20 0 CODEC_unregister_me
FUNC d2c 38 0 CODEC_get_codec_by_name
FUNC d64 18 0 selfrel_offset31
FUNC d7c ac 0 search_EIT_table
FUNC e28 50 0 __gnu_unwind_get_pr_addr
FUNC e78 10c 0 get_eit_entry
FUNC f84 6c 0 restore_non_core_regs
FUNC ff0 14 0 _Unwind_decode_typeinfo_ptr
FUNC 1004 8 0 __gnu_unwind_24bit
FUNC 100c 4 0 _Unwind_DebugHook
FUNC 1010 64 0 unwind_phase2
FUNC 1074 124 0 unwind_phase2_forced
FUNC 1198 8 0 _Unwind_GetCFA
FUNC 11a0 a4 0 __gnu_Unwind_RaiseException
FUNC 1244 1c 0 __gnu_Unwind_ForcedUnwind
FUNC 1260 74 0 __gnu_Unwind_Resume
FUNC 12d4 20 0 __gnu_Unwind_Resume_or_Rethrow
FUNC 12f4 4 0 _Unwind_Complete
FUNC 12f8 20 0 _Unwind_DeleteException
FUNC 1318 5c 0 _Unwind_VRS_Get
FUNC 1374 28 0 _Unwind_GetGR
FUNC 139c 5c 0 _Unwind_VRS_Set
FUNC 13f8 2c 0 _Unwind_SetGR
FUNC 1424 c4 0 __gnu_Unwind_Backtrace
FUNC 14e8 3f0 0 __gnu_unwind_pr_common
FUNC 18d8 8 0 __aeabi_unwind_cpp_pr0
FUNC 18e0 8 0 __aeabi_unwind_cpp_pr1
FUNC 18e8 8 0 __aeabi_unwind_cpp_pr2
FUNC 18f0 34c 0 _Unwind_VRS_Pop
FUNC 1de4 60 0 next_unwind_byte
FUNC 1e44 28 0 _Unwind_GetGR
FUNC 1e6c 4 0 unwind_UCB_from_context
FUNC 1e70 37c 0 __gnu_unwind_execute
FUNC 21ec 40 0 __gnu_unwind_frame
FUNC 222c 10 0 _Unwind_GetRegionStart
FUNC 223c 1c 0 _Unwind_GetLanguageSpecificData
FUNC 2258 8 0 _Unwind_GetDataRelBase
FUNC 2260 8 0 _Unwind_GetTextRelBase
PUBLIC c80 0 CODEC_register_me
PUBLIC d0c 0 CODEC_unregister_me
PUBLIC d2c 0 CODEC_get_codec_by_name
PUBLIC 1198 0 _Unwind_GetCFA
PUBLIC 11a0 0 __gnu_Unwind_RaiseException
PUBLIC 1244 0 __gnu_Unwind_ForcedUnwind
PUBLIC 1260 0 __gnu_Unwind_Resume
PUBLIC 12d4 0 __gnu_Unwind_Resume_or_Rethrow
PUBLIC 12f4 0 _Unwind_Complete
PUBLIC 12f8 0 _Unwind_DeleteException
PUBLIC 1318 0 _Unwind_VRS_Get
PUBLIC 139c 0 _Unwind_VRS_Set
PUBLIC 1424 0 __gnu_Unwind_Backtrace
PUBLIC 18d8 0 __aeabi_unwind_cpp_pr0
PUBLIC 18e0 0 __aeabi_unwind_cpp_pr1
PUBLIC 18e8 0 __aeabi_unwind_cpp_pr2
PUBLIC 18f0 0 _Unwind_VRS_Pop
PUBLIC 1c3c 0 restore_core_regs
PUBLIC 1c50 0 __gnu_Unwind_Restore_VFP
PUBLIC 1c58 0 __gnu_Unwind_Save_VFP
PUBLIC 1c60 0 __gnu_Unwind_Restore_VFP_D
PUBLIC 1c68 0 __gnu_Unwind_Save_VFP_D
PUBLIC 1c70 0 __gnu_Unwind_Restore_VFP_D_16_to_31
PUBLIC 1c78 0 __gnu_Unwind_Save_VFP_D_16_to_31
PUBLIC 1c80 0 __gnu_Unwind_Restore_WMMXD
PUBLIC 1cc4 0 __gnu_Unwind_Save_WMMXD
PUBLIC 1d08 0 __gnu_Unwind_Restore_WMMXC
PUBLIC 1d1c 0 __gnu_Unwind_Save_WMMXC
PUBLIC 1d30 0 ___Unwind_RaiseException
PUBLIC 1d54 0 ___Unwind_Resume
PUBLIC 1d78 0 ___Unwind_Resume_or_Rethrow
PUBLIC 1d9c 0 ___Unwind_ForcedUnwind
PUBLIC 1dc0 0 ___Unwind_Backtrace
PUBLIC 1e70 0 __gnu_unwind_execute
PUBLIC 21ec 0 __gnu_unwind_frame
PUBLIC 222c 0 _Unwind_GetRegionStart
PUBLIC 223c 0 _Unwind_GetLanguageSpecificData
PUBLIC 2258 0 _Unwind_GetDataRelBase
PUBLIC 2260 0 _Unwind_GetTextRelBase
STACK CFI INIT c80 8c .cfa: sp 0 + .ra: lr
STACK CFI c88 .cfa: sp 8 + .ra: .cfa -4 + ^ r4: .cfa -8 + ^
STACK CFI INIT d0c 20 .cfa: sp 0 + .ra: lr
STACK CFI d18 .cfa: sp 8 + .ra: .cfa -4 + ^ r3: .cfa -8 + ^
STACK CFI INIT d2c 38 .cfa: sp 0 + .ra: lr
STACK CFI d34 .cfa: sp 16 + .ra: .cfa -4 + ^ r3: .cfa -16 + ^ r4: .cfa -12 + ^ r5: .cfa -8 + ^
STACK CFI INIT d64 18 .cfa: sp 0 + .ra: lr
STACK CFI INIT d7c ac .cfa: sp 0 + .ra: lr
STACK CFI d80 .cfa: sp 48 + .ra: .cfa -4 + ^ r0: .cfa -48 + ^ r1: .cfa -44 + ^ r10: .cfa -12 + ^ r11: .cfa -8 + ^ r2: .cfa -40 + ^ r4: .cfa -36 + ^ r5: .cfa -32 + ^ r6: .cfa -28 + ^ r7: .cfa -24 + ^ r8: .cfa -20 + ^ r9: .cfa -16 + ^
STACK CFI INIT e28 50 .cfa: sp 0 + .ra: lr
STACK CFI INIT e78 10c .cfa: sp 0 + .ra: lr
STACK CFI e80 .cfa: sp 24 + .ra: .cfa -4 + ^ r0: .cfa -24 + ^ r1: .cfa -20 + ^ r2: .cfa -16 + ^ r4: .cfa -12 + ^ r5: .cfa -8 + ^
STACK CFI INIT f84 6c .cfa: sp 0 + .ra: lr
STACK CFI f8c .cfa: sp 8 + .ra: .cfa -4 + ^ r4: .cfa -8 + ^
STACK CFI INIT ff0 14 .cfa: sp 0 + .ra: lr
STACK CFI INIT 1004 8 .cfa: sp 0 + .ra: lr
STACK CFI INIT 100c 4 .cfa: sp 0 + .ra: lr
STACK CFI INIT 1010 64 .cfa: sp 0 + .ra: lr
STACK CFI 1014 .cfa: sp 16 + .ra: .cfa -4 + ^ r4: .cfa -16 + ^ r5: .cfa -12 + ^ r6: .cfa -8 + ^
STACK CFI INIT 1074 124 .cfa: sp 0 + .ra: lr
STACK CFI 1078 .cfa: sp 36 + .ra: .cfa -4 + ^ r10: .cfa -12 + ^ r11: .cfa -8 + ^ r4: .cfa -36 + ^ r5: .cfa -32 + ^ r6: .cfa -28 + ^ r7: .cfa -24 + ^ r8: .cfa -20 + ^ r9: .cfa -16 + ^
STACK CFI 1094 .cfa: sp 1008 +
STACK CFI INIT 1198 8 .cfa: sp 0 + .ra: lr
STACK CFI INIT 11a0 a4 .cfa: sp 0 + .ra: lr
STACK CFI 11a8 .cfa: sp 20 + .ra: .cfa -4 + ^ r4: .cfa -20 + ^ r5: .cfa -16 + ^ r6: .cfa -12 + ^ r7: .cfa -8 + ^
STACK CFI 11bc .cfa: sp 504 +
STACK CFI INIT 1244 1c .cfa: sp 0 + .ra: lr
STACK CFI INIT 1260 74 .cfa: sp 0 + .ra: lr
STACK CFI 1264 .cfa: sp 16 + .ra: .cfa -4 + ^ r4: .cfa -16 + ^ r5: .cfa -12 + ^ r6: .cfa -8 + ^
STACK CFI INIT 12d4 20 .cfa: sp 0 + .ra: lr
STACK CFI INIT 12f4 4 .cfa: sp 0 + .ra: lr
STACK CFI INIT 12f8 20 .cfa: sp 0 + .ra: lr
STACK CFI 12fc .cfa: sp 8 + .ra: .cfa -4 + ^ r3: .cfa -8 + ^
STACK CFI INIT 1318 5c .cfa: sp 0 + .ra: lr
STACK CFI INIT 1374 28 .cfa: sp 0 + .ra: lr
STACK CFI 1378 .cfa: sp 24 + .ra: .cfa -4 + ^ r0: .cfa -24 + ^ r1: .cfa -20 + ^ r2: .cfa -16 + ^ r3: .cfa -12 + ^ r4: .cfa -8 + ^
STACK CFI INIT 139c 5c .cfa: sp 0 + .ra: lr
STACK CFI INIT 13f8 2c .cfa: sp 0 + .ra: lr
STACK CFI 13fc .cfa: sp 24 + .ra: .cfa -4 + ^ r0: .cfa -24 + ^ r1: .cfa -20 + ^ r2: .cfa -16 + ^ r3: .cfa -12 + ^ r4: .cfa -8 + ^
STACK CFI INIT 1424 c4 .cfa: sp 0 + .ra: lr
STACK CFI 142c .cfa: sp 24 + .ra: .cfa -4 + ^ r4: .cfa -24 + ^ r5: .cfa -20 + ^ r6: .cfa -16 + ^ r7: .cfa -12 + ^ r8: .cfa -8 + ^
STACK CFI 1440 .cfa: sp 592 +
STACK CFI INIT 14e8 3f0 .cfa: sp 0 + .ra: lr
STACK CFI 14ec .cfa: sp 36 + .ra: .cfa -4 + ^ r10: .cfa -12 + ^ r11: .cfa -8 + ^ r4: .cfa -36 + ^ r5: .cfa -32 + ^ r6: .cfa -28 + ^ r7: .cfa -24 + ^ r8: .cfa -20 + ^ r9: .cfa -16 + ^
STACK CFI 14f8 .cfa: sp 72 +
STACK CFI INIT 18d8 8 .cfa: sp 0 + .ra: lr
STACK CFI INIT 18e0 8 .cfa: sp 0 + .ra: lr
STACK CFI INIT 18e8 8 .cfa: sp 0 + .ra: lr
STACK CFI INIT 18f0 34c .cfa: sp 0 + .ra: lr
STACK CFI 18f4 .cfa: sp 28 + .ra: .cfa -4 + ^ r4: .cfa -28 + ^ r5: .cfa -24 + ^ r6: .cfa -20 + ^ r7: .cfa -16 + ^ r8: .cfa -12 + ^ r9: .cfa -8 + ^
STACK CFI 18fc .cfa: sp 296 +
STACK CFI INIT 1de4 60 .cfa: sp 0 + .ra: lr
STACK CFI INIT 1e44 28 .cfa: sp 0 + .ra: lr
STACK CFI 1e48 .cfa: sp 24 + .ra: .cfa -4 + ^ r0: .cfa -24 + ^ r1: .cfa -20 + ^ r2: .cfa -16 + ^ r3: .cfa -12 + ^ r4: .cfa -8 + ^
STACK CFI INIT 1e6c 4 .cfa: sp 0 + .ra: lr
STACK CFI INIT 1e70 37c .cfa: sp 0 + .ra: lr
STACK CFI 1e74 .cfa: sp 48 + .ra: .cfa -4 + ^ r0: .cfa -48 + ^ r1: .cfa -44 + ^ r10: .cfa -8 + ^ r2: .cfa -40 + ^ r3: .cfa -36 + ^ r4: .cfa -32 + ^ r5: .cfa -28 + ^ r6: .cfa -24 + ^ r7: .cfa -20 + ^ r8: .cfa -16 + ^ r9: .cfa -12 + ^
STACK CFI INIT 21ec 40 .cfa: sp 0 + .ra: lr
STACK CFI 21f0 .cfa: sp 24 + .ra: .cfa -4 + ^ r0: .cfa -24 + ^ r1: .cfa -20 + ^ r2: .cfa -16 + ^ r3: .cfa -12 + ^ r4: .cfa -8 + ^
STACK CFI INIT 222c 10 .cfa: sp 0 + .ra: lr
STACK CFI 2230 .cfa: sp 8 + .ra: .cfa -4 + ^ r3: .cfa -8 + ^
STACK CFI INIT 223c 1c .cfa: sp 0 + .ra: lr
STACK CFI 2240 .cfa: sp 8 + .ra: .cfa -4 + ^ r3: .cfa -8 + ^
STACK CFI INIT 2258 8 .cfa: sp 0 + .ra: lr
STACK CFI 225c .cfa: sp 8 + .ra: .cfa -4 + ^ r3: .cfa -8 + ^
STACK CFI INIT 2260 8 .cfa: sp 0 + .ra: lr
STACK CFI 2264 .cfa: sp 8 + .ra: .cfa -4 + ^ r3: .cfa -8 + ^
