MODULE Linux arm D4734BDB4325620DE511C344269E13A30 libKODI_audioengine-arm.so
FUNC 3424 5c 0 _GLOBAL__sub_I_eh_globals.cc
FUNC 3480 18 0 _GLOBAL__sub_I_eh_alloc.cc
FUNC 34cc 44 0 CAddonAEStream::~CAddonAEStream
FUNC 3510 20 0 CAddonAEStream::GetSpace
FUNC 3530 38 0 CAddonAEStream::AddData
FUNC 3568 20 0 CAddonAEStream::GetDelay
FUNC 3588 20 0 CAddonAEStream::IsBuffering
FUNC 35a8 20 0 CAddonAEStream::GetCacheTime
FUNC 35c8 20 0 CAddonAEStream::GetCacheTotal
FUNC 35e8 20 0 CAddonAEStream::Pause
FUNC 3608 20 0 CAddonAEStream::Resume
FUNC 3628 1c 0 CAddonAEStream::Drain
FUNC 3644 20 0 CAddonAEStream::IsDraining
FUNC 3664 20 0 CAddonAEStream::IsDrained
FUNC 3684 20 0 CAddonAEStream::Flush
FUNC 36a4 20 0 CAddonAEStream::GetVolume
FUNC 36c4 28 0 CAddonAEStream::SetVolume
FUNC 36ec 20 0 CAddonAEStream::GetAmplification
FUNC 370c 28 0 CAddonAEStream::SetAmplification
FUNC 3734 20 0 CAddonAEStream::GetFrameSize
FUNC 3754 20 0 CAddonAEStream::GetChannelCount
FUNC 3774 20 0 CAddonAEStream::GetSampleRate
FUNC 3794 20 0 CAddonAEStream::GetDataFormat
FUNC 37b4 20 0 CAddonAEStream::GetResampleRatio
FUNC 37d4 18 0 CAddonAEStream::SetResampleRatio
FUNC 37ec 20 0 CAddonAEStream::Discontinuity
FUNC 380c 1c 0 CAddonAEStream::~CAddonAEStream
FUNC 3828 8c 0 AudioEngine_register_me
FUNC 38b4 20 0 AudioEngine_unregister_me
FUNC 38d4 1c 0 AudioEngine_free_stream
FUNC 38f0 28 0 AudioEngine_get_current_sink_Format
FUNC 3918 2c 0 CAddonAEStream::CAddonAEStream
FUNC 3944 104 0 AudioEngine_make_stream
FUNC 3a48 44 0 read_sleb128
FUNC 3a8c 11c 0 read_encoded_value_with_base
FUNC 3ba8 74 0 base_of_encoded_value
FUNC 3c1c e0 0 parse_lsda_header
FUNC 3cfc 668 0 __cxxabiv1::__gxx_personality_v0
FUNC 4364 8 0 __cxxabiv1::__cxa_get_exception_ptr
FUNC 436c e0 0 __cxxabiv1::__cxa_begin_catch
FUNC 444c d8 0 __cxxabiv1::__cxa_end_catch
FUNC 4524 18 0 std::uncaught_exception
FUNC 453c a4 0 operator new
FUNC 45e0 70 0 __cxxabiv1::__is_gxx_exception_class
FUNC 4650 2c 0 __cxa_call_terminate
FUNC 467c 168 0 __cxa_call_unexpected
FUNC 47e4 34 0 __eh_globals_init::~__eh_globals_init
FUNC 4818 3c 0 eh_globals_dtor
FUNC 4854 48 0 __cxxabiv1::__cxa_get_globals_fast
FUNC 489c 90 0 __cxxabiv1::__cxa_get_globals
FUNC 492c 5c 0 __cxxabiv1::__class_type_info::__do_upcast
FUNC 4988 14 0 __cxxabiv1::__class_type_info::__do_find_public_src
FUNC 499c 28 0 __cxxabiv1::__class_type_info::~__class_type_info
FUNC 49c4 1c 0 __cxxabiv1::__class_type_info::~__class_type_info
FUNC 49e0 2c 0 __cxxabiv1::__class_type_info::__do_upcast
FUNC 4a0c 44 0 __cxxabiv1::__class_type_info::__do_catch
FUNC 4a50 78 0 __cxxabiv1::__class_type_info::__do_dyncast
FUNC 4ac8 60 0 __gxx_exception_cleanup
FUNC 4b28 b8 0 __cxxabiv1::__cxa_throw
FUNC 4be0 b0 0 __cxxabiv1::__cxa_rethrow
FUNC 4c90 18 0 std::exception::~exception
FUNC 4ca8 28 0 std::bad_exception::~bad_exception
FUNC 4cd0 18 0 __cxxabiv1::__forced_unwind::~__forced_unwind
FUNC 4ce8 18 0 __cxxabiv1::__foreign_exception::~__foreign_exception
FUNC 4d00 10 0 std::exception::what
FUNC 4d10 10 0 std::bad_exception::what
FUNC 4d20 1c 0 std::exception::~exception
FUNC 4d3c 1c 0 std::bad_exception::~bad_exception
FUNC 4d58 1c 0 __cxxabiv1::__forced_unwind::~__forced_unwind
FUNC 4d74 1c 0 __cxxabiv1::__foreign_exception::~__foreign_exception
FUNC 4d90 c 0 operator delete
FUNC 4dac 144 0 __cxa_type_match
FUNC 4ef0 b4 0 __cxa_begin_cleanup
FUNC 4fa4 b4 0 __gnu_end_cleanup
FUNC 5058 34 0 __cxxabiv1::__terminate
FUNC 508c 18 0 std::terminate
FUNC 50a4 c 0 __cxxabiv1::__unexpected
FUNC 50b0 18 0 std::unexpected
FUNC 50c8 1c 0 std::set_terminate
FUNC 50e4 1c 0 std::set_unexpected
FUNC 5100 10 0 __gnu_cxx::__concurrence_lock_error::what
FUNC 5110 10 0 __gnu_cxx::__concurrence_unlock_error::what
FUNC 5120 28 0 __gnu_cxx::__concurrence_unlock_error::~__concurrence_unlock_error
FUNC 5148 28 0 __gnu_cxx::__concurrence_lock_error::~__concurrence_lock_error
FUNC 5170 30 0 __gnu_cxx::__concurrence_unlock_error::~__concurrence_unlock_error
FUNC 51a0 30 0 __gnu_cxx::__concurrence_lock_error::~__concurrence_lock_error
FUNC 51d0 3c 0 __gnu_cxx::__throw_concurrence_lock_error
FUNC 520c 3c 0 __gnu_cxx::__throw_concurrence_unlock_error
FUNC 5248 e0 0 __cxxabiv1::__cxa_allocate_exception
FUNC 5328 a0 0 __cxxabiv1::__cxa_free_exception
FUNC 53c8 dc 0 __cxxabiv1::__cxa_allocate_dependent_exception
FUNC 54a4 a8 0 __cxxabiv1::__cxa_free_dependent_exception
FUNC 554c 10 0 __aeabiv1::__aeabi_atexit
FUNC 555c 1c 0 std::set_new_handler
FUNC 5578 20 0 __cxxabiv1::__cxa_pure_virtual
FUNC 5598 20 0 __cxxabiv1::__cxa_deleted_virtual
FUNC 55b8 10 0 std::bad_alloc::what
FUNC 55c8 28 0 std::bad_alloc::~bad_alloc
FUNC 55f0 1c 0 std::bad_alloc::~bad_alloc
FUNC 560c 18 0 std::type_info::~type_info
FUNC 5624 8 0 std::type_info::__is_pointer_p
FUNC 562c 8 0 std::type_info::__is_function_p
FUNC 5634 8 0 std::type_info::__do_upcast
FUNC 563c 28 0 std::type_info::~type_info
FUNC 5664 4c 0 std::type_info::operator==
FUNC 56b0 4 0 std::type_info::__do_catch
FUNC 56b4 28 0 __cxxabiv1::__si_class_type_info::~__si_class_type_info
FUNC 56dc 1c 0 __cxxabiv1::__si_class_type_info::~__si_class_type_info
FUNC 56f8 64 0 __cxxabiv1::__si_class_type_info::__do_find_public_src
FUNC 575c e0 0 __cxxabiv1::__si_class_type_info::__do_dyncast
FUNC 583c 40 0 __cxxabiv1::__si_class_type_info::__do_upcast
FUNC 587c 1b4 0 __gnu_cxx::__verbose_terminate_handler
FUNC 5a30 1d0 0 d_make_comp
FUNC 5c00 6c 0 d_make_name
FUNC 5c6c 13c 0 d_cv_qualifiers
FUNC 5da8 58 0 d_ref_qualifier
FUNC 5e00 f4 0 d_clone_suffix
FUNC 5ef4 244 0 d_substitution
FUNC 6138 5c 0 d_append_char
FUNC 6194 7c 0 d_number
FUNC 6210 60 0 d_number_component
FUNC 6270 54 0 d_compact_number
FUNC 62c4 80 0 d_template_param
FUNC 6344 34 0 d_discriminator
FUNC 6378 f8 0 d_source_name
FUNC 6470 9c 0 d_call_offset
FUNC 650c 88 0 d_lookup_template_argument
FUNC 6594 19c 0 d_find_pack
FUNC 6730 cc 0 d_growable_string_callback_adapter
FUNC 67fc 158 0 d_expr_primary
FUNC 6954 170 0 d_template_args
FUNC 6ac4 4b0 0 d_name
FUNC 6f74 b88 0 d_type
FUNC 7afc 108 0 d_parmlist
FUNC 7c04 68 0 d_bare_function_type
FUNC 7c6c 874 0 d_encoding
FUNC 84e0 194 0 d_operator_name
FUNC 8674 468 0 d_unqualified_name
FUNC 8adc 61c 0 d_expression
FUNC 90f8 ac 0 d_exprlist
FUNC 91a4 84 0 d_append_string
FUNC 9228 3554 0 d_print_comp
FUNC c77c 20 0 d_print_comp
FUNC c79c 778 0 d_print_mod
FUNC cf14 398 0 d_print_mod_list
FUNC d2ac 264 0 d_print_array_type
FUNC d510 2d8 0 d_print_function_type
FUNC d7e8 238 0 d_print_cast
FUNC da20 a4 0 d_print_expr_op
FUNC dac4 110 0 d_print_subexpr
FUNC dbd4 31c 0 d_demangle_callback
FUNC def0 14c 0 __cxa_demangle
FUNC e03c 2c 0 __gcclibcxx_demangle_callback
FUNC e068 2c 0 __cxxabiv1::__cxa_current_exception_type
FUNC e094 18 0 selfrel_offset31
FUNC e0ac ac 0 search_EIT_table
FUNC e158 50 0 __gnu_unwind_get_pr_addr
FUNC e1a8 10c 0 get_eit_entry
FUNC e2b4 6c 0 restore_non_core_regs
FUNC e320 14 0 _Unwind_decode_typeinfo_ptr
FUNC e334 8 0 __gnu_unwind_24bit
FUNC e33c 4 0 _Unwind_DebugHook
FUNC e340 64 0 unwind_phase2
FUNC e3a4 124 0 unwind_phase2_forced
FUNC e4c8 8 0 _Unwind_GetCFA
FUNC e4d0 a4 0 __gnu_Unwind_RaiseException
FUNC e574 1c 0 __gnu_Unwind_ForcedUnwind
FUNC e590 74 0 __gnu_Unwind_Resume
FUNC e604 20 0 __gnu_Unwind_Resume_or_Rethrow
FUNC e624 4 0 _Unwind_Complete
FUNC e628 20 0 _Unwind_DeleteException
FUNC e648 5c 0 _Unwind_VRS_Get
FUNC e6a4 28 0 _Unwind_GetGR
FUNC e6cc 5c 0 _Unwind_VRS_Set
FUNC e728 2c 0 _Unwind_SetGR
FUNC e754 c4 0 __gnu_Unwind_Backtrace
FUNC e818 3f0 0 __gnu_unwind_pr_common
FUNC ec08 8 0 __aeabi_unwind_cpp_pr0
FUNC ec10 8 0 __aeabi_unwind_cpp_pr1
FUNC ec18 8 0 __aeabi_unwind_cpp_pr2
FUNC ec20 34c 0 _Unwind_VRS_Pop
FUNC f114 60 0 next_unwind_byte
FUNC f174 28 0 _Unwind_GetGR
FUNC f19c 4 0 unwind_UCB_from_context
FUNC f1a0 37c 0 __gnu_unwind_execute
FUNC f51c 40 0 __gnu_unwind_frame
FUNC f55c 10 0 _Unwind_GetRegionStart
FUNC f56c 1c 0 _Unwind_GetLanguageSpecificData
FUNC f588 8 0 _Unwind_GetDataRelBase
FUNC f590 8 0 _Unwind_GetTextRelBase
PUBLIC 34cc 0 CAddonAEStream::~CAddonAEStream()
PUBLIC 3510 0 CAddonAEStream::GetSpace()
PUBLIC 3530 0 CAddonAEStream::AddData(unsigned char* const*, unsigned int, unsigned int)
PUBLIC 3568 0 CAddonAEStream::GetDelay()
PUBLIC 3588 0 CAddonAEStream::IsBuffering()
PUBLIC 35a8 0 CAddonAEStream::GetCacheTime()
PUBLIC 35c8 0 CAddonAEStream::GetCacheTotal()
PUBLIC 35e8 0 CAddonAEStream::Pause()
PUBLIC 3608 0 CAddonAEStream::Resume()
PUBLIC 3628 0 CAddonAEStream::Drain(bool)
PUBLIC 3644 0 CAddonAEStream::IsDraining()
PUBLIC 3664 0 CAddonAEStream::IsDrained()
PUBLIC 3684 0 CAddonAEStream::Flush()
PUBLIC 36a4 0 CAddonAEStream::GetVolume()
PUBLIC 36c4 0 CAddonAEStream::SetVolume(float)
PUBLIC 36ec 0 CAddonAEStream::GetAmplification()
PUBLIC 370c 0 CAddonAEStream::SetAmplification(float)
PUBLIC 3734 0 CAddonAEStream::GetFrameSize() const
PUBLIC 3754 0 CAddonAEStream::GetChannelCount() const
PUBLIC 3774 0 CAddonAEStream::GetSampleRate() const
PUBLIC 3794 0 CAddonAEStream::GetDataFormat() const
PUBLIC 37b4 0 CAddonAEStream::GetResampleRatio()
PUBLIC 37d4 0 CAddonAEStream::SetResampleRatio(double)
PUBLIC 37ec 0 CAddonAEStream::Discontinuity()
PUBLIC 380c 0 CAddonAEStream::~CAddonAEStream()
PUBLIC 3828 0 AudioEngine_register_me
PUBLIC 38b4 0 AudioEngine_unregister_me
PUBLIC 38d4 0 AudioEngine_free_stream
PUBLIC 38f0 0 AudioEngine_get_current_sink_Format
PUBLIC 3918 0 CAddonAEStream::CAddonAEStream(void*, void*, void*)
PUBLIC 3944 0 AudioEngine_make_stream
PUBLIC 4364 0 __cxa_get_exception_ptr
PUBLIC 436c 0 __cxa_begin_catch
PUBLIC 444c 0 __cxa_end_catch
PUBLIC 4524 0 std::uncaught_exception()
PUBLIC 453c 0 operator new(unsigned int)
PUBLIC 467c 0 __cxa_call_unexpected
PUBLIC 4854 0 __cxa_get_globals_fast
PUBLIC 489c 0 __cxa_get_globals
PUBLIC 492c 0 __cxxabiv1::__class_type_info::__do_upcast(__cxxabiv1::__class_type_info const*, void**) const
PUBLIC 4988 0 __cxxabiv1::__class_type_info::__do_find_public_src(int, void const*, __cxxabiv1::__class_type_info const*, void const*) const
PUBLIC 499c 0 __cxxabiv1::__class_type_info::~__class_type_info()
PUBLIC 49c4 0 __cxxabiv1::__class_type_info::~__class_type_info()
PUBLIC 49e0 0 __cxxabiv1::__class_type_info::__do_upcast(__cxxabiv1::__class_type_info const*, void const*, __cxxabiv1::__class_type_info::__upcast_result&) const
PUBLIC 4a0c 0 __cxxabiv1::__class_type_info::__do_catch(std::type_info const*, void**, unsigned int) const
PUBLIC 4a50 0 __cxxabiv1::__class_type_info::__do_dyncast(int, __cxxabiv1::__class_type_info::__sub_kind, __cxxabiv1::__class_type_info const*, void const*, __cxxabiv1::__class_type_info const*, void const*, __cxxabiv1::__class_type_info::__dyncast_result&) const
PUBLIC 4b28 0 __cxa_throw
PUBLIC 4be0 0 __cxa_rethrow
PUBLIC 4c90 0 std::exception::~exception()
PUBLIC 4ca8 0 std::bad_exception::~bad_exception()
PUBLIC 4cd0 0 __cxxabiv1::__forced_unwind::~__forced_unwind()
PUBLIC 4ce8 0 __cxxabiv1::__foreign_exception::~__foreign_exception()
PUBLIC 4d00 0 std::exception::what() const
PUBLIC 4d10 0 std::bad_exception::what() const
PUBLIC 4d20 0 std::exception::~exception()
PUBLIC 4d3c 0 std::bad_exception::~bad_exception()
PUBLIC 4d58 0 __cxxabiv1::__forced_unwind::~__forced_unwind()
PUBLIC 4d74 0 __cxxabiv1::__foreign_exception::~__foreign_exception()
PUBLIC 4d90 0 operator delete(void*)
PUBLIC 4d9c 0 __cxa_end_cleanup
PUBLIC 4dac 0 __cxa_type_match
PUBLIC 4ef0 0 __cxa_begin_cleanup
PUBLIC 4fa4 0 __gnu_end_cleanup
PUBLIC 5058 0 __cxxabiv1::__terminate(void (*)())
PUBLIC 508c 0 std::terminate()
PUBLIC 50a4 0 __cxxabiv1::__unexpected(void (*)())
PUBLIC 50b0 0 std::unexpected()
PUBLIC 50c8 0 std::set_terminate(void (*)())
PUBLIC 50e4 0 std::set_unexpected(void (*)())
PUBLIC 5248 0 __cxa_allocate_exception
PUBLIC 5328 0 __cxa_free_exception
PUBLIC 53c8 0 __cxa_allocate_dependent_exception
PUBLIC 54a4 0 __cxa_free_dependent_exception
PUBLIC 555c 0 std::set_new_handler(void (*)())
PUBLIC 5578 0 __cxa_pure_virtual
PUBLIC 5598 0 __cxa_deleted_virtual
PUBLIC 55b8 0 std::bad_alloc::what() const
PUBLIC 55c8 0 std::bad_alloc::~bad_alloc()
PUBLIC 55f0 0 std::bad_alloc::~bad_alloc()
PUBLIC 56b4 0 __cxxabiv1::__si_class_type_info::~__si_class_type_info()
PUBLIC 56dc 0 __cxxabiv1::__si_class_type_info::~__si_class_type_info()
PUBLIC 56f8 0 __cxxabiv1::__si_class_type_info::__do_find_public_src(int, void const*, __cxxabiv1::__class_type_info const*, void const*) const
PUBLIC 575c 0 __cxxabiv1::__si_class_type_info::__do_dyncast(int, __cxxabiv1::__class_type_info::__sub_kind, __cxxabiv1::__class_type_info const*, void const*, __cxxabiv1::__class_type_info const*, void const*, __cxxabiv1::__class_type_info::__dyncast_result&) const
PUBLIC 583c 0 __cxxabiv1::__si_class_type_info::__do_upcast(__cxxabiv1::__class_type_info const*, void const*, __cxxabiv1::__class_type_info::__upcast_result&) const
PUBLIC 587c 0 __gnu_cxx::__verbose_terminate_handler()
PUBLIC def0 0 __cxa_demangle
PUBLIC e03c 0 __gcclibcxx_demangle_callback
PUBLIC e068 0 __cxa_current_exception_type
PUBLIC e4c8 0 _Unwind_GetCFA
PUBLIC e4d0 0 __gnu_Unwind_RaiseException
PUBLIC e574 0 __gnu_Unwind_ForcedUnwind
PUBLIC e590 0 __gnu_Unwind_Resume
PUBLIC e604 0 __gnu_Unwind_Resume_or_Rethrow
PUBLIC e624 0 _Unwind_Complete
PUBLIC e628 0 _Unwind_DeleteException
PUBLIC e648 0 _Unwind_VRS_Get
PUBLIC e6cc 0 _Unwind_VRS_Set
PUBLIC e754 0 __gnu_Unwind_Backtrace
PUBLIC ec08 0 __aeabi_unwind_cpp_pr0
PUBLIC ec10 0 __aeabi_unwind_cpp_pr1
PUBLIC ec18 0 __aeabi_unwind_cpp_pr2
PUBLIC ec20 0 _Unwind_VRS_Pop
PUBLIC ef6c 0 restore_core_regs
PUBLIC ef80 0 __gnu_Unwind_Restore_VFP
PUBLIC ef88 0 __gnu_Unwind_Save_VFP
PUBLIC ef90 0 __gnu_Unwind_Restore_VFP_D
PUBLIC ef98 0 __gnu_Unwind_Save_VFP_D
PUBLIC efa0 0 __gnu_Unwind_Restore_VFP_D_16_to_31
PUBLIC efa8 0 __gnu_Unwind_Save_VFP_D_16_to_31
PUBLIC efb0 0 __gnu_Unwind_Restore_WMMXD
PUBLIC eff4 0 __gnu_Unwind_Save_WMMXD
PUBLIC f038 0 __gnu_Unwind_Restore_WMMXC
PUBLIC f04c 0 __gnu_Unwind_Save_WMMXC
PUBLIC f060 0 _Unwind_RaiseException
PUBLIC f084 0 _Unwind_Resume
PUBLIC f0a8 0 _Unwind_Resume_or_Rethrow
PUBLIC f0cc 0 ___Unwind_ForcedUnwind
PUBLIC f0f0 0 ___Unwind_Backtrace
PUBLIC f1a0 0 __gnu_unwind_execute
PUBLIC f51c 0 __gnu_unwind_frame
PUBLIC f55c 0 _Unwind_GetRegionStart
PUBLIC f56c 0 _Unwind_GetLanguageSpecificData
PUBLIC f588 0 _Unwind_GetDataRelBase
PUBLIC f590 0 _Unwind_GetTextRelBase
STACK CFI INIT 34cc 44 .cfa: sp 0 + .ra: lr
STACK CFI 34d0 .cfa: sp 8 + .ra: .cfa -4 + ^ r4: .cfa -8 + ^
STACK CFI INIT 3510 20 .cfa: sp 0 + .ra: lr
STACK CFI 3514 .cfa: sp 8 + .ra: .cfa -4 + ^ r3: .cfa -8 + ^
STACK CFI INIT 3530 38 .cfa: sp 0 + .ra: lr
STACK CFI 3534 .cfa: sp 8 + .ra: .cfa -4 + ^ r4: .cfa -8 + ^
STACK CFI 3540 .cfa: sp 16 +
STACK CFI INIT 3568 20 .cfa: sp 0 + .ra: lr
STACK CFI 356c .cfa: sp 8 + .ra: .cfa -4 + ^ r3: .cfa -8 + ^
STACK CFI INIT 3588 20 .cfa: sp 0 + .ra: lr
STACK CFI 358c .cfa: sp 8 + .ra: .cfa -4 + ^ r3: .cfa -8 + ^
STACK CFI INIT 35a8 20 .cfa: sp 0 + .ra: lr
STACK CFI 35ac .cfa: sp 8 + .ra: .cfa -4 + ^ r3: .cfa -8 + ^
STACK CFI INIT 35c8 20 .cfa: sp 0 + .ra: lr
STACK CFI 35cc .cfa: sp 8 + .ra: .cfa -4 + ^ r3: .cfa -8 + ^
STACK CFI INIT 35e8 20 .cfa: sp 0 + .ra: lr
STACK CFI 35ec .cfa: sp 8 + .ra: .cfa -4 + ^ r3: .cfa -8 + ^
STACK CFI INIT 3608 20 .cfa: sp 0 + .ra: lr
STACK CFI 360c .cfa: sp 8 + .ra: .cfa -4 + ^ r3: .cfa -8 + ^
STACK CFI INIT 3628 1c .cfa: sp 0 + .ra: lr
STACK CFI 362c .cfa: sp 8 + .ra: .cfa -4 + ^ r3: .cfa -8 + ^
STACK CFI INIT 3644 20 .cfa: sp 0 + .ra: lr
STACK CFI 3648 .cfa: sp 8 + .ra: .cfa -4 + ^ r3: .cfa -8 + ^
STACK CFI INIT 3664 20 .cfa: sp 0 + .ra: lr
STACK CFI 3668 .cfa: sp 8 + .ra: .cfa -4 + ^ r3: .cfa -8 + ^
STACK CFI INIT 3684 20 .cfa: sp 0 + .ra: lr
STACK CFI 3688 .cfa: sp 8 + .ra: .cfa -4 + ^ r3: .cfa -8 + ^
STACK CFI INIT 36a4 20 .cfa: sp 0 + .ra: lr
STACK CFI 36a8 .cfa: sp 8 + .ra: .cfa -4 + ^ r3: .cfa -8 + ^
STACK CFI INIT 36c4 28 .cfa: sp 0 + .ra: lr
STACK CFI 36c8 .cfa: sp 8 + .ra: .cfa -4 + ^ r3: .cfa -8 + ^
STACK CFI INIT 36ec 20 .cfa: sp 0 + .ra: lr
STACK CFI 36f0 .cfa: sp 8 + .ra: .cfa -4 + ^ r3: .cfa -8 + ^
STACK CFI INIT 370c 28 .cfa: sp 0 + .ra: lr
STACK CFI 3710 .cfa: sp 8 + .ra: .cfa -4 + ^ r3: .cfa -8 + ^
STACK CFI INIT 3734 20 .cfa: sp 0 + .ra: lr
STACK CFI 3738 .cfa: sp 8 + .ra: .cfa -4 + ^ r3: .cfa -8 + ^
STACK CFI INIT 3754 20 .cfa: sp 0 + .ra: lr
STACK CFI 3758 .cfa: sp 8 + .ra: .cfa -4 + ^ r3: .cfa -8 + ^
STACK CFI INIT 3774 20 .cfa: sp 0 + .ra: lr
STACK CFI 3778 .cfa: sp 8 + .ra: .cfa -4 + ^ r3: .cfa -8 + ^
STACK CFI INIT 3794 20 .cfa: sp 0 + .ra: lr
STACK CFI 3798 .cfa: sp 8 + .ra: .cfa -4 + ^ r3: .cfa -8 + ^
STACK CFI INIT 37b4 20 .cfa: sp 0 + .ra: lr
STACK CFI 37b8 .cfa: sp 8 + .ra: .cfa -4 + ^ r3: .cfa -8 + ^
STACK CFI INIT 37d4 18 .cfa: sp 0 + .ra: lr
STACK CFI 37d8 .cfa: sp 8 + .ra: .cfa -4 + ^ r3: .cfa -8 + ^
STACK CFI INIT 37ec 20 .cfa: sp 0 + .ra: lr
STACK CFI 37f0 .cfa: sp 8 + .ra: .cfa -4 + ^ r3: .cfa -8 + ^
STACK CFI INIT 380c 1c .cfa: sp 0 + .ra: lr
STACK CFI 3810 .cfa: sp 8 + .ra: .cfa -4 + ^ r4: .cfa -8 + ^
STACK CFI INIT 3828 8c .cfa: sp 0 + .ra: lr
STACK CFI 3830 .cfa: sp 8 + .ra: .cfa -4 + ^ r4: .cfa -8 + ^
STACK CFI INIT 38b4 20 .cfa: sp 0 + .ra: lr
STACK CFI 38c0 .cfa: sp 8 + .ra: .cfa -4 + ^ r3: .cfa -8 + ^
STACK CFI INIT 38d4 1c .cfa: sp 0 + .ra: lr
STACK CFI 38d8 .cfa: sp 8 + .ra: .cfa -4 + ^ r3: .cfa -8 + ^
STACK CFI INIT 38f0 28 .cfa: sp 0 + .ra: lr
STACK CFI 38f8 .cfa: sp 8 + .ra: .cfa -4 + ^ r3: .cfa -8 + ^
STACK CFI INIT 3918 2c .cfa: sp 0 + .ra: lr
STACK CFI 391c .cfa: sp 4 + r4: .cfa -4 + ^
STACK CFI INIT 3944 104 .cfa: sp 0 + .ra: lr
STACK CFI 3948 .cfa: sp 8 +
STACK CFI 3954 .cfa: sp 28 + .ra: .cfa -12 + ^ r4: .cfa -28 + ^ r5: .cfa -24 + ^ r6: .cfa -20 + ^ r7: .cfa -16 + ^
STACK CFI 3958 .cfa: sp 384 +
STACK CFI INIT 3a48 44 .cfa: sp 0 + .ra: lr
STACK CFI 3a54 .cfa: sp 4 + r4: .cfa -4 + ^
STACK CFI INIT 3a8c 11c .cfa: sp 0 + .ra: lr
STACK CFI 3a94 .cfa: sp 24 + .ra: .cfa -4 + ^ r4: .cfa -24 + ^ r5: .cfa -20 + ^ r6: .cfa -16 + ^ r7: .cfa -12 + ^ r8: .cfa -8 + ^
STACK CFI 3a9c .cfa: sp 40 +
STACK CFI INIT 3ba8 74 .cfa: sp 0 + .ra: lr
STACK CFI 3bb0 .cfa: sp 8 + .ra: .cfa -4 + ^ r3: .cfa -8 + ^
STACK CFI INIT 3c1c e0 .cfa: sp 0 + .ra: lr
STACK CFI 3c20 .cfa: sp 24 + .ra: .cfa -4 + ^ r3: .cfa -24 + ^ r4: .cfa -20 + ^ r5: .cfa -16 + ^ r6: .cfa -12 + ^ r7: .cfa -8 + ^
STACK CFI INIT 3cfc 668 .cfa: sp 0 + .ra: lr
STACK CFI 3d04 .cfa: sp 36 + .ra: .cfa -4 + ^ r10: .cfa -12 + ^ r11: .cfa -8 + ^ r4: .cfa -36 + ^ r5: .cfa -32 + ^ r6: .cfa -28 + ^ r7: .cfa -24 + ^ r8: .cfa -20 + ^ r9: .cfa -16 + ^
STACK CFI 3d0c .cfa: sp 128 +
STACK CFI INIT 4364 8 .cfa: sp 0 + .ra: lr
STACK CFI INIT 436c e0 .cfa: sp 0 + .ra: lr
STACK CFI 4370 .cfa: sp 8 + .ra: .cfa -4 + ^ r4: .cfa -8 + ^
STACK CFI INIT 444c d8 .cfa: sp 0 + .ra: lr
STACK CFI 4450 .cfa: sp 8 + .ra: .cfa -4 + ^ r3: .cfa -8 + ^
STACK CFI INIT 4524 18 .cfa: sp 0 + .ra: lr
STACK CFI 4528 .cfa: sp 8 + .ra: .cfa -4 + ^ r3: .cfa -8 + ^
STACK CFI INIT 453c a4 .cfa: sp 0 + .ra: lr
STACK CFI 4544 .cfa: sp 16 + .ra: .cfa -4 + ^ r4: .cfa -16 + ^ r5: .cfa -12 + ^ r6: .cfa -8 + ^
STACK CFI INIT 45e0 70 .cfa: sp 0 + .ra: lr
STACK CFI INIT 4650 2c .cfa: sp 0 + .ra: lr
STACK CFI 4654 .cfa: sp 8 + .ra: .cfa -4 + ^ r4: .cfa -8 + ^
STACK CFI INIT 467c 168 .cfa: sp 0 + .ra: lr
STACK CFI 4680 .cfa: sp 36 + .ra: .cfa -4 + ^ r10: .cfa -12 + ^ r11: .cfa -8 + ^ r4: .cfa -36 + ^ r5: .cfa -32 + ^ r6: .cfa -28 + ^ r7: .cfa -24 + ^ r8: .cfa -20 + ^ r9: .cfa -16 + ^
STACK CFI 4684 .cfa: sp 64 +
STACK CFI INIT 47e4 34 .cfa: sp 0 + .ra: lr
STACK CFI 47e8 .cfa: sp 8 + .ra: .cfa -4 + ^ r4: .cfa -8 + ^
STACK CFI INIT 4818 3c .cfa: sp 0 + .ra: lr
STACK CFI 481c .cfa: sp 16 + .ra: .cfa -4 + ^ r3: .cfa -16 + ^ r4: .cfa -12 + ^ r5: .cfa -8 + ^
STACK CFI INIT 4854 48 .cfa: sp 0 + .ra: lr
STACK CFI 4858 .cfa: sp 8 + .ra: .cfa -4 + ^ r3: .cfa -8 + ^
STACK CFI INIT 489c 90 .cfa: sp 0 + .ra: lr
STACK CFI 48a4 .cfa: sp 8 + .ra: .cfa -4 + ^ r4: .cfa -8 + ^
STACK CFI INIT 3424 5c .cfa: sp 0 + .ra: lr
STACK CFI 3428 .cfa: sp 8 + .ra: .cfa -4 + ^ r4: .cfa -8 + ^
STACK CFI INIT 492c 5c .cfa: sp 0 + .ra: lr
STACK CFI 4934 .cfa: sp 12 + .ra: .cfa -4 + ^ r4: .cfa -12 + ^ r5: .cfa -8 + ^
STACK CFI 4938 .cfa: sp 32 +
STACK CFI INIT 4988 14 .cfa: sp 0 + .ra: lr
STACK CFI INIT 499c 28 .cfa: sp 0 + .ra: lr
STACK CFI 49a4 .cfa: sp 8 + .ra: .cfa -4 + ^ r4: .cfa -8 + ^
STACK CFI INIT 49c4 1c .cfa: sp 0 + .ra: lr
STACK CFI 49c8 .cfa: sp 8 + .ra: .cfa -4 + ^ r4: .cfa -8 + ^
STACK CFI INIT 49e0 2c .cfa: sp 0 + .ra: lr
STACK CFI 49e4 .cfa: sp 16 + .ra: .cfa -4 + ^ r3: .cfa -16 + ^ r4: .cfa -12 + ^ r5: .cfa -8 + ^
STACK CFI INIT 4a0c 44 .cfa: sp 0 + .ra: lr
STACK CFI 4a10 .cfa: sp 24 + .ra: .cfa -4 + ^ r3: .cfa -24 + ^ r4: .cfa -20 + ^ r5: .cfa -16 + ^ r6: .cfa -12 + ^ r7: .cfa -8 + ^
STACK CFI INIT 4a50 78 .cfa: sp 0 + .ra: lr
STACK CFI 4a54 .cfa: sp 16 + .ra: .cfa -4 + ^ r4: .cfa -16 + ^ r5: .cfa -12 + ^ r6: .cfa -8 + ^
STACK CFI 4a58 .cfa: sp 24 +
STACK CFI INIT 4ac8 60 .cfa: sp 0 + .ra: lr
STACK CFI 4ad0 .cfa: sp 8 + .ra: .cfa -4 + ^ r4: .cfa -8 + ^
STACK CFI INIT 4b28 b8 .cfa: sp 0 + .ra: lr
STACK CFI 4b2c .cfa: sp 32 + .ra: .cfa -4 + ^ r3: .cfa -32 + ^ r4: .cfa -28 + ^ r5: .cfa -24 + ^ r6: .cfa -20 + ^ r7: .cfa -16 + ^ r8: .cfa -12 + ^ r9: .cfa -8 + ^
STACK CFI INIT 4be0 b0 .cfa: sp 0 + .ra: lr
STACK CFI 4be4 .cfa: sp 8 + .ra: .cfa -4 + ^ r4: .cfa -8 + ^
STACK CFI INIT 4c90 18 .cfa: sp 0 + .ra: lr
STACK CFI INIT 4ca8 28 .cfa: sp 0 + .ra: lr
STACK CFI 4cb0 .cfa: sp 8 + .ra: .cfa -4 + ^ r4: .cfa -8 + ^
STACK CFI INIT 4cd0 18 .cfa: sp 0 + .ra: lr
STACK CFI INIT 4ce8 18 .cfa: sp 0 + .ra: lr
STACK CFI INIT 4d00 10 .cfa: sp 0 + .ra: lr
STACK CFI INIT 4d10 10 .cfa: sp 0 + .ra: lr
STACK CFI INIT 4d20 1c .cfa: sp 0 + .ra: lr
STACK CFI 4d24 .cfa: sp 8 + .ra: .cfa -4 + ^ r4: .cfa -8 + ^
STACK CFI INIT 4d3c 1c .cfa: sp 0 + .ra: lr
STACK CFI 4d40 .cfa: sp 8 + .ra: .cfa -4 + ^ r4: .cfa -8 + ^
STACK CFI INIT 4d58 1c .cfa: sp 0 + .ra: lr
STACK CFI 4d5c .cfa: sp 8 + .ra: .cfa -4 + ^ r4: .cfa -8 + ^
STACK CFI INIT 4d74 1c .cfa: sp 0 + .ra: lr
STACK CFI 4d78 .cfa: sp 8 + .ra: .cfa -4 + ^ r4: .cfa -8 + ^
STACK CFI INIT 4d90 c .cfa: sp 0 + .ra: lr
STACK CFI INIT 4dac 144 .cfa: sp 0 + .ra: lr
STACK CFI 4db0 .cfa: sp 20 + .ra: .cfa -4 + ^ r4: .cfa -20 + ^ r5: .cfa -16 + ^ r6: .cfa -12 + ^ r7: .cfa -8 + ^
STACK CFI 4dbc .cfa: sp 32 +
STACK CFI INIT 4ef0 b4 .cfa: sp 0 + .ra: lr
STACK CFI 4ef4 .cfa: sp 8 + .ra: .cfa -4 + ^ r4: .cfa -8 + ^
STACK CFI INIT 4fa4 b4 .cfa: sp 0 + .ra: lr
STACK CFI 4fa8 .cfa: sp 8 + .ra: .cfa -4 + ^ r3: .cfa -8 + ^
STACK CFI INIT 5058 34 .cfa: sp 0 + .ra: lr
STACK CFI 505c .cfa: sp 8 + .ra: .cfa -4 + ^ r3: .cfa -8 + ^
STACK CFI INIT 508c 18 .cfa: sp 0 + .ra: lr
STACK CFI 5090 .cfa: sp 8 + .ra: .cfa -4 + ^ r3: .cfa -8 + ^
STACK CFI INIT 50a4 c .cfa: sp 0 + .ra: lr
STACK CFI 50a8 .cfa: sp 8 + .ra: .cfa -4 + ^ r3: .cfa -8 + ^
STACK CFI INIT 50b0 18 .cfa: sp 0 + .ra: lr
STACK CFI 50b4 .cfa: sp 8 + .ra: .cfa -4 + ^ r3: .cfa -8 + ^
STACK CFI INIT 50c8 1c .cfa: sp 0 + .ra: lr
STACK CFI INIT 50e4 1c .cfa: sp 0 + .ra: lr
STACK CFI INIT 5100 10 .cfa: sp 0 + .ra: lr
STACK CFI INIT 5110 10 .cfa: sp 0 + .ra: lr
STACK CFI INIT 5120 28 .cfa: sp 0 + .ra: lr
STACK CFI 5128 .cfa: sp 8 + .ra: .cfa -4 + ^ r4: .cfa -8 + ^
STACK CFI INIT 5148 28 .cfa: sp 0 + .ra: lr
STACK CFI 5150 .cfa: sp 8 + .ra: .cfa -4 + ^ r4: .cfa -8 + ^
STACK CFI INIT 5170 30 .cfa: sp 0 + .ra: lr
STACK CFI 5178 .cfa: sp 8 + .ra: .cfa -4 + ^ r4: .cfa -8 + ^
STACK CFI INIT 51a0 30 .cfa: sp 0 + .ra: lr
STACK CFI 51a8 .cfa: sp 8 + .ra: .cfa -4 + ^ r4: .cfa -8 + ^
STACK CFI INIT 51d0 3c .cfa: sp 0 + .ra: lr
STACK CFI 51d4 .cfa: sp 8 + .ra: .cfa -4 + ^ r3: .cfa -8 + ^
STACK CFI INIT 520c 3c .cfa: sp 0 + .ra: lr
STACK CFI 5210 .cfa: sp 8 + .ra: .cfa -4 + ^ r3: .cfa -8 + ^
STACK CFI INIT 5248 e0 .cfa: sp 0 + .ra: lr
STACK CFI 524c .cfa: sp 16 + .ra: .cfa -4 + ^ r3: .cfa -16 + ^ r4: .cfa -12 + ^ r5: .cfa -8 + ^
STACK CFI INIT 5328 a0 .cfa: sp 0 + .ra: lr
STACK CFI 5330 .cfa: sp 8 + .ra: .cfa -4 + ^ r4: .cfa -8 + ^
STACK CFI INIT 53c8 dc .cfa: sp 0 + .ra: lr
STACK CFI 53cc .cfa: sp 8 + .ra: .cfa -4 + ^ r4: .cfa -8 + ^
STACK CFI INIT 54a4 a8 .cfa: sp 0 + .ra: lr
STACK CFI 54ac .cfa: sp 8 + .ra: .cfa -4 + ^ r4: .cfa -8 + ^
STACK CFI INIT 3480 18 .cfa: sp 0 + .ra: lr
STACK CFI INIT 554c 10 .cfa: sp 0 + .ra: lr
STACK CFI INIT 555c 1c .cfa: sp 0 + .ra: lr
STACK CFI INIT 5578 20 .cfa: sp 0 + .ra: lr
STACK CFI 5584 .cfa: sp 8 + .ra: .cfa -4 + ^ r3: .cfa -8 + ^
STACK CFI INIT 5598 20 .cfa: sp 0 + .ra: lr
STACK CFI 55a4 .cfa: sp 8 + .ra: .cfa -4 + ^ r3: .cfa -8 + ^
STACK CFI INIT 55b8 10 .cfa: sp 0 + .ra: lr
STACK CFI INIT 55c8 28 .cfa: sp 0 + .ra: lr
STACK CFI 55d0 .cfa: sp 8 + .ra: .cfa -4 + ^ r4: .cfa -8 + ^
STACK CFI INIT 55f0 1c .cfa: sp 0 + .ra: lr
STACK CFI 55f4 .cfa: sp 8 + .ra: .cfa -4 + ^ r4: .cfa -8 + ^
STACK CFI INIT 560c 18 .cfa: sp 0 + .ra: lr
STACK CFI INIT 5624 8 .cfa: sp 0 + .ra: lr
STACK CFI INIT 562c 8 .cfa: sp 0 + .ra: lr
STACK CFI INIT 5634 8 .cfa: sp 0 + .ra: lr
STACK CFI INIT 563c 28 .cfa: sp 0 + .ra: lr
STACK CFI 5644 .cfa: sp 8 + .ra: .cfa -4 + ^ r4: .cfa -8 + ^
STACK CFI INIT 5664 4c .cfa: sp 0 + .ra: lr
STACK CFI 566c .cfa: sp 8 + .ra: .cfa -4 + ^ r3: .cfa -8 + ^
STACK CFI INIT 56b0 4 .cfa: sp 0 + .ra: lr
STACK CFI INIT 56b4 28 .cfa: sp 0 + .ra: lr
STACK CFI 56bc .cfa: sp 8 + .ra: .cfa -4 + ^ r4: .cfa -8 + ^
STACK CFI INIT 56dc 1c .cfa: sp 0 + .ra: lr
STACK CFI 56e0 .cfa: sp 8 + .ra: .cfa -4 + ^ r4: .cfa -8 + ^
STACK CFI INIT 56f8 64 .cfa: sp 0 + .ra: lr
STACK CFI 56fc .cfa: sp 16 + .ra: .cfa -4 + ^ r4: .cfa -16 + ^ r5: .cfa -12 + ^ r6: .cfa -8 + ^
STACK CFI 5700 .cfa: sp 32 +
STACK CFI INIT 575c e0 .cfa: sp 0 + .ra: lr
STACK CFI 5760 .cfa: sp 36 + .ra: .cfa -4 + ^ r10: .cfa -12 + ^ r11: .cfa -8 + ^ r4: .cfa -36 + ^ r5: .cfa -32 + ^ r6: .cfa -28 + ^ r7: .cfa -24 + ^ r8: .cfa -20 + ^ r9: .cfa -16 + ^
STACK CFI 5764 .cfa: sp 56 +
STACK CFI INIT 583c 40 .cfa: sp 0 + .ra: lr
STACK CFI 5840 .cfa: sp 24 + .ra: .cfa -4 + ^ r3: .cfa -24 + ^ r4: .cfa -20 + ^ r5: .cfa -16 + ^ r6: .cfa -12 + ^ r7: .cfa -8 + ^
STACK CFI INIT 587c 1b4 .cfa: sp 0 + .ra: lr
STACK CFI 5884 .cfa: sp 20 + .ra: .cfa -4 + ^ r4: .cfa -20 + ^ r5: .cfa -16 + ^ r6: .cfa -12 + ^ r7: .cfa -8 + ^
STACK CFI 5890 .cfa: sp 32 +
STACK CFI INIT 5a30 1d0 .cfa: sp 0 + .ra: lr
STACK CFI 5a38 .cfa: sp 12 + r4: .cfa -12 + ^ r5: .cfa -8 + ^ r6: .cfa -4 + ^
STACK CFI INIT 5c00 6c .cfa: sp 0 + .ra: lr
STACK CFI 5c0c .cfa: sp 12 + r4: .cfa -12 + ^ r5: .cfa -8 + ^ r6: .cfa -4 + ^
STACK CFI INIT 5c6c 13c .cfa: sp 0 + .ra: lr
STACK CFI 5c70 .cfa: sp 32 + .ra: .cfa -4 + ^ r3: .cfa -32 + ^ r4: .cfa -28 + ^ r5: .cfa -24 + ^ r6: .cfa -20 + ^ r7: .cfa -16 + ^ r8: .cfa -12 + ^ r9: .cfa -8 + ^
STACK CFI INIT 5da8 58 .cfa: sp 0 + .ra: lr
STACK CFI INIT 5e00 f4 .cfa: sp 0 + .ra: lr
STACK CFI 5e04 .cfa: sp 24 + .ra: .cfa -4 + ^ r4: .cfa -24 + ^ r5: .cfa -20 + ^ r6: .cfa -16 + ^ r7: .cfa -12 + ^ r8: .cfa -8 + ^
STACK CFI INIT 5ef4 244 .cfa: sp 0 + .ra: lr
STACK CFI 5efc .cfa: sp 24 + r4: .cfa -24 + ^ r5: .cfa -20 + ^ r6: .cfa -16 + ^ r7: .cfa -12 + ^ r8: .cfa -8 + ^ r9: .cfa -4 + ^
STACK CFI INIT 6138 5c .cfa: sp 0 + .ra: lr
STACK CFI 6140 .cfa: sp 16 + .ra: .cfa -4 + ^ r4: .cfa -16 + ^ r5: .cfa -12 + ^ r6: .cfa -8 + ^
STACK CFI INIT 6194 7c .cfa: sp 0 + .ra: lr
STACK CFI 619c .cfa: sp 8 + r4: .cfa -8 + ^ r5: .cfa -4 + ^
STACK CFI INIT 6210 60 .cfa: sp 0 + .ra: lr
STACK CFI 621c .cfa: sp 8 + .ra: .cfa -4 + ^ r4: .cfa -8 + ^
STACK CFI INIT 6270 54 .cfa: sp 0 + .ra: lr
STACK CFI 6278 .cfa: sp 8 + .ra: .cfa -4 + ^ r4: .cfa -8 + ^
STACK CFI INIT 62c4 80 .cfa: sp 0 + .ra: lr
STACK CFI 62c8 .cfa: sp 16 + .ra: .cfa -4 + ^ r3: .cfa -16 + ^ r4: .cfa -12 + ^ r5: .cfa -8 + ^
STACK CFI INIT 6344 34 .cfa: sp 0 + .ra: lr
STACK CFI 6348 .cfa: sp 8 + .ra: .cfa -4 + ^ r3: .cfa -8 + ^
STACK CFI INIT 6378 f8 .cfa: sp 0 + .ra: lr
STACK CFI 637c .cfa: sp 16 + .ra: .cfa -4 + ^ r4: .cfa -16 + ^ r5: .cfa -12 + ^ r6: .cfa -8 + ^
STACK CFI INIT 6470 9c .cfa: sp 0 + .ra: lr
STACK CFI 6478 .cfa: sp 16 + .ra: .cfa -4 + ^ r3: .cfa -16 + ^ r4: .cfa -12 + ^ r5: .cfa -8 + ^
STACK CFI INIT 650c 88 .cfa: sp 0 + .ra: lr
STACK CFI INIT 6594 19c .cfa: sp 0 + .ra: lr
STACK CFI 6598 .cfa: sp 16 + .ra: .cfa -4 + ^ r3: .cfa -16 + ^ r4: .cfa -12 + ^ r5: .cfa -8 + ^
STACK CFI INIT 6730 cc .cfa: sp 0 + .ra: lr
STACK CFI 6738 .cfa: sp 24 + .ra: .cfa -4 + ^ r4: .cfa -24 + ^ r5: .cfa -20 + ^ r6: .cfa -16 + ^ r7: .cfa -12 + ^ r8: .cfa -8 + ^
STACK CFI INIT 67fc 158 .cfa: sp 0 + .ra: lr
STACK CFI 6800 .cfa: sp 24 + .ra: .cfa -4 + ^ r3: .cfa -24 + ^ r4: .cfa -20 + ^ r5: .cfa -16 + ^ r6: .cfa -12 + ^ r7: .cfa -8 + ^
STACK CFI INIT 6954 170 .cfa: sp 0 + .ra: lr
STACK CFI 695c .cfa: sp 16 + .ra: .cfa -4 + ^ r4: .cfa -16 + ^ r5: .cfa -12 + ^ r6: .cfa -8 + ^
STACK CFI 6964 .cfa: sp 24 +
STACK CFI INIT 6ac4 4b0 .cfa: sp 0 + .ra: lr
STACK CFI 6acc .cfa: sp 24 + .ra: .cfa -4 + ^ r4: .cfa -24 + ^ r5: .cfa -20 + ^ r6: .cfa -16 + ^ r7: .cfa -12 + ^ r8: .cfa -8 + ^
STACK CFI 6ad4 .cfa: sp 32 +
STACK CFI INIT 6f74 b88 .cfa: sp 0 + .ra: lr
STACK CFI 6f7c .cfa: sp 20 + .ra: .cfa -4 + ^ r4: .cfa -20 + ^ r5: .cfa -16 + ^ r6: .cfa -12 + ^ r7: .cfa -8 + ^
STACK CFI 6f84 .cfa: sp 32 +
STACK CFI INIT 7afc 108 .cfa: sp 0 + .ra: lr
STACK CFI 7b04 .cfa: sp 12 + .ra: .cfa -4 + ^ r4: .cfa -12 + ^ r5: .cfa -8 + ^
STACK CFI 7b0c .cfa: sp 24 +
STACK CFI INIT 7c04 68 .cfa: sp 0 + .ra: lr
STACK CFI 7c0c .cfa: sp 16 + .ra: .cfa -4 + ^ r4: .cfa -16 + ^ r5: .cfa -12 + ^ r6: .cfa -8 + ^
STACK CFI INIT 7c6c 874 .cfa: sp 0 + .ra: lr
STACK CFI 7c74 .cfa: sp 32 + .ra: .cfa -4 + ^ r10: .cfa -8 + ^ r4: .cfa -32 + ^ r5: .cfa -28 + ^ r6: .cfa -24 + ^ r7: .cfa -20 + ^ r8: .cfa -16 + ^ r9: .cfa -12 + ^
STACK CFI INIT 84e0 194 .cfa: sp 0 + .ra: lr
STACK CFI 84e8 .cfa: sp 24 + .ra: .cfa -4 + ^ r4: .cfa -24 + ^ r5: .cfa -20 + ^ r6: .cfa -16 + ^ r7: .cfa -12 + ^ r8: .cfa -8 + ^
STACK CFI INIT 8674 468 .cfa: sp 0 + .ra: lr
STACK CFI 867c .cfa: sp 24 + .ra: .cfa -4 + ^ r4: .cfa -24 + ^ r5: .cfa -20 + ^ r6: .cfa -16 + ^ r7: .cfa -12 + ^ r8: .cfa -8 + ^
STACK CFI INIT 8adc 61c .cfa: sp 0 + .ra: lr
STACK CFI 8ae4 .cfa: sp 24 + .ra: .cfa -4 + ^ r4: .cfa -24 + ^ r5: .cfa -20 + ^ r6: .cfa -16 + ^ r7: .cfa -12 + ^ r8: .cfa -8 + ^
STACK CFI INIT 90f8 ac .cfa: sp 0 + .ra: lr
STACK CFI 9100 .cfa: sp 16 + .ra: .cfa -4 + ^ r4: .cfa -16 + ^ r5: .cfa -12 + ^ r6: .cfa -8 + ^
STACK CFI 910c .cfa: sp 24 +
STACK CFI INIT 91a4 84 .cfa: sp 0 + .ra: lr
STACK CFI 91a8 .cfa: sp 24 + .ra: .cfa -4 + ^ r4: .cfa -24 + ^ r5: .cfa -20 + ^ r6: .cfa -16 + ^ r7: .cfa -12 + ^ r8: .cfa -8 + ^
STACK CFI INIT 9228 3554 .cfa: sp 0 + .ra: lr
STACK CFI 9230 .cfa: sp 36 + .ra: .cfa -4 + ^ r10: .cfa -12 + ^ r11: .cfa -8 + ^ r4: .cfa -36 + ^ r5: .cfa -32 + ^ r6: .cfa -28 + ^ r7: .cfa -24 + ^ r8: .cfa -20 + ^ r9: .cfa -16 + ^
STACK CFI 9238 .cfa: sp 128 +
STACK CFI INIT c77c 20 .cfa: sp 0 + .ra: lr
STACK CFI INIT c79c 778 .cfa: sp 0 + .ra: lr
STACK CFI c7a4 .cfa: sp 32 + .ra: .cfa -4 + ^ r10: .cfa -8 + ^ r4: .cfa -32 + ^ r5: .cfa -28 + ^ r6: .cfa -24 + ^ r7: .cfa -20 + ^ r8: .cfa -16 + ^ r9: .cfa -12 + ^
STACK CFI INIT cf14 398 .cfa: sp 0 + .ra: lr
STACK CFI cf18 .cfa: sp 36 + .ra: .cfa -4 + ^ r10: .cfa -12 + ^ r11: .cfa -8 + ^ r4: .cfa -36 + ^ r5: .cfa -32 + ^ r6: .cfa -28 + ^ r7: .cfa -24 + ^ r8: .cfa -20 + ^ r9: .cfa -16 + ^
STACK CFI cf20 .cfa: sp 72 +
STACK CFI INIT d2ac 264 .cfa: sp 0 + .ra: lr
STACK CFI d2b0 .cfa: sp 40 + .ra: .cfa -4 + ^ r10: .cfa -12 + ^ r11: .cfa -8 + ^ r3: .cfa -40 + ^ r4: .cfa -36 + ^ r5: .cfa -32 + ^ r6: .cfa -28 + ^ r7: .cfa -24 + ^ r8: .cfa -20 + ^ r9: .cfa -16 + ^
STACK CFI INIT d510 2d8 .cfa: sp 0 + .ra: lr
STACK CFI d514 .cfa: sp 32 + .ra: .cfa -4 + ^ r3: .cfa -32 + ^ r4: .cfa -28 + ^ r5: .cfa -24 + ^ r6: .cfa -20 + ^ r7: .cfa -16 + ^ r8: .cfa -12 + ^ r9: .cfa -8 + ^
STACK CFI INIT d7e8 238 .cfa: sp 0 + .ra: lr
STACK CFI d7ec .cfa: sp 24 + .ra: .cfa -4 + ^ r4: .cfa -24 + ^ r5: .cfa -20 + ^ r6: .cfa -16 + ^ r7: .cfa -12 + ^ r8: .cfa -8 + ^
STACK CFI d7f8 .cfa: sp 32 +
STACK CFI INIT da20 a4 .cfa: sp 0 + .ra: lr
STACK CFI da28 .cfa: sp 32 + .ra: .cfa -4 + ^ r3: .cfa -32 + ^ r4: .cfa -28 + ^ r5: .cfa -24 + ^ r6: .cfa -20 + ^ r7: .cfa -16 + ^ r8: .cfa -12 + ^ r9: .cfa -8 + ^
STACK CFI INIT dac4 110 .cfa: sp 0 + .ra: lr
STACK CFI dac8 .cfa: sp 24 + .ra: .cfa -4 + ^ r3: .cfa -24 + ^ r4: .cfa -20 + ^ r5: .cfa -16 + ^ r6: .cfa -12 + ^ r7: .cfa -8 + ^
STACK CFI INIT dbd4 31c .cfa: sp 0 + .ra: lr
STACK CFI dbd8 .cfa: sp 32 + .ra: .cfa -4 + ^ r11: .cfa -8 + ^ r4: .cfa -32 + ^ r5: .cfa -28 + ^ r6: .cfa -24 + ^ r7: .cfa -20 + ^ r8: .cfa -16 + ^ r9: .cfa -12 + ^
STACK CFI dbdc .cfa: r11 4 +
STACK CFI INIT def0 14c .cfa: sp 0 + .ra: lr
STACK CFI def8 .cfa: sp 24 + .ra: .cfa -4 + ^ r4: .cfa -24 + ^ r5: .cfa -20 + ^ r6: .cfa -16 + ^ r7: .cfa -12 + ^ r8: .cfa -8 + ^
STACK CFI df00 .cfa: sp 40 +
STACK CFI INIT e03c 2c .cfa: sp 0 + .ra: lr
STACK CFI e048 .cfa: sp 8 + .ra: .cfa -4 + ^ r3: .cfa -8 + ^
STACK CFI INIT e068 2c .cfa: sp 0 + .ra: lr
STACK CFI e06c .cfa: sp 8 + .ra: .cfa -4 + ^ r3: .cfa -8 + ^
STACK CFI INIT e094 18 .cfa: sp 0 + .ra: lr
STACK CFI INIT e0ac ac .cfa: sp 0 + .ra: lr
STACK CFI e0b0 .cfa: sp 48 + .ra: .cfa -4 + ^ r0: .cfa -48 + ^ r1: .cfa -44 + ^ r10: .cfa -12 + ^ r11: .cfa -8 + ^ r2: .cfa -40 + ^ r4: .cfa -36 + ^ r5: .cfa -32 + ^ r6: .cfa -28 + ^ r7: .cfa -24 + ^ r8: .cfa -20 + ^ r9: .cfa -16 + ^
STACK CFI INIT e158 50 .cfa: sp 0 + .ra: lr
STACK CFI INIT e1a8 10c .cfa: sp 0 + .ra: lr
STACK CFI e1b0 .cfa: sp 24 + .ra: .cfa -4 + ^ r0: .cfa -24 + ^ r1: .cfa -20 + ^ r2: .cfa -16 + ^ r4: .cfa -12 + ^ r5: .cfa -8 + ^
STACK CFI INIT e2b4 6c .cfa: sp 0 + .ra: lr
STACK CFI e2bc .cfa: sp 8 + .ra: .cfa -4 + ^ r4: .cfa -8 + ^
STACK CFI INIT e320 14 .cfa: sp 0 + .ra: lr
STACK CFI INIT e334 8 .cfa: sp 0 + .ra: lr
STACK CFI INIT e33c 4 .cfa: sp 0 + .ra: lr
STACK CFI INIT e340 64 .cfa: sp 0 + .ra: lr
STACK CFI e344 .cfa: sp 16 + .ra: .cfa -4 + ^ r4: .cfa -16 + ^ r5: .cfa -12 + ^ r6: .cfa -8 + ^
STACK CFI INIT e3a4 124 .cfa: sp 0 + .ra: lr
STACK CFI e3a8 .cfa: sp 36 + .ra: .cfa -4 + ^ r10: .cfa -12 + ^ r11: .cfa -8 + ^ r4: .cfa -36 + ^ r5: .cfa -32 + ^ r6: .cfa -28 + ^ r7: .cfa -24 + ^ r8: .cfa -20 + ^ r9: .cfa -16 + ^
STACK CFI e3c4 .cfa: sp 1008 +
STACK CFI INIT e4c8 8 .cfa: sp 0 + .ra: lr
STACK CFI INIT e4d0 a4 .cfa: sp 0 + .ra: lr
STACK CFI e4d8 .cfa: sp 20 + .ra: .cfa -4 + ^ r4: .cfa -20 + ^ r5: .cfa -16 + ^ r6: .cfa -12 + ^ r7: .cfa -8 + ^
STACK CFI e4ec .cfa: sp 504 +
STACK CFI INIT e574 1c .cfa: sp 0 + .ra: lr
STACK CFI INIT e590 74 .cfa: sp 0 + .ra: lr
STACK CFI e594 .cfa: sp 16 + .ra: .cfa -4 + ^ r4: .cfa -16 + ^ r5: .cfa -12 + ^ r6: .cfa -8 + ^
STACK CFI INIT e604 20 .cfa: sp 0 + .ra: lr
STACK CFI INIT e624 4 .cfa: sp 0 + .ra: lr
STACK CFI INIT e628 20 .cfa: sp 0 + .ra: lr
STACK CFI e62c .cfa: sp 8 + .ra: .cfa -4 + ^ r3: .cfa -8 + ^
STACK CFI INIT e648 5c .cfa: sp 0 + .ra: lr
STACK CFI INIT e6a4 28 .cfa: sp 0 + .ra: lr
STACK CFI e6a8 .cfa: sp 24 + .ra: .cfa -4 + ^ r0: .cfa -24 + ^ r1: .cfa -20 + ^ r2: .cfa -16 + ^ r3: .cfa -12 + ^ r4: .cfa -8 + ^
STACK CFI INIT e6cc 5c .cfa: sp 0 + .ra: lr
STACK CFI INIT e728 2c .cfa: sp 0 + .ra: lr
STACK CFI e72c .cfa: sp 24 + .ra: .cfa -4 + ^ r0: .cfa -24 + ^ r1: .cfa -20 + ^ r2: .cfa -16 + ^ r3: .cfa -12 + ^ r4: .cfa -8 + ^
STACK CFI INIT e754 c4 .cfa: sp 0 + .ra: lr
STACK CFI e75c .cfa: sp 24 + .ra: .cfa -4 + ^ r4: .cfa -24 + ^ r5: .cfa -20 + ^ r6: .cfa -16 + ^ r7: .cfa -12 + ^ r8: .cfa -8 + ^
STACK CFI e770 .cfa: sp 592 +
STACK CFI INIT e818 3f0 .cfa: sp 0 + .ra: lr
STACK CFI e81c .cfa: sp 36 + .ra: .cfa -4 + ^ r10: .cfa -12 + ^ r11: .cfa -8 + ^ r4: .cfa -36 + ^ r5: .cfa -32 + ^ r6: .cfa -28 + ^ r7: .cfa -24 + ^ r8: .cfa -20 + ^ r9: .cfa -16 + ^
STACK CFI e828 .cfa: sp 72 +
STACK CFI INIT ec08 8 .cfa: sp 0 + .ra: lr
STACK CFI INIT ec10 8 .cfa: sp 0 + .ra: lr
STACK CFI INIT ec18 8 .cfa: sp 0 + .ra: lr
STACK CFI INIT ec20 34c .cfa: sp 0 + .ra: lr
STACK CFI ec24 .cfa: sp 28 + .ra: .cfa -4 + ^ r4: .cfa -28 + ^ r5: .cfa -24 + ^ r6: .cfa -20 + ^ r7: .cfa -16 + ^ r8: .cfa -12 + ^ r9: .cfa -8 + ^
STACK CFI ec2c .cfa: sp 296 +
STACK CFI INIT f114 60 .cfa: sp 0 + .ra: lr
STACK CFI INIT f174 28 .cfa: sp 0 + .ra: lr
STACK CFI f178 .cfa: sp 24 + .ra: .cfa -4 + ^ r0: .cfa -24 + ^ r1: .cfa -20 + ^ r2: .cfa -16 + ^ r3: .cfa -12 + ^ r4: .cfa -8 + ^
STACK CFI INIT f19c 4 .cfa: sp 0 + .ra: lr
STACK CFI INIT f1a0 37c .cfa: sp 0 + .ra: lr
STACK CFI f1a4 .cfa: sp 48 + .ra: .cfa -4 + ^ r0: .cfa -48 + ^ r1: .cfa -44 + ^ r10: .cfa -8 + ^ r2: .cfa -40 + ^ r3: .cfa -36 + ^ r4: .cfa -32 + ^ r5: .cfa -28 + ^ r6: .cfa -24 + ^ r7: .cfa -20 + ^ r8: .cfa -16 + ^ r9: .cfa -12 + ^
STACK CFI INIT f51c 40 .cfa: sp 0 + .ra: lr
STACK CFI f520 .cfa: sp 24 + .ra: .cfa -4 + ^ r0: .cfa -24 + ^ r1: .cfa -20 + ^ r2: .cfa -16 + ^ r3: .cfa -12 + ^ r4: .cfa -8 + ^
STACK CFI INIT f55c 10 .cfa: sp 0 + .ra: lr
STACK CFI f560 .cfa: sp 8 + .ra: .cfa -4 + ^ r3: .cfa -8 + ^
STACK CFI INIT f56c 1c .cfa: sp 0 + .ra: lr
STACK CFI f570 .cfa: sp 8 + .ra: .cfa -4 + ^ r3: .cfa -8 + ^
STACK CFI INIT f588 8 .cfa: sp 0 + .ra: lr
STACK CFI f58c .cfa: sp 8 + .ra: .cfa -4 + ^ r3: .cfa -8 + ^
STACK CFI INIT f590 8 .cfa: sp 0 + .ra: lr
STACK CFI f594 .cfa: sp 8 + .ra: .cfa -4 + ^ r3: .cfa -8 + ^
