MODULE Linux arm 89C19F0B2F1ADA6F4F4F042E4A22AC9A0 libcurl.so
FUNC 4955c 44 0 __fixdfdi
FUNC 495a0 68 0 __fixunsdfdi
PUBLIC bccc 0 curl_formadd
PUBLIC c75c 0 curl_formfree
PUBLIC cdb4 0 curl_formget
PUBLIC 1ed48 0 curl_version
PUBLIC 1ee18 0 curl_version_info
PUBLIC 1ee58 0 curl_getenv
PUBLIC 1ee94 0 curl_easy_escape
PUBLIC 1effc 0 curl_escape
PUBLIC 1f16c 0 curl_easy_unescape
PUBLIC 1f1c4 0 curl_unescape
PUBLIC 1f1dc 0 curl_free
PUBLIC 1f358 0 curl_msnprintf
PUBLIC 20340 0 curl_mvsnprintf
PUBLIC 20390 0 curl_maprintf
PUBLIC 20454 0 curl_mvaprintf
PUBLIC 20504 0 curl_msprintf
PUBLIC 2054c 0 curl_mprintf
PUBLIC 20590 0 curl_mfprintf
PUBLIC 205c4 0 curl_mvsprintf
PUBLIC 20604 0 curl_mvprintf
PUBLIC 2062c 0 curl_mvfprintf
PUBLIC 24780 0 curl_strequal
PUBLIC 24794 0 curl_strnequal
PUBLIC 2485c 0 curl_global_init
PUBLIC 2493c 0 curl_global_init_mem
PUBLIC 249d8 0 curl_global_cleanup
PUBLIC 24a30 0 curl_easy_init
PUBLIC 24a80 0 curl_easy_setopt
PUBLIC 24ab4 0 curl_easy_perform
PUBLIC 24cd0 0 curl_easy_cleanup
PUBLIC 24d20 0 curl_easy_getinfo
PUBLIC 24d4c 0 curl_easy_duphandle
PUBLIC 24f40 0 curl_easy_reset
PUBLIC 24fd8 0 curl_easy_pause
PUBLIC 25130 0 curl_easy_recv
PUBLIC 2518c 0 curl_easy_send
PUBLIC 2940c 0 curl_multi_init
PUBLIC 29434 0 curl_multi_fdset
PUBLIC 29538 0 curl_multi_wait
PUBLIC 29820 0 curl_multi_cleanup
PUBLIC 29998 0 curl_multi_info_read
PUBLIC 29a7c 0 curl_multi_setopt
PUBLIC 29c0c 0 curl_multi_timeout
PUBLIC 29e24 0 curl_multi_add_handle
PUBLIC 29fa0 0 curl_multi_remove_handle
PUBLIC 2a250 0 curl_multi_assign
PUBLIC 2b2c0 0 curl_multi_perform
PUBLIC 2b684 0 curl_multi_socket
PUBLIC 2b6c0 0 curl_multi_socket_action
PUBLIC 2b700 0 curl_multi_socket_all
PUBLIC 2bec0 0 curl_share_init
PUBLIC 2bef4 0 curl_share_setopt
PUBLIC 2c0ec 0 curl_share_cleanup
PUBLIC 2cfc0 0 curl_easy_strerror
PUBLIC 2d668 0 curl_multi_strerror
PUBLIC 2d73c 0 curl_share_strerror
PUBLIC 2d9d0 0 curl_getdate
PUBLIC 31548 0 curl_slist_append
PUBLIC 315b0 0 curl_slist_free_all
PUBLIC 42294 0 SSLeay_version
PUBLIC 4231c 0 SSLeay
PUBLIC 425b4 0 ENGINE_set_default
PUBLIC 426ec 0 ENGINE_set_default_string
PUBLIC 42794 0 ENGINE_register_complete
PUBLIC 427e8 0 ENGINE_register_all_complete
PUBLIC 42838 0 ENGINE_load_builtin_engines
PUBLIC 430a8 0 ENGINE_load_dynamic
PUBLIC 43194 0 ENGINE_load_rdrand
PUBLIC 43198 0 RAND_load_file
PUBLIC 432c4 0 RAND_write_file
PUBLIC 433b8 0 RAND_file_name
PUBLIC 434cc 0 OPENSSL_add_all_algorithms_noconf
PUBLIC 434e0 0 OpenSSL_add_all_ciphers
PUBLIC 440c4 0 EVP_rc4_hmac_md5
PUBLIC 442d4 0 PKCS12_parse
PUBLIC 44860 0 PKCS12_gen_mac
PUBLIC 448e0 0 PKCS12_verify_mac
PUBLIC 449c0 0 PKCS12_setup_mac
PUBLIC 44bac 0 PKCS12_set_mac
PUBLIC 44ce8 0 OPENSSL_issetugid
PUBLIC 44fa4 0 EVP_bf_cbc
PUBLIC 44fb4 0 EVP_bf_cfb64
PUBLIC 44fc8 0 EVP_bf_ofb
PUBLIC 44fdc 0 EVP_bf_ecb
PUBLIC 4510c 0 EVP_desx_cbc
PUBLIC 453a0 0 EVP_cast5_cbc
PUBLIC 453b0 0 EVP_cast5_cfb64
PUBLIC 453c4 0 EVP_cast5_ofb
PUBLIC 453d8 0 EVP_cast5_ecb
PUBLIC 453ec 0 PKCS12_add_localkeyid
PUBLIC 4541c 0 PKCS8_add_keyusage
PUBLIC 45454 0 PKCS12_add_friendlyname_asc
PUBLIC 45488 0 PKCS12_add_friendlyname_uni
PUBLIC 454bc 0 PKCS12_add_CSPName_asc
PUBLIC 454f4 0 PKCS12_get_attr_gen
PUBLIC 45568 0 PKCS12_get_friendlyname
PUBLIC 455a8 0 DES_xcbc_encrypt
PUBLIC 45ccc 0 BF_set_key
PUBLIC 45dcc 0 BF_options
PUBLIC 45ddc 0 BF_ecb_encrypt
PUBLIC 45e90 0 BF_encrypt
PUBLIC 463fc 0 BF_decrypt
PUBLIC 46968 0 BF_cbc_encrypt
PUBLIC 46f4c 0 BF_cfb64_encrypt
PUBLIC 4711c 0 BF_ofb64_encrypt
PUBLIC 472bc 0 CAST_set_key
PUBLIC 480a8 0 CAST_ecb_encrypt
PUBLIC 4815c 0 CAST_encrypt
PUBLIC 4867c 0 CAST_decrypt
PUBLIC 48bc4 0 CAST_cbc_encrypt
PUBLIC 491a8 0 CAST_cfb64_encrypt
PUBLIC 49378 0 CAST_ofb64_encrypt
PUBLIC 49518 0 __aeabi_ldivmod
PUBLIC 4955c 0 __aeabi_d2lz
PUBLIC 495a0 0 __aeabi_d2ulz
PUBLIC 49608 0 __aeabi_d2uiz
STACK CFI INIT 4955c 44 .cfa: sp 0 + .ra: lr
STACK CFI 49560 .cfa: sp 16 + .ra: .cfa -4 + ^ r3: .cfa -16 + ^ r4: .cfa -12 + ^ r5: .cfa -8 + ^
STACK CFI INIT 495a0 68 .cfa: sp 0 + .ra: lr
STACK CFI 495a4 .cfa: sp 16 + .ra: .cfa -4 + ^ r4: .cfa -16 + ^ r5: .cfa -12 + ^ r6: .cfa -8 + ^
