MODULE Linux arm E173937CB9750A9271C409E05AF39D3D0 libdvdnav-arm.so
FUNC 4f10 8e0 0 CryptKey
FUNC 57f0 304 0 DecryptKey
FUNC 5af4 534 0 GetBusKey
FUNC 6028 124 0 GetASF
FUNC 614c 88 0 PrintKey
FUNC 61d4 eb0 0 CrackTitleKey
FUNC 7084 250 0 _dvdcss_test
FUNC 72d4 cd0 0 _dvdcss_disckey
FUNC 7fa4 87c 0 _dvdcss_title
FUNC 8820 100 0 _dvdcss_unscramble
FUNC 8920 2c 0 libc_readv
FUNC 894c 194 0 libc_read
FUNC 8ae0 8c 0 libc_seek
FUNC 8b6c 3c 0 _dvdcss_use_ioctls
FUNC 8ba8 10c 0 _dvdcss_check
FUNC 8cb4 1a8 0 _dvdcss_open
FUNC 8e5c c4 0 _dvdcss_raw_open
FUNC 8f20 34 0 _dvdcss_close
FUNC 8f58 4c 0 _print_error
FUNC 8fa4 58 0 ioctl_ReadCopyright
FUNC 8ffc 7c 0 ioctl_ReadDiscKey
FUNC 9078 60 0 ioctl_ReadTitleKey
FUNC 90d8 50 0 ioctl_ReportAgid
FUNC 9128 68 0 ioctl_ReportChallenge
FUNC 9190 58 0 ioctl_ReportASF
FUNC 91e8 60 0 ioctl_ReportKey1
FUNC 9248 48 0 ioctl_InvalidateAgid
FUNC 9290 54 0 ioctl_SendChallenge
FUNC 92e4 54 0 ioctl_SendKey2
FUNC 9338 64 0 ioctl_ReportRPC
FUNC 939c 9d0 0 dvdcss_open
FUNC 9d6c c 0 dvdcss_error
FUNC 9d78 5c 0 dvdcss_seek
FUNC 9dd4 c8 0 dvdcss_read
FUNC 9e9c b0 0 dvdcss_readv
FUNC 9f4c 54 0 dvdcss_close
FUNC 9fa0 4 0 dvdcss_title
FUNC 9fa4 8 0 dvdcss_is_scrambled
FUNC 9fac 34 0 dvdread_getbits_init
FUNC 9fe0 128 0 dvdread_getbits
FUNC a108 8 0 css_error
FUNC a110 8 0 css_read
FUNC a118 c 0 css_title
FUNC a124 c 0 css_seek
FUNC a130 28 0 css_close
FUNC a158 9c 0 css_open
FUNC a1f4 c4 0 dvdinput_setup
FUNC a2b8 5e4 0 DVDOpenVOBUDF
FUNC a89c 1d0 0 findDVDFile
FUNC aa6c 28 0 DVDUDFCacheLevel
FUNC aa94 8 0 GetUDFCacheHandle
FUNC aa9c 8 0 SetUDFCacheHandle
FUNC aaa4 578 0 DVDOpen
FUNC b01c 58 0 DVDClose
FUNC b074 830 0 DVDOpenFile
FUNC b8a4 5c 0 DVDCloseFile
FUNC b900 5f8 0 DVDFileStat
FUNC bef8 cc 0 UDFReadBlocksRaw
FUNC bfc4 34 0 DVDCheckSector
FUNC bff8 4c0 0 DVDReadBlocksCached
FUNC c4b8 3c 0 DVDReadBlocks
FUNC c4f4 30 0 DVDFileSeek
FUNC c524 94 0 DVDFileSeekForce
FUNC c5b8 118 0 DVDReadBytes
FUNC c6d0 10 0 DVDFileSize
FUNC c6e0 160 0 DVDDiscID
FUNC c840 17c 0 DVDISOVolumeInfo
FUNC c9bc 78 0 DVDUDFVolumeInfo
FUNC ca38 1bc 0 UDFGetAVDP
FUNC cbf4 20c 0 UDFGetPVD
FUNC ce00 660 0 UDFMapICB
FUNC d460 70 0 FreeUDFCache
FUNC d4d0 1020 0 UDFFindFile
FUNC e4f0 2cc 0 UDFGetVolumeIdentifier
FUNC e7bc 44 0 UDFGetVolumeSetIdentifier
FUNC e800 344 0 ifo_print_video_attributes
FUNC eb44 4f0 0 ifo_print_audio_attributes
FUNC f034 290 0 ifo_print_subp_attributes
FUNC f2c4 21c 0 dvdread_print_time
FUNC f4e0 d60 0 ifoPrint_PGC
FUNC 10240 31c 0 ifoPrint_PGCI_UT
FUNC 1055c 150c 0 ifo_print
FUNC 11a68 104 0 ifoFree_PGC
FUNC 11b6c 140 0 read_video_attr
FUNC 11cac 1b8 0 read_audio_attr
FUNC 11e64 c8 0 read_subp_attr
FUNC 11f2c e68 0 ifoRead_VMG
FUNC 12d94 1a40 0 ifoRead_VTS
FUNC 147d4 1174 0 ifoRead_PGC
FUNC 15948 460 0 ifoRead_C_ADT_internal
FUNC 15da8 590 0 ifoRead_PGCIT_internal
FUNC 16338 17c 0 ifoFree_PGCIT_internal
FUNC 164b4 b0 0 ifoRead_FP_PGC
FUNC 16564 100 0 ifoFree_FP_PGC
FUNC 16664 34 0 ifoFree_TT_SRPT
FUNC 16698 760 0 ifoRead_TT_SRPT
FUNC 16df8 8b4 0 ifoRead_VTS_PTT_SRPT
FUNC 176ac 7c 0 ifoFree_VTS_PTT_SRPT
FUNC 17728 b18 0 ifoRead_PTL_MAIT
FUNC 18240 70 0 ifoFree_PTL_MAIT
FUNC 182b0 80 0 ifoFree_VTS_TMAPT
FUNC 18330 5e8 0 ifoRead_VTS_TMAPT
FUNC 18918 a4 0 ifoRead_TITLE_C_ADT
FUNC 189bc b4 0 ifoRead_C_ADT
FUNC 18a70 34 0 ifoFree_C_ADT
FUNC 18aa4 34 0 ifoFree_TITLE_C_ADT
FUNC 18ad8 200 0 ifoRead_TITLE_VOBU_ADMAP
FUNC 18cd8 20c 0 ifoRead_VOBU_ADMAP
FUNC 18ee4 34 0 ifoFree_VOBU_ADMAP
FUNC 18f18 34 0 ifoFree_TITLE_VOBU_ADMAP
FUNC 18f4c b4 0 ifoRead_PGCIT
FUNC 19000 17c 0 ifoFree_PGCIT
FUNC 1917c 588 0 ifoRead_PGCI_UT
FUNC 19704 1fc 0 ifoFree_PGCI_UT
FUNC 19900 de0 0 ifoRead_VTS_ATRT
FUNC 1a6e0 40 0 ifoFree_VTS_ATRT
FUNC 1a720 b8 0 ifoRead_TXTDT_MGI
FUNC 1a7d8 28 0 ifoFree_TXTDT_MGI
FUNC 1a800 ac 0 ifoClose
FUNC 1a8ac 3f4 0 ifoOpen
FUNC 1aca0 ec 0 ifoOpenVMGI
FUNC 1ad8c 11c 0 ifoOpenVTSI
FUNC 1aea8 48 0 md5_init_ctx
FUNC 1aef0 2c 0 md5_read_ctx
FUNC 1af1c af4 0 md5_process_block
FUNC 1ba10 a0 0 md5_finish_ctx
FUNC 1bab0 e4 0 md5_process_bytes
FUNC 1bb94 44 0 md5_buffer
FUNC 1bbd8 d0 0 md5_stream
FUNC 1bca8 6c8 0 navPrint_PCI
FUNC 1c370 3e0 0 navPrint_DSI
FUNC 1c750 1534 0 navRead_PCI
FUNC 1dc84 30c 0 navRead_DSI
FUNC 1df90 7dc 0 eval_set_op
FUNC 1e76c b8 0 vm_getbits
FUNC 1e824 27c 0 eval_if_version_2
FUNC 1eaa0 130 0 eval_link_instruction
FUNC 1ebd0 164 0 eval_set_version_2
FUNC 1ed34 2ac 0 eval_if_version_4
FUNC 1efe0 2ac 0 eval_if_version_1
FUNC 1f28c 11a4 0 vmEval_CMD
FUNC 20430 124 0 dvdnav_decode_packet
FUNC 20554 260 0 dvdnav_open
FUNC 207b4 88 0 dvdnav_close
FUNC 2083c 11c 0 dvdnav_reset
FUNC 20958 c 0 dvdnav_path
FUNC 20964 24 0 dvdnav_err_to_string
FUNC 20988 e4 0 dvdnav_convert_time
FUNC 20a6c b4 0 dvdnav_get_current_time
FUNC 20b20 e30 0 dvdnav_get_next_cache_block
FUNC 21950 6c 0 dvdnav_get_next_block
FUNC 219bc 18 0 dvdnav_get_title_string
FUNC 219d4 1c 0 dvdnav_get_serial_string
FUNC 219f0 6c 0 dvdnav_get_video_aspect
FUNC 21a5c 94 0 dvdnav_get_video_resolution
FUNC 21af0 6c 0 dvdnav_get_video_scale_permission
FUNC 21b5c 90 0 dvdnav_audio_stream_to_lang
FUNC 21bec 84 0 dvdnav_audio_stream_format
FUNC 21c70 88 0 dvdnav_audio_stream_channels
FUNC 21cf8 90 0 dvdnav_spu_stream_to_lang
FUNC 21d88 b0 0 dvdnav_get_audio_logical_stream
FUNC 21e38 c8 0 dvdnav_get_audio_attr
FUNC 21f00 b4 0 dvdnav_get_spu_logical_stream
FUNC 21fb4 c8 0 dvdnav_get_spu_attr
FUNC 2207c a8 0 dvdnav_get_active_audio_stream
FUNC 22124 ac 0 dvdnav_get_active_spu_stream
FUNC 221d0 7c 0 dvdnav_is_domain_fp
FUNC 2224c 7c 0 dvdnav_is_domain_vmgm
FUNC 222c8 7c 0 dvdnav_is_domain_vtsm
FUNC 22344 7c 0 dvdnav_is_domain_vts
FUNC 223c0 90 0 dvdnav_angle_change
FUNC 22450 44 0 dvdnav_get_angle_info
FUNC 22494 10 0 dvdnav_get_current_nav_pci
FUNC 224a4 10 0 dvdnav_get_current_nav_dsi
FUNC 224b4 14 0 dvdnav_get_next_still_flag
FUNC 224c8 b4 0 dvdnav_get_restrictions
FUNC 2257c 10 0 dvdnav_get_vm
FUNC 2258c 128 0 dvdnav_get_button_info
FUNC 226b4 4 0 dvdnav_free
FUNC 226b8 2c 0 dvdnav_get_current_highlight
FUNC 226e4 c8 0 dvdnav_get_highlight_area
FUNC 227ac 1d8 0 dvdnav_button_activate
FUNC 22984 78 0 dvdnav_button_activate_cmd
FUNC 229fc d4 0 dvdnav_button_select
FUNC 22ad0 14c 0 dvdnav_upper_button_select
FUNC 22c1c 14c 0 dvdnav_lower_button_select
FUNC 22d68 14c 0 dvdnav_right_button_select
FUNC 22eb4 14c 0 dvdnav_left_button_select
FUNC 23000 28 0 dvdnav_button_select_and_activate
FUNC 23028 194 0 dvdnav_mouse_select
FUNC 231bc 28 0 dvdnav_mouse_activate
FUNC 231e4 50 0 dvdnav_still_skip
FUNC 23234 20 0 dvdnav_wait_skip
FUNC 23254 5c 0 dvdnav_get_number_of_titles
FUNC 232b0 b0 0 dvdnav_get_number_of_parts
FUNC 23360 14c 0 dvdnav_current_title_info
FUNC 234ac 194 0 dvdnav_current_title_program
FUNC 23640 110 0 dvdnav_program_play
FUNC 23750 13c 0 dvdnav_part_play
FUNC 2388c 8 0 dvdnav_title_play
FUNC 23894 48 0 dvdnav_part_play_auto_stop
FUNC 238dc 30 0 dvdnav_time_play
FUNC 2390c 38 0 dvdnav_stop
FUNC 23944 3c 0 dvdnav_go_up
FUNC 23980 24c 0 dvdnav_read_cache_free
FUNC 23bcc 50 0 dvdnav_read_cache_clear
FUNC 23c1c a4 0 dvdnav_read_cache_new
FUNC 23cc0 258 0 dvdnav_pre_cache_blocks
FUNC 23f18 1ec 0 dvdnav_read_cache_block
FUNC 24104 ac 0 dvdnav_free_cache_block
FUNC 241b0 5d0 0 remap_loadmap
FUNC 24780 144 0 remap_block
FUNC 248c4 1e4 0 dvdnav_admap_interpolate_vobu
FUNC 24aa8 398 0 dvdnav_time_search
FUNC 24e40 48 0 dvdnav_part_search
FUNC 24e88 d0 0 dvdnav_prev_pg_search
FUNC 24f58 d0 0 dvdnav_top_pg_search
FUNC 25028 12c 0 dvdnav_next_pg_search
FUNC 25154 138 0 dvdnav_menu_call
FUNC 2528c 210 0 dvdnav_get_position
FUNC 2549c 7bc 0 dvdnav_sector_search
FUNC 25c58 a0 0 dvdnav_get_position_in_title
FUNC 25cf8 494 0 dvdnav_describe_title_chapters
FUNC 2618c 84 0 dvdnav_get_state
FUNC 26210 13c 0 dvdnav_set_state
FUNC 2634c ce8 0 dvdnav_jump_to_sector_by_time
FUNC 27034 18 0 dvdnav_get_region_mask
FUNC 2704c 3c 0 dvdnav_set_region_mask
FUNC 27088 10 0 dvdnav_set_readahead_flag
FUNC 27098 14 0 dvdnav_get_readahead_flag
FUNC 270ac 9c 0 dvdnav_menu_language_select
FUNC 27148 9c 0 dvdnav_audio_language_select
FUNC 271e4 9c 0 dvdnav_spu_language_select
FUNC 27280 10 0 dvdnav_set_PGC_positioning_flag
FUNC 27290 14 0 dvdnav_get_PGC_positioning_flag
FUNC 272a4 15c 0 print_reg_or_data
FUNC 27400 20c 0 print_if_version_2
FUNC 2760c 12c 0 print_if_version_1
FUNC 27738 238 0 print_set_version_3
FUNC 27970 2d0 0 print_if_version_5
FUNC 27c40 284 0 print_link_instruction
FUNC 27ec4 116c 0 vm_print_mnemonic
FUNC 29030 90 0 vm_print_cmd
FUNC 290c0 264 0 dvd_read_name
FUNC 29324 180 0 get_MENU_PGCIT
FUNC 294a4 224 0 ifoOpenNewVTSI
FUNC 296c8 c4 0 set_PGCN
FUNC 2978c 130 0 set_VTS_PTT
FUNC 298bc 164 0 set_MENU
FUNC 29a20 1cc 0 set_RSMinfo
FUNC 29bec c 0 vm_new_vm
FUNC 29bf8 8 0 vm_get_vmgi
FUNC 29c00 8 0 vm_get_vtsi
FUNC 29c08 8 0 vm_get_dvd_reader
FUNC 29c10 5c 0 vm_stop
FUNC 29c6c 18 0 vm_free_vm
FUNC 29c84 588 0 vm_reset
FUNC 2a20c 244 0 vm_new_copy
FUNC 2a450 40 0 vm_merge
FUNC 2a490 24 0 vm_free_copy
FUNC 2a4b4 12c 0 vm_position_get
FUNC 2a5e0 a4 0 vm_get_current_menu
FUNC 2a684 268 0 vm_get_current_title_part
FUNC 2a8ec 39c 0 play_Cell
FUNC 2ac88 264 0 play_PGC
FUNC 2aeec 14c 0 play_PGC_post
FUNC 2b038 1fc 0 play_PG
FUNC 2b234 1148 0 process_command
FUNC 2c37c 29c 0 vm_start
FUNC 2c618 204 0 vm_jump_pg
FUNC 2c81c 200 0 vm_jump_top_pg
FUNC 2ca1c 170 0 vm_jump_next_pg
FUNC 2cb8c 128 0 vm_jump_prev_pg
FUNC 2ccb4 fc 0 vm_jump_up
FUNC 2cdb0 2c8 0 vm_jump_menu
FUNC 2d078 48 0 vm_jump_resume
FUNC 2d0c0 40 0 vm_exec_cmd
FUNC 2d100 264 0 vm_jump_title_program
FUNC 2d364 304 0 vm_jump_title_part
FUNC 2d668 2e8 0 vm_get_next_cell
FUNC 2d950 3c0 0 vm_jump_cell_block
FUNC 2dd10 54 0 vm_get_audio_stream
FUNC 2dd64 150 0 vm_get_audio_active_stream
FUNC 2deb4 7c 0 vm_get_angle_info
FUNC 2df30 a8 0 vm_get_video_attr
FUNC 2dfd8 80 0 vm_get_video_res
FUNC 2e058 70 0 vm_get_video_aspect
FUNC 2e0c8 b4 0 vm_get_subp_stream
FUNC 2e17c 88 0 vm_get_subp_active_stream
FUNC 2e204 18 0 vm_get_video_scale_permission
FUNC 2e21c 98 0 vm_get_audio_attr
FUNC 2e2b4 90 0 vm_get_subp_attr
FUNC 2e344 3c 0 vm_get_title_ifo
FUNC 2e380 4 0 vm_ifo_close
FUNC 2e384 2c 0 vm_get_state
FUNC 2e3b0 278 0 vm_set_state
FUNC 2e628 4 0 __wrap_dlopen
FUNC 2e62c 4 0 __wrap_popen
FUNC 2e630 4 0 __wrap_calloc
FUNC 2e634 4 0 __wrap_malloc
FUNC 2e638 4 0 __wrap_realloc
FUNC 2e63c 4 0 __wrap_free
FUNC 2e640 1c 0 __wrap_open
FUNC 2e65c 1c 0 __wrap_open64
FUNC 2e678 4 0 __wrap_close
FUNC 2e67c 4 0 __wrap_write
FUNC 2e680 4 0 __wrap_read
FUNC 2e684 4 0 __wrap_lseek
FUNC 2e688 4 0 __wrap_lseek64
FUNC 2e68c 4 0 __wrap_fclose
FUNC 2e690 4 0 __wrap_ferror
FUNC 2e694 4 0 __wrap_clearerr
FUNC 2e698 4 0 __wrap_feof
FUNC 2e69c 4 0 __wrap_fileno
FUNC 2e6a0 4 0 __wrap_fopen
FUNC 2e6a4 4 0 __wrap_fopen64
FUNC 2e6a8 4 0 __wrap_fdopen
FUNC 2e6ac 4 0 __wrap_freopen
FUNC 2e6b0 4 0 __wrap_fread
FUNC 2e6b4 4 0 __wrap_fwrite
FUNC 2e6b8 4 0 __wrap_fflush
FUNC 2e6bc 4 0 __wrap_fputc
FUNC 2e6c0 4 0 __wrap_fputs
FUNC 2e6c4 4 0 __wrap__IO_putc
FUNC 2e6c8 4 0 __wrap_fseek
FUNC 2e6cc 4 0 __wrap_fseeko64
FUNC 2e6d0 4 0 __wrap_ftell
FUNC 2e6d4 4 0 __wrap_ftello64
FUNC 2e6d8 4 0 __wrap_rewind
FUNC 2e6dc 4 0 __wrap_fgetpos
FUNC 2e6e0 4 0 __wrap_fgetpos64
FUNC 2e6e4 4 0 __wrap_fsetpos
FUNC 2e6e8 4 0 __wrap_fsetpos64
FUNC 2e6ec 4 0 __wrap_opendir
FUNC 2e6f0 4 0 __wrap_readdir
FUNC 2e6f4 4 0 __wrap_readdir64
FUNC 2e6f8 4 0 __wrap_closedir
FUNC 2e6fc 4 0 __wrap_rewinddir
FUNC 2e700 30 0 __wrap_fprintf
FUNC 2e730 4 0 __wrap_vfprintf
FUNC 2e734 40 0 __wrap_printf
FUNC 2e774 4 0 __wrap_fgetc
FUNC 2e778 4 0 __wrap_fgets
FUNC 2e77c 4 0 __wrap__IO_getc
FUNC 2e780 4 0 __wrap__IO_getc_unlocked
FUNC 2e784 4 0 __wrap_getc_unlocked
FUNC 2e788 4 0 __wrap_ungetc
FUNC 2e78c 4 0 __wrap_getc
FUNC 2e790 30 0 __wrap_ioctl
FUNC 2e7c0 4 0 __wrap__stat
FUNC 2e7c4 4 0 __wrap_stat
FUNC 2e7c8 c 0 __wrap___xstat64
FUNC 2e7d4 c 0 __wrap___lxstat64
FUNC 2e7e0 4 0 __wrap_flockfile
FUNC 2e7e4 4 0 __wrap_ftrylockfile
FUNC 2e7e8 4 0 __wrap_funlockfile
FUNC 2e7ec c 0 __wrap___fxstat64
FUNC 2e7f8 4 0 __wrap_fstat
FUNC 2e7fc 4 0 __wrap_setvbuf
FUNC 2e800 4 0 __wrap_getmntent
FUNC 2ea58 3c 0 __gnu_ldivmod_helper
FUNC 2ea94 3c 0 __gnu_uldivmod_helper
FUNC 2ead0 18 0 selfrel_offset31
FUNC 2eae8 ac 0 search_EIT_table
FUNC 2eb94 50 0 __gnu_unwind_get_pr_addr
FUNC 2ebe4 110 0 get_eit_entry
FUNC 2ecf4 6c 0 restore_non_core_regs
FUNC 2ed60 14 0 _Unwind_decode_typeinfo_ptr
FUNC 2ed74 8 0 __gnu_unwind_24bit
FUNC 2ed7c 4 0 _Unwind_DebugHook
FUNC 2ed80 64 0 unwind_phase2
FUNC 2ede4 124 0 unwind_phase2_forced
FUNC 2ef08 8 0 _Unwind_GetCFA
FUNC 2ef10 a4 0 __gnu_Unwind_RaiseException
FUNC 2efb4 1c 0 __gnu_Unwind_ForcedUnwind
FUNC 2efd0 74 0 __gnu_Unwind_Resume
FUNC 2f044 20 0 __gnu_Unwind_Resume_or_Rethrow
FUNC 2f064 4 0 _Unwind_Complete
FUNC 2f068 20 0 _Unwind_DeleteException
FUNC 2f088 5c 0 _Unwind_VRS_Get
FUNC 2f0e4 28 0 _Unwind_GetGR
FUNC 2f10c 5c 0 _Unwind_VRS_Set
FUNC 2f168 2c 0 _Unwind_SetGR
FUNC 2f194 c4 0 __gnu_Unwind_Backtrace
FUNC 2f258 3f4 0 __gnu_unwind_pr_common
FUNC 2f64c 8 0 __aeabi_unwind_cpp_pr0
FUNC 2f654 8 0 __aeabi_unwind_cpp_pr1
FUNC 2f65c 8 0 __aeabi_unwind_cpp_pr2
FUNC 2f664 358 0 _Unwind_VRS_Pop
FUNC 2fb64 60 0 next_unwind_byte
FUNC 2fbc4 28 0 _Unwind_GetGR
FUNC 2fbec 4 0 unwind_UCB_from_context
FUNC 2fbf0 37c 0 __gnu_unwind_execute
FUNC 2ff6c 40 0 __gnu_unwind_frame
FUNC 2ffac 10 0 _Unwind_GetRegionStart
FUNC 2ffbc 1c 0 _Unwind_GetLanguageSpecificData
FUNC 2ffd8 8 0 _Unwind_GetDataRelBase
FUNC 2ffe0 8 0 _Unwind_GetTextRelBase
FUNC 2ffe8 498 0 __divdi3
FUNC 30480 404 0 __udivdi3
PUBLIC 939c 0 dvdcss_open
PUBLIC 9d6c 0 dvdcss_error
PUBLIC 9d78 0 dvdcss_seek
PUBLIC 9dd4 0 dvdcss_read
PUBLIC 9e9c 0 dvdcss_readv
PUBLIC 9f4c 0 dvdcss_close
PUBLIC 9fa0 0 dvdcss_title
PUBLIC 9fa4 0 dvdcss_is_scrambled
PUBLIC 9fac 0 dvdread_getbits_init
PUBLIC 9fe0 0 dvdread_getbits
PUBLIC a1f4 0 dvdinput_setup
PUBLIC aa6c 0 DVDUDFCacheLevel
PUBLIC aa94 0 GetUDFCacheHandle
PUBLIC aa9c 0 SetUDFCacheHandle
PUBLIC aaa4 0 DVDOpen
PUBLIC b01c 0 DVDClose
PUBLIC b074 0 DVDOpenFile
PUBLIC b8a4 0 DVDCloseFile
PUBLIC b900 0 DVDFileStat
PUBLIC bef8 0 UDFReadBlocksRaw
PUBLIC bfc4 0 DVDCheckSector
PUBLIC bff8 0 DVDReadBlocksCached
PUBLIC c4b8 0 DVDReadBlocks
PUBLIC c4f4 0 DVDFileSeek
PUBLIC c524 0 DVDFileSeekForce
PUBLIC c5b8 0 DVDReadBytes
PUBLIC c6d0 0 DVDFileSize
PUBLIC c6e0 0 DVDDiscID
PUBLIC c840 0 DVDISOVolumeInfo
PUBLIC c9bc 0 DVDUDFVolumeInfo
PUBLIC d460 0 FreeUDFCache
PUBLIC d4d0 0 UDFFindFile
PUBLIC e4f0 0 UDFGetVolumeIdentifier
PUBLIC e7bc 0 UDFGetVolumeSetIdentifier
PUBLIC f2c4 0 dvdread_print_time
PUBLIC 1055c 0 ifo_print
PUBLIC 164b4 0 ifoRead_FP_PGC
PUBLIC 16564 0 ifoFree_FP_PGC
PUBLIC 16664 0 ifoFree_TT_SRPT
PUBLIC 16698 0 ifoRead_TT_SRPT
PUBLIC 16df8 0 ifoRead_VTS_PTT_SRPT
PUBLIC 176ac 0 ifoFree_VTS_PTT_SRPT
PUBLIC 17728 0 ifoRead_PTL_MAIT
PUBLIC 18240 0 ifoFree_PTL_MAIT
PUBLIC 182b0 0 ifoFree_VTS_TMAPT
PUBLIC 18330 0 ifoRead_VTS_TMAPT
PUBLIC 18918 0 ifoRead_TITLE_C_ADT
PUBLIC 189bc 0 ifoRead_C_ADT
PUBLIC 18a70 0 ifoFree_C_ADT
PUBLIC 18aa4 0 ifoFree_TITLE_C_ADT
PUBLIC 18ad8 0 ifoRead_TITLE_VOBU_ADMAP
PUBLIC 18cd8 0 ifoRead_VOBU_ADMAP
PUBLIC 18ee4 0 ifoFree_VOBU_ADMAP
PUBLIC 18f18 0 ifoFree_TITLE_VOBU_ADMAP
PUBLIC 18f4c 0 ifoRead_PGCIT
PUBLIC 19000 0 ifoFree_PGCIT
PUBLIC 1917c 0 ifoRead_PGCI_UT
PUBLIC 19704 0 ifoFree_PGCI_UT
PUBLIC 19900 0 ifoRead_VTS_ATRT
PUBLIC 1a6e0 0 ifoFree_VTS_ATRT
PUBLIC 1a720 0 ifoRead_TXTDT_MGI
PUBLIC 1a7d8 0 ifoFree_TXTDT_MGI
PUBLIC 1a800 0 ifoClose
PUBLIC 1a8ac 0 ifoOpen
PUBLIC 1aca0 0 ifoOpenVMGI
PUBLIC 1ad8c 0 ifoOpenVTSI
PUBLIC 1aea8 0 md5_init_ctx
PUBLIC 1aef0 0 md5_read_ctx
PUBLIC 1af1c 0 md5_process_block
PUBLIC 1ba10 0 md5_finish_ctx
PUBLIC 1bab0 0 md5_process_bytes
PUBLIC 1bb94 0 md5_buffer
PUBLIC 1bbd8 0 md5_stream
PUBLIC 1bca8 0 navPrint_PCI
PUBLIC 1c370 0 navPrint_DSI
PUBLIC 1c750 0 navRead_PCI
PUBLIC 1dc84 0 navRead_DSI
PUBLIC 1e76c 0 vm_getbits
PUBLIC 1f28c 0 vmEval_CMD
PUBLIC 20554 0 dvdnav_open
PUBLIC 207b4 0 dvdnav_close
PUBLIC 2083c 0 dvdnav_reset
PUBLIC 20958 0 dvdnav_path
PUBLIC 20964 0 dvdnav_err_to_string
PUBLIC 20988 0 dvdnav_convert_time
PUBLIC 20a6c 0 dvdnav_get_current_time
PUBLIC 20b20 0 dvdnav_get_next_cache_block
PUBLIC 21950 0 dvdnav_get_next_block
PUBLIC 219bc 0 dvdnav_get_title_string
PUBLIC 219d4 0 dvdnav_get_serial_string
PUBLIC 219f0 0 dvdnav_get_video_aspect
PUBLIC 21a5c 0 dvdnav_get_video_resolution
PUBLIC 21af0 0 dvdnav_get_video_scale_permission
PUBLIC 21b5c 0 dvdnav_audio_stream_to_lang
PUBLIC 21bec 0 dvdnav_audio_stream_format
PUBLIC 21c70 0 dvdnav_audio_stream_channels
PUBLIC 21cf8 0 dvdnav_spu_stream_to_lang
PUBLIC 21d88 0 dvdnav_get_audio_logical_stream
PUBLIC 21e38 0 dvdnav_get_audio_attr
PUBLIC 21f00 0 dvdnav_get_spu_logical_stream
PUBLIC 21fb4 0 dvdnav_get_spu_attr
PUBLIC 2207c 0 dvdnav_get_active_audio_stream
PUBLIC 22124 0 dvdnav_get_active_spu_stream
PUBLIC 221d0 0 dvdnav_is_domain_fp
PUBLIC 2224c 0 dvdnav_is_domain_vmgm
PUBLIC 222c8 0 dvdnav_is_domain_vtsm
PUBLIC 22344 0 dvdnav_is_domain_vts
PUBLIC 223c0 0 dvdnav_angle_change
PUBLIC 22450 0 dvdnav_get_angle_info
PUBLIC 22494 0 dvdnav_get_current_nav_pci
PUBLIC 224a4 0 dvdnav_get_current_nav_dsi
PUBLIC 224b4 0 dvdnav_get_next_still_flag
PUBLIC 224c8 0 dvdnav_get_restrictions
PUBLIC 2257c 0 dvdnav_get_vm
PUBLIC 2258c 0 dvdnav_get_button_info
PUBLIC 226b4 0 dvdnav_free
PUBLIC 226b8 0 dvdnav_get_current_highlight
PUBLIC 226e4 0 dvdnav_get_highlight_area
PUBLIC 227ac 0 dvdnav_button_activate
PUBLIC 22984 0 dvdnav_button_activate_cmd
PUBLIC 229fc 0 dvdnav_button_select
PUBLIC 22ad0 0 dvdnav_upper_button_select
PUBLIC 22c1c 0 dvdnav_lower_button_select
PUBLIC 22d68 0 dvdnav_right_button_select
PUBLIC 22eb4 0 dvdnav_left_button_select
PUBLIC 23000 0 dvdnav_button_select_and_activate
PUBLIC 23028 0 dvdnav_mouse_select
PUBLIC 231bc 0 dvdnav_mouse_activate
PUBLIC 231e4 0 dvdnav_still_skip
PUBLIC 23234 0 dvdnav_wait_skip
PUBLIC 23254 0 dvdnav_get_number_of_titles
PUBLIC 232b0 0 dvdnav_get_number_of_parts
PUBLIC 23360 0 dvdnav_current_title_info
PUBLIC 234ac 0 dvdnav_current_title_program
PUBLIC 23640 0 dvdnav_program_play
PUBLIC 23750 0 dvdnav_part_play
PUBLIC 2388c 0 dvdnav_title_play
PUBLIC 23894 0 dvdnav_part_play_auto_stop
PUBLIC 238dc 0 dvdnav_time_play
PUBLIC 2390c 0 dvdnav_stop
PUBLIC 23944 0 dvdnav_go_up
PUBLIC 23980 0 dvdnav_read_cache_free
PUBLIC 23bcc 0 dvdnav_read_cache_clear
PUBLIC 23c1c 0 dvdnav_read_cache_new
PUBLIC 23cc0 0 dvdnav_pre_cache_blocks
PUBLIC 23f18 0 dvdnav_read_cache_block
PUBLIC 24104 0 dvdnav_free_cache_block
PUBLIC 241b0 0 remap_loadmap
PUBLIC 24780 0 remap_block
PUBLIC 24aa8 0 dvdnav_time_search
PUBLIC 24e40 0 dvdnav_part_search
PUBLIC 24e88 0 dvdnav_prev_pg_search
PUBLIC 24f58 0 dvdnav_top_pg_search
PUBLIC 25028 0 dvdnav_next_pg_search
PUBLIC 25154 0 dvdnav_menu_call
PUBLIC 2528c 0 dvdnav_get_position
PUBLIC 2549c 0 dvdnav_sector_search
PUBLIC 25c58 0 dvdnav_get_position_in_title
PUBLIC 25cf8 0 dvdnav_describe_title_chapters
PUBLIC 2618c 0 dvdnav_get_state
PUBLIC 26210 0 dvdnav_set_state
PUBLIC 2634c 0 dvdnav_jump_to_sector_by_time
PUBLIC 27034 0 dvdnav_get_region_mask
PUBLIC 2704c 0 dvdnav_set_region_mask
PUBLIC 27088 0 dvdnav_set_readahead_flag
PUBLIC 27098 0 dvdnav_get_readahead_flag
PUBLIC 270ac 0 dvdnav_menu_language_select
PUBLIC 27148 0 dvdnav_audio_language_select
PUBLIC 271e4 0 dvdnav_spu_language_select
PUBLIC 27280 0 dvdnav_set_PGC_positioning_flag
PUBLIC 27290 0 dvdnav_get_PGC_positioning_flag
PUBLIC 27ec4 0 vm_print_mnemonic
PUBLIC 29030 0 vm_print_cmd
PUBLIC 29bec 0 vm_new_vm
PUBLIC 29bf8 0 vm_get_vmgi
PUBLIC 29c00 0 vm_get_vtsi
PUBLIC 29c08 0 vm_get_dvd_reader
PUBLIC 29c10 0 vm_stop
PUBLIC 29c6c 0 vm_free_vm
PUBLIC 29c84 0 vm_reset
PUBLIC 2a20c 0 vm_new_copy
PUBLIC 2a450 0 vm_merge
PUBLIC 2a490 0 vm_free_copy
PUBLIC 2a4b4 0 vm_position_get
PUBLIC 2a5e0 0 vm_get_current_menu
PUBLIC 2a684 0 vm_get_current_title_part
PUBLIC 2c37c 0 vm_start
PUBLIC 2c618 0 vm_jump_pg
PUBLIC 2c81c 0 vm_jump_top_pg
PUBLIC 2ca1c 0 vm_jump_next_pg
PUBLIC 2cb8c 0 vm_jump_prev_pg
PUBLIC 2ccb4 0 vm_jump_up
PUBLIC 2cdb0 0 vm_jump_menu
PUBLIC 2d078 0 vm_jump_resume
PUBLIC 2d0c0 0 vm_exec_cmd
PUBLIC 2d100 0 vm_jump_title_program
PUBLIC 2d364 0 vm_jump_title_part
PUBLIC 2d668 0 vm_get_next_cell
PUBLIC 2d950 0 vm_jump_cell_block
PUBLIC 2dd10 0 vm_get_audio_stream
PUBLIC 2dd64 0 vm_get_audio_active_stream
PUBLIC 2deb4 0 vm_get_angle_info
PUBLIC 2df30 0 vm_get_video_attr
PUBLIC 2dfd8 0 vm_get_video_res
PUBLIC 2e058 0 vm_get_video_aspect
PUBLIC 2e0c8 0 vm_get_subp_stream
PUBLIC 2e17c 0 vm_get_subp_active_stream
PUBLIC 2e204 0 vm_get_video_scale_permission
PUBLIC 2e21c 0 vm_get_audio_attr
PUBLIC 2e2b4 0 vm_get_subp_attr
PUBLIC 2e344 0 vm_get_title_ifo
PUBLIC 2e380 0 vm_ifo_close
PUBLIC 2e384 0 vm_get_state
PUBLIC 2e3b0 0 vm_set_state
PUBLIC 2e628 0 __wrap_dlopen
PUBLIC 2e62c 0 __wrap_popen
PUBLIC 2e630 0 __wrap_calloc
PUBLIC 2e634 0 __wrap_malloc
PUBLIC 2e638 0 __wrap_realloc
PUBLIC 2e63c 0 __wrap_free
PUBLIC 2e640 0 __wrap_open
PUBLIC 2e65c 0 __wrap_open64
PUBLIC 2e678 0 __wrap_close
PUBLIC 2e67c 0 __wrap_write
PUBLIC 2e680 0 __wrap_read
PUBLIC 2e684 0 __wrap_lseek
PUBLIC 2e688 0 __wrap_lseek64
PUBLIC 2e68c 0 __wrap_fclose
PUBLIC 2e690 0 __wrap_ferror
PUBLIC 2e694 0 __wrap_clearerr
PUBLIC 2e698 0 __wrap_feof
PUBLIC 2e69c 0 __wrap_fileno
PUBLIC 2e6a0 0 __wrap_fopen
PUBLIC 2e6a4 0 __wrap_fopen64
PUBLIC 2e6a8 0 __wrap_fdopen
PUBLIC 2e6ac 0 __wrap_freopen
PUBLIC 2e6b0 0 __wrap_fread
PUBLIC 2e6b4 0 __wrap_fwrite
PUBLIC 2e6b8 0 __wrap_fflush
PUBLIC 2e6bc 0 __wrap_fputc
PUBLIC 2e6c0 0 __wrap_fputs
PUBLIC 2e6c4 0 __wrap__IO_putc
PUBLIC 2e6c8 0 __wrap_fseek
PUBLIC 2e6cc 0 __wrap_fseeko64
PUBLIC 2e6d0 0 __wrap_ftell
PUBLIC 2e6d4 0 __wrap_ftello64
PUBLIC 2e6d8 0 __wrap_rewind
PUBLIC 2e6dc 0 __wrap_fgetpos
PUBLIC 2e6e0 0 __wrap_fgetpos64
PUBLIC 2e6e4 0 __wrap_fsetpos
PUBLIC 2e6e8 0 __wrap_fsetpos64
PUBLIC 2e6ec 0 __wrap_opendir
PUBLIC 2e6f0 0 __wrap_readdir
PUBLIC 2e6f4 0 __wrap_readdir64
PUBLIC 2e6f8 0 __wrap_closedir
PUBLIC 2e6fc 0 __wrap_rewinddir
PUBLIC 2e700 0 __wrap_fprintf
PUBLIC 2e730 0 __wrap_vfprintf
PUBLIC 2e734 0 __wrap_printf
PUBLIC 2e774 0 __wrap_fgetc
PUBLIC 2e778 0 __wrap_fgets
PUBLIC 2e77c 0 __wrap__IO_getc
PUBLIC 2e780 0 __wrap__IO_getc_unlocked
PUBLIC 2e784 0 __wrap_getc_unlocked
PUBLIC 2e788 0 __wrap_ungetc
PUBLIC 2e78c 0 __wrap_getc
PUBLIC 2e790 0 __wrap_ioctl
PUBLIC 2e7c0 0 __wrap__stat
PUBLIC 2e7c4 0 __wrap_stat
PUBLIC 2e7c8 0 __wrap___xstat64
PUBLIC 2e7d4 0 __wrap___lxstat64
PUBLIC 2e7e0 0 __wrap_flockfile
PUBLIC 2e7e4 0 __wrap_ftrylockfile
PUBLIC 2e7e8 0 __wrap_funlockfile
PUBLIC 2e7ec 0 __wrap___fxstat64
PUBLIC 2e7f8 0 __wrap_fstat
PUBLIC 2e7fc 0 __wrap_setvbuf
PUBLIC 2e800 0 __wrap_getmntent
PUBLIC 2e804 0 __aeabi_uidiv
PUBLIC 2e8ac 0 __aeabi_uidivmod
PUBLIC 2e8cc 0 __aeabi_idiv
PUBLIC 2e9a8 0 __aeabi_idivmod
PUBLIC 2e9c8 0 __aeabi_ldivmod
PUBLIC 2ea0c 0 __aeabi_uldivmod
PUBLIC 2ea48 0 __aeabi_idiv0
PUBLIC 2ea58 0 __gnu_ldivmod_helper
PUBLIC 2ea94 0 __gnu_uldivmod_helper
PUBLIC 2ef08 0 _Unwind_GetCFA
PUBLIC 2ef10 0 __gnu_Unwind_RaiseException
PUBLIC 2efb4 0 __gnu_Unwind_ForcedUnwind
PUBLIC 2efd0 0 __gnu_Unwind_Resume
PUBLIC 2f044 0 __gnu_Unwind_Resume_or_Rethrow
PUBLIC 2f064 0 _Unwind_Complete
PUBLIC 2f068 0 _Unwind_DeleteException
PUBLIC 2f088 0 _Unwind_VRS_Get
PUBLIC 2f10c 0 _Unwind_VRS_Set
PUBLIC 2f194 0 __gnu_Unwind_Backtrace
PUBLIC 2f64c 0 __aeabi_unwind_cpp_pr0
PUBLIC 2f654 0 __aeabi_unwind_cpp_pr1
PUBLIC 2f65c 0 __aeabi_unwind_cpp_pr2
PUBLIC 2f664 0 _Unwind_VRS_Pop
PUBLIC 2f9bc 0 restore_core_regs
PUBLIC 2f9d0 0 __gnu_Unwind_Restore_VFP
PUBLIC 2f9d8 0 __gnu_Unwind_Save_VFP
PUBLIC 2f9e0 0 __gnu_Unwind_Restore_VFP_D
PUBLIC 2f9e8 0 __gnu_Unwind_Save_VFP_D
PUBLIC 2f9f0 0 __gnu_Unwind_Restore_VFP_D_16_to_31
PUBLIC 2f9f8 0 __gnu_Unwind_Save_VFP_D_16_to_31
PUBLIC 2fa00 0 __gnu_Unwind_Restore_WMMXD
PUBLIC 2fa44 0 __gnu_Unwind_Save_WMMXD
PUBLIC 2fa88 0 __gnu_Unwind_Restore_WMMXC
PUBLIC 2fa9c 0 __gnu_Unwind_Save_WMMXC
PUBLIC 2fab0 0 ___Unwind_RaiseException
PUBLIC 2fad4 0 ___Unwind_Resume
PUBLIC 2faf8 0 ___Unwind_Resume_or_Rethrow
PUBLIC 2fb1c 0 ___Unwind_ForcedUnwind
PUBLIC 2fb40 0 ___Unwind_Backtrace
PUBLIC 2fbf0 0 __gnu_unwind_execute
PUBLIC 2ff6c 0 __gnu_unwind_frame
PUBLIC 2ffac 0 _Unwind_GetRegionStart
PUBLIC 2ffbc 0 _Unwind_GetLanguageSpecificData
PUBLIC 2ffd8 0 _Unwind_GetDataRelBase
PUBLIC 2ffe0 0 _Unwind_GetTextRelBase
PUBLIC 2ffe8 0 __divdi3
PUBLIC 30480 0 __udivdi3
STACK CFI INIT 4f10 8e0 .cfa: sp 0 + .ra: lr
STACK CFI 4f14 .cfa: sp 32 + r10: .cfa -8 + ^ r11: .cfa -4 + ^ r4: .cfa -32 + ^ r5: .cfa -28 + ^ r6: .cfa -24 + ^ r7: .cfa -20 + ^ r8: .cfa -16 + ^ r9: .cfa -12 + ^
STACK CFI 4f20 .cfa: sp 120 +
STACK CFI INIT 57f0 304 .cfa: sp 0 + .ra: lr
STACK CFI 57f4 .cfa: sp 32 + r10: .cfa -8 + ^ r11: .cfa -4 + ^ r4: .cfa -32 + ^ r5: .cfa -28 + ^ r6: .cfa -24 + ^ r7: .cfa -20 + ^ r8: .cfa -16 + ^ r9: .cfa -12 + ^
STACK CFI 57f8 .cfa: sp 64 +
STACK CFI INIT 5af4 534 .cfa: sp 0 + .ra: lr
STACK CFI 5afc .cfa: sp 36 + .ra: .cfa -4 + ^ r10: .cfa -12 + ^ r11: .cfa -8 + ^ r4: .cfa -36 + ^ r5: .cfa -32 + ^ r6: .cfa -28 + ^ r7: .cfa -24 + ^ r8: .cfa -20 + ^ r9: .cfa -16 + ^
STACK CFI 5b04 .cfa: sp 112 +
STACK CFI INIT 6028 124 .cfa: sp 0 + .ra: lr
STACK CFI 602c .cfa: sp 8 + .ra: .cfa -4 + ^ r4: .cfa -8 + ^
STACK CFI 6030 .cfa: sp 16 +
STACK CFI INIT 614c 88 .cfa: sp 0 + .ra: lr
STACK CFI 6150 .cfa: sp 16 + .ra: .cfa -4 + ^ r4: .cfa -16 + ^ r5: .cfa -12 + ^ r6: .cfa -8 + ^
STACK CFI 6160 .cfa: sp 32 +
STACK CFI INIT 61d4 eb0 .cfa: sp 0 + .ra: lr
STACK CFI 61d8 .cfa: sp 36 + .ra: .cfa -4 + ^ r10: .cfa -12 + ^ r11: .cfa -8 + ^ r4: .cfa -36 + ^ r5: .cfa -32 + ^ r6: .cfa -28 + ^ r7: .cfa -24 + ^ r8: .cfa -20 + ^ r9: .cfa -16 + ^
STACK CFI 61e8 .cfa: sp 2228 +
STACK CFI 61f0 .cfa: sp 2240 +
STACK CFI INIT 7084 250 .cfa: sp 0 + .ra: lr
STACK CFI 7088 .cfa: sp 20 + .ra: .cfa -4 + ^ r4: .cfa -20 + ^ r5: .cfa -16 + ^ r6: .cfa -12 + ^ r7: .cfa -8 + ^
STACK CFI 708c .cfa: sp 64 +
STACK CFI INIT 72d4 cd0 .cfa: sp 0 + .ra: lr
STACK CFI 72d8 .cfa: sp 36 + .ra: .cfa -4 + ^ r10: .cfa -12 + ^ r11: .cfa -8 + ^ r4: .cfa -36 + ^ r5: .cfa -32 + ^ r6: .cfa -28 + ^ r7: .cfa -24 + ^ r8: .cfa -20 + ^ r9: .cfa -16 + ^
STACK CFI 72dc .cfa: sp 2212 +
STACK CFI 72e4 .cfa: sp 2224 +
STACK CFI INIT 7fa4 87c .cfa: sp 0 + .ra: lr
STACK CFI 7fac .cfa: sp 36 + .ra: .cfa -4 + ^ r10: .cfa -12 + ^ r11: .cfa -8 + ^ r4: .cfa -36 + ^ r5: .cfa -32 + ^ r6: .cfa -28 + ^ r7: .cfa -24 + ^ r8: .cfa -20 + ^ r9: .cfa -16 + ^
STACK CFI 7fb8 .cfa: sp 128 +
STACK CFI INIT 8820 100 .cfa: sp 0 + .ra: lr
STACK CFI 8824 .cfa: sp 28 + r10: .cfa -4 + ^ r4: .cfa -28 + ^ r5: .cfa -24 + ^ r6: .cfa -20 + ^ r7: .cfa -16 + ^ r8: .cfa -12 + ^ r9: .cfa -8 + ^
STACK CFI INIT 8920 2c .cfa: sp 0 + .ra: lr
STACK CFI 8924 .cfa: sp 8 + .ra: .cfa -4 + ^ r4: .cfa -8 + ^
STACK CFI INIT 894c 194 .cfa: sp 0 + .ra: lr
STACK CFI 8954 .cfa: sp 36 + .ra: .cfa -4 + ^ r10: .cfa -12 + ^ r11: .cfa -8 + ^ r4: .cfa -36 + ^ r5: .cfa -32 + ^ r6: .cfa -28 + ^ r7: .cfa -24 + ^ r8: .cfa -20 + ^ r9: .cfa -16 + ^
STACK CFI 8960 .cfa: sp 48 +
STACK CFI INIT 8ae0 8c .cfa: sp 0 + .ra: lr
STACK CFI 8ae4 .cfa: sp 16 + .ra: .cfa -4 + ^ r4: .cfa -16 + ^ r5: .cfa -12 + ^ r6: .cfa -8 + ^
STACK CFI 8af0 .cfa: sp 24 +
STACK CFI INIT 8b6c 3c .cfa: sp 0 + .ra: lr
STACK CFI 8b70 .cfa: sp 4 + .ra: .cfa -4 + ^
STACK CFI 8b74 .cfa: sp 112 +
STACK CFI INIT 8ba8 10c .cfa: sp 0 + .ra: lr
STACK CFI 8bb4 .cfa: sp 20 + .ra: .cfa -4 + ^ r4: .cfa -20 + ^ r5: .cfa -16 + ^ r6: .cfa -12 + ^ r7: .cfa -8 + ^
STACK CFI 8bc0 .cfa: sp 40 +
STACK CFI INIT 8cb4 1a8 .cfa: sp 0 + .ra: lr
STACK CFI 8cb8 .cfa: sp 24 + .ra: .cfa -4 + ^ r4: .cfa -24 + ^ r5: .cfa -20 + ^ r6: .cfa -16 + ^ r7: .cfa -12 + ^ r8: .cfa -8 + ^
STACK CFI INIT 8e5c c4 .cfa: sp 0 + .ra: lr
STACK CFI 8e60 .cfa: sp 24 + .ra: .cfa -4 + ^ r3: .cfa -24 + ^ r4: .cfa -20 + ^ r5: .cfa -16 + ^ r6: .cfa -12 + ^ r7: .cfa -8 + ^
STACK CFI INIT 8f20 34 .cfa: sp 0 + .ra: lr
STACK CFI 8f24 .cfa: sp 16 + .ra: .cfa -4 + ^ r3: .cfa -16 + ^ r4: .cfa -12 + ^ r5: .cfa -8 + ^
STACK CFI INIT 8f58 4c .cfa: sp 0 + .ra: lr
STACK CFI 8f5c .cfa: sp 16 + .ra: .cfa -4 + ^ r3: .cfa -16 + ^ r4: .cfa -12 + ^ r5: .cfa -8 + ^
STACK CFI INIT 8fa4 58 .cfa: sp 0 + .ra: lr
STACK CFI 8fa8 .cfa: sp 20 + .ra: .cfa -4 + ^ r4: .cfa -20 + ^ r5: .cfa -16 + ^ r6: .cfa -12 + ^ r7: .cfa -8 + ^
STACK CFI 8fac .cfa: sp 2068 +
STACK CFI 8fb0 .cfa: sp 2080 +
STACK CFI INIT 8ffc 7c .cfa: sp 0 + .ra: lr
STACK CFI 9000 .cfa: sp 24 + .ra: .cfa -4 + ^ r4: .cfa -24 + ^ r5: .cfa -20 + ^ r6: .cfa -16 + ^ r7: .cfa -12 + ^ r8: .cfa -8 + ^
STACK CFI 9004 .cfa: sp 2072 +
STACK CFI 9008 .cfa: sp 2080 +
STACK CFI INIT 9078 60 .cfa: sp 0 + .ra: lr
STACK CFI 907c .cfa: sp 12 + .ra: .cfa -4 + ^ r4: .cfa -12 + ^ r5: .cfa -8 + ^
STACK CFI 9088 .cfa: sp 32 +
STACK CFI INIT 90d8 50 .cfa: sp 0 + .ra: lr
STACK CFI 90dc .cfa: sp 8 + .ra: .cfa -4 + ^ r4: .cfa -8 + ^
STACK CFI 90e8 .cfa: sp 24 +
STACK CFI INIT 9128 68 .cfa: sp 0 + .ra: lr
STACK CFI 912c .cfa: sp 12 + .ra: .cfa -4 + ^ r4: .cfa -12 + ^ r5: .cfa -8 + ^
STACK CFI 9138 .cfa: sp 32 +
STACK CFI INIT 9190 58 .cfa: sp 0 + .ra: lr
STACK CFI 9194 .cfa: sp 12 + .ra: .cfa -4 + ^ r4: .cfa -12 + ^ r5: .cfa -8 + ^
STACK CFI 91a0 .cfa: sp 32 +
STACK CFI INIT 91e8 60 .cfa: sp 0 + .ra: lr
STACK CFI 91ec .cfa: sp 12 + .ra: .cfa -4 + ^ r4: .cfa -12 + ^ r5: .cfa -8 + ^
STACK CFI 91f8 .cfa: sp 32 +
STACK CFI INIT 9248 48 .cfa: sp 0 + .ra: lr
STACK CFI 924c .cfa: sp 8 + .ra: .cfa -4 + ^ r4: .cfa -8 + ^
STACK CFI 9258 .cfa: sp 24 +
STACK CFI INIT 9290 54 .cfa: sp 0 + .ra: lr
STACK CFI 929c .cfa: sp 16 + .ra: .cfa -4 + ^ r4: .cfa -16 + ^ r5: .cfa -12 + ^ r6: .cfa -8 + ^
STACK CFI 92a0 .cfa: sp 32 +
STACK CFI INIT 92e4 54 .cfa: sp 0 + .ra: lr
STACK CFI 92f0 .cfa: sp 12 + .ra: .cfa -4 + ^ r4: .cfa -12 + ^ r5: .cfa -8 + ^
STACK CFI 92f4 .cfa: sp 32 +
STACK CFI INIT 9338 64 .cfa: sp 0 + .ra: lr
STACK CFI 933c .cfa: sp 16 + .ra: .cfa -4 + ^ r4: .cfa -16 + ^ r5: .cfa -12 + ^ r6: .cfa -8 + ^
STACK CFI 9340 .cfa: sp 32 +
STACK CFI INIT 939c 9d0 .cfa: sp 0 + .ra: lr
STACK CFI 93a0 .cfa: sp 36 + .ra: .cfa -4 + ^ r10: .cfa -12 + ^ r11: .cfa -8 + ^ r4: .cfa -36 + ^ r5: .cfa -32 + ^ r6: .cfa -28 + ^ r7: .cfa -24 + ^ r8: .cfa -20 + ^ r9: .cfa -16 + ^
STACK CFI 93ac .cfa: sp 8292 +
STACK CFI 93b0 .cfa: sp 8304 +
STACK CFI INIT 9d6c c .cfa: sp 0 + .ra: lr
STACK CFI INIT 9d78 5c .cfa: sp 0 + .ra: lr
STACK CFI 9d80 .cfa: sp 16 + .ra: .cfa -4 + ^ r3: .cfa -16 + ^ r4: .cfa -12 + ^ r5: .cfa -8 + ^
STACK CFI INIT 9dd4 c8 .cfa: sp 0 + .ra: lr
STACK CFI 9dd8 .cfa: sp 24 + .ra: .cfa -4 + ^ r3: .cfa -24 + ^ r4: .cfa -20 + ^ r5: .cfa -16 + ^ r6: .cfa -12 + ^ r7: .cfa -8 + ^
STACK CFI INIT 9e9c b0 .cfa: sp 0 + .ra: lr
STACK CFI 9ea0 .cfa: sp 32 + .ra: .cfa -4 + ^ r3: .cfa -32 + ^ r4: .cfa -28 + ^ r5: .cfa -24 + ^ r6: .cfa -20 + ^ r7: .cfa -16 + ^ r8: .cfa -12 + ^ r9: .cfa -8 + ^
STACK CFI INIT 9f4c 54 .cfa: sp 0 + .ra: lr
STACK CFI 9f50 .cfa: sp 16 + .ra: .cfa -4 + ^ r3: .cfa -16 + ^ r4: .cfa -12 + ^ r5: .cfa -8 + ^
STACK CFI INIT 9fa0 4 .cfa: sp 0 + .ra: lr
STACK CFI INIT 9fa4 8 .cfa: sp 0 + .ra: lr
STACK CFI INIT 9fac 34 .cfa: sp 0 + .ra: lr
STACK CFI INIT 9fe0 128 .cfa: sp 0 + .ra: lr
STACK CFI 9fe8 .cfa: sp 16 + .ra: .cfa -4 + ^ r4: .cfa -16 + ^ r5: .cfa -12 + ^ r6: .cfa -8 + ^
STACK CFI INIT a108 8 .cfa: sp 0 + .ra: lr
STACK CFI INIT a110 8 .cfa: sp 0 + .ra: lr
STACK CFI INIT a118 c .cfa: sp 0 + .ra: lr
STACK CFI INIT a124 c .cfa: sp 0 + .ra: lr
STACK CFI INIT a130 28 .cfa: sp 0 + .ra: lr
STACK CFI a134 .cfa: sp 8 + .ra: .cfa -4 + ^ r4: .cfa -8 + ^
STACK CFI INIT a158 9c .cfa: sp 0 + .ra: lr
STACK CFI a15c .cfa: sp 16 + .ra: .cfa -4 + ^ r4: .cfa -16 + ^ r5: .cfa -12 + ^ r6: .cfa -8 + ^
STACK CFI INIT a1f4 c4 .cfa: sp 0 + .ra: lr
STACK CFI a204 .cfa: sp 8 + r4: .cfa -8 + ^ r5: .cfa -4 + ^
STACK CFI INIT a2b8 5e4 .cfa: sp 0 + .ra: lr
STACK CFI a2bc .cfa: sp 36 + .ra: .cfa -4 + ^ r10: .cfa -12 + ^ r11: .cfa -8 + ^ r4: .cfa -36 + ^ r5: .cfa -32 + ^ r6: .cfa -28 + ^ r7: .cfa -24 + ^ r8: .cfa -20 + ^ r9: .cfa -16 + ^
STACK CFI a2c8 .cfa: sp 4196 +
STACK CFI a2cc .cfa: sp 4224 +
STACK CFI INIT a89c 1d0 .cfa: sp 0 + .ra: lr
STACK CFI a8a0 .cfa: sp 24 + .ra: .cfa -4 + ^ r4: .cfa -24 + ^ r5: .cfa -20 + ^ r6: .cfa -16 + ^ r7: .cfa -12 + ^ r8: .cfa -8 + ^
STACK CFI a8ac .cfa: sp 4184 +
STACK CFI a8b0 .cfa: sp 4240 +
STACK CFI INIT aa6c 28 .cfa: sp 0 + .ra: lr
STACK CFI INIT aa94 8 .cfa: sp 0 + .ra: lr
STACK CFI INIT aa9c 8 .cfa: sp 0 + .ra: lr
STACK CFI INIT aaa4 578 .cfa: sp 0 + .ra: lr
STACK CFI aaa8 .cfa: sp 36 + .ra: .cfa -4 + ^ r10: .cfa -12 + ^ r11: .cfa -8 + ^ r4: .cfa -36 + ^ r5: .cfa -32 + ^ r6: .cfa -28 + ^ r7: .cfa -24 + ^ r8: .cfa -20 + ^ r9: .cfa -16 + ^
STACK CFI aab4 .cfa: sp 152 +
STACK CFI INIT b01c 58 .cfa: sp 0 + .ra: lr
STACK CFI b020 .cfa: sp 8 + .ra: .cfa -4 + ^ r4: .cfa -8 + ^
STACK CFI INIT b074 830 .cfa: sp 0 + .ra: lr
STACK CFI b07c .cfa: sp 36 + .ra: .cfa -4 + ^ r10: .cfa -12 + ^ r11: .cfa -8 + ^ r4: .cfa -36 + ^ r5: .cfa -32 + ^ r6: .cfa -28 + ^ r7: .cfa -24 + ^ r8: .cfa -20 + ^ r9: .cfa -16 + ^
STACK CFI b090 .cfa: sp 44 + s16: .cfa -44 + ^
STACK CFI b094 .cfa: sp 6316 +
STACK CFI b098 .cfa: sp 6320 +
STACK CFI INIT b8a4 5c .cfa: sp 0 + .ra: lr
STACK CFI b8a8 .cfa: sp 16 + .ra: .cfa -4 + ^ r4: .cfa -16 + ^ r5: .cfa -12 + ^ r6: .cfa -8 + ^
STACK CFI INIT b900 5f8 .cfa: sp 0 + .ra: lr
STACK CFI b904 .cfa: sp 36 + .ra: .cfa -4 + ^ r10: .cfa -12 + ^ r11: .cfa -8 + ^ r4: .cfa -36 + ^ r5: .cfa -32 + ^ r6: .cfa -28 + ^ r7: .cfa -24 + ^ r8: .cfa -20 + ^ r9: .cfa -16 + ^
STACK CFI b920 .cfa: sp 44 + s16: .cfa -44 + ^
STACK CFI b924 .cfa: sp 6380 +
STACK CFI b928 .cfa: sp 6408 +
STACK CFI INIT bef8 cc .cfa: sp 0 + .ra: lr
STACK CFI befc .cfa: sp 32 + .ra: .cfa -4 + ^ r3: .cfa -32 + ^ r4: .cfa -28 + ^ r5: .cfa -24 + ^ r6: .cfa -20 + ^ r7: .cfa -16 + ^ r8: .cfa -12 + ^ r9: .cfa -8 + ^
STACK CFI INIT bfc4 34 .cfa: sp 0 + .ra: lr
STACK CFI INIT bff8 4c0 .cfa: sp 0 + .ra: lr
STACK CFI bffc .cfa: sp 36 + .ra: .cfa -4 + ^ r10: .cfa -12 + ^ r11: .cfa -8 + ^ r4: .cfa -36 + ^ r5: .cfa -32 + ^ r6: .cfa -28 + ^ r7: .cfa -24 + ^ r8: .cfa -20 + ^ r9: .cfa -16 + ^
STACK CFI c010 .cfa: sp 72 +
STACK CFI INIT c4b8 3c .cfa: sp 0 + .ra: lr
STACK CFI c4c0 .cfa: sp 8 + .ra: .cfa -4 + ^ r4: .cfa -8 + ^
STACK CFI c4c8 .cfa: sp 16 +
STACK CFI INIT c4f4 30 .cfa: sp 0 + .ra: lr
STACK CFI INIT c524 94 .cfa: sp 0 + .ra: lr
STACK CFI c530 .cfa: sp 16 + .ra: .cfa -4 + ^ r3: .cfa -16 + ^ r4: .cfa -12 + ^ r5: .cfa -8 + ^
STACK CFI INIT c5b8 118 .cfa: sp 0 + .ra: lr
STACK CFI c5c4 .cfa: sp 36 + .ra: .cfa -4 + ^ r10: .cfa -12 + ^ r11: .cfa -8 + ^ r4: .cfa -36 + ^ r5: .cfa -32 + ^ r6: .cfa -28 + ^ r7: .cfa -24 + ^ r8: .cfa -20 + ^ r9: .cfa -16 + ^
STACK CFI c5cc .cfa: sp 56 +
STACK CFI INIT c6d0 10 .cfa: sp 0 + .ra: lr
STACK CFI INIT c6e0 160 .cfa: sp 0 + .ra: lr
STACK CFI c6ec .cfa: sp 36 + .ra: .cfa -4 + ^ r10: .cfa -12 + ^ r11: .cfa -8 + ^ r4: .cfa -36 + ^ r5: .cfa -32 + ^ r6: .cfa -28 + ^ r7: .cfa -24 + ^ r8: .cfa -20 + ^ r9: .cfa -16 + ^
STACK CFI c6f0 .cfa: sp 208 +
STACK CFI INIT c840 17c .cfa: sp 0 + .ra: lr
STACK CFI c844 .cfa: sp 36 + .ra: .cfa -4 + ^ r10: .cfa -12 + ^ r11: .cfa -8 + ^ r4: .cfa -36 + ^ r5: .cfa -32 + ^ r6: .cfa -28 + ^ r7: .cfa -24 + ^ r8: .cfa -20 + ^ r9: .cfa -16 + ^
STACK CFI c84c .cfa: sp 48 +
STACK CFI INIT c9bc 78 .cfa: sp 0 + .ra: lr
STACK CFI c9c0 .cfa: sp 24 + .ra: .cfa -4 + ^ r3: .cfa -24 + ^ r4: .cfa -20 + ^ r5: .cfa -16 + ^ r6: .cfa -12 + ^ r7: .cfa -8 + ^
STACK CFI INIT ca38 1bc .cfa: sp 0 + .ra: lr
STACK CFI ca3c .cfa: sp 36 + .ra: .cfa -4 + ^ r10: .cfa -12 + ^ r11: .cfa -8 + ^ r4: .cfa -36 + ^ r5: .cfa -32 + ^ r6: .cfa -28 + ^ r7: .cfa -24 + ^ r8: .cfa -20 + ^ r9: .cfa -16 + ^
STACK CFI ca40 .cfa: sp 4132 +
STACK CFI ca44 .cfa: sp 4144 +
STACK CFI INIT cbf4 20c .cfa: sp 0 + .ra: lr
STACK CFI cbf8 .cfa: sp 36 + .ra: .cfa -4 + ^ r10: .cfa -12 + ^ r11: .cfa -8 + ^ r4: .cfa -36 + ^ r5: .cfa -32 + ^ r6: .cfa -28 + ^ r7: .cfa -24 + ^ r8: .cfa -20 + ^ r9: .cfa -16 + ^
STACK CFI cbfc .cfa: sp 4132 +
STACK CFI cc00 .cfa: sp 4168 +
STACK CFI INIT ce00 660 .cfa: sp 0 + .ra: lr
STACK CFI ce04 .cfa: sp 36 + .ra: .cfa -4 + ^ r10: .cfa -12 + ^ r11: .cfa -8 + ^ r4: .cfa -36 + ^ r5: .cfa -32 + ^ r6: .cfa -28 + ^ r7: .cfa -24 + ^ r8: .cfa -20 + ^ r9: .cfa -16 + ^
STACK CFI ce08 .cfa: sp 4132 +
STACK CFI ce0c .cfa: sp 4192 +
STACK CFI INIT d460 70 .cfa: sp 0 + .ra: lr
STACK CFI d464 .cfa: sp 16 + .ra: .cfa -4 + ^ r4: .cfa -16 + ^ r5: .cfa -12 + ^ r6: .cfa -8 + ^
STACK CFI INIT d4d0 1020 .cfa: sp 0 + .ra: lr
STACK CFI d4d4 .cfa: sp 36 + .ra: .cfa -4 + ^ r10: .cfa -12 + ^ r11: .cfa -8 + ^ r4: .cfa -36 + ^ r5: .cfa -32 + ^ r6: .cfa -28 + ^ r7: .cfa -24 + ^ r8: .cfa -20 + ^ r9: .cfa -16 + ^
STACK CFI d4d8 .cfa: sp 14692 +
STACK CFI d4dc .cfa: sp 14720 +
STACK CFI INIT e4f0 2cc .cfa: sp 0 + .ra: lr
STACK CFI e4f4 .cfa: sp 20 + .ra: .cfa -4 + ^ r4: .cfa -20 + ^ r5: .cfa -16 + ^ r6: .cfa -12 + ^ r7: .cfa -8 + ^
STACK CFI e4f8 .cfa: sp 184 +
STACK CFI INIT e7bc 44 .cfa: sp 0 + .ra: lr
STACK CFI e7c0 .cfa: sp 12 + .ra: .cfa -4 + ^ r4: .cfa -12 + ^ r5: .cfa -8 + ^
STACK CFI e7c4 .cfa: sp 176 +
STACK CFI INIT e800 344 .cfa: sp 0 + .ra: lr
STACK CFI e808 .cfa: sp 8 + .ra: .cfa -4 + ^ r4: .cfa -8 + ^
STACK CFI INIT eb44 4f0 .cfa: sp 0 + .ra: lr
STACK CFI eb48 .cfa: sp 16 + .ra: .cfa -4 + ^ r3: .cfa -16 + ^ r4: .cfa -12 + ^ r5: .cfa -8 + ^
STACK CFI INIT f034 290 .cfa: sp 0 + .ra: lr
STACK CFI f038 .cfa: sp 16 + .ra: .cfa -4 + ^ r4: .cfa -16 + ^ r5: .cfa -12 + ^ r6: .cfa -8 + ^
STACK CFI INIT f2c4 21c .cfa: sp 0 + .ra: lr
STACK CFI f2c8 .cfa: sp 8 + .ra: .cfa -4 + ^ r4: .cfa -8 + ^
STACK CFI f2d4 .cfa: sp 16 +
STACK CFI INIT f4e0 d60 .cfa: sp 0 + .ra: lr
STACK CFI f4e4 .cfa: sp 36 + .ra: .cfa -4 + ^ r10: .cfa -12 + ^ r11: .cfa -8 + ^ r4: .cfa -36 + ^ r5: .cfa -32 + ^ r6: .cfa -28 + ^ r7: .cfa -24 + ^ r8: .cfa -20 + ^ r9: .cfa -16 + ^
STACK CFI f4ec .cfa: sp 72 +
STACK CFI INIT 10240 31c .cfa: sp 0 + .ra: lr
STACK CFI 10244 .cfa: sp 36 + .ra: .cfa -4 + ^ r10: .cfa -12 + ^ r11: .cfa -8 + ^ r4: .cfa -36 + ^ r5: .cfa -32 + ^ r6: .cfa -28 + ^ r7: .cfa -24 + ^ r8: .cfa -20 + ^ r9: .cfa -16 + ^
STACK CFI 10250 .cfa: sp 88 +
STACK CFI INIT 1055c 150c .cfa: sp 0 + .ra: lr
STACK CFI 10560 .cfa: sp 36 + .ra: .cfa -4 + ^ r10: .cfa -12 + ^ r11: .cfa -8 + ^ r4: .cfa -36 + ^ r5: .cfa -32 + ^ r6: .cfa -28 + ^ r7: .cfa -24 + ^ r8: .cfa -20 + ^ r9: .cfa -16 + ^
STACK CFI 1056c .cfa: sp 96 +
STACK CFI INIT 11a68 104 .cfa: sp 0 + .ra: lr
STACK CFI 11a6c .cfa: sp 16 + .ra: .cfa -4 + ^ r3: .cfa -16 + ^ r4: .cfa -12 + ^ r5: .cfa -8 + ^
STACK CFI INIT 11b6c 140 .cfa: sp 0 + .ra: lr
STACK CFI 11b70 .cfa: sp 12 + .ra: .cfa -4 + ^ r4: .cfa -12 + ^ r5: .cfa -8 + ^
STACK CFI 11b74 .cfa: sp 40 +
STACK CFI INIT 11cac 1b8 .cfa: sp 0 + .ra: lr
STACK CFI 11cb0 .cfa: sp 12 + .ra: .cfa -4 + ^ r4: .cfa -12 + ^ r5: .cfa -8 + ^
STACK CFI 11cbc .cfa: sp 40 +
STACK CFI INIT 11e64 c8 .cfa: sp 0 + .ra: lr
STACK CFI 11e68 .cfa: sp 12 + .ra: .cfa -4 + ^ r4: .cfa -12 + ^ r5: .cfa -8 + ^
STACK CFI 11e74 .cfa: sp 40 +
STACK CFI INIT 11f2c e68 .cfa: sp 0 + .ra: lr
STACK CFI 11f30 .cfa: sp 28 + .ra: .cfa -4 + ^ r4: .cfa -28 + ^ r5: .cfa -24 + ^ r6: .cfa -20 + ^ r7: .cfa -16 + ^ r8: .cfa -12 + ^ r9: .cfa -8 + ^
STACK CFI 11f38 .cfa: sp 40 +
STACK CFI INIT 12d94 1a40 .cfa: sp 0 + .ra: lr
STACK CFI 12d98 .cfa: sp 36 + .ra: .cfa -4 + ^ r10: .cfa -12 + ^ r11: .cfa -8 + ^ r4: .cfa -36 + ^ r5: .cfa -32 + ^ r6: .cfa -28 + ^ r7: .cfa -24 + ^ r8: .cfa -20 + ^ r9: .cfa -16 + ^
STACK CFI 12da0 .cfa: sp 120 +
STACK CFI INIT 147d4 1174 .cfa: sp 0 + .ra: lr
STACK CFI 147d8 .cfa: sp 36 + .ra: .cfa -4 + ^ r10: .cfa -12 + ^ r11: .cfa -8 + ^ r4: .cfa -36 + ^ r5: .cfa -32 + ^ r6: .cfa -28 + ^ r7: .cfa -24 + ^ r8: .cfa -20 + ^ r9: .cfa -16 + ^
STACK CFI 147dc .cfa: sp 144 +
STACK CFI INIT 15948 460 .cfa: sp 0 + .ra: lr
STACK CFI 1594c .cfa: sp 36 + .ra: .cfa -4 + ^ r10: .cfa -12 + ^ r11: .cfa -8 + ^ r4: .cfa -36 + ^ r5: .cfa -32 + ^ r6: .cfa -28 + ^ r7: .cfa -24 + ^ r8: .cfa -20 + ^ r9: .cfa -16 + ^
STACK CFI 15958 .cfa: sp 64 +
STACK CFI INIT 15da8 590 .cfa: sp 0 + .ra: lr
STACK CFI 15db0 .cfa: sp 36 + .ra: .cfa -4 + ^ r10: .cfa -12 + ^ r11: .cfa -8 + ^ r4: .cfa -36 + ^ r5: .cfa -32 + ^ r6: .cfa -28 + ^ r7: .cfa -24 + ^ r8: .cfa -20 + ^ r9: .cfa -16 + ^
STACK CFI 15db4 .cfa: sp 112 +
STACK CFI INIT 16338 17c .cfa: sp 0 + .ra: lr
STACK CFI 1633c .cfa: sp 32 + .ra: .cfa -4 + ^ r3: .cfa -32 + ^ r4: .cfa -28 + ^ r5: .cfa -24 + ^ r6: .cfa -20 + ^ r7: .cfa -16 + ^ r8: .cfa -12 + ^ r9: .cfa -8 + ^
STACK CFI INIT 164b4 b0 .cfa: sp 0 + .ra: lr
STACK CFI 164b8 .cfa: sp 16 + .ra: .cfa -4 + ^ r4: .cfa -16 + ^ r5: .cfa -12 + ^ r6: .cfa -8 + ^
STACK CFI INIT 16564 100 .cfa: sp 0 + .ra: lr
STACK CFI 16568 .cfa: sp 16 + .ra: .cfa -4 + ^ r3: .cfa -16 + ^ r4: .cfa -12 + ^ r5: .cfa -8 + ^
STACK CFI INIT 16664 34 .cfa: sp 0 + .ra: lr
STACK CFI 16668 .cfa: sp 8 + .ra: .cfa -4 + ^ r4: .cfa -8 + ^
STACK CFI INIT 16698 760 .cfa: sp 0 + .ra: lr
STACK CFI 1669c .cfa: sp 36 + .ra: .cfa -4 + ^ r10: .cfa -12 + ^ r11: .cfa -8 + ^ r4: .cfa -36 + ^ r5: .cfa -32 + ^ r6: .cfa -28 + ^ r7: .cfa -24 + ^ r8: .cfa -20 + ^ r9: .cfa -16 + ^
STACK CFI 166a8 .cfa: sp 96 +
STACK CFI INIT 16df8 8b4 .cfa: sp 0 + .ra: lr
STACK CFI 16dfc .cfa: sp 36 + .ra: .cfa -4 + ^ r10: .cfa -12 + ^ r11: .cfa -8 + ^ r4: .cfa -36 + ^ r5: .cfa -32 + ^ r6: .cfa -28 + ^ r7: .cfa -24 + ^ r8: .cfa -20 + ^ r9: .cfa -16 + ^
STACK CFI 16e08 .cfa: sp 88 +
STACK CFI INIT 176ac 7c .cfa: sp 0 + .ra: lr
STACK CFI 176b0 .cfa: sp 16 + .ra: .cfa -4 + ^ r4: .cfa -16 + ^ r5: .cfa -12 + ^ r6: .cfa -8 + ^
STACK CFI INIT 17728 b18 .cfa: sp 0 + .ra: lr
STACK CFI 17734 .cfa: sp 36 + .ra: .cfa -4 + ^ r10: .cfa -12 + ^ r11: .cfa -8 + ^ r4: .cfa -36 + ^ r5: .cfa -32 + ^ r6: .cfa -28 + ^ r7: .cfa -24 + ^ r8: .cfa -20 + ^ r9: .cfa -16 + ^
STACK CFI 17738 .cfa: sp 96 +
STACK CFI INIT 18240 70 .cfa: sp 0 + .ra: lr
STACK CFI 18244 .cfa: sp 16 + .ra: .cfa -4 + ^ r4: .cfa -16 + ^ r5: .cfa -12 + ^ r6: .cfa -8 + ^
STACK CFI INIT 182b0 80 .cfa: sp 0 + .ra: lr
STACK CFI 182b4 .cfa: sp 16 + .ra: .cfa -4 + ^ r3: .cfa -16 + ^ r4: .cfa -12 + ^ r5: .cfa -8 + ^
STACK CFI INIT 18330 5e8 .cfa: sp 0 + .ra: lr
STACK CFI 18334 .cfa: sp 36 + .ra: .cfa -4 + ^ r10: .cfa -12 + ^ r11: .cfa -8 + ^ r4: .cfa -36 + ^ r5: .cfa -32 + ^ r6: .cfa -28 + ^ r7: .cfa -24 + ^ r8: .cfa -20 + ^ r9: .cfa -16 + ^
STACK CFI 18340 .cfa: sp 72 +
STACK CFI INIT 18918 a4 .cfa: sp 0 + .ra: lr
STACK CFI 1891c .cfa: sp 16 + .ra: .cfa -4 + ^ r4: .cfa -16 + ^ r5: .cfa -12 + ^ r6: .cfa -8 + ^
STACK CFI INIT 189bc b4 .cfa: sp 0 + .ra: lr
STACK CFI 189c0 .cfa: sp 16 + .ra: .cfa -4 + ^ r4: .cfa -16 + ^ r5: .cfa -12 + ^ r6: .cfa -8 + ^
STACK CFI INIT 18a70 34 .cfa: sp 0 + .ra: lr
STACK CFI 18a74 .cfa: sp 16 + .ra: .cfa -4 + ^ r3: .cfa -16 + ^ r4: .cfa -12 + ^ r5: .cfa -8 + ^
STACK CFI INIT 18aa4 34 .cfa: sp 0 + .ra: lr
STACK CFI 18aa8 .cfa: sp 16 + .ra: .cfa -4 + ^ r3: .cfa -16 + ^ r4: .cfa -12 + ^ r5: .cfa -8 + ^
STACK CFI INIT 18ad8 200 .cfa: sp 0 + .ra: lr
STACK CFI 18adc .cfa: sp 20 + .ra: .cfa -4 + ^ r4: .cfa -20 + ^ r5: .cfa -16 + ^ r6: .cfa -12 + ^ r7: .cfa -8 + ^
STACK CFI 18ae4 .cfa: sp 32 +
STACK CFI INIT 18cd8 20c .cfa: sp 0 + .ra: lr
STACK CFI 18cdc .cfa: sp 20 + .ra: .cfa -4 + ^ r4: .cfa -20 + ^ r5: .cfa -16 + ^ r6: .cfa -12 + ^ r7: .cfa -8 + ^
STACK CFI 18ce4 .cfa: sp 32 +
STACK CFI INIT 18ee4 34 .cfa: sp 0 + .ra: lr
STACK CFI 18ee8 .cfa: sp 16 + .ra: .cfa -4 + ^ r3: .cfa -16 + ^ r4: .cfa -12 + ^ r5: .cfa -8 + ^
STACK CFI INIT 18f18 34 .cfa: sp 0 + .ra: lr
STACK CFI 18f1c .cfa: sp 16 + .ra: .cfa -4 + ^ r3: .cfa -16 + ^ r4: .cfa -12 + ^ r5: .cfa -8 + ^
STACK CFI INIT 18f4c b4 .cfa: sp 0 + .ra: lr
STACK CFI 18f50 .cfa: sp 24 + .ra: .cfa -4 + ^ r3: .cfa -24 + ^ r4: .cfa -20 + ^ r5: .cfa -16 + ^ r6: .cfa -12 + ^ r7: .cfa -8 + ^
STACK CFI INIT 19000 17c .cfa: sp 0 + .ra: lr
STACK CFI 19004 .cfa: sp 32 + .ra: .cfa -4 + ^ r3: .cfa -32 + ^ r4: .cfa -28 + ^ r5: .cfa -24 + ^ r6: .cfa -20 + ^ r7: .cfa -16 + ^ r8: .cfa -12 + ^ r9: .cfa -8 + ^
STACK CFI INIT 1917c 588 .cfa: sp 0 + .ra: lr
STACK CFI 19180 .cfa: sp 36 + .ra: .cfa -4 + ^ r10: .cfa -12 + ^ r11: .cfa -8 + ^ r4: .cfa -36 + ^ r5: .cfa -32 + ^ r6: .cfa -28 + ^ r7: .cfa -24 + ^ r8: .cfa -20 + ^ r9: .cfa -16 + ^
STACK CFI 1918c .cfa: sp 56 +
STACK CFI INIT 19704 1fc .cfa: sp 0 + .ra: lr
STACK CFI 19708 .cfa: sp 36 + .ra: .cfa -4 + ^ r10: .cfa -12 + ^ r11: .cfa -8 + ^ r4: .cfa -36 + ^ r5: .cfa -32 + ^ r6: .cfa -28 + ^ r7: .cfa -24 + ^ r8: .cfa -20 + ^ r9: .cfa -16 + ^
STACK CFI 19710 .cfa: sp 48 +
STACK CFI INIT 19900 de0 .cfa: sp 0 + .ra: lr
STACK CFI 19908 .cfa: sp 36 + .ra: .cfa -4 + ^ r10: .cfa -12 + ^ r11: .cfa -8 + ^ r4: .cfa -36 + ^ r5: .cfa -32 + ^ r6: .cfa -28 + ^ r7: .cfa -24 + ^ r8: .cfa -20 + ^ r9: .cfa -16 + ^
STACK CFI 19910 .cfa: sp 120 +
STACK CFI INIT 1a6e0 40 .cfa: sp 0 + .ra: lr
STACK CFI 1a6e4 .cfa: sp 8 + .ra: .cfa -4 + ^ r4: .cfa -8 + ^
STACK CFI INIT 1a720 b8 .cfa: sp 0 + .ra: lr
STACK CFI 1a724 .cfa: sp 16 + .ra: .cfa -4 + ^ r4: .cfa -16 + ^ r5: .cfa -12 + ^ r6: .cfa -8 + ^
STACK CFI INIT 1a7d8 28 .cfa: sp 0 + .ra: lr
STACK CFI 1a7dc .cfa: sp 8 + .ra: .cfa -4 + ^ r4: .cfa -8 + ^
STACK CFI INIT 1a800 ac .cfa: sp 0 + .ra: lr
STACK CFI 1a804 .cfa: sp 8 + .ra: .cfa -4 + ^ r4: .cfa -8 + ^
STACK CFI INIT 1a8ac 3f4 .cfa: sp 0 + .ra: lr
STACK CFI 1a8b0 .cfa: sp 32 + .ra: .cfa -4 + ^ r10: .cfa -8 + ^ r4: .cfa -32 + ^ r5: .cfa -28 + ^ r6: .cfa -24 + ^ r7: .cfa -20 + ^ r8: .cfa -16 + ^ r9: .cfa -12 + ^
STACK CFI 1a8b8 .cfa: sp 56 +
STACK CFI INIT 1aca0 ec .cfa: sp 0 + .ra: lr
STACK CFI 1aca4 .cfa: sp 16 + .ra: .cfa -4 + ^ r3: .cfa -16 + ^ r4: .cfa -12 + ^ r5: .cfa -8 + ^
STACK CFI INIT 1ad8c 11c .cfa: sp 0 + .ra: lr
STACK CFI 1ad90 .cfa: sp 24 + .ra: .cfa -4 + ^ r3: .cfa -24 + ^ r4: .cfa -20 + ^ r5: .cfa -16 + ^ r6: .cfa -12 + ^ r7: .cfa -8 + ^
STACK CFI INIT 1aea8 48 .cfa: sp 0 + .ra: lr
STACK CFI 1aeac .cfa: sp 4 + r4: .cfa -4 + ^
STACK CFI INIT 1aef0 2c .cfa: sp 0 + .ra: lr
STACK CFI INIT 1af1c af4 .cfa: sp 0 + .ra: lr
STACK CFI 1af20 .cfa: sp 32 + r10: .cfa -8 + ^ r11: .cfa -4 + ^ r4: .cfa -32 + ^ r5: .cfa -28 + ^ r6: .cfa -24 + ^ r7: .cfa -20 + ^ r8: .cfa -16 + ^ r9: .cfa -12 + ^
STACK CFI 1af24 .cfa: sp 128 +
STACK CFI INIT 1ba10 a0 .cfa: sp 0 + .ra: lr
STACK CFI 1ba14 .cfa: sp 24 + .ra: .cfa -4 + ^ r3: .cfa -24 + ^ r4: .cfa -20 + ^ r5: .cfa -16 + ^ r6: .cfa -12 + ^ r7: .cfa -8 + ^
STACK CFI INIT 1bab0 e4 .cfa: sp 0 + .ra: lr
STACK CFI 1bab4 .cfa: sp 32 + .ra: .cfa -4 + ^ r10: .cfa -8 + ^ r4: .cfa -32 + ^ r5: .cfa -28 + ^ r6: .cfa -24 + ^ r7: .cfa -20 + ^ r8: .cfa -16 + ^ r9: .cfa -12 + ^
STACK CFI INIT 1bb94 44 .cfa: sp 0 + .ra: lr
STACK CFI 1bb98 .cfa: sp 20 + .ra: .cfa -4 + ^ r4: .cfa -20 + ^ r5: .cfa -16 + ^ r6: .cfa -12 + ^ r7: .cfa -8 + ^
STACK CFI 1bb9c .cfa: sp 184 +
STACK CFI INIT 1bbd8 d0 .cfa: sp 0 + .ra: lr
STACK CFI 1bbdc .cfa: sp 28 + .ra: .cfa -4 + ^ r4: .cfa -28 + ^ r5: .cfa -24 + ^ r6: .cfa -20 + ^ r7: .cfa -16 + ^ r8: .cfa -12 + ^ r9: .cfa -8 + ^
STACK CFI 1bbe0 .cfa: sp 4316 +
STACK CFI 1bbe4 .cfa: sp 4360 +
STACK CFI INIT 1bca8 6c8 .cfa: sp 0 + .ra: lr
STACK CFI 1bcac .cfa: sp 36 + .ra: .cfa -4 + ^ r10: .cfa -12 + ^ r11: .cfa -8 + ^ r4: .cfa -36 + ^ r5: .cfa -32 + ^ r6: .cfa -28 + ^ r7: .cfa -24 + ^ r8: .cfa -20 + ^ r9: .cfa -16 + ^
STACK CFI 1bcb8 .cfa: sp 88 +
STACK CFI INIT 1c370 3e0 .cfa: sp 0 + .ra: lr
STACK CFI 1c374 .cfa: sp 20 + .ra: .cfa -4 + ^ r4: .cfa -20 + ^ r5: .cfa -16 + ^ r6: .cfa -12 + ^ r7: .cfa -8 + ^
STACK CFI 1c380 .cfa: sp 28 + s16: .cfa -28 + ^
STACK CFI 1c384 .cfa: sp 120 +
STACK CFI INIT 1c750 1534 .cfa: sp 0 + .ra: lr
STACK CFI 1c754 .cfa: sp 36 + .ra: .cfa -4 + ^ r10: .cfa -12 + ^ r11: .cfa -8 + ^ r4: .cfa -36 + ^ r5: .cfa -32 + ^ r6: .cfa -28 + ^ r7: .cfa -24 + ^ r8: .cfa -20 + ^ r9: .cfa -16 + ^
STACK CFI 1c758 .cfa: sp 80 +
STACK CFI INIT 1dc84 30c .cfa: sp 0 + .ra: lr
STACK CFI 1dc88 .cfa: sp 24 + .ra: .cfa -4 + ^ r4: .cfa -24 + ^ r5: .cfa -20 + ^ r6: .cfa -16 + ^ r7: .cfa -12 + ^ r8: .cfa -8 + ^
STACK CFI 1dc8c .cfa: sp 48 +
STACK CFI INIT 1df90 7dc .cfa: sp 0 + .ra: lr
STACK CFI 1df98 .cfa: sp 32 + .ra: .cfa -4 + ^ r10: .cfa -8 + ^ r4: .cfa -32 + ^ r5: .cfa -28 + ^ r6: .cfa -24 + ^ r7: .cfa -20 + ^ r8: .cfa -16 + ^ r9: .cfa -12 + ^
STACK CFI 1dfa0 .cfa: sp 48 +
STACK CFI INIT 1e76c b8 .cfa: sp 0 + .ra: lr
STACK CFI 1e774 .cfa: sp 8 + .ra: .cfa -4 + ^ r4: .cfa -8 + ^
STACK CFI INIT 1e824 27c .cfa: sp 0 + .ra: lr
STACK CFI 1e828 .cfa: sp 24 + .ra: .cfa -4 + ^ r4: .cfa -24 + ^ r5: .cfa -20 + ^ r6: .cfa -16 + ^ r7: .cfa -12 + ^ r8: .cfa -8 + ^
STACK CFI 1e830 .cfa: sp 32 +
STACK CFI INIT 1eaa0 130 .cfa: sp 0 + .ra: lr
STACK CFI 1eaa4 .cfa: sp 24 + .ra: .cfa -4 + ^ r3: .cfa -24 + ^ r4: .cfa -20 + ^ r5: .cfa -16 + ^ r6: .cfa -12 + ^ r7: .cfa -8 + ^
STACK CFI INIT 1ebd0 164 .cfa: sp 0 + .ra: lr
STACK CFI 1ebd4 .cfa: sp 36 + .ra: .cfa -4 + ^ r10: .cfa -12 + ^ r11: .cfa -8 + ^ r4: .cfa -36 + ^ r5: .cfa -32 + ^ r6: .cfa -28 + ^ r7: .cfa -24 + ^ r8: .cfa -20 + ^ r9: .cfa -16 + ^
STACK CFI 1ebe0 .cfa: sp 56 +
STACK CFI INIT 1ed34 2ac .cfa: sp 0 + .ra: lr
STACK CFI 1ed38 .cfa: sp 28 + .ra: .cfa -4 + ^ r4: .cfa -28 + ^ r5: .cfa -24 + ^ r6: .cfa -20 + ^ r7: .cfa -16 + ^ r8: .cfa -12 + ^ r9: .cfa -8 + ^
STACK CFI 1ed40 .cfa: sp 40 +
STACK CFI INIT 1efe0 2ac .cfa: sp 0 + .ra: lr
STACK CFI 1efe4 .cfa: sp 28 + .ra: .cfa -4 + ^ r4: .cfa -28 + ^ r5: .cfa -24 + ^ r6: .cfa -20 + ^ r7: .cfa -16 + ^ r8: .cfa -12 + ^ r9: .cfa -8 + ^
STACK CFI 1efec .cfa: sp 40 +
STACK CFI INIT 1f28c 11a4 .cfa: sp 0 + .ra: lr
STACK CFI 1f290 .cfa: sp 36 + .ra: .cfa -4 + ^ r10: .cfa -12 + ^ r11: .cfa -8 + ^ r4: .cfa -36 + ^ r5: .cfa -32 + ^ r6: .cfa -28 + ^ r7: .cfa -24 + ^ r8: .cfa -20 + ^ r9: .cfa -16 + ^
STACK CFI 1f29c .cfa: sp 144 +
STACK CFI INIT 20430 124 .cfa: sp 0 + .ra: lr
STACK CFI 20434 .cfa: sp 24 + .ra: .cfa -4 + ^ r4: .cfa -24 + ^ r5: .cfa -20 + ^ r6: .cfa -16 + ^ r7: .cfa -12 + ^ r8: .cfa -8 + ^
STACK CFI 20440 .cfa: sp 32 +
STACK CFI INIT 20554 260 .cfa: sp 0 + .ra: lr
STACK CFI 2055c .cfa: sp 36 + .ra: .cfa -4 + ^ r10: .cfa -12 + ^ r11: .cfa -8 + ^ r4: .cfa -36 + ^ r5: .cfa -32 + ^ r6: .cfa -28 + ^ r7: .cfa -24 + ^ r8: .cfa -20 + ^ r9: .cfa -16 + ^
STACK CFI 20568 .cfa: sp 48 +
STACK CFI INIT 207b4 88 .cfa: sp 0 + .ra: lr
STACK CFI 207b8 .cfa: sp 16 + .ra: .cfa -4 + ^ r4: .cfa -16 + ^ r5: .cfa -12 + ^ r6: .cfa -8 + ^
STACK CFI INIT 2083c 11c .cfa: sp 0 + .ra: lr
STACK CFI 20840 .cfa: sp 32 + .ra: .cfa -4 + ^ r3: .cfa -32 + ^ r4: .cfa -28 + ^ r5: .cfa -24 + ^ r6: .cfa -20 + ^ r7: .cfa -16 + ^ r8: .cfa -12 + ^ r9: .cfa -8 + ^
STACK CFI INIT 20958 c .cfa: sp 0 + .ra: lr
STACK CFI INIT 20964 24 .cfa: sp 0 + .ra: lr
STACK CFI INIT 20988 e4 .cfa: sp 0 + .ra: lr
STACK CFI 2098c .cfa: sp 24 + r4: .cfa -24 + ^ r5: .cfa -20 + ^ r6: .cfa -16 + ^ r7: .cfa -12 + ^ r8: .cfa -8 + ^ r9: .cfa -4 + ^
STACK CFI INIT 20a6c b4 .cfa: sp 0 + .ra: lr
STACK CFI 20a70 .cfa: sp 32 + .ra: .cfa -4 + ^ r3: .cfa -32 + ^ r4: .cfa -28 + ^ r5: .cfa -24 + ^ r6: .cfa -20 + ^ r7: .cfa -16 + ^ r8: .cfa -12 + ^ r9: .cfa -8 + ^
STACK CFI INIT 20b20 e30 .cfa: sp 0 + .ra: lr
STACK CFI 20b24 .cfa: sp 36 + .ra: .cfa -4 + ^ r10: .cfa -12 + ^ r11: .cfa -8 + ^ r4: .cfa -36 + ^ r5: .cfa -32 + ^ r6: .cfa -28 + ^ r7: .cfa -24 + ^ r8: .cfa -20 + ^ r9: .cfa -16 + ^
STACK CFI 20b30 .cfa: sp 96 +
STACK CFI INIT 21950 6c .cfa: sp 0 + .ra: lr
STACK CFI 21954 .cfa: sp 20 + .ra: .cfa -4 + ^ r4: .cfa -20 + ^ r5: .cfa -16 + ^ r6: .cfa -12 + ^ r7: .cfa -8 + ^
STACK CFI 21958 .cfa: sp 32 +
STACK CFI INIT 219bc 18 .cfa: sp 0 + .ra: lr
STACK CFI INIT 219d4 1c .cfa: sp 0 + .ra: lr
STACK CFI INIT 219f0 6c .cfa: sp 0 + .ra: lr
STACK CFI 219f4 .cfa: sp 16 + .ra: .cfa -4 + ^ r3: .cfa -16 + ^ r4: .cfa -12 + ^ r5: .cfa -8 + ^
STACK CFI INIT 21a5c 94 .cfa: sp 0 + .ra: lr
STACK CFI 21a64 .cfa: sp 20 + .ra: .cfa -4 + ^ r4: .cfa -20 + ^ r5: .cfa -16 + ^ r6: .cfa -12 + ^ r7: .cfa -8 + ^
STACK CFI 21a6c .cfa: sp 40 +
STACK CFI INIT 21af0 6c .cfa: sp 0 + .ra: lr
STACK CFI 21af4 .cfa: sp 16 + .ra: .cfa -4 + ^ r3: .cfa -16 + ^ r4: .cfa -12 + ^ r5: .cfa -8 + ^
STACK CFI INIT 21b5c 90 .cfa: sp 0 + .ra: lr
STACK CFI 21b64 .cfa: sp 16 + .ra: .cfa -4 + ^ r4: .cfa -16 + ^ r5: .cfa -12 + ^ r6: .cfa -8 + ^
STACK CFI 21b6c .cfa: sp 24 +
STACK CFI INIT 21bec 84 .cfa: sp 0 + .ra: lr
STACK CFI 21bf4 .cfa: sp 16 + .ra: .cfa -4 + ^ r4: .cfa -16 + ^ r5: .cfa -12 + ^ r6: .cfa -8 + ^
STACK CFI 21bfc .cfa: sp 24 +
STACK CFI INIT 21c70 88 .cfa: sp 0 + .ra: lr
STACK CFI 21c78 .cfa: sp 16 + .ra: .cfa -4 + ^ r4: .cfa -16 + ^ r5: .cfa -12 + ^ r6: .cfa -8 + ^
STACK CFI 21c80 .cfa: sp 24 +
STACK CFI INIT 21cf8 90 .cfa: sp 0 + .ra: lr
STACK CFI 21d00 .cfa: sp 16 + .ra: .cfa -4 + ^ r4: .cfa -16 + ^ r5: .cfa -12 + ^ r6: .cfa -8 + ^
STACK CFI 21d08 .cfa: sp 24 +
STACK CFI INIT 21d88 b0 .cfa: sp 0 + .ra: lr
STACK CFI 21d8c .cfa: sp 24 + .ra: .cfa -4 + ^ r3: .cfa -24 + ^ r4: .cfa -20 + ^ r5: .cfa -16 + ^ r6: .cfa -12 + ^ r7: .cfa -8 + ^
STACK CFI INIT 21e38 c8 .cfa: sp 0 + .ra: lr
STACK CFI 21e40 .cfa: sp 24 + .ra: .cfa -4 + ^ r4: .cfa -24 + ^ r5: .cfa -20 + ^ r6: .cfa -16 + ^ r7: .cfa -12 + ^ r8: .cfa -8 + ^
STACK CFI 21e48 .cfa: sp 32 +
STACK CFI INIT 21f00 b4 .cfa: sp 0 + .ra: lr
STACK CFI 21f04 .cfa: sp 24 + .ra: .cfa -4 + ^ r3: .cfa -24 + ^ r4: .cfa -20 + ^ r5: .cfa -16 + ^ r6: .cfa -12 + ^ r7: .cfa -8 + ^
STACK CFI INIT 21fb4 c8 .cfa: sp 0 + .ra: lr
STACK CFI 21fbc .cfa: sp 24 + .ra: .cfa -4 + ^ r4: .cfa -24 + ^ r5: .cfa -20 + ^ r6: .cfa -16 + ^ r7: .cfa -12 + ^ r8: .cfa -8 + ^
STACK CFI 21fc4 .cfa: sp 32 +
STACK CFI INIT 2207c a8 .cfa: sp 0 + .ra: lr
STACK CFI 22084 .cfa: sp 16 + .ra: .cfa -4 + ^ r4: .cfa -16 + ^ r5: .cfa -12 + ^ r6: .cfa -8 + ^
STACK CFI INIT 22124 ac .cfa: sp 0 + .ra: lr
STACK CFI 2212c .cfa: sp 16 + .ra: .cfa -4 + ^ r4: .cfa -16 + ^ r5: .cfa -12 + ^ r6: .cfa -8 + ^
STACK CFI INIT 221d0 7c .cfa: sp 0 + .ra: lr
STACK CFI 221d4 .cfa: sp 16 + .ra: .cfa -4 + ^ r3: .cfa -16 + ^ r4: .cfa -12 + ^ r5: .cfa -8 + ^
STACK CFI INIT 2224c 7c .cfa: sp 0 + .ra: lr
STACK CFI 22250 .cfa: sp 16 + .ra: .cfa -4 + ^ r3: .cfa -16 + ^ r4: .cfa -12 + ^ r5: .cfa -8 + ^
STACK CFI INIT 222c8 7c .cfa: sp 0 + .ra: lr
STACK CFI 222cc .cfa: sp 16 + .ra: .cfa -4 + ^ r3: .cfa -16 + ^ r4: .cfa -12 + ^ r5: .cfa -8 + ^
STACK CFI INIT 22344 7c .cfa: sp 0 + .ra: lr
STACK CFI 22348 .cfa: sp 16 + .ra: .cfa -4 + ^ r3: .cfa -16 + ^ r4: .cfa -12 + ^ r5: .cfa -8 + ^
STACK CFI INIT 223c0 90 .cfa: sp 0 + .ra: lr
STACK CFI 223c4 .cfa: sp 24 + .ra: .cfa -4 + ^ r4: .cfa -24 + ^ r5: .cfa -20 + ^ r6: .cfa -16 + ^ r7: .cfa -12 + ^ r8: .cfa -8 + ^
STACK CFI 223d0 .cfa: sp 40 +
STACK CFI INIT 22450 44 .cfa: sp 0 + .ra: lr
STACK CFI 22454 .cfa: sp 24 + .ra: .cfa -4 + ^ r3: .cfa -24 + ^ r4: .cfa -20 + ^ r5: .cfa -16 + ^ r6: .cfa -12 + ^ r7: .cfa -8 + ^
STACK CFI INIT 22494 10 .cfa: sp 0 + .ra: lr
STACK CFI INIT 224a4 10 .cfa: sp 0 + .ra: lr
STACK CFI INIT 224b4 14 .cfa: sp 0 + .ra: lr
STACK CFI INIT 224c8 b4 .cfa: sp 0 + .ra: lr
STACK CFI 224cc .cfa: sp 12 + .ra: .cfa -4 + ^ r4: .cfa -12 + ^ r5: .cfa -8 + ^
STACK CFI 224d4 .cfa: sp 24 +
STACK CFI INIT 2257c 10 .cfa: sp 0 + .ra: lr
STACK CFI INIT 2258c 128 .cfa: sp 0 + .ra: lr
STACK CFI 22590 .cfa: sp 20 + .ra: .cfa -4 + ^ r4: .cfa -20 + ^ r5: .cfa -16 + ^ r6: .cfa -12 + ^ r7: .cfa -8 + ^
STACK CFI 22598 .cfa: sp 32 +
STACK CFI INIT 226b4 4 .cfa: sp 0 + .ra: lr
STACK CFI INIT 226b8 2c .cfa: sp 0 + .ra: lr
STACK CFI INIT 226e4 c8 .cfa: sp 0 + .ra: lr
STACK CFI 226e8 .cfa: sp 12 + r4: .cfa -12 + ^ r5: .cfa -8 + ^ r6: .cfa -4 + ^
STACK CFI INIT 227ac 1d8 .cfa: sp 0 + .ra: lr
STACK CFI 227b0 .cfa: sp 32 + .ra: .cfa -4 + ^ r10: .cfa -8 + ^ r4: .cfa -32 + ^ r5: .cfa -28 + ^ r6: .cfa -24 + ^ r7: .cfa -20 + ^ r8: .cfa -16 + ^ r9: .cfa -12 + ^
STACK CFI INIT 22984 78 .cfa: sp 0 + .ra: lr
STACK CFI 22988 .cfa: sp 24 + .ra: .cfa -4 + ^ r4: .cfa -24 + ^ r5: .cfa -20 + ^ r6: .cfa -16 + ^ r7: .cfa -12 + ^ r8: .cfa -8 + ^
STACK CFI INIT 229fc d4 .cfa: sp 0 + .ra: lr
STACK CFI 22a00 .cfa: sp 8 + .ra: .cfa -4 + ^ r4: .cfa -8 + ^
STACK CFI INIT 22ad0 14c .cfa: sp 0 + .ra: lr
STACK CFI 22ad4 .cfa: sp 24 + .ra: .cfa -4 + ^ r4: .cfa -24 + ^ r5: .cfa -20 + ^ r6: .cfa -16 + ^ r7: .cfa -12 + ^ r8: .cfa -8 + ^
STACK CFI INIT 22c1c 14c .cfa: sp 0 + .ra: lr
STACK CFI 22c20 .cfa: sp 24 + .ra: .cfa -4 + ^ r4: .cfa -24 + ^ r5: .cfa -20 + ^ r6: .cfa -16 + ^ r7: .cfa -12 + ^ r8: .cfa -8 + ^
STACK CFI INIT 22d68 14c .cfa: sp 0 + .ra: lr
STACK CFI 22d6c .cfa: sp 24 + .ra: .cfa -4 + ^ r4: .cfa -24 + ^ r5: .cfa -20 + ^ r6: .cfa -16 + ^ r7: .cfa -12 + ^ r8: .cfa -8 + ^
STACK CFI INIT 22eb4 14c .cfa: sp 0 + .ra: lr
STACK CFI 22eb8 .cfa: sp 24 + .ra: .cfa -4 + ^ r4: .cfa -24 + ^ r5: .cfa -20 + ^ r6: .cfa -16 + ^ r7: .cfa -12 + ^ r8: .cfa -8 + ^
STACK CFI INIT 23000 28 .cfa: sp 0 + .ra: lr
STACK CFI 23004 .cfa: sp 16 + .ra: .cfa -4 + ^ r3: .cfa -16 + ^ r4: .cfa -12 + ^ r5: .cfa -8 + ^
STACK CFI INIT 23028 194 .cfa: sp 0 + .ra: lr
STACK CFI 2302c .cfa: sp 36 + .ra: .cfa -4 + ^ r10: .cfa -12 + ^ r11: .cfa -8 + ^ r4: .cfa -36 + ^ r5: .cfa -32 + ^ r6: .cfa -28 + ^ r7: .cfa -24 + ^ r8: .cfa -20 + ^ r9: .cfa -16 + ^
STACK CFI 23030 .cfa: sp 56 +
STACK CFI INIT 231bc 28 .cfa: sp 0 + .ra: lr
STACK CFI 231c0 .cfa: sp 16 + .ra: .cfa -4 + ^ r3: .cfa -16 + ^ r4: .cfa -12 + ^ r5: .cfa -8 + ^
STACK CFI INIT 231e4 50 .cfa: sp 0 + .ra: lr
STACK CFI 231e8 .cfa: sp 16 + .ra: .cfa -4 + ^ r4: .cfa -16 + ^ r5: .cfa -12 + ^ r6: .cfa -8 + ^
STACK CFI INIT 23234 20 .cfa: sp 0 + .ra: lr
STACK CFI INIT 23254 5c .cfa: sp 0 + .ra: lr
STACK CFI 23258 .cfa: sp 16 + .ra: .cfa -4 + ^ r3: .cfa -16 + ^ r4: .cfa -12 + ^ r5: .cfa -8 + ^
STACK CFI INIT 232b0 b0 .cfa: sp 0 + .ra: lr
STACK CFI 232b4 .cfa: sp 24 + .ra: .cfa -4 + ^ r4: .cfa -24 + ^ r5: .cfa -20 + ^ r6: .cfa -16 + ^ r7: .cfa -12 + ^ r8: .cfa -8 + ^
STACK CFI INIT 23360 14c .cfa: sp 0 + .ra: lr
STACK CFI 23364 .cfa: sp 32 + .ra: .cfa -4 + ^ r10: .cfa -8 + ^ r4: .cfa -32 + ^ r5: .cfa -28 + ^ r6: .cfa -24 + ^ r7: .cfa -20 + ^ r8: .cfa -16 + ^ r9: .cfa -12 + ^
STACK CFI INIT 234ac 194 .cfa: sp 0 + .ra: lr
STACK CFI 234b0 .cfa: sp 36 + .ra: .cfa -4 + ^ r10: .cfa -12 + ^ r11: .cfa -8 + ^ r4: .cfa -36 + ^ r5: .cfa -32 + ^ r6: .cfa -28 + ^ r7: .cfa -24 + ^ r8: .cfa -20 + ^ r9: .cfa -16 + ^
STACK CFI 234c0 .cfa: sp 48 +
STACK CFI INIT 23640 110 .cfa: sp 0 + .ra: lr
STACK CFI 23644 .cfa: sp 40 + .ra: .cfa -4 + ^ r10: .cfa -12 + ^ r11: .cfa -8 + ^ r3: .cfa -40 + ^ r4: .cfa -36 + ^ r5: .cfa -32 + ^ r6: .cfa -28 + ^ r7: .cfa -24 + ^ r8: .cfa -20 + ^ r9: .cfa -16 + ^
STACK CFI INIT 23750 13c .cfa: sp 0 + .ra: lr
STACK CFI 23754 .cfa: sp 32 + .ra: .cfa -4 + ^ r10: .cfa -8 + ^ r4: .cfa -32 + ^ r5: .cfa -28 + ^ r6: .cfa -24 + ^ r7: .cfa -20 + ^ r8: .cfa -16 + ^ r9: .cfa -12 + ^
STACK CFI INIT 2388c 8 .cfa: sp 0 + .ra: lr
STACK CFI INIT 23894 48 .cfa: sp 0 + .ra: lr
STACK CFI 23898 .cfa: sp 8 + .ra: .cfa -4 + ^ r4: .cfa -8 + ^
STACK CFI INIT 238dc 30 .cfa: sp 0 + .ra: lr
STACK CFI 238e4 .cfa: sp 8 + .ra: .cfa -4 + ^ r3: .cfa -8 + ^
STACK CFI INIT 2390c 38 .cfa: sp 0 + .ra: lr
STACK CFI 23910 .cfa: sp 16 + .ra: .cfa -4 + ^ r4: .cfa -16 + ^ r5: .cfa -12 + ^ r6: .cfa -8 + ^
STACK CFI INIT 23944 3c .cfa: sp 0 + .ra: lr
STACK CFI 23948 .cfa: sp 16 + .ra: .cfa -4 + ^ r3: .cfa -16 + ^ r4: .cfa -12 + ^ r5: .cfa -8 + ^
STACK CFI INIT 23980 24c .cfa: sp 0 + .ra: lr
STACK CFI 23984 .cfa: sp 16 + .ra: .cfa -4 + ^ r4: .cfa -16 + ^ r5: .cfa -12 + ^ r6: .cfa -8 + ^
STACK CFI INIT 23bcc 50 .cfa: sp 0 + .ra: lr
STACK CFI 23bd0 .cfa: sp 16 + .ra: .cfa -4 + ^ r3: .cfa -16 + ^ r4: .cfa -12 + ^ r5: .cfa -8 + ^
STACK CFI INIT 23c1c a4 .cfa: sp 0 + .ra: lr
STACK CFI 23c20 .cfa: sp 16 + .ra: .cfa -4 + ^ r4: .cfa -16 + ^ r5: .cfa -12 + ^ r6: .cfa -8 + ^
STACK CFI INIT 23cc0 258 .cfa: sp 0 + .ra: lr
STACK CFI 23cc4 .cfa: sp 40 + .ra: .cfa -4 + ^ r10: .cfa -12 + ^ r11: .cfa -8 + ^ r3: .cfa -40 + ^ r4: .cfa -36 + ^ r5: .cfa -32 + ^ r6: .cfa -28 + ^ r7: .cfa -24 + ^ r8: .cfa -20 + ^ r9: .cfa -16 + ^
STACK CFI INIT 23f18 1ec .cfa: sp 0 + .ra: lr
STACK CFI 23f1c .cfa: sp 40 + .ra: .cfa -4 + ^ r10: .cfa -12 + ^ r11: .cfa -8 + ^ r3: .cfa -40 + ^ r4: .cfa -36 + ^ r5: .cfa -32 + ^ r6: .cfa -28 + ^ r7: .cfa -24 + ^ r8: .cfa -20 + ^ r9: .cfa -16 + ^
STACK CFI INIT 24104 ac .cfa: sp 0 + .ra: lr
STACK CFI 2410c .cfa: sp 16 + .ra: .cfa -4 + ^ r4: .cfa -16 + ^ r5: .cfa -12 + ^ r6: .cfa -8 + ^
STACK CFI INIT 241b0 5d0 .cfa: sp 0 + .ra: lr
STACK CFI 241b4 .cfa: sp 36 + .ra: .cfa -4 + ^ r10: .cfa -12 + ^ r11: .cfa -8 + ^ r4: .cfa -36 + ^ r5: .cfa -32 + ^ r6: .cfa -28 + ^ r7: .cfa -24 + ^ r8: .cfa -20 + ^ r9: .cfa -16 + ^
STACK CFI 241b8 .cfa: sp 4388 +
STACK CFI 241bc .cfa: sp 4408 +
STACK CFI INIT 24780 144 .cfa: sp 0 + .ra: lr
STACK CFI 24784 .cfa: sp 36 + .ra: .cfa -4 + ^ r10: .cfa -12 + ^ r11: .cfa -8 + ^ r4: .cfa -36 + ^ r5: .cfa -32 + ^ r6: .cfa -28 + ^ r7: .cfa -24 + ^ r8: .cfa -20 + ^ r9: .cfa -16 + ^
STACK CFI 24790 .cfa: sp 64 +
STACK CFI INIT 248c4 1e4 .cfa: sp 0 + .ra: lr
STACK CFI 248d0 .cfa: sp 40 + .ra: .cfa -4 + ^ r10: .cfa -12 + ^ r11: .cfa -8 + ^ r3: .cfa -40 + ^ r4: .cfa -36 + ^ r5: .cfa -32 + ^ r6: .cfa -28 + ^ r7: .cfa -24 + ^ r8: .cfa -20 + ^ r9: .cfa -16 + ^
STACK CFI INIT 24aa8 398 .cfa: sp 0 + .ra: lr
STACK CFI 24ab0 .cfa: sp 36 + .ra: .cfa -4 + ^ r10: .cfa -12 + ^ r11: .cfa -8 + ^ r4: .cfa -36 + ^ r5: .cfa -32 + ^ r6: .cfa -28 + ^ r7: .cfa -24 + ^ r8: .cfa -20 + ^ r9: .cfa -16 + ^
STACK CFI 24ab8 .cfa: sp 56 +
STACK CFI INIT 24e40 48 .cfa: sp 0 + .ra: lr
STACK CFI 24e44 .cfa: sp 12 + .ra: .cfa -4 + ^ r4: .cfa -12 + ^ r5: .cfa -8 + ^
STACK CFI 24e48 .cfa: sp 32 +
STACK CFI INIT 24e88 d0 .cfa: sp 0 + .ra: lr
STACK CFI 24e8c .cfa: sp 24 + .ra: .cfa -4 + ^ r4: .cfa -24 + ^ r5: .cfa -20 + ^ r6: .cfa -16 + ^ r7: .cfa -12 + ^ r8: .cfa -8 + ^
STACK CFI INIT 24f58 d0 .cfa: sp 0 + .ra: lr
STACK CFI 24f5c .cfa: sp 24 + .ra: .cfa -4 + ^ r4: .cfa -24 + ^ r5: .cfa -20 + ^ r6: .cfa -16 + ^ r7: .cfa -12 + ^ r8: .cfa -8 + ^
STACK CFI INIT 25028 12c .cfa: sp 0 + .ra: lr
STACK CFI 2502c .cfa: sp 24 + .ra: .cfa -4 + ^ r4: .cfa -24 + ^ r5: .cfa -20 + ^ r6: .cfa -16 + ^ r7: .cfa -12 + ^ r8: .cfa -8 + ^
STACK CFI INIT 25154 138 .cfa: sp 0 + .ra: lr
STACK CFI 25158 .cfa: sp 32 + .ra: .cfa -4 + ^ r3: .cfa -32 + ^ r4: .cfa -28 + ^ r5: .cfa -24 + ^ r6: .cfa -20 + ^ r7: .cfa -16 + ^ r8: .cfa -12 + ^ r9: .cfa -8 + ^
STACK CFI INIT 2528c 210 .cfa: sp 0 + .ra: lr
STACK CFI 25294 .cfa: sp 24 + .ra: .cfa -4 + ^ r4: .cfa -24 + ^ r5: .cfa -20 + ^ r6: .cfa -16 + ^ r7: .cfa -12 + ^ r8: .cfa -8 + ^
STACK CFI INIT 2549c 7bc .cfa: sp 0 + .ra: lr
STACK CFI 254a4 .cfa: sp 36 + .ra: .cfa -4 + ^ r10: .cfa -12 + ^ r11: .cfa -8 + ^ r4: .cfa -36 + ^ r5: .cfa -32 + ^ r6: .cfa -28 + ^ r7: .cfa -24 + ^ r8: .cfa -20 + ^ r9: .cfa -16 + ^
STACK CFI 254b0 .cfa: sp 112 +
STACK CFI INIT 25c58 a0 .cfa: sp 0 + .ra: lr
STACK CFI 25c5c .cfa: sp 32 + .ra: .cfa -4 + ^ r3: .cfa -32 + ^ r4: .cfa -28 + ^ r5: .cfa -24 + ^ r6: .cfa -20 + ^ r7: .cfa -16 + ^ r8: .cfa -12 + ^ r9: .cfa -8 + ^
STACK CFI INIT 25cf8 494 .cfa: sp 0 + .ra: lr
STACK CFI 25cfc .cfa: sp 36 + .ra: .cfa -4 + ^ r10: .cfa -12 + ^ r11: .cfa -8 + ^ r4: .cfa -36 + ^ r5: .cfa -32 + ^ r6: .cfa -28 + ^ r7: .cfa -24 + ^ r8: .cfa -20 + ^ r9: .cfa -16 + ^
STACK CFI 25d04 .cfa: sp 104 +
STACK CFI INIT 2618c 84 .cfa: sp 0 + .ra: lr
STACK CFI 26190 .cfa: sp 24 + .ra: .cfa -4 + ^ r4: .cfa -24 + ^ r5: .cfa -20 + ^ r6: .cfa -16 + ^ r7: .cfa -12 + ^ r8: .cfa -8 + ^
STACK CFI INIT 26210 13c .cfa: sp 0 + .ra: lr
STACK CFI 26214 .cfa: sp 40 + .ra: .cfa -4 + ^ r10: .cfa -12 + ^ r11: .cfa -8 + ^ r3: .cfa -40 + ^ r4: .cfa -36 + ^ r5: .cfa -32 + ^ r6: .cfa -28 + ^ r7: .cfa -24 + ^ r8: .cfa -20 + ^ r9: .cfa -16 + ^
STACK CFI INIT 2634c ce8 .cfa: sp 0 + .ra: lr
STACK CFI 26350 .cfa: sp 36 + .ra: .cfa -4 + ^ r10: .cfa -12 + ^ r11: .cfa -8 + ^ r4: .cfa -36 + ^ r5: .cfa -32 + ^ r6: .cfa -28 + ^ r7: .cfa -24 + ^ r8: .cfa -20 + ^ r9: .cfa -16 + ^
STACK CFI 26354 .cfa: sp 272 +
STACK CFI INIT 27034 18 .cfa: sp 0 + .ra: lr
STACK CFI INIT 2704c 3c .cfa: sp 0 + .ra: lr
STACK CFI 27050 .cfa: sp 16 + .ra: .cfa -4 + ^ r4: .cfa -16 + ^ r5: .cfa -12 + ^ r6: .cfa -8 + ^
STACK CFI INIT 27088 10 .cfa: sp 0 + .ra: lr
STACK CFI INIT 27098 14 .cfa: sp 0 + .ra: lr
STACK CFI INIT 270ac 9c .cfa: sp 0 + .ra: lr
STACK CFI 270b0 .cfa: sp 12 + .ra: .cfa -4 + ^ r4: .cfa -12 + ^ r5: .cfa -8 + ^
STACK CFI 270bc .cfa: sp 24 +
STACK CFI INIT 27148 9c .cfa: sp 0 + .ra: lr
STACK CFI 2714c .cfa: sp 12 + .ra: .cfa -4 + ^ r4: .cfa -12 + ^ r5: .cfa -8 + ^
STACK CFI 27158 .cfa: sp 24 +
STACK CFI INIT 271e4 9c .cfa: sp 0 + .ra: lr
STACK CFI 271e8 .cfa: sp 12 + .ra: .cfa -4 + ^ r4: .cfa -12 + ^ r5: .cfa -8 + ^
STACK CFI 271f4 .cfa: sp 24 +
STACK CFI INIT 27280 10 .cfa: sp 0 + .ra: lr
STACK CFI INIT 27290 14 .cfa: sp 0 + .ra: lr
STACK CFI INIT 272a4 15c .cfa: sp 0 + .ra: lr
STACK CFI 272a8 .cfa: sp 16 + .ra: .cfa -4 + ^ r4: .cfa -16 + ^ r5: .cfa -12 + ^ r6: .cfa -8 + ^
STACK CFI INIT 27400 20c .cfa: sp 0 + .ra: lr
STACK CFI 27404 .cfa: sp 24 + .ra: .cfa -4 + ^ r4: .cfa -24 + ^ r5: .cfa -20 + ^ r6: .cfa -16 + ^ r7: .cfa -12 + ^ r8: .cfa -8 + ^
STACK CFI INIT 2760c 12c .cfa: sp 0 + .ra: lr
STACK CFI 27610 .cfa: sp 24 + .ra: .cfa -4 + ^ r4: .cfa -24 + ^ r5: .cfa -20 + ^ r6: .cfa -16 + ^ r7: .cfa -12 + ^ r8: .cfa -8 + ^
STACK CFI INIT 27738 238 .cfa: sp 0 + .ra: lr
STACK CFI 2773c .cfa: sp 16 + .ra: .cfa -4 + ^ r4: .cfa -16 + ^ r5: .cfa -12 + ^ r6: .cfa -8 + ^
STACK CFI INIT 27970 2d0 .cfa: sp 0 + .ra: lr
STACK CFI 27974 .cfa: sp 24 + .ra: .cfa -4 + ^ r4: .cfa -24 + ^ r5: .cfa -20 + ^ r6: .cfa -16 + ^ r7: .cfa -12 + ^ r8: .cfa -8 + ^
STACK CFI INIT 27c40 284 .cfa: sp 0 + .ra: lr
STACK CFI 27c44 .cfa: sp 24 + .ra: .cfa -4 + ^ r4: .cfa -24 + ^ r5: .cfa -20 + ^ r6: .cfa -16 + ^ r7: .cfa -12 + ^ r8: .cfa -8 + ^
STACK CFI INIT 27ec4 116c .cfa: sp 0 + .ra: lr
STACK CFI 27ec8 .cfa: sp 36 + .ra: .cfa -4 + ^ r10: .cfa -12 + ^ r11: .cfa -8 + ^ r4: .cfa -36 + ^ r5: .cfa -32 + ^ r6: .cfa -28 + ^ r7: .cfa -24 + ^ r8: .cfa -20 + ^ r9: .cfa -16 + ^
STACK CFI 27ed8 .cfa: sp 88 +
STACK CFI INIT 29030 90 .cfa: sp 0 + .ra: lr
STACK CFI 29034 .cfa: sp 24 + .ra: .cfa -4 + ^ r3: .cfa -24 + ^ r4: .cfa -20 + ^ r5: .cfa -16 + ^ r6: .cfa -12 + ^ r7: .cfa -8 + ^
STACK CFI INIT 290c0 264 .cfa: sp 0 + .ra: lr
STACK CFI 290c4 .cfa: sp 36 + .ra: .cfa -4 + ^ r10: .cfa -12 + ^ r11: .cfa -8 + ^ r4: .cfa -36 + ^ r5: .cfa -32 + ^ r6: .cfa -28 + ^ r7: .cfa -24 + ^ r8: .cfa -20 + ^ r9: .cfa -16 + ^
STACK CFI 290c8 .cfa: sp 2084 +
STACK CFI 290cc .cfa: sp 2096 +
STACK CFI INIT 29324 180 .cfa: sp 0 + .ra: lr
STACK CFI 29328 .cfa: sp 28 + .ra: .cfa -4 + ^ r4: .cfa -28 + ^ r5: .cfa -24 + ^ r6: .cfa -20 + ^ r7: .cfa -16 + ^ r8: .cfa -12 + ^ r9: .cfa -8 + ^
STACK CFI 29330 .cfa: sp 40 +
STACK CFI INIT 294a4 224 .cfa: sp 0 + .ra: lr
STACK CFI 294a8 .cfa: sp 24 + .ra: .cfa -4 + ^ r4: .cfa -24 + ^ r5: .cfa -20 + ^ r6: .cfa -16 + ^ r7: .cfa -12 + ^ r8: .cfa -8 + ^
STACK CFI INIT 296c8 c4 .cfa: sp 0 + .ra: lr
STACK CFI 296cc .cfa: sp 16 + .ra: .cfa -4 + ^ r3: .cfa -16 + ^ r4: .cfa -12 + ^ r5: .cfa -8 + ^
STACK CFI INIT 2978c 130 .cfa: sp 0 + .ra: lr
STACK CFI 29790 .cfa: sp 32 + .ra: .cfa -4 + ^ r10: .cfa -8 + ^ r4: .cfa -32 + ^ r5: .cfa -28 + ^ r6: .cfa -24 + ^ r7: .cfa -20 + ^ r8: .cfa -16 + ^ r9: .cfa -12 + ^
STACK CFI INIT 298bc 164 .cfa: sp 0 + .ra: lr
STACK CFI 298c4 .cfa: sp 16 + .ra: .cfa -4 + ^ r4: .cfa -16 + ^ r5: .cfa -12 + ^ r6: .cfa -8 + ^
STACK CFI INIT 29a20 1cc .cfa: sp 0 + .ra: lr
STACK CFI 29a24 .cfa: sp 32 + .ra: .cfa -4 + ^ r3: .cfa -32 + ^ r4: .cfa -28 + ^ r5: .cfa -24 + ^ r6: .cfa -20 + ^ r7: .cfa -16 + ^ r8: .cfa -12 + ^ r9: .cfa -8 + ^
STACK CFI INIT 29bec c .cfa: sp 0 + .ra: lr
STACK CFI INIT 29bf8 8 .cfa: sp 0 + .ra: lr
STACK CFI INIT 29c00 8 .cfa: sp 0 + .ra: lr
STACK CFI INIT 29c08 8 .cfa: sp 0 + .ra: lr
STACK CFI INIT 29c10 5c .cfa: sp 0 + .ra: lr
STACK CFI 29c14 .cfa: sp 8 + .ra: .cfa -4 + ^ r4: .cfa -8 + ^
STACK CFI INIT 29c6c 18 .cfa: sp 0 + .ra: lr
STACK CFI 29c70 .cfa: sp 8 + .ra: .cfa -4 + ^ r4: .cfa -8 + ^
STACK CFI INIT 29c84 588 .cfa: sp 0 + .ra: lr
STACK CFI 29c88 .cfa: sp 32 + .ra: .cfa -4 + ^ r10: .cfa -8 + ^ r4: .cfa -32 + ^ r5: .cfa -28 + ^ r6: .cfa -24 + ^ r7: .cfa -20 + ^ r8: .cfa -16 + ^ r9: .cfa -12 + ^
STACK CFI 29c94 .cfa: sp 40 +
STACK CFI INIT 2a20c 244 .cfa: sp 0 + .ra: lr
STACK CFI 2a210 .cfa: sp 24 + .ra: .cfa -4 + ^ r3: .cfa -24 + ^ r4: .cfa -20 + ^ r5: .cfa -16 + ^ r6: .cfa -12 + ^ r7: .cfa -8 + ^
STACK CFI INIT 2a450 40 .cfa: sp 0 + .ra: lr
STACK CFI 2a454 .cfa: sp 16 + .ra: .cfa -4 + ^ r3: .cfa -16 + ^ r4: .cfa -12 + ^ r5: .cfa -8 + ^
STACK CFI INIT 2a490 24 .cfa: sp 0 + .ra: lr
STACK CFI 2a494 .cfa: sp 8 + .ra: .cfa -4 + ^ r4: .cfa -8 + ^
STACK CFI INIT 2a4b4 12c .cfa: sp 0 + .ra: lr
STACK CFI 2a4b8 .cfa: sp 32 + .ra: .cfa -4 + ^ r10: .cfa -8 + ^ r4: .cfa -32 + ^ r5: .cfa -28 + ^ r6: .cfa -24 + ^ r7: .cfa -20 + ^ r8: .cfa -16 + ^ r9: .cfa -12 + ^
STACK CFI INIT 2a5e0 a4 .cfa: sp 0 + .ra: lr
STACK CFI 2a5e8 .cfa: sp 16 + .ra: .cfa -4 + ^ r3: .cfa -16 + ^ r4: .cfa -12 + ^ r5: .cfa -8 + ^
STACK CFI INIT 2a684 268 .cfa: sp 0 + .ra: lr
STACK CFI 2a68c .cfa: sp 32 + .ra: .cfa -4 + ^ r10: .cfa -8 + ^ r4: .cfa -32 + ^ r5: .cfa -28 + ^ r6: .cfa -24 + ^ r7: .cfa -20 + ^ r8: .cfa -16 + ^ r9: .cfa -12 + ^
STACK CFI INIT 2a8ec 39c .cfa: sp 0 + .ra: lr
STACK CFI 2a8f4 .cfa: sp 16 + .ra: .cfa -4 + ^ r4: .cfa -16 + ^ r5: .cfa -12 + ^ r6: .cfa -8 + ^
STACK CFI 2a900 .cfa: sp 32 +
STACK CFI INIT 2ac88 264 .cfa: sp 0 + .ra: lr
STACK CFI 2ac98 .cfa: sp 20 + .ra: .cfa -4 + ^ r4: .cfa -20 + ^ r5: .cfa -16 + ^ r6: .cfa -12 + ^ r7: .cfa -8 + ^
STACK CFI 2aca4 .cfa: sp 48 +
STACK CFI INIT 2aeec 14c .cfa: sp 0 + .ra: lr
STACK CFI 2aef4 .cfa: sp 20 + .ra: .cfa -4 + ^ r4: .cfa -20 + ^ r5: .cfa -16 + ^ r6: .cfa -12 + ^ r7: .cfa -8 + ^
STACK CFI 2aefc .cfa: sp 40 +
STACK CFI INIT 2b038 1fc .cfa: sp 0 + .ra: lr
STACK CFI 2b040 .cfa: sp 20 + .ra: .cfa -4 + ^ r4: .cfa -20 + ^ r5: .cfa -16 + ^ r6: .cfa -12 + ^ r7: .cfa -8 + ^
STACK CFI 2b048 .cfa: sp 40 +
STACK CFI INIT 2b234 1148 .cfa: sp 0 + .ra: lr
STACK CFI 2b238 .cfa: sp 36 + .ra: .cfa -4 + ^ r10: .cfa -12 + ^ r11: .cfa -8 + ^ r4: .cfa -36 + ^ r5: .cfa -32 + ^ r6: .cfa -28 + ^ r7: .cfa -24 + ^ r8: .cfa -20 + ^ r9: .cfa -16 + ^
STACK CFI 2b23c .cfa: sp 104 +
STACK CFI INIT 2c37c 29c .cfa: sp 0 + .ra: lr
STACK CFI 2c388 .cfa: sp 16 + .ra: .cfa -4 + ^ r4: .cfa -16 + ^ r5: .cfa -12 + ^ r6: .cfa -8 + ^
STACK CFI 2c390 .cfa: sp 56 +
STACK CFI INIT 2c618 204 .cfa: sp 0 + .ra: lr
STACK CFI 2c620 .cfa: sp 16 + .ra: .cfa -4 + ^ r4: .cfa -16 + ^ r5: .cfa -12 + ^ r6: .cfa -8 + ^
STACK CFI 2c628 .cfa: sp 40 +
STACK CFI INIT 2c81c 200 .cfa: sp 0 + .ra: lr
STACK CFI 2c824 .cfa: sp 16 + .ra: .cfa -4 + ^ r4: .cfa -16 + ^ r5: .cfa -12 + ^ r6: .cfa -8 + ^
STACK CFI 2c82c .cfa: sp 40 +
STACK CFI INIT 2ca1c 170 .cfa: sp 0 + .ra: lr
STACK CFI 2ca24 .cfa: sp 16 + .ra: .cfa -4 + ^ r4: .cfa -16 + ^ r5: .cfa -12 + ^ r6: .cfa -8 + ^
STACK CFI 2ca30 .cfa: sp 40 +
STACK CFI INIT 2cb8c 128 .cfa: sp 0 + .ra: lr
STACK CFI 2cb94 .cfa: sp 16 + .ra: .cfa -4 + ^ r4: .cfa -16 + ^ r5: .cfa -12 + ^ r6: .cfa -8 + ^
STACK CFI 2cb9c .cfa: sp 32 +
STACK CFI INIT 2ccb4 fc .cfa: sp 0 + .ra: lr
STACK CFI 2ccbc .cfa: sp 16 + .ra: .cfa -4 + ^ r4: .cfa -16 + ^ r5: .cfa -12 + ^ r6: .cfa -8 + ^
STACK CFI 2ccc4 .cfa: sp 32 +
STACK CFI INIT 2cdb0 2c8 .cfa: sp 0 + .ra: lr
STACK CFI 2cdb4 .cfa: sp 36 + .ra: .cfa -4 + ^ r10: .cfa -12 + ^ r11: .cfa -8 + ^ r4: .cfa -36 + ^ r5: .cfa -32 + ^ r6: .cfa -28 + ^ r7: .cfa -24 + ^ r8: .cfa -20 + ^ r9: .cfa -16 + ^
STACK CFI 2cdc0 .cfa: sp 56 +
STACK CFI INIT 2d078 48 .cfa: sp 0 + .ra: lr
STACK CFI 2d084 .cfa: sp 4 + .ra: .cfa -4 + ^
STACK CFI 2d08c .cfa: sp 24 +
STACK CFI INIT 2d0c0 40 .cfa: sp 0 + .ra: lr
STACK CFI 2d0c4 .cfa: sp 12 + .ra: .cfa -4 + ^ r4: .cfa -12 + ^ r5: .cfa -8 + ^
STACK CFI 2d0c8 .cfa: sp 32 +
STACK CFI INIT 2d100 264 .cfa: sp 0 + .ra: lr
STACK CFI 2d104 .cfa: sp 32 + .ra: .cfa -4 + ^ r10: .cfa -8 + ^ r4: .cfa -32 + ^ r5: .cfa -28 + ^ r6: .cfa -24 + ^ r7: .cfa -20 + ^ r8: .cfa -16 + ^ r9: .cfa -12 + ^
STACK CFI 2d118 .cfa: sp 64 +
STACK CFI INIT 2d364 304 .cfa: sp 0 + .ra: lr
STACK CFI 2d36c .cfa: sp 28 + .ra: .cfa -4 + ^ r4: .cfa -28 + ^ r5: .cfa -24 + ^ r6: .cfa -20 + ^ r7: .cfa -16 + ^ r8: .cfa -12 + ^ r9: .cfa -8 + ^
STACK CFI 2d374 .cfa: sp 56 +
STACK CFI INIT 2d668 2e8 .cfa: sp 0 + .ra: lr
STACK CFI 2d670 .cfa: sp 12 + .ra: .cfa -4 + ^ r4: .cfa -12 + ^ r5: .cfa -8 + ^
STACK CFI 2d67c .cfa: sp 48 +
STACK CFI INIT 2d950 3c0 .cfa: sp 0 + .ra: lr
STACK CFI 2d954 .cfa: sp 24 + .ra: .cfa -4 + ^ r4: .cfa -24 + ^ r5: .cfa -20 + ^ r6: .cfa -16 + ^ r7: .cfa -12 + ^ r8: .cfa -8 + ^
STACK CFI 2d964 .cfa: sp 48 +
STACK CFI INIT 2dd10 54 .cfa: sp 0 + .ra: lr
STACK CFI INIT 2dd64 150 .cfa: sp 0 + .ra: lr
STACK CFI 2dd68 .cfa: sp 8 + .ra: .cfa -4 + ^ r4: .cfa -8 + ^
STACK CFI INIT 2deb4 7c .cfa: sp 0 + .ra: lr
STACK CFI 2dec4 .cfa: sp 4 + r4: .cfa -4 + ^
STACK CFI INIT 2df30 a8 .cfa: sp 0 + .ra: lr
STACK CFI 2df38 .cfa: sp 4 + .ra: .cfa -4 + ^
STACK CFI 2df3c .cfa: sp 16 +
STACK CFI INIT 2dfd8 80 .cfa: sp 0 + .ra: lr
STACK CFI 2dfdc .cfa: sp 12 + .ra: .cfa -4 + ^ r4: .cfa -12 + ^ r5: .cfa -8 + ^
STACK CFI 2dfe0 .cfa: sp 24 +
STACK CFI INIT 2e058 70 .cfa: sp 0 + .ra: lr
STACK CFI 2e05c .cfa: sp 12 + .ra: .cfa -4 + ^ r4: .cfa -12 + ^ r5: .cfa -8 + ^
STACK CFI 2e060 .cfa: sp 24 +
STACK CFI INIT 2e0c8 b4 .cfa: sp 0 + .ra: lr
STACK CFI 2e0cc .cfa: sp 16 + .ra: .cfa -4 + ^ r4: .cfa -16 + ^ r5: .cfa -12 + ^ r6: .cfa -8 + ^
STACK CFI INIT 2e17c 88 .cfa: sp 0 + .ra: lr
STACK CFI 2e184 .cfa: sp 16 + .ra: .cfa -4 + ^ r4: .cfa -16 + ^ r5: .cfa -12 + ^ r6: .cfa -8 + ^
STACK CFI INIT 2e204 18 .cfa: sp 0 + .ra: lr
STACK CFI 2e208 .cfa: sp 4 + .ra: .cfa -4 + ^
STACK CFI 2e20c .cfa: sp 16 +
STACK CFI INIT 2e21c 98 .cfa: sp 0 + .ra: lr
STACK CFI 2e220 .cfa: sp 8 + .ra: .cfa -4 + ^ r3: .cfa -8 + ^
STACK CFI INIT 2e2b4 90 .cfa: sp 0 + .ra: lr
STACK CFI 2e2b8 .cfa: sp 8 + .ra: .cfa -4 + ^ r3: .cfa -8 + ^
STACK CFI INIT 2e344 3c .cfa: sp 0 + .ra: lr
STACK CFI INIT 2e380 4 .cfa: sp 0 + .ra: lr
STACK CFI INIT 2e384 2c .cfa: sp 0 + .ra: lr
STACK CFI 2e388 .cfa: sp 8 + .ra: .cfa -4 + ^ r3: .cfa -8 + ^
STACK CFI INIT 2e3b0 278 .cfa: sp 0 + .ra: lr
STACK CFI 2e3b4 .cfa: sp 24 + .ra: .cfa -4 + ^ r4: .cfa -24 + ^ r5: .cfa -20 + ^ r6: .cfa -16 + ^ r7: .cfa -12 + ^ r8: .cfa -8 + ^
STACK CFI INIT 2e628 4 .cfa: sp 0 + .ra: lr
STACK CFI INIT 2e62c 4 .cfa: sp 0 + .ra: lr
STACK CFI INIT 2e630 4 .cfa: sp 0 + .ra: lr
STACK CFI INIT 2e634 4 .cfa: sp 0 + .ra: lr
STACK CFI INIT 2e638 4 .cfa: sp 0 + .ra: lr
STACK CFI INIT 2e63c 4 .cfa: sp 0 + .ra: lr
STACK CFI INIT 2e640 1c .cfa: sp 0 + .ra: lr
STACK CFI 2e644 .cfa: sp 12 + r1: .cfa -12 + ^ r2: .cfa -8 + ^ r3: .cfa -4 + ^
STACK CFI 2e648 .cfa: sp 16 + .ra: .cfa -16 + ^
STACK CFI INIT 2e65c 1c .cfa: sp 0 + .ra: lr
STACK CFI 2e660 .cfa: sp 12 + r1: .cfa -12 + ^ r2: .cfa -8 + ^ r3: .cfa -4 + ^
STACK CFI 2e664 .cfa: sp 16 + .ra: .cfa -16 + ^
STACK CFI INIT 2e678 4 .cfa: sp 0 + .ra: lr
STACK CFI INIT 2e67c 4 .cfa: sp 0 + .ra: lr
STACK CFI INIT 2e680 4 .cfa: sp 0 + .ra: lr
STACK CFI INIT 2e684 4 .cfa: sp 0 + .ra: lr
STACK CFI INIT 2e688 4 .cfa: sp 0 + .ra: lr
STACK CFI INIT 2e68c 4 .cfa: sp 0 + .ra: lr
STACK CFI INIT 2e690 4 .cfa: sp 0 + .ra: lr
STACK CFI INIT 2e694 4 .cfa: sp 0 + .ra: lr
STACK CFI INIT 2e698 4 .cfa: sp 0 + .ra: lr
STACK CFI INIT 2e69c 4 .cfa: sp 0 + .ra: lr
STACK CFI INIT 2e6a0 4 .cfa: sp 0 + .ra: lr
STACK CFI INIT 2e6a4 4 .cfa: sp 0 + .ra: lr
STACK CFI INIT 2e6a8 4 .cfa: sp 0 + .ra: lr
STACK CFI INIT 2e6ac 4 .cfa: sp 0 + .ra: lr
STACK CFI INIT 2e6b0 4 .cfa: sp 0 + .ra: lr
STACK CFI INIT 2e6b4 4 .cfa: sp 0 + .ra: lr
STACK CFI INIT 2e6b8 4 .cfa: sp 0 + .ra: lr
STACK CFI INIT 2e6bc 4 .cfa: sp 0 + .ra: lr
STACK CFI INIT 2e6c0 4 .cfa: sp 0 + .ra: lr
STACK CFI INIT 2e6c4 4 .cfa: sp 0 + .ra: lr
STACK CFI INIT 2e6c8 4 .cfa: sp 0 + .ra: lr
STACK CFI INIT 2e6cc 4 .cfa: sp 0 + .ra: lr
STACK CFI INIT 2e6d0 4 .cfa: sp 0 + .ra: lr
STACK CFI INIT 2e6d4 4 .cfa: sp 0 + .ra: lr
STACK CFI INIT 2e6d8 4 .cfa: sp 0 + .ra: lr
STACK CFI INIT 2e6dc 4 .cfa: sp 0 + .ra: lr
STACK CFI INIT 2e6e0 4 .cfa: sp 0 + .ra: lr
STACK CFI INIT 2e6e4 4 .cfa: sp 0 + .ra: lr
STACK CFI INIT 2e6e8 4 .cfa: sp 0 + .ra: lr
STACK CFI INIT 2e6ec 4 .cfa: sp 0 + .ra: lr
STACK CFI INIT 2e6f0 4 .cfa: sp 0 + .ra: lr
STACK CFI INIT 2e6f4 4 .cfa: sp 0 + .ra: lr
STACK CFI INIT 2e6f8 4 .cfa: sp 0 + .ra: lr
STACK CFI INIT 2e6fc 4 .cfa: sp 0 + .ra: lr
STACK CFI INIT 2e700 30 .cfa: sp 0 + .ra: lr
STACK CFI 2e704 .cfa: sp 12 + r1: .cfa -12 + ^ r2: .cfa -8 + ^ r3: .cfa -4 + ^
STACK CFI 2e708 .cfa: sp 16 + .ra: .cfa -16 + ^
STACK CFI 2e70c .cfa: sp 24 +
STACK CFI INIT 2e730 4 .cfa: sp 0 + .ra: lr
STACK CFI INIT 2e734 40 .cfa: sp 0 + .ra: lr
STACK CFI 2e738 .cfa: sp 16 + r0: .cfa -16 + ^ r1: .cfa -12 + ^ r2: .cfa -8 + ^ r3: .cfa -4 + ^
STACK CFI 2e740 .cfa: sp 20 + .ra: .cfa -20 + ^
STACK CFI 2e744 .cfa: sp 32 +
STACK CFI INIT 2e774 4 .cfa: sp 0 + .ra: lr
STACK CFI INIT 2e778 4 .cfa: sp 0 + .ra: lr
STACK CFI INIT 2e77c 4 .cfa: sp 0 + .ra: lr
STACK CFI INIT 2e780 4 .cfa: sp 0 + .ra: lr
STACK CFI INIT 2e784 4 .cfa: sp 0 + .ra: lr
STACK CFI INIT 2e788 4 .cfa: sp 0 + .ra: lr
STACK CFI INIT 2e78c 4 .cfa: sp 0 + .ra: lr
STACK CFI INIT 2e790 30 .cfa: sp 0 + .ra: lr
STACK CFI 2e794 .cfa: sp 12 + r1: .cfa -12 + ^ r2: .cfa -8 + ^ r3: .cfa -4 + ^
STACK CFI 2e798 .cfa: sp 16 + .ra: .cfa -16 + ^
STACK CFI 2e79c .cfa: sp 24 +
STACK CFI INIT 2e7c0 4 .cfa: sp 0 + .ra: lr
STACK CFI INIT 2e7c4 4 .cfa: sp 0 + .ra: lr
STACK CFI INIT 2e7c8 c .cfa: sp 0 + .ra: lr
STACK CFI INIT 2e7d4 c .cfa: sp 0 + .ra: lr
STACK CFI INIT 2e7e0 4 .cfa: sp 0 + .ra: lr
STACK CFI INIT 2e7e4 4 .cfa: sp 0 + .ra: lr
STACK CFI INIT 2e7e8 4 .cfa: sp 0 + .ra: lr
STACK CFI INIT 2e7ec c .cfa: sp 0 + .ra: lr
STACK CFI INIT 2e7f8 4 .cfa: sp 0 + .ra: lr
STACK CFI INIT 2e7fc 4 .cfa: sp 0 + .ra: lr
STACK CFI INIT 2e800 4 .cfa: sp 0 + .ra: lr
STACK CFI INIT 2e804 a8 .cfa: sp 0 + .ra: lr
STACK CFI INIT 2e8cc dc .cfa: sp 0 + .ra: lr
STACK CFI INIT 2ea58 3c .cfa: sp 0 + .ra: lr
STACK CFI 2ea5c .cfa: sp 24 + .ra: .cfa -4 + ^ r4: .cfa -24 + ^ r5: .cfa -20 + ^ r6: .cfa -16 + ^ r7: .cfa -12 + ^ r8: .cfa -8 + ^
STACK CFI INIT 2ea94 3c .cfa: sp 0 + .ra: lr
STACK CFI 2ea98 .cfa: sp 24 + .ra: .cfa -4 + ^ r4: .cfa -24 + ^ r5: .cfa -20 + ^ r6: .cfa -16 + ^ r7: .cfa -12 + ^ r8: .cfa -8 + ^
STACK CFI INIT 2ead0 18 .cfa: sp 0 + .ra: lr
STACK CFI INIT 2eae8 ac .cfa: sp 0 + .ra: lr
STACK CFI 2eaec .cfa: sp 48 + .ra: .cfa -4 + ^ r0: .cfa -48 + ^ r1: .cfa -44 + ^ r10: .cfa -12 + ^ r11: .cfa -8 + ^ r2: .cfa -40 + ^ r4: .cfa -36 + ^ r5: .cfa -32 + ^ r6: .cfa -28 + ^ r7: .cfa -24 + ^ r8: .cfa -20 + ^ r9: .cfa -16 + ^
STACK CFI INIT 2eb94 50 .cfa: sp 0 + .ra: lr
STACK CFI INIT 2ebe4 110 .cfa: sp 0 + .ra: lr
STACK CFI 2ebec .cfa: sp 24 + .ra: .cfa -4 + ^ r0: .cfa -24 + ^ r1: .cfa -20 + ^ r2: .cfa -16 + ^ r4: .cfa -12 + ^ r5: .cfa -8 + ^
STACK CFI INIT 2ecf4 6c .cfa: sp 0 + .ra: lr
STACK CFI 2ecfc .cfa: sp 8 + .ra: .cfa -4 + ^ r4: .cfa -8 + ^
STACK CFI INIT 2ed60 14 .cfa: sp 0 + .ra: lr
STACK CFI INIT 2ed74 8 .cfa: sp 0 + .ra: lr
STACK CFI INIT 2ed7c 4 .cfa: sp 0 + .ra: lr
STACK CFI INIT 2ed80 64 .cfa: sp 0 + .ra: lr
STACK CFI 2ed84 .cfa: sp 16 + .ra: .cfa -4 + ^ r4: .cfa -16 + ^ r5: .cfa -12 + ^ r6: .cfa -8 + ^
STACK CFI INIT 2ede4 124 .cfa: sp 0 + .ra: lr
STACK CFI 2ede8 .cfa: sp 36 + .ra: .cfa -4 + ^ r10: .cfa -12 + ^ r11: .cfa -8 + ^ r4: .cfa -36 + ^ r5: .cfa -32 + ^ r6: .cfa -28 + ^ r7: .cfa -24 + ^ r8: .cfa -20 + ^ r9: .cfa -16 + ^
STACK CFI 2ee04 .cfa: sp 1008 +
STACK CFI INIT 2ef08 8 .cfa: sp 0 + .ra: lr
STACK CFI INIT 2ef10 a4 .cfa: sp 0 + .ra: lr
STACK CFI 2ef14 .cfa: sp 20 + .ra: .cfa -4 + ^ r4: .cfa -20 + ^ r5: .cfa -16 + ^ r6: .cfa -12 + ^ r7: .cfa -8 + ^
STACK CFI 2ef30 .cfa: sp 504 +
STACK CFI INIT 2efb4 1c .cfa: sp 0 + .ra: lr
STACK CFI INIT 2efd0 74 .cfa: sp 0 + .ra: lr
STACK CFI 2efd4 .cfa: sp 16 + .ra: .cfa -4 + ^ r4: .cfa -16 + ^ r5: .cfa -12 + ^ r6: .cfa -8 + ^
STACK CFI INIT 2f044 20 .cfa: sp 0 + .ra: lr
STACK CFI INIT 2f064 4 .cfa: sp 0 + .ra: lr
STACK CFI INIT 2f068 20 .cfa: sp 0 + .ra: lr
STACK CFI 2f06c .cfa: sp 8 + .ra: .cfa -4 + ^ r3: .cfa -8 + ^
STACK CFI INIT 2f088 5c .cfa: sp 0 + .ra: lr
STACK CFI INIT 2f0e4 28 .cfa: sp 0 + .ra: lr
STACK CFI 2f0e8 .cfa: sp 24 + .ra: .cfa -4 + ^ r0: .cfa -24 + ^ r1: .cfa -20 + ^ r2: .cfa -16 + ^ r3: .cfa -12 + ^ r4: .cfa -8 + ^
STACK CFI INIT 2f10c 5c .cfa: sp 0 + .ra: lr
STACK CFI INIT 2f168 2c .cfa: sp 0 + .ra: lr
STACK CFI 2f16c .cfa: sp 24 + .ra: .cfa -4 + ^ r0: .cfa -24 + ^ r1: .cfa -20 + ^ r2: .cfa -16 + ^ r3: .cfa -12 + ^ r4: .cfa -8 + ^
STACK CFI INIT 2f194 c4 .cfa: sp 0 + .ra: lr
STACK CFI 2f198 .cfa: sp 24 + .ra: .cfa -4 + ^ r4: .cfa -24 + ^ r5: .cfa -20 + ^ r6: .cfa -16 + ^ r7: .cfa -12 + ^ r8: .cfa -8 + ^
STACK CFI 2f1b4 .cfa: sp 592 +
STACK CFI INIT 2f258 3f4 .cfa: sp 0 + .ra: lr
STACK CFI 2f25c .cfa: sp 36 + .ra: .cfa -4 + ^ r10: .cfa -12 + ^ r11: .cfa -8 + ^ r4: .cfa -36 + ^ r5: .cfa -32 + ^ r6: .cfa -28 + ^ r7: .cfa -24 + ^ r8: .cfa -20 + ^ r9: .cfa -16 + ^
STACK CFI 2f268 .cfa: sp 72 +
STACK CFI INIT 2f64c 8 .cfa: sp 0 + .ra: lr
STACK CFI INIT 2f654 8 .cfa: sp 0 + .ra: lr
STACK CFI INIT 2f65c 8 .cfa: sp 0 + .ra: lr
STACK CFI INIT 2f664 358 .cfa: sp 0 + .ra: lr
STACK CFI 2f668 .cfa: sp 28 + .ra: .cfa -4 + ^ r4: .cfa -28 + ^ r5: .cfa -24 + ^ r6: .cfa -20 + ^ r7: .cfa -16 + ^ r8: .cfa -12 + ^ r9: .cfa -8 + ^
STACK CFI 2f670 .cfa: sp 296 +
STACK CFI INIT 2fb64 60 .cfa: sp 0 + .ra: lr
STACK CFI INIT 2fbc4 28 .cfa: sp 0 + .ra: lr
STACK CFI 2fbc8 .cfa: sp 24 + .ra: .cfa -4 + ^ r0: .cfa -24 + ^ r1: .cfa -20 + ^ r2: .cfa -16 + ^ r3: .cfa -12 + ^ r4: .cfa -8 + ^
STACK CFI INIT 2fbec 4 .cfa: sp 0 + .ra: lr
STACK CFI INIT 2fbf0 37c .cfa: sp 0 + .ra: lr
STACK CFI 2fbf4 .cfa: sp 48 + .ra: .cfa -4 + ^ r0: .cfa -48 + ^ r1: .cfa -44 + ^ r10: .cfa -8 + ^ r2: .cfa -40 + ^ r3: .cfa -36 + ^ r4: .cfa -32 + ^ r5: .cfa -28 + ^ r6: .cfa -24 + ^ r7: .cfa -20 + ^ r8: .cfa -16 + ^ r9: .cfa -12 + ^
STACK CFI INIT 2ff6c 40 .cfa: sp 0 + .ra: lr
STACK CFI 2ff70 .cfa: sp 24 + .ra: .cfa -4 + ^ r0: .cfa -24 + ^ r1: .cfa -20 + ^ r2: .cfa -16 + ^ r3: .cfa -12 + ^ r4: .cfa -8 + ^
STACK CFI INIT 2ffac 10 .cfa: sp 0 + .ra: lr
STACK CFI 2ffb0 .cfa: sp 8 + .ra: .cfa -4 + ^ r3: .cfa -8 + ^
STACK CFI INIT 2ffbc 1c .cfa: sp 0 + .ra: lr
STACK CFI 2ffc0 .cfa: sp 8 + .ra: .cfa -4 + ^ r3: .cfa -8 + ^
STACK CFI INIT 2ffd8 8 .cfa: sp 0 + .ra: lr
STACK CFI 2ffdc .cfa: sp 8 + .ra: .cfa -4 + ^ r3: .cfa -8 + ^
STACK CFI INIT 2ffe0 8 .cfa: sp 0 + .ra: lr
STACK CFI 2ffe4 .cfa: sp 8 + .ra: .cfa -4 + ^ r3: .cfa -8 + ^
STACK CFI INIT 2ffe8 498 .cfa: sp 0 + .ra: lr
STACK CFI 2fff0 .cfa: sp 36 + .ra: .cfa -4 + ^ r10: .cfa -12 + ^ r11: .cfa -8 + ^ r4: .cfa -36 + ^ r5: .cfa -32 + ^ r6: .cfa -28 + ^ r7: .cfa -24 + ^ r8: .cfa -20 + ^ r9: .cfa -16 + ^
STACK CFI 2fff8 .cfa: sp 56 +
STACK CFI INIT 30480 404 .cfa: sp 0 + .ra: lr
STACK CFI 30488 .cfa: sp 48 + .ra: .cfa -4 + ^ r0: .cfa -48 + ^ r1: .cfa -44 + ^ r10: .cfa -12 + ^ r11: .cfa -8 + ^ r2: .cfa -40 + ^ r4: .cfa -36 + ^ r5: .cfa -32 + ^ r6: .cfa -28 + ^ r7: .cfa -24 + ^ r8: .cfa -20 + ^ r9: .cfa -16 + ^
