MODULE Linux arm A985E163376C37F17E276912D121DF740 libexif-arm.so
FUNC 44b8 5c 0 _GLOBAL__sub_I_eh_globals.cc
FUNC 4514 18 0 _GLOBAL__sub_I_eh_alloc.cc
FUNC 4560 b4 0 process_jpeg
FUNC 4618 28 0 CExifParse::CExifParse
FUNC 4640 1c 0 CExifParse::Get16
FUNC 465c 38 0 CExifParse::Get32
FUNC 4694 17c 0 CExifParse::ConvertAnyFormat
FUNC 4810 144 0 CExifParse::GetLatLong
FUNC 4954 2b8 0 CExifParse::ProcessGpsInfo
FUNC 4c0c c6c 0 CExifParse::ProcessDir
FUNC 5878 220 0 CExifParse::Process
FUNC 5a98 550 0 CIptcParse::Process
FUNC 5fe8 3c 0 CJpegParse::CJpegParse
FUNC 6024 4c 0 CJpegParse::ProcessSOFn
FUNC 6070 24 0 CJpegParse::ReleaseSection
FUNC 6094 bc 0 CJpegParse::GetSection
FUNC 6150 364 0 CJpegParse::ExtractInfo
FUNC 64b4 74 0 CJpegParse::Process
FUNC 6528 4 0 __wrap_dlopen
FUNC 652c 4 0 __wrap_popen
FUNC 6530 4 0 __wrap_calloc
FUNC 6534 4 0 __wrap_malloc
FUNC 6538 4 0 __wrap_realloc
FUNC 653c 4 0 __wrap_free
FUNC 6540 1c 0 __wrap_open
FUNC 655c 1c 0 __wrap_open64
FUNC 6578 4 0 __wrap_close
FUNC 657c 4 0 __wrap_write
FUNC 6580 4 0 __wrap_read
FUNC 6584 4 0 __wrap_lseek
FUNC 6588 4 0 __wrap_lseek64
FUNC 658c 4 0 __wrap_fclose
FUNC 6590 4 0 __wrap_ferror
FUNC 6594 4 0 __wrap_clearerr
FUNC 6598 4 0 __wrap_feof
FUNC 659c 4 0 __wrap_fileno
FUNC 65a0 4 0 __wrap_fopen
FUNC 65a4 4 0 __wrap_fopen64
FUNC 65a8 4 0 __wrap_fdopen
FUNC 65ac 4 0 __wrap_freopen
FUNC 65b0 4 0 __wrap_fread
FUNC 65b4 4 0 __wrap_fwrite
FUNC 65b8 4 0 __wrap_fflush
FUNC 65bc 4 0 __wrap_fputc
FUNC 65c0 4 0 __wrap_fputs
FUNC 65c4 4 0 __wrap__IO_putc
FUNC 65c8 4 0 __wrap_fseek
FUNC 65cc 4 0 __wrap_fseeko64
FUNC 65d0 4 0 __wrap_ftell
FUNC 65d4 4 0 __wrap_ftello64
FUNC 65d8 4 0 __wrap_rewind
FUNC 65dc 4 0 __wrap_fgetpos
FUNC 65e0 4 0 __wrap_fgetpos64
FUNC 65e4 4 0 __wrap_fsetpos
FUNC 65e8 4 0 __wrap_fsetpos64
FUNC 65ec 4 0 __wrap_opendir
FUNC 65f0 4 0 __wrap_readdir
FUNC 65f4 4 0 __wrap_readdir64
FUNC 65f8 4 0 __wrap_closedir
FUNC 65fc 4 0 __wrap_rewinddir
FUNC 6600 30 0 __wrap_fprintf
FUNC 6630 4 0 __wrap_vfprintf
FUNC 6634 40 0 __wrap_printf
FUNC 6674 4 0 __wrap_fgetc
FUNC 6678 4 0 __wrap_fgets
FUNC 667c 4 0 __wrap__IO_getc
FUNC 6680 4 0 __wrap__IO_getc_unlocked
FUNC 6684 4 0 __wrap_getc_unlocked
FUNC 6688 4 0 __wrap_ungetc
FUNC 668c 4 0 __wrap_getc
FUNC 6690 30 0 __wrap_ioctl
FUNC 66c0 4 0 __wrap__stat
FUNC 66c4 4 0 __wrap_stat
FUNC 66c8 c 0 __wrap___xstat64
FUNC 66d4 c 0 __wrap___lxstat64
FUNC 66e0 4 0 __wrap_flockfile
FUNC 66e4 4 0 __wrap_ftrylockfile
FUNC 66e8 4 0 __wrap_funlockfile
FUNC 66ec c 0 __wrap___fxstat64
FUNC 66f8 4 0 __wrap_fstat
FUNC 66fc 4 0 __wrap_setvbuf
FUNC 6700 4 0 __wrap_getmntent
FUNC 6704 4 0 operator delete []
FUNC 6708 c 0 operator delete
FUNC 6714 1c 0 operator new []
FUNC 6730 10 0 std::bad_alloc::what
FUNC 6740 28 0 std::bad_alloc::~bad_alloc
FUNC 6768 1c 0 std::bad_alloc::~bad_alloc
FUNC 6784 44 0 read_sleb128
FUNC 67c8 11c 0 read_encoded_value_with_base
FUNC 68e4 74 0 base_of_encoded_value
FUNC 6958 e0 0 parse_lsda_header
FUNC 6a38 668 0 __cxxabiv1::__gxx_personality_v0
FUNC 70a0 8 0 __cxxabiv1::__cxa_get_exception_ptr
FUNC 70a8 e0 0 __cxxabiv1::__cxa_begin_catch
FUNC 7188 d8 0 __cxxabiv1::__cxa_end_catch
FUNC 7260 18 0 std::uncaught_exception
FUNC 7278 a4 0 operator new
FUNC 731c 70 0 __cxxabiv1::__is_gxx_exception_class
FUNC 738c 2c 0 __cxa_call_terminate
FUNC 73b8 168 0 __cxa_call_unexpected
FUNC 7520 34 0 __eh_globals_init::~__eh_globals_init
FUNC 7554 3c 0 eh_globals_dtor
FUNC 7590 48 0 __cxxabiv1::__cxa_get_globals_fast
FUNC 75d8 90 0 __cxxabiv1::__cxa_get_globals
FUNC 7668 28 0 __cxxabiv1::__si_class_type_info::~__si_class_type_info
FUNC 7690 1c 0 __cxxabiv1::__si_class_type_info::~__si_class_type_info
FUNC 76ac 64 0 __cxxabiv1::__si_class_type_info::__do_find_public_src
FUNC 7710 e0 0 __cxxabiv1::__si_class_type_info::__do_dyncast
FUNC 77f0 40 0 __cxxabiv1::__si_class_type_info::__do_upcast
FUNC 7830 5c 0 __cxxabiv1::__class_type_info::__do_upcast
FUNC 788c 14 0 __cxxabiv1::__class_type_info::__do_find_public_src
FUNC 78a0 28 0 __cxxabiv1::__class_type_info::~__class_type_info
FUNC 78c8 1c 0 __cxxabiv1::__class_type_info::~__class_type_info
FUNC 78e4 2c 0 __cxxabiv1::__class_type_info::__do_upcast
FUNC 7910 44 0 __cxxabiv1::__class_type_info::__do_catch
FUNC 7954 78 0 __cxxabiv1::__class_type_info::__do_dyncast
FUNC 79cc 60 0 __gxx_exception_cleanup
FUNC 7a2c b8 0 __cxxabiv1::__cxa_throw
FUNC 7ae4 b0 0 __cxxabiv1::__cxa_rethrow
FUNC 7b94 18 0 std::exception::~exception
FUNC 7bac 28 0 std::bad_exception::~bad_exception
FUNC 7bd4 18 0 __cxxabiv1::__forced_unwind::~__forced_unwind
FUNC 7bec 18 0 __cxxabiv1::__foreign_exception::~__foreign_exception
FUNC 7c04 10 0 std::exception::what
FUNC 7c14 10 0 std::bad_exception::what
FUNC 7c24 1c 0 std::exception::~exception
FUNC 7c40 1c 0 std::bad_exception::~bad_exception
FUNC 7c5c 1c 0 __cxxabiv1::__forced_unwind::~__forced_unwind
FUNC 7c78 1c 0 __cxxabiv1::__foreign_exception::~__foreign_exception
FUNC 7ca4 144 0 __cxa_type_match
FUNC 7de8 b4 0 __cxa_begin_cleanup
FUNC 7e9c b4 0 __gnu_end_cleanup
FUNC 7f50 34 0 __cxxabiv1::__terminate
FUNC 7f84 18 0 std::terminate
FUNC 7f9c c 0 __cxxabiv1::__unexpected
FUNC 7fa8 18 0 std::unexpected
FUNC 7fc0 1c 0 std::set_terminate
FUNC 7fdc 1c 0 std::set_unexpected
FUNC 7ff8 10 0 __gnu_cxx::__concurrence_lock_error::what
FUNC 8008 10 0 __gnu_cxx::__concurrence_unlock_error::what
FUNC 8018 28 0 __gnu_cxx::__concurrence_unlock_error::~__concurrence_unlock_error
FUNC 8040 28 0 __gnu_cxx::__concurrence_lock_error::~__concurrence_lock_error
FUNC 8068 30 0 __gnu_cxx::__concurrence_unlock_error::~__concurrence_unlock_error
FUNC 8098 30 0 __gnu_cxx::__concurrence_lock_error::~__concurrence_lock_error
FUNC 80c8 3c 0 __gnu_cxx::__throw_concurrence_lock_error
FUNC 8104 3c 0 __gnu_cxx::__throw_concurrence_unlock_error
FUNC 8140 e0 0 __cxxabiv1::__cxa_allocate_exception
FUNC 8220 a0 0 __cxxabiv1::__cxa_free_exception
FUNC 82c0 dc 0 __cxxabiv1::__cxa_allocate_dependent_exception
FUNC 839c a8 0 __cxxabiv1::__cxa_free_dependent_exception
FUNC 8444 10 0 __aeabiv1::__aeabi_atexit
FUNC 8454 1c 0 std::set_new_handler
FUNC 8470 20 0 __cxxabiv1::__cxa_pure_virtual
FUNC 8490 20 0 __cxxabiv1::__cxa_deleted_virtual
FUNC 84b0 18 0 std::type_info::~type_info
FUNC 84c8 8 0 std::type_info::__is_pointer_p
FUNC 84d0 8 0 std::type_info::__is_function_p
FUNC 84d8 8 0 std::type_info::__do_upcast
FUNC 84e0 28 0 std::type_info::~type_info
FUNC 8508 4c 0 std::type_info::operator==
FUNC 8554 4 0 std::type_info::__do_catch
FUNC 8558 1b4 0 __gnu_cxx::__verbose_terminate_handler
FUNC 870c 1d0 0 d_make_comp
FUNC 88dc 6c 0 d_make_name
FUNC 8948 13c 0 d_cv_qualifiers
FUNC 8a84 58 0 d_ref_qualifier
FUNC 8adc f4 0 d_clone_suffix
FUNC 8bd0 244 0 d_substitution
FUNC 8e14 5c 0 d_append_char
FUNC 8e70 7c 0 d_number
FUNC 8eec 60 0 d_number_component
FUNC 8f4c 54 0 d_compact_number
FUNC 8fa0 80 0 d_template_param
FUNC 9020 34 0 d_discriminator
FUNC 9054 f8 0 d_source_name
FUNC 914c 9c 0 d_call_offset
FUNC 91e8 88 0 d_lookup_template_argument
FUNC 9270 19c 0 d_find_pack
FUNC 940c cc 0 d_growable_string_callback_adapter
FUNC 94d8 158 0 d_expr_primary
FUNC 9630 170 0 d_template_args
FUNC 97a0 4b0 0 d_name
FUNC 9c50 b88 0 d_type
FUNC a7d8 108 0 d_parmlist
FUNC a8e0 68 0 d_bare_function_type
FUNC a948 874 0 d_encoding
FUNC b1bc 194 0 d_operator_name
FUNC b350 468 0 d_unqualified_name
FUNC b7b8 61c 0 d_expression
FUNC bdd4 ac 0 d_exprlist
FUNC be80 84 0 d_append_string
FUNC bf04 3554 0 d_print_comp
FUNC f458 20 0 d_print_comp
FUNC f478 778 0 d_print_mod
FUNC fbf0 398 0 d_print_mod_list
FUNC ff88 264 0 d_print_array_type
FUNC 101ec 2d8 0 d_print_function_type
FUNC 104c4 238 0 d_print_cast
FUNC 106fc a4 0 d_print_expr_op
FUNC 107a0 110 0 d_print_subexpr
FUNC 108b0 31c 0 d_demangle_callback
FUNC 10bcc 14c 0 __cxa_demangle
FUNC 10d18 2c 0 __gcclibcxx_demangle_callback
FUNC 10d44 2c 0 __cxxabiv1::__cxa_current_exception_type
FUNC 10d70 18 0 selfrel_offset31
FUNC 10d88 ac 0 search_EIT_table
FUNC 10e34 50 0 __gnu_unwind_get_pr_addr
FUNC 10e84 10c 0 get_eit_entry
FUNC 10f90 6c 0 restore_non_core_regs
FUNC 10ffc 14 0 _Unwind_decode_typeinfo_ptr
FUNC 11010 8 0 __gnu_unwind_24bit
FUNC 11018 4 0 _Unwind_DebugHook
FUNC 1101c 64 0 unwind_phase2
FUNC 11080 124 0 unwind_phase2_forced
FUNC 111a4 8 0 _Unwind_GetCFA
FUNC 111ac a4 0 __gnu_Unwind_RaiseException
FUNC 11250 1c 0 __gnu_Unwind_ForcedUnwind
FUNC 1126c 74 0 __gnu_Unwind_Resume
FUNC 112e0 20 0 __gnu_Unwind_Resume_or_Rethrow
FUNC 11300 4 0 _Unwind_Complete
FUNC 11304 20 0 _Unwind_DeleteException
FUNC 11324 5c 0 _Unwind_VRS_Get
FUNC 11380 28 0 _Unwind_GetGR
FUNC 113a8 5c 0 _Unwind_VRS_Set
FUNC 11404 2c 0 _Unwind_SetGR
FUNC 11430 c4 0 __gnu_Unwind_Backtrace
FUNC 114f4 3f0 0 __gnu_unwind_pr_common
FUNC 118e4 8 0 __aeabi_unwind_cpp_pr0
FUNC 118ec 8 0 __aeabi_unwind_cpp_pr1
FUNC 118f4 8 0 __aeabi_unwind_cpp_pr2
FUNC 118fc 34c 0 _Unwind_VRS_Pop
FUNC 11df0 60 0 next_unwind_byte
FUNC 11e50 28 0 _Unwind_GetGR
FUNC 11e78 4 0 unwind_UCB_from_context
FUNC 11e7c 37c 0 __gnu_unwind_execute
FUNC 121f8 40 0 __gnu_unwind_frame
FUNC 12238 10 0 _Unwind_GetRegionStart
FUNC 12248 1c 0 _Unwind_GetLanguageSpecificData
FUNC 12264 8 0 _Unwind_GetDataRelBase
FUNC 1226c 8 0 _Unwind_GetTextRelBase
PUBLIC 4560 0 process_jpeg
PUBLIC 4618 0 CExifParse::CExifParse()
PUBLIC 4640 0 CExifParse::Get16(void const*, bool)
PUBLIC 465c 0 CExifParse::Get32(void const*, bool)
PUBLIC 4694 0 CExifParse::ConvertAnyFormat(void const*, int)
PUBLIC 4810 0 CExifParse::GetLatLong(unsigned int, unsigned char const*, int, char*)
PUBLIC 4954 0 CExifParse::ProcessGpsInfo(unsigned char const*, int, unsigned char const*, unsigned int)
PUBLIC 4c0c 0 CExifParse::ProcessDir(unsigned char const*, unsigned char const*, unsigned int, int)
PUBLIC 5878 0 CExifParse::Process(unsigned char const*, unsigned short, ExifInfo_t*)
PUBLIC 5a98 0 CIptcParse::Process(unsigned char const*, unsigned short, IPTCInfo_t*)
PUBLIC 5fe8 0 CJpegParse::CJpegParse()
PUBLIC 6024 0 CJpegParse::ProcessSOFn()
PUBLIC 6070 0 CJpegParse::ReleaseSection()
PUBLIC 6094 0 CJpegParse::GetSection(__sFILE*, unsigned short)
PUBLIC 6150 0 CJpegParse::ExtractInfo(__sFILE*)
PUBLIC 64b4 0 CJpegParse::Process(char const*)
PUBLIC 6528 0 __wrap_dlopen
PUBLIC 652c 0 __wrap_popen
PUBLIC 6530 0 __wrap_calloc
PUBLIC 6534 0 __wrap_malloc
PUBLIC 6538 0 __wrap_realloc
PUBLIC 653c 0 __wrap_free
PUBLIC 6540 0 __wrap_open
PUBLIC 655c 0 __wrap_open64
PUBLIC 6578 0 __wrap_close
PUBLIC 657c 0 __wrap_write
PUBLIC 6580 0 __wrap_read
PUBLIC 6584 0 __wrap_lseek
PUBLIC 6588 0 __wrap_lseek64
PUBLIC 658c 0 __wrap_fclose
PUBLIC 6590 0 __wrap_ferror
PUBLIC 6594 0 __wrap_clearerr
PUBLIC 6598 0 __wrap_feof
PUBLIC 659c 0 __wrap_fileno
PUBLIC 65a0 0 __wrap_fopen
PUBLIC 65a4 0 __wrap_fopen64
PUBLIC 65a8 0 __wrap_fdopen
PUBLIC 65ac 0 __wrap_freopen
PUBLIC 65b0 0 __wrap_fread
PUBLIC 65b4 0 __wrap_fwrite
PUBLIC 65b8 0 __wrap_fflush
PUBLIC 65bc 0 __wrap_fputc
PUBLIC 65c0 0 __wrap_fputs
PUBLIC 65c4 0 __wrap__IO_putc
PUBLIC 65c8 0 __wrap_fseek
PUBLIC 65cc 0 __wrap_fseeko64
PUBLIC 65d0 0 __wrap_ftell
PUBLIC 65d4 0 __wrap_ftello64
PUBLIC 65d8 0 __wrap_rewind
PUBLIC 65dc 0 __wrap_fgetpos
PUBLIC 65e0 0 __wrap_fgetpos64
PUBLIC 65e4 0 __wrap_fsetpos
PUBLIC 65e8 0 __wrap_fsetpos64
PUBLIC 65ec 0 __wrap_opendir
PUBLIC 65f0 0 __wrap_readdir
PUBLIC 65f4 0 __wrap_readdir64
PUBLIC 65f8 0 __wrap_closedir
PUBLIC 65fc 0 __wrap_rewinddir
PUBLIC 6600 0 __wrap_fprintf
PUBLIC 6630 0 __wrap_vfprintf
PUBLIC 6634 0 __wrap_printf
PUBLIC 6674 0 __wrap_fgetc
PUBLIC 6678 0 __wrap_fgets
PUBLIC 667c 0 __wrap__IO_getc
PUBLIC 6680 0 __wrap__IO_getc_unlocked
PUBLIC 6684 0 __wrap_getc_unlocked
PUBLIC 6688 0 __wrap_ungetc
PUBLIC 668c 0 __wrap_getc
PUBLIC 6690 0 __wrap_ioctl
PUBLIC 66c0 0 __wrap__stat
PUBLIC 66c4 0 __wrap_stat
PUBLIC 66c8 0 __wrap___xstat64
PUBLIC 66d4 0 __wrap___lxstat64
PUBLIC 66e0 0 __wrap_flockfile
PUBLIC 66e4 0 __wrap_ftrylockfile
PUBLIC 66e8 0 __wrap_funlockfile
PUBLIC 66ec 0 __wrap___fxstat64
PUBLIC 66f8 0 __wrap_fstat
PUBLIC 66fc 0 __wrap_setvbuf
PUBLIC 6700 0 __wrap_getmntent
PUBLIC 6704 0 operator delete[](void*)
PUBLIC 6708 0 operator delete(void*)
PUBLIC 6714 0 operator new[](unsigned int)
PUBLIC 6730 0 std::bad_alloc::what() const
PUBLIC 6740 0 std::bad_alloc::~bad_alloc()
PUBLIC 6768 0 std::bad_alloc::~bad_alloc()
PUBLIC 70a0 0 __cxa_get_exception_ptr
PUBLIC 70a8 0 __cxa_begin_catch
PUBLIC 7188 0 __cxa_end_catch
PUBLIC 7260 0 std::uncaught_exception()
PUBLIC 7278 0 operator new(unsigned int)
PUBLIC 73b8 0 __cxa_call_unexpected
PUBLIC 7590 0 __cxa_get_globals_fast
PUBLIC 75d8 0 __cxa_get_globals
PUBLIC 7668 0 __cxxabiv1::__si_class_type_info::~__si_class_type_info()
PUBLIC 7690 0 __cxxabiv1::__si_class_type_info::~__si_class_type_info()
PUBLIC 76ac 0 __cxxabiv1::__si_class_type_info::__do_find_public_src(int, void const*, __cxxabiv1::__class_type_info const*, void const*) const
PUBLIC 7710 0 __cxxabiv1::__si_class_type_info::__do_dyncast(int, __cxxabiv1::__class_type_info::__sub_kind, __cxxabiv1::__class_type_info const*, void const*, __cxxabiv1::__class_type_info const*, void const*, __cxxabiv1::__class_type_info::__dyncast_result&) const
PUBLIC 77f0 0 __cxxabiv1::__si_class_type_info::__do_upcast(__cxxabiv1::__class_type_info const*, void const*, __cxxabiv1::__class_type_info::__upcast_result&) const
PUBLIC 7830 0 __cxxabiv1::__class_type_info::__do_upcast(__cxxabiv1::__class_type_info const*, void**) const
PUBLIC 788c 0 __cxxabiv1::__class_type_info::__do_find_public_src(int, void const*, __cxxabiv1::__class_type_info const*, void const*) const
PUBLIC 78a0 0 __cxxabiv1::__class_type_info::~__class_type_info()
PUBLIC 78c8 0 __cxxabiv1::__class_type_info::~__class_type_info()
PUBLIC 78e4 0 __cxxabiv1::__class_type_info::__do_upcast(__cxxabiv1::__class_type_info const*, void const*, __cxxabiv1::__class_type_info::__upcast_result&) const
PUBLIC 7910 0 __cxxabiv1::__class_type_info::__do_catch(std::type_info const*, void**, unsigned int) const
PUBLIC 7954 0 __cxxabiv1::__class_type_info::__do_dyncast(int, __cxxabiv1::__class_type_info::__sub_kind, __cxxabiv1::__class_type_info const*, void const*, __cxxabiv1::__class_type_info const*, void const*, __cxxabiv1::__class_type_info::__dyncast_result&) const
PUBLIC 7a2c 0 __cxa_throw
PUBLIC 7ae4 0 __cxa_rethrow
PUBLIC 7b94 0 std::exception::~exception()
PUBLIC 7bac 0 std::bad_exception::~bad_exception()
PUBLIC 7bd4 0 __cxxabiv1::__forced_unwind::~__forced_unwind()
PUBLIC 7bec 0 __cxxabiv1::__foreign_exception::~__foreign_exception()
PUBLIC 7c04 0 std::exception::what() const
PUBLIC 7c14 0 std::bad_exception::what() const
PUBLIC 7c24 0 std::exception::~exception()
PUBLIC 7c40 0 std::bad_exception::~bad_exception()
PUBLIC 7c5c 0 __cxxabiv1::__forced_unwind::~__forced_unwind()
PUBLIC 7c78 0 __cxxabiv1::__foreign_exception::~__foreign_exception()
PUBLIC 7c94 0 __cxa_end_cleanup
PUBLIC 7ca4 0 __cxa_type_match
PUBLIC 7de8 0 __cxa_begin_cleanup
PUBLIC 7e9c 0 __gnu_end_cleanup
PUBLIC 7f50 0 __cxxabiv1::__terminate(void (*)())
PUBLIC 7f84 0 std::terminate()
PUBLIC 7f9c 0 __cxxabiv1::__unexpected(void (*)())
PUBLIC 7fa8 0 std::unexpected()
PUBLIC 7fc0 0 std::set_terminate(void (*)())
PUBLIC 7fdc 0 std::set_unexpected(void (*)())
PUBLIC 8140 0 __cxa_allocate_exception
PUBLIC 8220 0 __cxa_free_exception
PUBLIC 82c0 0 __cxa_allocate_dependent_exception
PUBLIC 839c 0 __cxa_free_dependent_exception
PUBLIC 8454 0 std::set_new_handler(void (*)())
PUBLIC 8470 0 __cxa_pure_virtual
PUBLIC 8490 0 __cxa_deleted_virtual
PUBLIC 8558 0 __gnu_cxx::__verbose_terminate_handler()
PUBLIC 10bcc 0 __cxa_demangle
PUBLIC 10d18 0 __gcclibcxx_demangle_callback
PUBLIC 10d44 0 __cxa_current_exception_type
PUBLIC 111a4 0 _Unwind_GetCFA
PUBLIC 111ac 0 __gnu_Unwind_RaiseException
PUBLIC 11250 0 __gnu_Unwind_ForcedUnwind
PUBLIC 1126c 0 __gnu_Unwind_Resume
PUBLIC 112e0 0 __gnu_Unwind_Resume_or_Rethrow
PUBLIC 11300 0 _Unwind_Complete
PUBLIC 11304 0 _Unwind_DeleteException
PUBLIC 11324 0 _Unwind_VRS_Get
PUBLIC 113a8 0 _Unwind_VRS_Set
PUBLIC 11430 0 __gnu_Unwind_Backtrace
PUBLIC 118e4 0 __aeabi_unwind_cpp_pr0
PUBLIC 118ec 0 __aeabi_unwind_cpp_pr1
PUBLIC 118f4 0 __aeabi_unwind_cpp_pr2
PUBLIC 118fc 0 _Unwind_VRS_Pop
PUBLIC 11c48 0 restore_core_regs
PUBLIC 11c5c 0 __gnu_Unwind_Restore_VFP
PUBLIC 11c64 0 __gnu_Unwind_Save_VFP
PUBLIC 11c6c 0 __gnu_Unwind_Restore_VFP_D
PUBLIC 11c74 0 __gnu_Unwind_Save_VFP_D
PUBLIC 11c7c 0 __gnu_Unwind_Restore_VFP_D_16_to_31
PUBLIC 11c84 0 __gnu_Unwind_Save_VFP_D_16_to_31
PUBLIC 11c8c 0 __gnu_Unwind_Restore_WMMXD
PUBLIC 11cd0 0 __gnu_Unwind_Save_WMMXD
PUBLIC 11d14 0 __gnu_Unwind_Restore_WMMXC
PUBLIC 11d28 0 __gnu_Unwind_Save_WMMXC
PUBLIC 11d3c 0 _Unwind_RaiseException
PUBLIC 11d60 0 _Unwind_Resume
PUBLIC 11d84 0 _Unwind_Resume_or_Rethrow
PUBLIC 11da8 0 ___Unwind_ForcedUnwind
PUBLIC 11dcc 0 ___Unwind_Backtrace
PUBLIC 11e7c 0 __gnu_unwind_execute
PUBLIC 121f8 0 __gnu_unwind_frame
PUBLIC 12238 0 _Unwind_GetRegionStart
PUBLIC 12248 0 _Unwind_GetLanguageSpecificData
PUBLIC 12264 0 _Unwind_GetDataRelBase
PUBLIC 1226c 0 _Unwind_GetTextRelBase
STACK CFI INIT 4560 b4 .cfa: sp 0 + .ra: lr
STACK CFI 4564 .cfa: sp 24 + .ra: .cfa -4 + ^ r4: .cfa -24 + ^ r5: .cfa -20 + ^ r6: .cfa -16 + ^ r7: .cfa -12 + ^ r8: .cfa -8 + ^
STACK CFI 4570 .cfa: sp 266264 +
STACK CFI 4578 .cfa: sp 268888 +
STACK CFI 4580 .cfa: sp 268896 +
STACK CFI INIT 4618 28 .cfa: sp 0 + .ra: lr
STACK CFI INIT 4640 1c .cfa: sp 0 + .ra: lr
STACK CFI INIT 465c 38 .cfa: sp 0 + .ra: lr
STACK CFI INIT 4694 17c .cfa: sp 0 + .ra: lr
STACK CFI 469c .cfa: sp 16 + .ra: .cfa -4 + ^ r4: .cfa -16 + ^ r5: .cfa -12 + ^ r6: .cfa -8 + ^
STACK CFI INIT 4810 144 .cfa: sp 0 + .ra: lr
STACK CFI 4818 .cfa: sp 24 + .ra: .cfa -4 + ^ r4: .cfa -24 + ^ r5: .cfa -20 + ^ r6: .cfa -16 + ^ r7: .cfa -12 + ^ r8: .cfa -8 + ^
STACK CFI 4820 .cfa: sp 96 +
STACK CFI INIT 4954 2b8 .cfa: sp 0 + .ra: lr
STACK CFI 4958 .cfa: sp 36 + .ra: .cfa -4 + ^ r10: .cfa -12 + ^ r11: .cfa -8 + ^ r4: .cfa -36 + ^ r5: .cfa -32 + ^ r6: .cfa -28 + ^ r7: .cfa -24 + ^ r8: .cfa -20 + ^ r9: .cfa -16 + ^
STACK CFI 4960 .cfa: sp 152 +
STACK CFI INIT 4c0c c6c .cfa: sp 0 + .ra: lr
STACK CFI 4c10 .cfa: sp 36 + .ra: .cfa -4 + ^ r10: .cfa -12 + ^ r11: .cfa -8 + ^ r4: .cfa -36 + ^ r5: .cfa -32 + ^ r6: .cfa -28 + ^ r7: .cfa -24 + ^ r8: .cfa -20 + ^ r9: .cfa -16 + ^
STACK CFI 4c18 .cfa: sp 60 + s16: .cfa -60 + ^ s18: .cfa -52 + ^ s20: .cfa -44 + ^
STACK CFI 4c1c .cfa: sp 192 +
STACK CFI INIT 5878 220 .cfa: sp 0 + .ra: lr
STACK CFI 587c .cfa: sp 24 + .ra: .cfa -4 + ^ r4: .cfa -24 + ^ r5: .cfa -20 + ^ r6: .cfa -16 + ^ r7: .cfa -12 + ^ r8: .cfa -8 + ^
STACK CFI 588c .cfa: sp 48 +
STACK CFI INIT 5a98 550 .cfa: sp 0 + .ra: lr
STACK CFI 5a9c .cfa: sp 36 + .ra: .cfa -4 + ^ r10: .cfa -12 + ^ r11: .cfa -8 + ^ r4: .cfa -36 + ^ r5: .cfa -32 + ^ r6: .cfa -28 + ^ r7: .cfa -24 + ^ r8: .cfa -20 + ^ r9: .cfa -16 + ^
STACK CFI 5aa4 .cfa: sp 88 +
STACK CFI INIT 5fe8 3c .cfa: sp 0 + .ra: lr
STACK CFI 5fec .cfa: sp 16 + .ra: .cfa -4 + ^ r3: .cfa -16 + ^ r4: .cfa -12 + ^ r5: .cfa -8 + ^
STACK CFI INIT 6024 4c .cfa: sp 0 + .ra: lr
STACK CFI 6028 .cfa: sp 8 + .ra: .cfa -4 + ^ r4: .cfa -8 + ^
STACK CFI INIT 6070 24 .cfa: sp 0 + .ra: lr
STACK CFI 6074 .cfa: sp 8 + .ra: .cfa -4 + ^ r4: .cfa -8 + ^
STACK CFI INIT 6094 bc .cfa: sp 0 + .ra: lr
STACK CFI 609c .cfa: sp 24 + .ra: .cfa -4 + ^ r4: .cfa -24 + ^ r5: .cfa -20 + ^ r6: .cfa -16 + ^ r7: .cfa -12 + ^ r8: .cfa -8 + ^
STACK CFI INIT 6150 364 .cfa: sp 0 + .ra: lr
STACK CFI 6154 .cfa: sp 36 + .ra: .cfa -4 + ^ r10: .cfa -12 + ^ r11: .cfa -8 + ^ r4: .cfa -36 + ^ r5: .cfa -32 + ^ r6: .cfa -28 + ^ r7: .cfa -24 + ^ r8: .cfa -20 + ^ r9: .cfa -16 + ^
STACK CFI 615c .cfa: sp 104 +
STACK CFI INIT 64b4 74 .cfa: sp 0 + .ra: lr
STACK CFI 64b8 .cfa: sp 16 + .ra: .cfa -4 + ^ r4: .cfa -16 + ^ r5: .cfa -12 + ^ r6: .cfa -8 + ^
STACK CFI INIT 6528 4 .cfa: sp 0 + .ra: lr
STACK CFI INIT 652c 4 .cfa: sp 0 + .ra: lr
STACK CFI INIT 6530 4 .cfa: sp 0 + .ra: lr
STACK CFI INIT 6534 4 .cfa: sp 0 + .ra: lr
STACK CFI INIT 6538 4 .cfa: sp 0 + .ra: lr
STACK CFI INIT 653c 4 .cfa: sp 0 + .ra: lr
STACK CFI INIT 6540 1c .cfa: sp 0 + .ra: lr
STACK CFI 6544 .cfa: sp 12 + r1: .cfa -12 + ^ r2: .cfa -8 + ^ r3: .cfa -4 + ^
STACK CFI 6548 .cfa: sp 16 + .ra: .cfa -16 + ^
STACK CFI INIT 655c 1c .cfa: sp 0 + .ra: lr
STACK CFI 6560 .cfa: sp 12 + r1: .cfa -12 + ^ r2: .cfa -8 + ^ r3: .cfa -4 + ^
STACK CFI 6564 .cfa: sp 16 + .ra: .cfa -16 + ^
STACK CFI INIT 6578 4 .cfa: sp 0 + .ra: lr
STACK CFI INIT 657c 4 .cfa: sp 0 + .ra: lr
STACK CFI INIT 6580 4 .cfa: sp 0 + .ra: lr
STACK CFI INIT 6584 4 .cfa: sp 0 + .ra: lr
STACK CFI INIT 6588 4 .cfa: sp 0 + .ra: lr
STACK CFI INIT 658c 4 .cfa: sp 0 + .ra: lr
STACK CFI INIT 6590 4 .cfa: sp 0 + .ra: lr
STACK CFI INIT 6594 4 .cfa: sp 0 + .ra: lr
STACK CFI INIT 6598 4 .cfa: sp 0 + .ra: lr
STACK CFI INIT 659c 4 .cfa: sp 0 + .ra: lr
STACK CFI INIT 65a0 4 .cfa: sp 0 + .ra: lr
STACK CFI INIT 65a4 4 .cfa: sp 0 + .ra: lr
STACK CFI INIT 65a8 4 .cfa: sp 0 + .ra: lr
STACK CFI INIT 65ac 4 .cfa: sp 0 + .ra: lr
STACK CFI INIT 65b0 4 .cfa: sp 0 + .ra: lr
STACK CFI INIT 65b4 4 .cfa: sp 0 + .ra: lr
STACK CFI INIT 65b8 4 .cfa: sp 0 + .ra: lr
STACK CFI INIT 65bc 4 .cfa: sp 0 + .ra: lr
STACK CFI INIT 65c0 4 .cfa: sp 0 + .ra: lr
STACK CFI INIT 65c4 4 .cfa: sp 0 + .ra: lr
STACK CFI INIT 65c8 4 .cfa: sp 0 + .ra: lr
STACK CFI INIT 65cc 4 .cfa: sp 0 + .ra: lr
STACK CFI INIT 65d0 4 .cfa: sp 0 + .ra: lr
STACK CFI INIT 65d4 4 .cfa: sp 0 + .ra: lr
STACK CFI INIT 65d8 4 .cfa: sp 0 + .ra: lr
STACK CFI INIT 65dc 4 .cfa: sp 0 + .ra: lr
STACK CFI INIT 65e0 4 .cfa: sp 0 + .ra: lr
STACK CFI INIT 65e4 4 .cfa: sp 0 + .ra: lr
STACK CFI INIT 65e8 4 .cfa: sp 0 + .ra: lr
STACK CFI INIT 65ec 4 .cfa: sp 0 + .ra: lr
STACK CFI INIT 65f0 4 .cfa: sp 0 + .ra: lr
STACK CFI INIT 65f4 4 .cfa: sp 0 + .ra: lr
STACK CFI INIT 65f8 4 .cfa: sp 0 + .ra: lr
STACK CFI INIT 65fc 4 .cfa: sp 0 + .ra: lr
STACK CFI INIT 6600 30 .cfa: sp 0 + .ra: lr
STACK CFI 6604 .cfa: sp 12 + r1: .cfa -12 + ^ r2: .cfa -8 + ^ r3: .cfa -4 + ^
STACK CFI 6608 .cfa: sp 16 + .ra: .cfa -16 + ^
STACK CFI 660c .cfa: sp 24 +
STACK CFI INIT 6630 4 .cfa: sp 0 + .ra: lr
STACK CFI INIT 6634 40 .cfa: sp 0 + .ra: lr
STACK CFI 6638 .cfa: sp 16 + r0: .cfa -16 + ^ r1: .cfa -12 + ^ r2: .cfa -8 + ^ r3: .cfa -4 + ^
STACK CFI 6640 .cfa: sp 20 + .ra: .cfa -20 + ^
STACK CFI 6644 .cfa: sp 32 +
STACK CFI INIT 6674 4 .cfa: sp 0 + .ra: lr
STACK CFI INIT 6678 4 .cfa: sp 0 + .ra: lr
STACK CFI INIT 667c 4 .cfa: sp 0 + .ra: lr
STACK CFI INIT 6680 4 .cfa: sp 0 + .ra: lr
STACK CFI INIT 6684 4 .cfa: sp 0 + .ra: lr
STACK CFI INIT 6688 4 .cfa: sp 0 + .ra: lr
STACK CFI INIT 668c 4 .cfa: sp 0 + .ra: lr
STACK CFI INIT 6690 30 .cfa: sp 0 + .ra: lr
STACK CFI 6694 .cfa: sp 12 + r1: .cfa -12 + ^ r2: .cfa -8 + ^ r3: .cfa -4 + ^
STACK CFI 6698 .cfa: sp 16 + .ra: .cfa -16 + ^
STACK CFI 669c .cfa: sp 24 +
STACK CFI INIT 66c0 4 .cfa: sp 0 + .ra: lr
STACK CFI INIT 66c4 4 .cfa: sp 0 + .ra: lr
STACK CFI INIT 66c8 c .cfa: sp 0 + .ra: lr
STACK CFI INIT 66d4 c .cfa: sp 0 + .ra: lr
STACK CFI INIT 66e0 4 .cfa: sp 0 + .ra: lr
STACK CFI INIT 66e4 4 .cfa: sp 0 + .ra: lr
STACK CFI INIT 66e8 4 .cfa: sp 0 + .ra: lr
STACK CFI INIT 66ec c .cfa: sp 0 + .ra: lr
STACK CFI INIT 66f8 4 .cfa: sp 0 + .ra: lr
STACK CFI INIT 66fc 4 .cfa: sp 0 + .ra: lr
STACK CFI INIT 6700 4 .cfa: sp 0 + .ra: lr
STACK CFI INIT 6704 4 .cfa: sp 0 + .ra: lr
STACK CFI INIT 6708 c .cfa: sp 0 + .ra: lr
STACK CFI INIT 6714 1c .cfa: sp 0 + .ra: lr
STACK CFI 6718 .cfa: sp 8 + .ra: .cfa -4 + ^ r3: .cfa -8 + ^
STACK CFI INIT 6730 10 .cfa: sp 0 + .ra: lr
STACK CFI INIT 6740 28 .cfa: sp 0 + .ra: lr
STACK CFI 6748 .cfa: sp 8 + .ra: .cfa -4 + ^ r4: .cfa -8 + ^
STACK CFI INIT 6768 1c .cfa: sp 0 + .ra: lr
STACK CFI 676c .cfa: sp 8 + .ra: .cfa -4 + ^ r4: .cfa -8 + ^
STACK CFI INIT 6784 44 .cfa: sp 0 + .ra: lr
STACK CFI 6790 .cfa: sp 4 + r4: .cfa -4 + ^
STACK CFI INIT 67c8 11c .cfa: sp 0 + .ra: lr
STACK CFI 67d0 .cfa: sp 24 + .ra: .cfa -4 + ^ r4: .cfa -24 + ^ r5: .cfa -20 + ^ r6: .cfa -16 + ^ r7: .cfa -12 + ^ r8: .cfa -8 + ^
STACK CFI 67d8 .cfa: sp 40 +
STACK CFI INIT 68e4 74 .cfa: sp 0 + .ra: lr
STACK CFI 68ec .cfa: sp 8 + .ra: .cfa -4 + ^ r3: .cfa -8 + ^
STACK CFI INIT 6958 e0 .cfa: sp 0 + .ra: lr
STACK CFI 695c .cfa: sp 24 + .ra: .cfa -4 + ^ r3: .cfa -24 + ^ r4: .cfa -20 + ^ r5: .cfa -16 + ^ r6: .cfa -12 + ^ r7: .cfa -8 + ^
STACK CFI INIT 6a38 668 .cfa: sp 0 + .ra: lr
STACK CFI 6a40 .cfa: sp 36 + .ra: .cfa -4 + ^ r10: .cfa -12 + ^ r11: .cfa -8 + ^ r4: .cfa -36 + ^ r5: .cfa -32 + ^ r6: .cfa -28 + ^ r7: .cfa -24 + ^ r8: .cfa -20 + ^ r9: .cfa -16 + ^
STACK CFI 6a48 .cfa: sp 128 +
STACK CFI INIT 70a0 8 .cfa: sp 0 + .ra: lr
STACK CFI INIT 70a8 e0 .cfa: sp 0 + .ra: lr
STACK CFI 70ac .cfa: sp 8 + .ra: .cfa -4 + ^ r4: .cfa -8 + ^
STACK CFI INIT 7188 d8 .cfa: sp 0 + .ra: lr
STACK CFI 718c .cfa: sp 8 + .ra: .cfa -4 + ^ r3: .cfa -8 + ^
STACK CFI INIT 7260 18 .cfa: sp 0 + .ra: lr
STACK CFI 7264 .cfa: sp 8 + .ra: .cfa -4 + ^ r3: .cfa -8 + ^
STACK CFI INIT 7278 a4 .cfa: sp 0 + .ra: lr
STACK CFI 7280 .cfa: sp 16 + .ra: .cfa -4 + ^ r4: .cfa -16 + ^ r5: .cfa -12 + ^ r6: .cfa -8 + ^
STACK CFI INIT 731c 70 .cfa: sp 0 + .ra: lr
STACK CFI INIT 738c 2c .cfa: sp 0 + .ra: lr
STACK CFI 7390 .cfa: sp 8 + .ra: .cfa -4 + ^ r4: .cfa -8 + ^
STACK CFI INIT 73b8 168 .cfa: sp 0 + .ra: lr
STACK CFI 73bc .cfa: sp 36 + .ra: .cfa -4 + ^ r10: .cfa -12 + ^ r11: .cfa -8 + ^ r4: .cfa -36 + ^ r5: .cfa -32 + ^ r6: .cfa -28 + ^ r7: .cfa -24 + ^ r8: .cfa -20 + ^ r9: .cfa -16 + ^
STACK CFI 73c0 .cfa: sp 64 +
STACK CFI INIT 7520 34 .cfa: sp 0 + .ra: lr
STACK CFI 7524 .cfa: sp 8 + .ra: .cfa -4 + ^ r4: .cfa -8 + ^
STACK CFI INIT 7554 3c .cfa: sp 0 + .ra: lr
STACK CFI 7558 .cfa: sp 16 + .ra: .cfa -4 + ^ r3: .cfa -16 + ^ r4: .cfa -12 + ^ r5: .cfa -8 + ^
STACK CFI INIT 7590 48 .cfa: sp 0 + .ra: lr
STACK CFI 7594 .cfa: sp 8 + .ra: .cfa -4 + ^ r3: .cfa -8 + ^
STACK CFI INIT 75d8 90 .cfa: sp 0 + .ra: lr
STACK CFI 75e0 .cfa: sp 8 + .ra: .cfa -4 + ^ r4: .cfa -8 + ^
STACK CFI INIT 44b8 5c .cfa: sp 0 + .ra: lr
STACK CFI 44bc .cfa: sp 8 + .ra: .cfa -4 + ^ r4: .cfa -8 + ^
STACK CFI INIT 7668 28 .cfa: sp 0 + .ra: lr
STACK CFI 7670 .cfa: sp 8 + .ra: .cfa -4 + ^ r4: .cfa -8 + ^
STACK CFI INIT 7690 1c .cfa: sp 0 + .ra: lr
STACK CFI 7694 .cfa: sp 8 + .ra: .cfa -4 + ^ r4: .cfa -8 + ^
STACK CFI INIT 76ac 64 .cfa: sp 0 + .ra: lr
STACK CFI 76b0 .cfa: sp 16 + .ra: .cfa -4 + ^ r4: .cfa -16 + ^ r5: .cfa -12 + ^ r6: .cfa -8 + ^
STACK CFI 76b4 .cfa: sp 32 +
STACK CFI INIT 7710 e0 .cfa: sp 0 + .ra: lr
STACK CFI 7714 .cfa: sp 36 + .ra: .cfa -4 + ^ r10: .cfa -12 + ^ r11: .cfa -8 + ^ r4: .cfa -36 + ^ r5: .cfa -32 + ^ r6: .cfa -28 + ^ r7: .cfa -24 + ^ r8: .cfa -20 + ^ r9: .cfa -16 + ^
STACK CFI 7718 .cfa: sp 56 +
STACK CFI INIT 77f0 40 .cfa: sp 0 + .ra: lr
STACK CFI 77f4 .cfa: sp 24 + .ra: .cfa -4 + ^ r3: .cfa -24 + ^ r4: .cfa -20 + ^ r5: .cfa -16 + ^ r6: .cfa -12 + ^ r7: .cfa -8 + ^
STACK CFI INIT 7830 5c .cfa: sp 0 + .ra: lr
STACK CFI 7838 .cfa: sp 12 + .ra: .cfa -4 + ^ r4: .cfa -12 + ^ r5: .cfa -8 + ^
STACK CFI 783c .cfa: sp 32 +
STACK CFI INIT 788c 14 .cfa: sp 0 + .ra: lr
STACK CFI INIT 78a0 28 .cfa: sp 0 + .ra: lr
STACK CFI 78a8 .cfa: sp 8 + .ra: .cfa -4 + ^ r4: .cfa -8 + ^
STACK CFI INIT 78c8 1c .cfa: sp 0 + .ra: lr
STACK CFI 78cc .cfa: sp 8 + .ra: .cfa -4 + ^ r4: .cfa -8 + ^
STACK CFI INIT 78e4 2c .cfa: sp 0 + .ra: lr
STACK CFI 78e8 .cfa: sp 16 + .ra: .cfa -4 + ^ r3: .cfa -16 + ^ r4: .cfa -12 + ^ r5: .cfa -8 + ^
STACK CFI INIT 7910 44 .cfa: sp 0 + .ra: lr
STACK CFI 7914 .cfa: sp 24 + .ra: .cfa -4 + ^ r3: .cfa -24 + ^ r4: .cfa -20 + ^ r5: .cfa -16 + ^ r6: .cfa -12 + ^ r7: .cfa -8 + ^
STACK CFI INIT 7954 78 .cfa: sp 0 + .ra: lr
STACK CFI 7958 .cfa: sp 16 + .ra: .cfa -4 + ^ r4: .cfa -16 + ^ r5: .cfa -12 + ^ r6: .cfa -8 + ^
STACK CFI 795c .cfa: sp 24 +
STACK CFI INIT 79cc 60 .cfa: sp 0 + .ra: lr
STACK CFI 79d4 .cfa: sp 8 + .ra: .cfa -4 + ^ r4: .cfa -8 + ^
STACK CFI INIT 7a2c b8 .cfa: sp 0 + .ra: lr
STACK CFI 7a30 .cfa: sp 32 + .ra: .cfa -4 + ^ r3: .cfa -32 + ^ r4: .cfa -28 + ^ r5: .cfa -24 + ^ r6: .cfa -20 + ^ r7: .cfa -16 + ^ r8: .cfa -12 + ^ r9: .cfa -8 + ^
STACK CFI INIT 7ae4 b0 .cfa: sp 0 + .ra: lr
STACK CFI 7ae8 .cfa: sp 8 + .ra: .cfa -4 + ^ r4: .cfa -8 + ^
STACK CFI INIT 7b94 18 .cfa: sp 0 + .ra: lr
STACK CFI INIT 7bac 28 .cfa: sp 0 + .ra: lr
STACK CFI 7bb4 .cfa: sp 8 + .ra: .cfa -4 + ^ r4: .cfa -8 + ^
STACK CFI INIT 7bd4 18 .cfa: sp 0 + .ra: lr
STACK CFI INIT 7bec 18 .cfa: sp 0 + .ra: lr
STACK CFI INIT 7c04 10 .cfa: sp 0 + .ra: lr
STACK CFI INIT 7c14 10 .cfa: sp 0 + .ra: lr
STACK CFI INIT 7c24 1c .cfa: sp 0 + .ra: lr
STACK CFI 7c28 .cfa: sp 8 + .ra: .cfa -4 + ^ r4: .cfa -8 + ^
STACK CFI INIT 7c40 1c .cfa: sp 0 + .ra: lr
STACK CFI 7c44 .cfa: sp 8 + .ra: .cfa -4 + ^ r4: .cfa -8 + ^
STACK CFI INIT 7c5c 1c .cfa: sp 0 + .ra: lr
STACK CFI 7c60 .cfa: sp 8 + .ra: .cfa -4 + ^ r4: .cfa -8 + ^
STACK CFI INIT 7c78 1c .cfa: sp 0 + .ra: lr
STACK CFI 7c7c .cfa: sp 8 + .ra: .cfa -4 + ^ r4: .cfa -8 + ^
STACK CFI INIT 7ca4 144 .cfa: sp 0 + .ra: lr
STACK CFI 7ca8 .cfa: sp 20 + .ra: .cfa -4 + ^ r4: .cfa -20 + ^ r5: .cfa -16 + ^ r6: .cfa -12 + ^ r7: .cfa -8 + ^
STACK CFI 7cb4 .cfa: sp 32 +
STACK CFI INIT 7de8 b4 .cfa: sp 0 + .ra: lr
STACK CFI 7dec .cfa: sp 8 + .ra: .cfa -4 + ^ r4: .cfa -8 + ^
STACK CFI INIT 7e9c b4 .cfa: sp 0 + .ra: lr
STACK CFI 7ea0 .cfa: sp 8 + .ra: .cfa -4 + ^ r3: .cfa -8 + ^
STACK CFI INIT 7f50 34 .cfa: sp 0 + .ra: lr
STACK CFI 7f54 .cfa: sp 8 + .ra: .cfa -4 + ^ r3: .cfa -8 + ^
STACK CFI INIT 7f84 18 .cfa: sp 0 + .ra: lr
STACK CFI 7f88 .cfa: sp 8 + .ra: .cfa -4 + ^ r3: .cfa -8 + ^
STACK CFI INIT 7f9c c .cfa: sp 0 + .ra: lr
STACK CFI 7fa0 .cfa: sp 8 + .ra: .cfa -4 + ^ r3: .cfa -8 + ^
STACK CFI INIT 7fa8 18 .cfa: sp 0 + .ra: lr
STACK CFI 7fac .cfa: sp 8 + .ra: .cfa -4 + ^ r3: .cfa -8 + ^
STACK CFI INIT 7fc0 1c .cfa: sp 0 + .ra: lr
STACK CFI INIT 7fdc 1c .cfa: sp 0 + .ra: lr
STACK CFI INIT 7ff8 10 .cfa: sp 0 + .ra: lr
STACK CFI INIT 8008 10 .cfa: sp 0 + .ra: lr
STACK CFI INIT 8018 28 .cfa: sp 0 + .ra: lr
STACK CFI 8020 .cfa: sp 8 + .ra: .cfa -4 + ^ r4: .cfa -8 + ^
STACK CFI INIT 8040 28 .cfa: sp 0 + .ra: lr
STACK CFI 8048 .cfa: sp 8 + .ra: .cfa -4 + ^ r4: .cfa -8 + ^
STACK CFI INIT 8068 30 .cfa: sp 0 + .ra: lr
STACK CFI 8070 .cfa: sp 8 + .ra: .cfa -4 + ^ r4: .cfa -8 + ^
STACK CFI INIT 8098 30 .cfa: sp 0 + .ra: lr
STACK CFI 80a0 .cfa: sp 8 + .ra: .cfa -4 + ^ r4: .cfa -8 + ^
STACK CFI INIT 80c8 3c .cfa: sp 0 + .ra: lr
STACK CFI 80cc .cfa: sp 8 + .ra: .cfa -4 + ^ r3: .cfa -8 + ^
STACK CFI INIT 8104 3c .cfa: sp 0 + .ra: lr
STACK CFI 8108 .cfa: sp 8 + .ra: .cfa -4 + ^ r3: .cfa -8 + ^
STACK CFI INIT 8140 e0 .cfa: sp 0 + .ra: lr
STACK CFI 8144 .cfa: sp 16 + .ra: .cfa -4 + ^ r3: .cfa -16 + ^ r4: .cfa -12 + ^ r5: .cfa -8 + ^
STACK CFI INIT 8220 a0 .cfa: sp 0 + .ra: lr
STACK CFI 8228 .cfa: sp 8 + .ra: .cfa -4 + ^ r4: .cfa -8 + ^
STACK CFI INIT 82c0 dc .cfa: sp 0 + .ra: lr
STACK CFI 82c4 .cfa: sp 8 + .ra: .cfa -4 + ^ r4: .cfa -8 + ^
STACK CFI INIT 839c a8 .cfa: sp 0 + .ra: lr
STACK CFI 83a4 .cfa: sp 8 + .ra: .cfa -4 + ^ r4: .cfa -8 + ^
STACK CFI INIT 4514 18 .cfa: sp 0 + .ra: lr
STACK CFI INIT 8444 10 .cfa: sp 0 + .ra: lr
STACK CFI INIT 8454 1c .cfa: sp 0 + .ra: lr
STACK CFI INIT 8470 20 .cfa: sp 0 + .ra: lr
STACK CFI 847c .cfa: sp 8 + .ra: .cfa -4 + ^ r3: .cfa -8 + ^
STACK CFI INIT 8490 20 .cfa: sp 0 + .ra: lr
STACK CFI 849c .cfa: sp 8 + .ra: .cfa -4 + ^ r3: .cfa -8 + ^
STACK CFI INIT 84b0 18 .cfa: sp 0 + .ra: lr
STACK CFI INIT 84c8 8 .cfa: sp 0 + .ra: lr
STACK CFI INIT 84d0 8 .cfa: sp 0 + .ra: lr
STACK CFI INIT 84d8 8 .cfa: sp 0 + .ra: lr
STACK CFI INIT 84e0 28 .cfa: sp 0 + .ra: lr
STACK CFI 84e8 .cfa: sp 8 + .ra: .cfa -4 + ^ r4: .cfa -8 + ^
STACK CFI INIT 8508 4c .cfa: sp 0 + .ra: lr
STACK CFI 8510 .cfa: sp 8 + .ra: .cfa -4 + ^ r3: .cfa -8 + ^
STACK CFI INIT 8554 4 .cfa: sp 0 + .ra: lr
STACK CFI INIT 8558 1b4 .cfa: sp 0 + .ra: lr
STACK CFI 8560 .cfa: sp 20 + .ra: .cfa -4 + ^ r4: .cfa -20 + ^ r5: .cfa -16 + ^ r6: .cfa -12 + ^ r7: .cfa -8 + ^
STACK CFI 856c .cfa: sp 32 +
STACK CFI INIT 870c 1d0 .cfa: sp 0 + .ra: lr
STACK CFI 8714 .cfa: sp 12 + r4: .cfa -12 + ^ r5: .cfa -8 + ^ r6: .cfa -4 + ^
STACK CFI INIT 88dc 6c .cfa: sp 0 + .ra: lr
STACK CFI 88e8 .cfa: sp 12 + r4: .cfa -12 + ^ r5: .cfa -8 + ^ r6: .cfa -4 + ^
STACK CFI INIT 8948 13c .cfa: sp 0 + .ra: lr
STACK CFI 894c .cfa: sp 32 + .ra: .cfa -4 + ^ r3: .cfa -32 + ^ r4: .cfa -28 + ^ r5: .cfa -24 + ^ r6: .cfa -20 + ^ r7: .cfa -16 + ^ r8: .cfa -12 + ^ r9: .cfa -8 + ^
STACK CFI INIT 8a84 58 .cfa: sp 0 + .ra: lr
STACK CFI INIT 8adc f4 .cfa: sp 0 + .ra: lr
STACK CFI 8ae0 .cfa: sp 24 + .ra: .cfa -4 + ^ r4: .cfa -24 + ^ r5: .cfa -20 + ^ r6: .cfa -16 + ^ r7: .cfa -12 + ^ r8: .cfa -8 + ^
STACK CFI INIT 8bd0 244 .cfa: sp 0 + .ra: lr
STACK CFI 8bd8 .cfa: sp 24 + r4: .cfa -24 + ^ r5: .cfa -20 + ^ r6: .cfa -16 + ^ r7: .cfa -12 + ^ r8: .cfa -8 + ^ r9: .cfa -4 + ^
STACK CFI INIT 8e14 5c .cfa: sp 0 + .ra: lr
STACK CFI 8e1c .cfa: sp 16 + .ra: .cfa -4 + ^ r4: .cfa -16 + ^ r5: .cfa -12 + ^ r6: .cfa -8 + ^
STACK CFI INIT 8e70 7c .cfa: sp 0 + .ra: lr
STACK CFI 8e78 .cfa: sp 8 + r4: .cfa -8 + ^ r5: .cfa -4 + ^
STACK CFI INIT 8eec 60 .cfa: sp 0 + .ra: lr
STACK CFI 8ef8 .cfa: sp 8 + .ra: .cfa -4 + ^ r4: .cfa -8 + ^
STACK CFI INIT 8f4c 54 .cfa: sp 0 + .ra: lr
STACK CFI 8f54 .cfa: sp 8 + .ra: .cfa -4 + ^ r4: .cfa -8 + ^
STACK CFI INIT 8fa0 80 .cfa: sp 0 + .ra: lr
STACK CFI 8fa4 .cfa: sp 16 + .ra: .cfa -4 + ^ r3: .cfa -16 + ^ r4: .cfa -12 + ^ r5: .cfa -8 + ^
STACK CFI INIT 9020 34 .cfa: sp 0 + .ra: lr
STACK CFI 9024 .cfa: sp 8 + .ra: .cfa -4 + ^ r3: .cfa -8 + ^
STACK CFI INIT 9054 f8 .cfa: sp 0 + .ra: lr
STACK CFI 9058 .cfa: sp 16 + .ra: .cfa -4 + ^ r4: .cfa -16 + ^ r5: .cfa -12 + ^ r6: .cfa -8 + ^
STACK CFI INIT 914c 9c .cfa: sp 0 + .ra: lr
STACK CFI 9154 .cfa: sp 16 + .ra: .cfa -4 + ^ r3: .cfa -16 + ^ r4: .cfa -12 + ^ r5: .cfa -8 + ^
STACK CFI INIT 91e8 88 .cfa: sp 0 + .ra: lr
STACK CFI INIT 9270 19c .cfa: sp 0 + .ra: lr
STACK CFI 9274 .cfa: sp 16 + .ra: .cfa -4 + ^ r3: .cfa -16 + ^ r4: .cfa -12 + ^ r5: .cfa -8 + ^
STACK CFI INIT 940c cc .cfa: sp 0 + .ra: lr
STACK CFI 9414 .cfa: sp 24 + .ra: .cfa -4 + ^ r4: .cfa -24 + ^ r5: .cfa -20 + ^ r6: .cfa -16 + ^ r7: .cfa -12 + ^ r8: .cfa -8 + ^
STACK CFI INIT 94d8 158 .cfa: sp 0 + .ra: lr
STACK CFI 94dc .cfa: sp 24 + .ra: .cfa -4 + ^ r3: .cfa -24 + ^ r4: .cfa -20 + ^ r5: .cfa -16 + ^ r6: .cfa -12 + ^ r7: .cfa -8 + ^
STACK CFI INIT 9630 170 .cfa: sp 0 + .ra: lr
STACK CFI 9638 .cfa: sp 16 + .ra: .cfa -4 + ^ r4: .cfa -16 + ^ r5: .cfa -12 + ^ r6: .cfa -8 + ^
STACK CFI 9640 .cfa: sp 24 +
STACK CFI INIT 97a0 4b0 .cfa: sp 0 + .ra: lr
STACK CFI 97a8 .cfa: sp 24 + .ra: .cfa -4 + ^ r4: .cfa -24 + ^ r5: .cfa -20 + ^ r6: .cfa -16 + ^ r7: .cfa -12 + ^ r8: .cfa -8 + ^
STACK CFI 97b0 .cfa: sp 32 +
STACK CFI INIT 9c50 b88 .cfa: sp 0 + .ra: lr
STACK CFI 9c58 .cfa: sp 20 + .ra: .cfa -4 + ^ r4: .cfa -20 + ^ r5: .cfa -16 + ^ r6: .cfa -12 + ^ r7: .cfa -8 + ^
STACK CFI 9c60 .cfa: sp 32 +
STACK CFI INIT a7d8 108 .cfa: sp 0 + .ra: lr
STACK CFI a7e0 .cfa: sp 12 + .ra: .cfa -4 + ^ r4: .cfa -12 + ^ r5: .cfa -8 + ^
STACK CFI a7e8 .cfa: sp 24 +
STACK CFI INIT a8e0 68 .cfa: sp 0 + .ra: lr
STACK CFI a8e8 .cfa: sp 16 + .ra: .cfa -4 + ^ r4: .cfa -16 + ^ r5: .cfa -12 + ^ r6: .cfa -8 + ^
STACK CFI INIT a948 874 .cfa: sp 0 + .ra: lr
STACK CFI a950 .cfa: sp 32 + .ra: .cfa -4 + ^ r10: .cfa -8 + ^ r4: .cfa -32 + ^ r5: .cfa -28 + ^ r6: .cfa -24 + ^ r7: .cfa -20 + ^ r8: .cfa -16 + ^ r9: .cfa -12 + ^
STACK CFI INIT b1bc 194 .cfa: sp 0 + .ra: lr
STACK CFI b1c4 .cfa: sp 24 + .ra: .cfa -4 + ^ r4: .cfa -24 + ^ r5: .cfa -20 + ^ r6: .cfa -16 + ^ r7: .cfa -12 + ^ r8: .cfa -8 + ^
STACK CFI INIT b350 468 .cfa: sp 0 + .ra: lr
STACK CFI b358 .cfa: sp 24 + .ra: .cfa -4 + ^ r4: .cfa -24 + ^ r5: .cfa -20 + ^ r6: .cfa -16 + ^ r7: .cfa -12 + ^ r8: .cfa -8 + ^
STACK CFI INIT b7b8 61c .cfa: sp 0 + .ra: lr
STACK CFI b7c0 .cfa: sp 24 + .ra: .cfa -4 + ^ r4: .cfa -24 + ^ r5: .cfa -20 + ^ r6: .cfa -16 + ^ r7: .cfa -12 + ^ r8: .cfa -8 + ^
STACK CFI INIT bdd4 ac .cfa: sp 0 + .ra: lr
STACK CFI bddc .cfa: sp 16 + .ra: .cfa -4 + ^ r4: .cfa -16 + ^ r5: .cfa -12 + ^ r6: .cfa -8 + ^
STACK CFI bde8 .cfa: sp 24 +
STACK CFI INIT be80 84 .cfa: sp 0 + .ra: lr
STACK CFI be84 .cfa: sp 24 + .ra: .cfa -4 + ^ r4: .cfa -24 + ^ r5: .cfa -20 + ^ r6: .cfa -16 + ^ r7: .cfa -12 + ^ r8: .cfa -8 + ^
STACK CFI INIT bf04 3554 .cfa: sp 0 + .ra: lr
STACK CFI bf0c .cfa: sp 36 + .ra: .cfa -4 + ^ r10: .cfa -12 + ^ r11: .cfa -8 + ^ r4: .cfa -36 + ^ r5: .cfa -32 + ^ r6: .cfa -28 + ^ r7: .cfa -24 + ^ r8: .cfa -20 + ^ r9: .cfa -16 + ^
STACK CFI bf14 .cfa: sp 128 +
STACK CFI INIT f458 20 .cfa: sp 0 + .ra: lr
STACK CFI INIT f478 778 .cfa: sp 0 + .ra: lr
STACK CFI f480 .cfa: sp 32 + .ra: .cfa -4 + ^ r10: .cfa -8 + ^ r4: .cfa -32 + ^ r5: .cfa -28 + ^ r6: .cfa -24 + ^ r7: .cfa -20 + ^ r8: .cfa -16 + ^ r9: .cfa -12 + ^
STACK CFI INIT fbf0 398 .cfa: sp 0 + .ra: lr
STACK CFI fbf4 .cfa: sp 36 + .ra: .cfa -4 + ^ r10: .cfa -12 + ^ r11: .cfa -8 + ^ r4: .cfa -36 + ^ r5: .cfa -32 + ^ r6: .cfa -28 + ^ r7: .cfa -24 + ^ r8: .cfa -20 + ^ r9: .cfa -16 + ^
STACK CFI fbfc .cfa: sp 72 +
STACK CFI INIT ff88 264 .cfa: sp 0 + .ra: lr
STACK CFI ff8c .cfa: sp 40 + .ra: .cfa -4 + ^ r10: .cfa -12 + ^ r11: .cfa -8 + ^ r3: .cfa -40 + ^ r4: .cfa -36 + ^ r5: .cfa -32 + ^ r6: .cfa -28 + ^ r7: .cfa -24 + ^ r8: .cfa -20 + ^ r9: .cfa -16 + ^
STACK CFI INIT 101ec 2d8 .cfa: sp 0 + .ra: lr
STACK CFI 101f0 .cfa: sp 32 + .ra: .cfa -4 + ^ r3: .cfa -32 + ^ r4: .cfa -28 + ^ r5: .cfa -24 + ^ r6: .cfa -20 + ^ r7: .cfa -16 + ^ r8: .cfa -12 + ^ r9: .cfa -8 + ^
STACK CFI INIT 104c4 238 .cfa: sp 0 + .ra: lr
STACK CFI 104c8 .cfa: sp 24 + .ra: .cfa -4 + ^ r4: .cfa -24 + ^ r5: .cfa -20 + ^ r6: .cfa -16 + ^ r7: .cfa -12 + ^ r8: .cfa -8 + ^
STACK CFI 104d4 .cfa: sp 32 +
STACK CFI INIT 106fc a4 .cfa: sp 0 + .ra: lr
STACK CFI 10704 .cfa: sp 32 + .ra: .cfa -4 + ^ r3: .cfa -32 + ^ r4: .cfa -28 + ^ r5: .cfa -24 + ^ r6: .cfa -20 + ^ r7: .cfa -16 + ^ r8: .cfa -12 + ^ r9: .cfa -8 + ^
STACK CFI INIT 107a0 110 .cfa: sp 0 + .ra: lr
STACK CFI 107a4 .cfa: sp 24 + .ra: .cfa -4 + ^ r3: .cfa -24 + ^ r4: .cfa -20 + ^ r5: .cfa -16 + ^ r6: .cfa -12 + ^ r7: .cfa -8 + ^
STACK CFI INIT 108b0 31c .cfa: sp 0 + .ra: lr
STACK CFI 108b4 .cfa: sp 32 + .ra: .cfa -4 + ^ r11: .cfa -8 + ^ r4: .cfa -32 + ^ r5: .cfa -28 + ^ r6: .cfa -24 + ^ r7: .cfa -20 + ^ r8: .cfa -16 + ^ r9: .cfa -12 + ^
STACK CFI 108b8 .cfa: r11 4 +
STACK CFI INIT 10bcc 14c .cfa: sp 0 + .ra: lr
STACK CFI 10bd4 .cfa: sp 24 + .ra: .cfa -4 + ^ r4: .cfa -24 + ^ r5: .cfa -20 + ^ r6: .cfa -16 + ^ r7: .cfa -12 + ^ r8: .cfa -8 + ^
STACK CFI 10bdc .cfa: sp 40 +
STACK CFI INIT 10d18 2c .cfa: sp 0 + .ra: lr
STACK CFI 10d24 .cfa: sp 8 + .ra: .cfa -4 + ^ r3: .cfa -8 + ^
STACK CFI INIT 10d44 2c .cfa: sp 0 + .ra: lr
STACK CFI 10d48 .cfa: sp 8 + .ra: .cfa -4 + ^ r3: .cfa -8 + ^
STACK CFI INIT 10d70 18 .cfa: sp 0 + .ra: lr
STACK CFI INIT 10d88 ac .cfa: sp 0 + .ra: lr
STACK CFI 10d8c .cfa: sp 48 + .ra: .cfa -4 + ^ r0: .cfa -48 + ^ r1: .cfa -44 + ^ r10: .cfa -12 + ^ r11: .cfa -8 + ^ r2: .cfa -40 + ^ r4: .cfa -36 + ^ r5: .cfa -32 + ^ r6: .cfa -28 + ^ r7: .cfa -24 + ^ r8: .cfa -20 + ^ r9: .cfa -16 + ^
STACK CFI INIT 10e34 50 .cfa: sp 0 + .ra: lr
STACK CFI INIT 10e84 10c .cfa: sp 0 + .ra: lr
STACK CFI 10e8c .cfa: sp 24 + .ra: .cfa -4 + ^ r0: .cfa -24 + ^ r1: .cfa -20 + ^ r2: .cfa -16 + ^ r4: .cfa -12 + ^ r5: .cfa -8 + ^
STACK CFI INIT 10f90 6c .cfa: sp 0 + .ra: lr
STACK CFI 10f98 .cfa: sp 8 + .ra: .cfa -4 + ^ r4: .cfa -8 + ^
STACK CFI INIT 10ffc 14 .cfa: sp 0 + .ra: lr
STACK CFI INIT 11010 8 .cfa: sp 0 + .ra: lr
STACK CFI INIT 11018 4 .cfa: sp 0 + .ra: lr
STACK CFI INIT 1101c 64 .cfa: sp 0 + .ra: lr
STACK CFI 11020 .cfa: sp 16 + .ra: .cfa -4 + ^ r4: .cfa -16 + ^ r5: .cfa -12 + ^ r6: .cfa -8 + ^
STACK CFI INIT 11080 124 .cfa: sp 0 + .ra: lr
STACK CFI 11084 .cfa: sp 36 + .ra: .cfa -4 + ^ r10: .cfa -12 + ^ r11: .cfa -8 + ^ r4: .cfa -36 + ^ r5: .cfa -32 + ^ r6: .cfa -28 + ^ r7: .cfa -24 + ^ r8: .cfa -20 + ^ r9: .cfa -16 + ^
STACK CFI 110a0 .cfa: sp 1008 +
STACK CFI INIT 111a4 8 .cfa: sp 0 + .ra: lr
STACK CFI INIT 111ac a4 .cfa: sp 0 + .ra: lr
STACK CFI 111b4 .cfa: sp 20 + .ra: .cfa -4 + ^ r4: .cfa -20 + ^ r5: .cfa -16 + ^ r6: .cfa -12 + ^ r7: .cfa -8 + ^
STACK CFI 111c8 .cfa: sp 504 +
STACK CFI INIT 11250 1c .cfa: sp 0 + .ra: lr
STACK CFI INIT 1126c 74 .cfa: sp 0 + .ra: lr
STACK CFI 11270 .cfa: sp 16 + .ra: .cfa -4 + ^ r4: .cfa -16 + ^ r5: .cfa -12 + ^ r6: .cfa -8 + ^
STACK CFI INIT 112e0 20 .cfa: sp 0 + .ra: lr
STACK CFI INIT 11300 4 .cfa: sp 0 + .ra: lr
STACK CFI INIT 11304 20 .cfa: sp 0 + .ra: lr
STACK CFI 11308 .cfa: sp 8 + .ra: .cfa -4 + ^ r3: .cfa -8 + ^
STACK CFI INIT 11324 5c .cfa: sp 0 + .ra: lr
STACK CFI INIT 11380 28 .cfa: sp 0 + .ra: lr
STACK CFI 11384 .cfa: sp 24 + .ra: .cfa -4 + ^ r0: .cfa -24 + ^ r1: .cfa -20 + ^ r2: .cfa -16 + ^ r3: .cfa -12 + ^ r4: .cfa -8 + ^
STACK CFI INIT 113a8 5c .cfa: sp 0 + .ra: lr
STACK CFI INIT 11404 2c .cfa: sp 0 + .ra: lr
STACK CFI 11408 .cfa: sp 24 + .ra: .cfa -4 + ^ r0: .cfa -24 + ^ r1: .cfa -20 + ^ r2: .cfa -16 + ^ r3: .cfa -12 + ^ r4: .cfa -8 + ^
STACK CFI INIT 11430 c4 .cfa: sp 0 + .ra: lr
STACK CFI 11438 .cfa: sp 24 + .ra: .cfa -4 + ^ r4: .cfa -24 + ^ r5: .cfa -20 + ^ r6: .cfa -16 + ^ r7: .cfa -12 + ^ r8: .cfa -8 + ^
STACK CFI 1144c .cfa: sp 592 +
STACK CFI INIT 114f4 3f0 .cfa: sp 0 + .ra: lr
STACK CFI 114f8 .cfa: sp 36 + .ra: .cfa -4 + ^ r10: .cfa -12 + ^ r11: .cfa -8 + ^ r4: .cfa -36 + ^ r5: .cfa -32 + ^ r6: .cfa -28 + ^ r7: .cfa -24 + ^ r8: .cfa -20 + ^ r9: .cfa -16 + ^
STACK CFI 11504 .cfa: sp 72 +
STACK CFI INIT 118e4 8 .cfa: sp 0 + .ra: lr
STACK CFI INIT 118ec 8 .cfa: sp 0 + .ra: lr
STACK CFI INIT 118f4 8 .cfa: sp 0 + .ra: lr
STACK CFI INIT 118fc 34c .cfa: sp 0 + .ra: lr
STACK CFI 11900 .cfa: sp 28 + .ra: .cfa -4 + ^ r4: .cfa -28 + ^ r5: .cfa -24 + ^ r6: .cfa -20 + ^ r7: .cfa -16 + ^ r8: .cfa -12 + ^ r9: .cfa -8 + ^
STACK CFI 11908 .cfa: sp 296 +
STACK CFI INIT 11df0 60 .cfa: sp 0 + .ra: lr
STACK CFI INIT 11e50 28 .cfa: sp 0 + .ra: lr
STACK CFI 11e54 .cfa: sp 24 + .ra: .cfa -4 + ^ r0: .cfa -24 + ^ r1: .cfa -20 + ^ r2: .cfa -16 + ^ r3: .cfa -12 + ^ r4: .cfa -8 + ^
STACK CFI INIT 11e78 4 .cfa: sp 0 + .ra: lr
STACK CFI INIT 11e7c 37c .cfa: sp 0 + .ra: lr
STACK CFI 11e80 .cfa: sp 48 + .ra: .cfa -4 + ^ r0: .cfa -48 + ^ r1: .cfa -44 + ^ r10: .cfa -8 + ^ r2: .cfa -40 + ^ r3: .cfa -36 + ^ r4: .cfa -32 + ^ r5: .cfa -28 + ^ r6: .cfa -24 + ^ r7: .cfa -20 + ^ r8: .cfa -16 + ^ r9: .cfa -12 + ^
STACK CFI INIT 121f8 40 .cfa: sp 0 + .ra: lr
STACK CFI 121fc .cfa: sp 24 + .ra: .cfa -4 + ^ r0: .cfa -24 + ^ r1: .cfa -20 + ^ r2: .cfa -16 + ^ r3: .cfa -12 + ^ r4: .cfa -8 + ^
STACK CFI INIT 12238 10 .cfa: sp 0 + .ra: lr
STACK CFI 1223c .cfa: sp 8 + .ra: .cfa -4 + ^ r3: .cfa -8 + ^
STACK CFI INIT 12248 1c .cfa: sp 0 + .ra: lr
STACK CFI 1224c .cfa: sp 8 + .ra: .cfa -4 + ^ r3: .cfa -8 + ^
STACK CFI INIT 12264 8 .cfa: sp 0 + .ra: lr
STACK CFI 12268 .cfa: sp 8 + .ra: .cfa -4 + ^ r3: .cfa -8 + ^
STACK CFI INIT 1226c 8 .cfa: sp 0 + .ra: lr
STACK CFI 12270 .cfa: sp 8 + .ra: .cfa -4 + ^ r3: .cfa -8 + ^
