MODULE Linux arm F7EDCCDA6C04784EE21E30101F7913600 libplist.so
FUNC d8f0c 18 0 selfrel_offset31
FUNC d8f24 ac 0 search_EIT_table
FUNC d8fd0 50 0 __gnu_unwind_get_pr_addr
FUNC d9020 10c 0 get_eit_entry
FUNC d912c 6c 0 restore_non_core_regs
FUNC d9198 14 0 _Unwind_decode_typeinfo_ptr
FUNC d91ac 8 0 __gnu_unwind_24bit
FUNC d91b4 4 0 _Unwind_DebugHook
FUNC d91b8 64 0 unwind_phase2
FUNC d921c 124 0 unwind_phase2_forced
FUNC d9340 8 0 _Unwind_GetCFA
FUNC d9348 a4 0 __gnu_Unwind_RaiseException
FUNC d93ec 1c 0 __gnu_Unwind_ForcedUnwind
FUNC d9408 74 0 __gnu_Unwind_Resume
FUNC d947c 20 0 __gnu_Unwind_Resume_or_Rethrow
FUNC d949c 4 0 _Unwind_Complete
FUNC d94a0 20 0 _Unwind_DeleteException
FUNC d94c0 5c 0 _Unwind_VRS_Get
FUNC d951c 28 0 _Unwind_GetGR
FUNC d9544 5c 0 _Unwind_VRS_Set
FUNC d95a0 2c 0 _Unwind_SetGR
FUNC d95cc c4 0 __gnu_Unwind_Backtrace
FUNC d9690 3f0 0 __gnu_unwind_pr_common
FUNC d9a80 8 0 __aeabi_unwind_cpp_pr0
FUNC d9a88 8 0 __aeabi_unwind_cpp_pr1
FUNC d9a90 8 0 __aeabi_unwind_cpp_pr2
FUNC d9a98 34c 0 _Unwind_VRS_Pop
FUNC d9f8c 60 0 next_unwind_byte
FUNC d9fec 28 0 _Unwind_GetGR
FUNC da014 4 0 unwind_UCB_from_context
FUNC da018 37c 0 __gnu_unwind_execute
FUNC da394 40 0 __gnu_unwind_frame
FUNC da3d4 10 0 _Unwind_GetRegionStart
FUNC da3e4 1c 0 _Unwind_GetLanguageSpecificData
FUNC da400 8 0 _Unwind_GetDataRelBase
FUNC da408 8 0 _Unwind_GetTextRelBase
PUBLIC 19764 0 plist_new_dict
PUBLIC 1977c 0 plist_new_array
PUBLIC 19794 0 plist_new_string
PUBLIC 197d8 0 plist_new_bool
PUBLIC 19804 0 plist_new_uint
PUBLIC 19834 0 plist_new_real
PUBLIC 19864 0 plist_new_data
PUBLIC 198b0 0 plist_new_date
PUBLIC 198e0 0 plist_free
PUBLIC 198ec 0 plist_dict_new_iter
PUBLIC 19918 0 plist_get_parent
PUBLIC 19924 0 plist_get_node_type
PUBLIC 19a7c 0 plist_copy
PUBLIC 19a9c 0 plist_array_get_size
PUBLIC 19ac8 0 plist_array_get_item
PUBLIC 19afc 0 plist_array_get_item_index
PUBLIC 19b30 0 plist_array_set_item
PUBLIC 19b88 0 plist_array_append_item
PUBLIC 19bb4 0 plist_array_insert_item
PUBLIC 19be8 0 plist_array_remove_item
PUBLIC 19c20 0 plist_dict_get_size
PUBLIC 19c50 0 plist_dict_get_item
PUBLIC 19d10 0 plist_dict_set_item
PUBLIC 19d68 0 plist_dict_insert_item
PUBLIC 19ddc 0 plist_dict_remove_item
PUBLIC 19e20 0 plist_access_pathv
PUBLIC 19e90 0 plist_access_path
PUBLIC 19eb8 0 plist_get_key_val
PUBLIC 19f48 0 plist_dict_next_item
PUBLIC 19fe0 0 plist_dict_get_item_key
PUBLIC 1a010 0 plist_get_string_val
PUBLIC 1a0a0 0 plist_get_bool_val
PUBLIC 1a124 0 plist_get_uint_val
PUBLIC 1a1a8 0 plist_get_real_val
PUBLIC 1a22c 0 plist_get_data_val
PUBLIC 1a268 0 plist_get_date_val
PUBLIC 1a404 0 plist_compare_node_value
PUBLIC 1a414 0 plist_set_type
PUBLIC 1a490 0 plist_set_key_val
PUBLIC 1a4c8 0 plist_set_string_val
PUBLIC 1a500 0 plist_set_bool_val
PUBLIC 1a52c 0 plist_set_uint_val
PUBLIC 1a55c 0 plist_set_real_val
PUBLIC 1a58c 0 plist_set_data_val
PUBLIC 1a5ac 0 plist_set_date_val
PUBLIC 1b3f8 0 plist_from_bin
PUBLIC 1b8fc 0 plist_utf8_to_utf16
PUBLIC 1ba64 0 plist_to_bin
PUBLIC 1ce50 0 plist_to_xml
PUBLIC 1cfb0 0 plist_from_xml
PUBLIC 1cfd8 0 iterator_destroy
PUBLIC 1cfe4 0 iterator_create
PUBLIC 1d00c 0 iterator_next
PUBLIC 1d014 0 iterator_bind
PUBLIC 1d01c 0 list_init
PUBLIC 1d02c 0 list_destroy
PUBLIC 1d038 0 list_add
PUBLIC 1d040 0 list_remove
PUBLIC 1d048 0 node_destroy
PUBLIC 1d0ac 0 node_attach
PUBLIC 1d114 0 node_create
PUBLIC 1d1b4 0 node_detach
PUBLIC 1d1ec 0 node_insert
PUBLIC 1d254 0 node_debug
PUBLIC 1d30c 0 node_n_children
PUBLIC 1d318 0 node_first_child
PUBLIC 1d330 0 node_prev_sibling
PUBLIC 1d33c 0 node_next_sibling
PUBLIC 1d348 0 node_nth_child
PUBLIC 1d39c 0 node_child_position
PUBLIC 1d400 0 node_copy_deep
PUBLIC 1d47c 0 node_iterator_next
PUBLIC 1d4a0 0 node_iterator_bind
PUBLIC 1d4cc 0 node_iterator_destroy
PUBLIC 1d4d8 0 node_iterator_create
PUBLIC 1d550 0 node_list_destroy
PUBLIC 1d55c 0 node_list_create
PUBLIC 1d594 0 node_list_add
PUBLIC 1d5d0 0 node_list_insert
PUBLIC 1d680 0 node_list_remove
PUBLIC 1d8a4 0 isolat1ToUTF8
PUBLIC 1d9a4 0 UTF8Toisolat1
PUBLIC 1eab8 0 xmlDetectCharEncoding
PUBLIC 1eca0 0 xmlCleanupEncodingAliases
PUBLIC 1ed60 0 xmlGetEncodingAlias
PUBLIC 1ee10 0 xmlAddEncodingAlias
PUBLIC 1eff0 0 xmlDelEncodingAlias
PUBLIC 1f0bc 0 xmlParseCharEncoding
PUBLIC 1f464 0 xmlGetCharEncodingName
PUBLIC 1f620 0 xmlCleanupCharEncodingHandlers
PUBLIC 1f6f4 0 xmlRegisterCharEncodingHandler
PUBLIC 1f78c 0 xmlNewCharEncodingHandler
PUBLIC 1f8b8 0 xmlInitCharEncodingHandlers
PUBLIC 1fc8c 0 xmlFindCharEncodingHandler
PUBLIC 1fdb8 0 xmlGetCharEncodingHandler
PUBLIC 20060 0 xmlCharEncFirstLineInt
PUBLIC 20168 0 xmlCharEncFirstLine
PUBLIC 20170 0 xmlCharEncInFunc
PUBLIC 202c0 0 xmlCharEncOutFunc
PUBLIC 204f8 0 xmlCharEncCloseFunc
PUBLIC 2051c 0 xmlByteConsumed
PUBLIC 2079c 0 xmlGenericErrorDefaultFunc
PUBLIC 20de4 0 initGenericErrorDefaultFunc
PUBLIC 20e0c 0 xmlSetGenericErrorFunc
PUBLIC 20e44 0 xmlSetStructuredErrorFunc
PUBLIC 20e68 0 xmlParserPrintFileInfo
PUBLIC 20ed0 0 xmlParserPrintFileContext
PUBLIC 20ef4 0 xmlParserError
PUBLIC 210e4 0 xmlParserWarning
PUBLIC 212d4 0 xmlParserValidityError
PUBLIC 214e8 0 xmlParserValidityWarning
PUBLIC 216bc 0 xmlGetLastError
PUBLIC 216dc 0 xmlResetError
PUBLIC 217a4 0 xmlResetLastError
PUBLIC 217c0 0 xmlCtxtGetLastError
PUBLIC 217dc 0 xmlCtxtResetLastError
PUBLIC 217f8 0 xmlCopyError
PUBLIC 21954 0 __xmlRaiseError
PUBLIC 22048 0 __xmlSimpleError
PUBLIC 2447c 0 xmlHasFeature
PUBLIC 244a4 0 xmlCheckLanguageID
PUBLIC 245a4 0 inputPush
PUBLIC 2476c 0 inputPop
PUBLIC 247b8 0 nodePush
PUBLIC 24888 0 nodePop
PUBLIC 248d4 0 namePush
PUBLIC 24964 0 namePop
PUBLIC 249b0 0 xmlPopInput
PUBLIC 24ae4 0 xmlPushInput
PUBLIC 24bcc 0 xmlSplitQName
PUBLIC 24f9c 0 xmlParsePubidLiteral
PUBLIC 25220 0 xmlParseVersionNum
PUBLIC 25380 0 xmlParseEncName
PUBLIC 25544 0 xmlParseEncodingDecl
PUBLIC 25854 0 xmlParseTextDecl
PUBLIC 25b04 0 xmlParserHandlePEReference
PUBLIC 25ec4 0 xmlSkipBlankChars
PUBLIC 26020 0 xmlParseCharRef
PUBLIC 263d0 0 xmlStringLenDecodeEntities
PUBLIC 271e0 0 xmlStringDecodeEntities
PUBLIC 27240 0 xmlParseName
PUBLIC 27998 0 xmlParsePITarget
PUBLIC 27ab4 0 xmlParseNotationType
PUBLIC 282a8 0 xmlParseElementChildrenContentDecl
PUBLIC 282b0 0 xmlParseEntityRef
PUBLIC 28620 0 xmlParseNmtoken
PUBLIC 28908 0 xmlParseEnumerationType
PUBLIC 28ad4 0 xmlParseEntityValue
PUBLIC 29b84 0 xmlParseAttValue
PUBLIC 29bb0 0 xmlParseAttribute
PUBLIC 29d60 0 xmlParseStartTag
PUBLIC 2a1b8 0 xmlParseSystemLiteral
PUBLIC 2a9c4 0 xmlParseCharData
PUBLIC 2ade8 0 xmlParseExternalID
PUBLIC 2b164 0 xmlParseComment
PUBLIC 2bd04 0 xmlParsePI
PUBLIC 2c438 0 xmlParseNotationDecl
PUBLIC 2c72c 0 xmlParseEntityDecl
PUBLIC 2d058 0 xmlParseDefaultDecl
PUBLIC 2d318 0 xmlParseEnumeratedType
PUBLIC 2d46c 0 xmlParseAttributeType
PUBLIC 2d978 0 xmlParseAttributeListDecl
PUBLIC 2e158 0 xmlParseElementMixedContentDecl
PUBLIC 2e588 0 xmlParseElementContentDecl
PUBLIC 2e6b0 0 xmlParseElementDecl
PUBLIC 2eb18 0 xmlParseDocTypeDecl
PUBLIC 2ee8c 0 xmlParseEndTag
PUBLIC 2ee94 0 xmlParseCDSect
PUBLIC 30d48 0 xmlParseVersionInfo
PUBLIC 30ef4 0 xmlParsePEReference
PUBLIC 31134 0 xmlParseMarkupDecl
PUBLIC 31b08 0 xmlParseExternalSubset
PUBLIC 31de0 0 xmlParseSDDecl
PUBLIC 321d4 0 xmlParseXMLDecl
PUBLIC 32570 0 xmlParseMisc
PUBLIC 32624 0 xmlCreatePushParserCtxt
PUBLIC 328e0 0 xmlStopParser
PUBLIC 32918 0 xmlCreateIOParserCtxt
PUBLIC 32a44 0 xmlIOParseDTD
PUBLIC 32c98 0 xmlSAXParseDTD
PUBLIC 32f14 0 xmlParseDTD
PUBLIC 32f28 0 xmlCreateEntityParserCtxt
PUBLIC 32f30 0 xmlCreateURLParserCtxt
PUBLIC 32fdc 0 xmlCreateFileParserCtxt
PUBLIC 32fe4 0 xmlSetupParserForBuffer
PUBLIC 3306c 0 xmlCreateMemoryParserCtxt
PUBLIC 33548 0 xmlParseReference
PUBLIC 33cc0 0 xmlParseContent
PUBLIC 34338 0 xmlParseExternalEntity
PUBLIC 34378 0 xmlParseElement
PUBLIC 34794 0 xmlParseExtParsedEnt
PUBLIC 34a18 0 xmlSAXParseEntity
PUBLIC 34aac 0 xmlParseEntity
PUBLIC 34ab8 0 xmlParseCtxtExternalEntity
PUBLIC 36624 0 xmlParseChunk
PUBLIC 36a18 0 xmlParseInNodeContext
PUBLIC 36d8c 0 xmlParseBalancedChunkMemoryRecover
PUBLIC 370c8 0 xmlParseBalancedChunkMemory
PUBLIC 370f0 0 xmlCreateDocParserCtxt
PUBLIC 37110 0 xmlSetEntityReferenceFunc
PUBLIC 37124 0 xmlInitParser
PUBLIC 371b4 0 xmlParseDocument
PUBLIC 37688 0 xmlSAXUserParseFile
PUBLIC 37744 0 xmlSAXParseDoc
PUBLIC 377c8 0 xmlRecoverDoc
PUBLIC 377d8 0 xmlParseDoc
PUBLIC 378a8 0 xmlSAXParseFileWithData
PUBLIC 37994 0 xmlSAXParseFile
PUBLIC 3799c 0 xmlParseFile
PUBLIC 379ac 0 xmlRecoverFile
PUBLIC 379bc 0 xmlSAXParseMemoryWithData
PUBLIC 37a74 0 xmlSAXParseMemory
PUBLIC 37a8c 0 xmlParseMemory
PUBLIC 37aa4 0 xmlRecoverMemory
PUBLIC 37abc 0 xmlSAXUserParseMemory
PUBLIC 37b88 0 xmlCleanupParser
PUBLIC 37bdc 0 xmlCtxtReset
PUBLIC 37e7c 0 xmlCtxtResetPush
PUBLIC 380c4 0 xmlCtxtUseOptions
PUBLIC 380cc 0 xmlReadDoc
PUBLIC 38118 0 xmlReadFile
PUBLIC 38158 0 xmlReadMemory
PUBLIC 38190 0 xmlReadFd
PUBLIC 38234 0 xmlReadIO
PUBLIC 382cc 0 xmlCtxtReadDoc
PUBLIC 38338 0 xmlCtxtReadFile
PUBLIC 383a8 0 xmlCtxtReadMemory
PUBLIC 38440 0 xmlCtxtReadFd
PUBLIC 384d4 0 xmlCtxtReadIO
PUBLIC 38a48 0 xmlBuildQName
PUBLIC 38b14 0 xmlSplitQName2
PUBLIC 38be4 0 xmlSplitQName3
PUBLIC 38c48 0 xmlValidateNCName
PUBLIC 38fec 0 xmlValidateQName
PUBLIC 39604 0 xmlValidateName
PUBLIC 399b8 0 xmlValidateNMToken
PUBLIC 39e0c 0 xmlSetBufferAllocationScheme
PUBLIC 39e24 0 xmlGetBufferAllocationScheme
PUBLIC 39e38 0 xmlSetNs
PUBLIC 39e44 0 xmlFreeNs
PUBLIC 39e94 0 xmlNewNs
PUBLIC 3a4b4 0 xmlFreeNsList
PUBLIC 3a4d8 0 xmlNewDtd
PUBLIC 3a5d8 0 xmlGetIntSubset
PUBLIC 3a610 0 xmlCreateIntSubset
PUBLIC 3a864 0 xmlNewDoc
PUBLIC 3a980 0 xmlNodeListGetString
PUBLIC 3ab48 0 xmlNodeListGetRawString
PUBLIC 3ac88 0 xmlNewDocPI
PUBLIC 3ad78 0 xmlNewPI
PUBLIC 3ad8c 0 xmlNewNode
PUBLIC 3ae40 0 xmlNewNodeEatName
PUBLIC 3aee8 0 xmlNewDocFragment
PUBLIC 3af7c 0 xmlNewText
PUBLIC 3b03c 0 xmlNewCharRef
PUBLIC 3b128 0 xmlNewReference
PUBLIC 3b234 0 xmlNewDocText
PUBLIC 3b4f0 0 xmlNewProp
PUBLIC 3b51c 0 xmlNewNsProp
PUBLIC 3b544 0 xmlNewNsPropEatName
PUBLIC 3b56c 0 xmlNewTextLen
PUBLIC 3b634 0 xmlNewDocTextLen
PUBLIC 3b654 0 xmlNewComment
PUBLIC 3b714 0 xmlNewCDataBlock
PUBLIC 3b7c8 0 xmlNewDocComment
PUBLIC 3b7e4 0 xmlSetListDoc
PUBLIC 3b81c 0 xmlSetTreeDoc
PUBLIC 3b888 0 xmlGetLastChild
PUBLIC 3b894 0 xmlChildElementCount
PUBLIC 3b8fc 0 xmlFirstElementChild
PUBLIC 3b958 0 xmlLastElementChild
PUBLIC 3b9b4 0 xmlPreviousElementSibling
PUBLIC 3ba14 0 xmlNextElementSibling
PUBLIC 3ba70 0 xmlUnlinkNode
PUBLIC 3bc0c 0 xmlFreeDtd
PUBLIC 3bdac 0 xmlFreeDoc
PUBLIC 3bf8c 0 xmlFreeNodeList
PUBLIC 3c144 0 xmlFreeProp
PUBLIC 3c214 0 xmlFreePropList
PUBLIC 3c238 0 xmlRemoveProp
PUBLIC 3c2b4 0 xmlFreeNode
PUBLIC 3c4d0 0 xmlReplaceNode
PUBLIC 3c5d0 0 xmlCopyNamespace
PUBLIC 3c5f8 0 xmlCopyNamespaceList
PUBLIC 3c638 0 xmlGetLineNo
PUBLIC 3c6b4 0 xmlGetNodePath
PUBLIC 3cdf4 0 xmlDocGetRootElement
PUBLIC 3ce20 0 xmlNodeSetName
PUBLIC 3cef4 0 xmlGetNsList
PUBLIC 3d294 0 xmlSearchNs
PUBLIC 3d474 0 xmlSearchNsByHref
PUBLIC 3d7a4 0 xmlReconciliateNs
PUBLIC 3dbc0 0 xmlHasProp
PUBLIC 3dc78 0 xmlHasNsProp
PUBLIC 3dd50 0 xmlAddChild
PUBLIC 3df10 0 xmlNodeAddContentLen
PUBLIC 3e028 0 xmlNodeAddContent
PUBLIC 3e05c 0 xmlAddSibling
PUBLIC 3e188 0 xmlDocSetRootElement
PUBLIC 3e218 0 xmlAddChildList
PUBLIC 3e2fc 0 xmlTextMerge
PUBLIC 3e368 0 xmlStringGetNodeList
PUBLIC 3e77c 0 xmlNewDocProp
PUBLIC 3e89c 0 xmlNewDocNode
PUBLIC 3e930 0 xmlNewDocRawNode
PUBLIC 3e990 0 xmlNewTextChild
PUBLIC 3ea40 0 xmlNewChild
PUBLIC 3eaf0 0 xmlNewDocNodeEatName
PUBLIC 3eb94 0 xmlNodeSetContent
PUBLIC 3ecb8 0 xmlAddNextSibling
PUBLIC 3ee0c 0 xmlAddPrevSibling
PUBLIC 3ef58 0 xmlStringLenGetNodeList
PUBLIC 3f3e0 0 xmlNodeSetContentLen
PUBLIC 3f7c0 0 xmlCopyProp
PUBLIC 3f7d4 0 xmlCopyPropList
PUBLIC 3f828 0 xmlDocCopyNodeList
PUBLIC 3f83c 0 xmlCopyNodeList
PUBLIC 3f848 0 xmlCopyDoc
PUBLIC 3fd20 0 xmlCopyNode
PUBLIC 3fd30 0 xmlCopyDtd
PUBLIC 3fec4 0 xmlDocCopyNode
PUBLIC 3fed0 0 xmlGetProp
PUBLIC 3fee8 0 xmlGetNoNsProp
PUBLIC 3ff08 0 xmlGetNsProp
PUBLIC 3ff24 0 xmlNodeGetLang
PUBLIC 3ff6c 0 xmlNodeGetSpacePreserve
PUBLIC 4002c 0 xmlNodeGetBase
PUBLIC 402b0 0 xmlUnsetProp
PUBLIC 402e4 0 xmlUnsetNsProp
PUBLIC 40328 0 xmlSetNsProp
PUBLIC 40488 0 xmlNodeSetLang
PUBLIC 404e4 0 xmlNodeSetSpacePreserve
PUBLIC 40578 0 xmlNodeSetBase
PUBLIC 40684 0 xmlSetProp
PUBLIC 40744 0 xmlNodeIsText
PUBLIC 40760 0 xmlIsBlankNode
PUBLIC 407c0 0 xmlTextConcat
PUBLIC 40870 0 xmlBufferCreate
PUBLIC 40948 0 xmlBufferCreateSize
PUBLIC 40a34 0 xmlBufferCreateStatic
PUBLIC 40aa4 0 xmlBufferSetAllocationScheme
PUBLIC 40ac8 0 xmlBufferFree
PUBLIC 40b24 0 xmlBufferEmpty
PUBLIC 40b9c 0 xmlBufferShrink
PUBLIC 40c6c 0 xmlBufferGrow
PUBLIC 40d3c 0 xmlBufferDump
PUBLIC 40d7c 0 xmlBufferContent
PUBLIC 40d88 0 xmlBufferLength
PUBLIC 40d94 0 xmlBufferResize
PUBLIC 40f4c 0 xmlBufferAdd
PUBLIC 41020 0 xmlBufferAddHead
PUBLIC 41154 0 xmlBufferCat
PUBLIC 41180 0 xmlNodeBufGetContent
PUBLIC 4134c 0 xmlNodeGetContent
PUBLIC 41440 0 xmlBufferCCat
PUBLIC 414d8 0 xmlBufferWriteCHAR
PUBLIC 414f0 0 xmlBufferWriteChar
PUBLIC 41508 0 xmlBufferWriteQuotedString
PUBLIC 4162c 0 xmlGetDocCompressMode
PUBLIC 4163c 0 xmlSetDocCompressMode
PUBLIC 41668 0 xmlGetCompressMode
PUBLIC 41678 0 xmlSetCompressMode
PUBLIC 416c4 0 xmlDOMWrapNewCtxt
PUBLIC 41710 0 xmlDOMWrapFreeCtxt
PUBLIC 41748 0 xmlDOMWrapRemoveNode
PUBLIC 4195c 0 xmlDOMWrapReconcileNamespaces
PUBLIC 41e5c 0 xmlDOMWrapCloneNode
PUBLIC 42738 0 xmlDOMWrapAdoptNode
PUBLIC 43610 0 xmlHashCreate
PUBLIC 436ac 0 xmlHashCreateDict
PUBLIC 436d4 0 xmlHashFree
PUBLIC 43834 0 xmlHashAddEntry3
PUBLIC 43c60 0 xmlHashAddEntry
PUBLIC 43c7c 0 xmlHashAddEntry2
PUBLIC 43c94 0 xmlHashUpdateEntry3
PUBLIC 43f34 0 xmlHashUpdateEntry
PUBLIC 43f50 0 xmlHashUpdateEntry2
PUBLIC 43f70 0 xmlHashLookup3
PUBLIC 44054 0 xmlHashLookup
PUBLIC 44060 0 xmlHashLookup2
PUBLIC 44068 0 xmlHashQLookup3
PUBLIC 44250 0 xmlHashQLookup
PUBLIC 44270 0 xmlHashQLookup2
PUBLIC 44294 0 xmlHashScanFull
PUBLIC 4437c 0 xmlHashScan
PUBLIC 443a8 0 xmlHashScanFull3
PUBLIC 444a0 0 xmlHashScan3
PUBLIC 444a4 0 xmlHashCopy
PUBLIC 44574 0 xmlHashSize
PUBLIC 44584 0 xmlHashRemoveEntry3
PUBLIC 4473c 0 xmlHashRemoveEntry
PUBLIC 44758 0 xmlHashRemoveEntry2
PUBLIC 44778 0 xmlFileMatch
PUBLIC 448f0 0 xmlIOHTTPMatch
PUBLIC 44914 0 xmlIOFTPMatch
PUBLIC 44938 0 xmlIOHTTPOpen
PUBLIC 4497c 0 xmlIOHTTPRead
PUBLIC 44998 0 xmlIOHTTPClose
PUBLIC 449a8 0 xmlIOFTPOpen
PUBLIC 449ac 0 xmlIOFTPRead
PUBLIC 449c8 0 xmlIOFTPClose
PUBLIC 44a9c 0 __xmlIOErr
PUBLIC 44f2c 0 xmlFileRead
PUBLIC 44f84 0 xmlFileClose
PUBLIC 454c8 0 __xmlLoaderErr
PUBLIC 455ac 0 xmlNormalizeWindowsPath
PUBLIC 455b0 0 xmlCleanupInputCallbacks
PUBLIC 4561c 0 xmlPopInputCallbacks
PUBLIC 4566c 0 xmlCleanupOutputCallbacks
PUBLIC 456d8 0 xmlCheckFilename
PUBLIC 45808 0 xmlFileOpen
PUBLIC 45afc 0 xmlRegisterInputCallbacks
PUBLIC 45b4c 0 xmlRegisterOutputCallbacks
PUBLIC 45b9c 0 xmlRegisterDefaultInputCallbacks
PUBLIC 45ca0 0 xmlRegisterDefaultOutputCallbacks
PUBLIC 45d30 0 xmlRegisterHTTPPostCallbacks
PUBLIC 45d88 0 xmlAllocParserInputBuffer
PUBLIC 45e68 0 __xmlParserInputBufferCreateFilename
PUBLIC 45fec 0 xmlAllocOutputBuffer
PUBLIC 460dc 0 xmlAllocOutputBufferInternal
PUBLIC 461cc 0 xmlFreeParserInputBuffer
PUBLIC 46248 0 xmlParserInputBufferCreateFilename
PUBLIC 46274 0 xmlParserInputBufferCreateFile
PUBLIC 462e4 0 xmlOutputBufferCreateFile
PUBLIC 46354 0 xmlParserInputBufferCreateFd
PUBLIC 463a0 0 xmlParserInputBufferCreateMem
PUBLIC 46428 0 xmlParserInputBufferCreateStatic
PUBLIC 4651c 0 xmlOutputBufferCreateFd
PUBLIC 46560 0 xmlParserInputBufferCreateIO
PUBLIC 46594 0 xmlOutputBufferCreateIO
PUBLIC 465c8 0 xmlOutputBufferCreateBuffer
PUBLIC 465e8 0 xmlParserInputBufferCreateFilenameDefault
PUBLIC 46614 0 xmlOutputBufferCreateFilenameDefault
PUBLIC 46640 0 xmlParserInputBufferPush
PUBLIC 4671c 0 xmlParserInputBufferGrow
PUBLIC 468a4 0 xmlParserInputBufferRead
PUBLIC 468ec 0 xmlOutputBufferWrite
PUBLIC 46c1c 0 xmlOutputBufferWriteEscape
PUBLIC 46ed0 0 xmlOutputBufferWriteString
PUBLIC 46f24 0 xmlOutputBufferFlush
PUBLIC 47024 0 xmlOutputBufferClose
PUBLIC 47134 0 xmlIOHTTPOpenW
PUBLIC 47204 0 __xmlOutputBufferCreateFilename
PUBLIC 4752c 0 xmlOutputBufferCreateFilename
PUBLIC 47810 0 xmlParserGetDirectory
PUBLIC 478fc 0 xmlCheckHTTPInput
PUBLIC 47ab0 0 xmlSetExternalEntityLoader
PUBLIC 47ac4 0 xmlGetExternalEntityLoader
PUBLIC 47ad4 0 xmlLoadExternalEntity
PUBLIC 47b80 0 xmlNoNetExternalEntityLoader
PUBLIC 47d58 0 xmlMallocBreakpoint
PUBLIC 47d9c 0 xmlMemFree
PUBLIC 47f08 0 xmlMemUsed
PUBLIC 47f1c 0 xmlMemBlocks
PUBLIC 47f30 0 xmlMemDisplayLast
PUBLIC 47f98 0 xmlMemDisplay
PUBLIC 47ff4 0 xmlMemShow
PUBLIC 48020 0 xmlMemoryDump
PUBLIC 48024 0 xmlInitMemory
PUBLIC 480c4 0 xmlMallocLoc
PUBLIC 4822c 0 xmlMemMalloc
PUBLIC 48240 0 xmlMallocAtomicLoc
PUBLIC 483a8 0 xmlReallocLoc
PUBLIC 48558 0 xmlMemRealloc
PUBLIC 4856c 0 xmlMemStrdupLoc
PUBLIC 486b8 0 xmlMemoryStrdup
PUBLIC 486cc 0 xmlCleanupMemory
PUBLIC 48700 0 xmlMemSetup
PUBLIC 48790 0 xmlMemGet
PUBLIC 48808 0 xmlGcMemSetup
PUBLIC 488a4 0 xmlGcMemGet
PUBLIC 48d14 0 xmlCreateURI
PUBLIC 48d80 0 xmlSaveUri
PUBLIC 49c4c 0 xmlPrintURI
PUBLIC 49c88 0 xmlFreeURI
PUBLIC 49d64 0 xmlNormalizeURIPath
PUBLIC 49fd4 0 xmlURIUnescapeString
PUBLIC 4b0a4 0 xmlParseURI
PUBLIC 4b0e0 0 xmlParseURIReference
PUBLIC 4b0e4 0 xmlParseURIRaw
PUBLIC 4b138 0 xmlURIEscapeStr
PUBLIC 4b33c 0 xmlURIEscape
PUBLIC 4b828 0 xmlBuildURI
PUBLIC 4bdf4 0 xmlBuildRelativeURI
PUBLIC 4c278 0 xmlCanonicPath
PUBLIC 4c358 0 xmlPathToURI
PUBLIC 4d9c4 0 xmlNewValidCtxt
PUBLIC 4da10 0 xmlFreeValidCtxt
PUBLIC 4da5c 0 xmlNewDocElementContent
PUBLIC 4dbdc 0 xmlNewElementContent
PUBLIC 4dbf0 0 xmlCopyDocElementContent
PUBLIC 4dddc 0 xmlCopyElementContent
PUBLIC 4de84 0 xmlFreeDocElementContent
PUBLIC 4dffc 0 xmlFreeElementContent
PUBLIC 4e008 0 xmlSprintfElementContent
PUBLIC 4e00c 0 xmlSnprintfElementContent
PUBLIC 4e3e0 0 xmlValidBuildContentModel
PUBLIC 4e910 0 xmlAddElementDecl
PUBLIC 4ed40 0 xmlFreeElementTable
PUBLIC 4ed50 0 xmlCopyElementTable
PUBLIC 4ed60 0 xmlDumpElementDecl
PUBLIC 4ef78 0 xmlDumpElementTable
PUBLIC 4ef9c 0 xmlCreateEnumeration
PUBLIC 4f000 0 xmlFreeEnumeration
PUBLIC 4f190 0 xmlCopyEnumeration
PUBLIC 4f290 0 xmlAddAttributeDecl
PUBLIC 4f7e4 0 xmlFreeAttributeTable
PUBLIC 4f7f4 0 xmlCopyAttributeTable
PUBLIC 4f804 0 xmlDumpAttributeDecl
PUBLIC 4fa88 0 xmlDumpAttributeTable
PUBLIC 4faac 0 xmlAddNotationDecl
PUBLIC 4fbe8 0 xmlFreeNotationTable
PUBLIC 4fbf8 0 xmlCopyNotationTable
PUBLIC 4fc08 0 xmlDumpNotationDecl
PUBLIC 4fccc 0 xmlDumpNotationTable
PUBLIC 4fcf0 0 xmlAddID
PUBLIC 4fe88 0 xmlFreeIDTable
PUBLIC 4fe98 0 xmlRemoveID
PUBLIC 4ff40 0 xmlGetID
PUBLIC 50204 0 xmlAddRef
PUBLIC 503f8 0 xmlFreeRefTable
PUBLIC 50408 0 xmlRemoveRef
PUBLIC 504d4 0 xmlGetRefs
PUBLIC 504fc 0 xmlGetDtdElementDesc
PUBLIC 505b0 0 xmlGetDtdQElementDesc
PUBLIC 50710 0 xmlGetDtdAttrDesc
PUBLIC 507b4 0 xmlIsID
PUBLIC 509f4 0 xmlIsRef
PUBLIC 50a9c 0 xmlGetDtdQAttrDesc
PUBLIC 50acc 0 xmlGetDtdNotationDesc
PUBLIC 50f30 0 xmlValidateNotationUse
PUBLIC 51020 0 xmlIsMixedElement
PUBLIC 510a0 0 xmlValidateNameValue
PUBLIC 510ac 0 xmlValidateNamesValue
PUBLIC 510b8 0 xmlValidateNmtokenValue
PUBLIC 510c4 0 xmlValidateNmtokensValue
PUBLIC 510d0 0 xmlValidateNotationDecl
PUBLIC 510d8 0 xmlValidateAttributeValue
PUBLIC 510ec 0 xmlValidCtxtNormalizeAttributeValue
PUBLIC 51318 0 xmlValidNormalizeAttributeValue
PUBLIC 51474 0 xmlValidateAttributeDecl
PUBLIC 51728 0 xmlValidateElementDecl
PUBLIC 51a2c 0 xmlValidateOneAttribute
PUBLIC 51efc 0 xmlValidateOneNamespace
PUBLIC 52564 0 xmlValidatePushElement
PUBLIC 529e0 0 xmlValidatePushCData
PUBLIC 52ad4 0 xmlValidatePopElement
PUBLIC 52c00 0 xmlValidateOneElement
PUBLIC 53634 0 xmlValidateRoot
PUBLIC 537cc 0 xmlValidateElement
PUBLIC 53928 0 xmlValidateDocumentFinal
PUBLIC 53994 0 xmlValidateDtd
PUBLIC 53a50 0 xmlValidateDtdFinal
PUBLIC 53b30 0 xmlValidateDocument
PUBLIC 53cdc 0 xmlValidGetPotentialChildren
PUBLIC 53df4 0 xmlValidGetValidElements
PUBLIC 56388 0 htmlInitAutoClose
PUBLIC 56a24 0 htmlTagLookup
PUBLIC 56de4 0 htmlAutoCloseTag
PUBLIC 56e5c 0 htmlIsAutoClosed
PUBLIC 56ea4 0 htmlIsScriptAttribute
PUBLIC 56f10 0 htmlEntityLookup
PUBLIC 56f64 0 htmlEntityValueLookup
PUBLIC 56fb4 0 UTF8ToHtml
PUBLIC 5719c 0 htmlEncodeEntities
PUBLIC 573b4 0 htmlNewDocNoDtD
PUBLIC 57480 0 htmlNewDoc
PUBLIC 574a4 0 htmlParseEntityRef
PUBLIC 575bc 0 htmlParseCharRef
PUBLIC 58794 0 htmlParseElement
PUBLIC 58ee0 0 __htmlParseContent
PUBLIC 58eec 0 htmlParseDocument
PUBLIC 59254 0 htmlFreeParserCtxt
PUBLIC 59258 0 htmlNewParserCtxt
PUBLIC 594ac 0 htmlCreateMemoryParserCtxt
PUBLIC 59548 0 htmlParseChunk
PUBLIC 5a63c 0 htmlCreatePushParserCtxt
PUBLIC 5a8c4 0 htmlSAXParseDoc
PUBLIC 5aa20 0 htmlParseDoc
PUBLIC 5aa2c 0 htmlCreateFileParserCtxt
PUBLIC 5ab4c 0 htmlSAXParseFile
PUBLIC 5abbc 0 htmlParseFile
PUBLIC 5abc8 0 htmlHandleOmittedElem
PUBLIC 5abe4 0 htmlElementAllowedHere
PUBLIC 5ac34 0 htmlElementStatusHere
PUBLIC 5ac74 0 htmlAttrAllowed
PUBLIC 5ad44 0 htmlNodeStatus
PUBLIC 5ade0 0 htmlCtxtReset
PUBLIC 5b078 0 htmlCtxtUseOptions
PUBLIC 5b278 0 htmlReadDoc
PUBLIC 5b2d8 0 htmlReadFile
PUBLIC 5b324 0 htmlReadMemory
PUBLIC 5b398 0 htmlReadFd
PUBLIC 5b440 0 htmlReadIO
PUBLIC 5b4f0 0 htmlCtxtReadDoc
PUBLIC 5b55c 0 htmlCtxtReadFile
PUBLIC 5b5cc 0 htmlCtxtReadMemory
PUBLIC 5b664 0 htmlCtxtReadFd
PUBLIC 5b6f4 0 htmlCtxtReadIO
PUBLIC 5b794 0 htmlGetMetaEncoding
PUBLIC 5ba88 0 htmlSetMetaEncoding
PUBLIC 5be10 0 htmlIsBooleanAttr
PUBLIC 5c058 0 htmlDocContentDumpOutput
PUBLIC 5c060 0 htmlNodeDumpFormatOutput
PUBLIC 5c6d0 0 htmlNodeDumpFileFormat
PUBLIC 5c78c 0 htmlNodeDumpFile
PUBLIC 5c7a8 0 htmlNodeDumpOutput
PUBLIC 5c7c0 0 htmlNodeDump
PUBLIC 5c8a0 0 htmlDocContentDumpFormatOutput
PUBLIC 5c9d8 0 htmlDocDumpMemoryFormat
PUBLIC 5caf0 0 htmlDocDumpMemory
PUBLIC 5caf8 0 htmlDocDump
PUBLIC 5cbc0 0 htmlSaveFile
PUBLIC 5cc80 0 htmlSaveFileFormat
PUBLIC 5cd7c 0 htmlSaveFileEnc
PUBLIC 5d3a4 0 xmlXPathNextSelf
PUBLIC 5d3c8 0 xmlXPathNextChild
PUBLIC 5d468 0 xmlXPathNextDescendant
PUBLIC 5d540 0 xmlXPathNextDescendantOrSelf
PUBLIC 5d588 0 xmlXPathNextFollowingSibling
PUBLIC 5d5d4 0 xmlXPathNextPrecedingSibling
PUBLIC 5d640 0 xmlXPathNextFollowing
PUBLIC 5d77c 0 xmlXPathNextAttribute
PUBLIC 5da34 0 xmlXPathNextParent
PUBLIC 5db24 0 xmlXPathNextAncestor
PUBLIC 5dcdc 0 xmlXPathNextAncestorOrSelf
PUBLIC 5e0d4 0 xmlXPathNextNamespace
PUBLIC 5ef3c 0 xmlXPathInit
PUBLIC 5f014 0 xmlXPathIsNaN
PUBLIC 5f094 0 xmlXPathIsInf
PUBLIC 5f0c4 0 xmlXPathErr
PUBLIC 5f8f4 0 xmlXPatherror
PUBLIC 5f8fc 0 xmlXPathDebugDumpObject
PUBLIC 605e8 0 xmlXPathDebugDumpCompExpr
PUBLIC 60698 0 xmlXPathContextSetCache
PUBLIC 60780 0 valuePop
PUBLIC 607cc 0 valuePush
PUBLIC 60884 0 xmlXPathOrderDocElems
PUBLIC 6090c 0 xmlXPathCmpNodes
PUBLIC 60b70 0 xmlXPathNodeSetSort
PUBLIC 60c2c 0 xmlXPathNodeSetFreeNs
PUBLIC 60d90 0 xmlXPathNodeSetCreate
PUBLIC 611e8 0 xmlXPathNodeSetContains
PUBLIC 612a0 0 xmlXPathNodeSetAddNs
PUBLIC 613ec 0 xmlXPathNodeSetAdd
PUBLIC 6161c 0 xmlXPathNodeSetAddUnique
PUBLIC 61700 0 xmlXPathNodeSetMerge
PUBLIC 6187c 0 xmlXPathNodeSetDel
PUBLIC 6190c 0 xmlXPathNodeSetRemove
PUBLIC 61988 0 xmlXPathFreeNodeSet
PUBLIC 61a0c 0 xmlXPathFreeObject
PUBLIC 61ab4 0 xmlXPathFreeCompExpr
PUBLIC 61ec4 0 xmlXPathPopNodeSet
PUBLIC 61f5c 0 xmlXPathPopExternal
PUBLIC 61ff8 0 xmlXPathNewNodeSet
PUBLIC 6248c 0 xmlXPathNewValueTree
PUBLIC 624fc 0 xmlXPathNewNodeSetList
PUBLIC 62564 0 xmlXPathWrapNodeSet
PUBLIC 62610 0 xmlXPathFreeNodeSetList
PUBLIC 62634 0 xmlXPathDifference
PUBLIC 626ec 0 xmlXPathIntersection
PUBLIC 627a4 0 xmlXPathHasSameNodes
PUBLIC 6283c 0 xmlXPathNodeLeadingSorted
PUBLIC 628e8 0 xmlXPathNodeLeading
PUBLIC 62908 0 xmlXPathLeadingSorted
PUBLIC 62938 0 xmlXPathLeading
PUBLIC 629c0 0 xmlXPathNodeTrailingSorted
PUBLIC 62a78 0 xmlXPathNodeTrailing
PUBLIC 62a98 0 xmlXPathTrailingSorted
PUBLIC 62ac8 0 xmlXPathTrailing
PUBLIC 62b50 0 xmlXPathRegisterFuncNS
PUBLIC 62bb8 0 xmlXPathRegisterFunc
PUBLIC 62bc4 0 xmlXPathRegisterFuncLookup
PUBLIC 62bd4 0 xmlXPathFunctionLookupNS
PUBLIC 62c40 0 xmlXPathFunctionLookup
PUBLIC 62c90 0 xmlXPathRegisteredFuncsCleanup
PUBLIC 62cb4 0 xmlXPathRegisterVariableNS
PUBLIC 62d40 0 xmlXPathRegisterVariable
PUBLIC 62d4c 0 xmlXPathRegisterVariableLookup
PUBLIC 62d5c 0 xmlXPathRegisteredVariablesCleanup
PUBLIC 62d88 0 xmlXPathRegisterNs
PUBLIC 62e24 0 xmlXPathNsLookup
PUBLIC 62edc 0 xmlXPathRegisteredNsCleanup
PUBLIC 62f0c 0 xmlXPathNewFloat
PUBLIC 62fe8 0 xmlXPathLastFunction
PUBLIC 6303c 0 xmlXPathPositionFunction
PUBLIC 63090 0 xmlXPathCountFunction
PUBLIC 63188 0 xmlXPathNewBoolean
PUBLIC 63270 0 xmlXPathTrueFunction
PUBLIC 632ac 0 xmlXPathFalseFunction
PUBLIC 632e4 0 xmlXPathNewString
PUBLIC 63420 0 xmlXPathWrapString
PUBLIC 634f8 0 xmlXPathNewCString
PUBLIC 63614 0 xmlXPathNamespaceURIFunction
PUBLIC 636f4 0 xmlXPathLocalNameFunction
PUBLIC 63970 0 xmlXPathWrapCString
PUBLIC 63974 0 xmlXPathWrapExternal
PUBLIC 639d0 0 xmlXPathObjectCopy
PUBLIC 63b94 0 xmlXPathVariableLookupNS
PUBLIC 63c0c 0 xmlXPathVariableLookup
PUBLIC 63c48 0 xmlXPathCastBooleanToString
PUBLIC 63c68 0 xmlXPathCastNumberToString
PUBLIC 63f7c 0 xmlXPathCastNodeToString
PUBLIC 63fa0 0 xmlXPathDistinctSorted
PUBLIC 640a0 0 xmlXPathDistinct
PUBLIC 640dc 0 xmlXPathCastNodeSetToString
PUBLIC 64218 0 xmlXPathIdFunction
PUBLIC 6435c 0 xmlXPathStringFunction
PUBLIC 643cc 0 xmlXPathStringLengthFunction
PUBLIC 64504 0 xmlXPathConcatFunction
PUBLIC 64614 0 xmlXPathContainsFunction
PUBLIC 64720 0 xmlXPathStartsWithFunction
PUBLIC 6483c 0 xmlXPathSubstringBeforeFunction
PUBLIC 64930 0 xmlXPathSubstringAfterFunction
PUBLIC 64a44 0 xmlXPathNormalizeFunction
PUBLIC 64bdc 0 xmlXPathTranslateFunction
PUBLIC 64e0c 0 xmlXPathLangFunction
PUBLIC 64f3c 0 xmlXPathCastToString
PUBLIC 65024 0 xmlXPathPopString
PUBLIC 650a0 0 xmlXPathConvertString
PUBLIC 65194 0 xmlXPathCastBooleanToNumber
PUBLIC 651b8 0 xmlXPathCastNumberToBoolean
PUBLIC 651ec 0 xmlXPathCastStringToBoolean
PUBLIC 65210 0 xmlXPathCastNodeSetToBoolean
PUBLIC 65228 0 xmlXPathCastToBoolean
PUBLIC 652e0 0 xmlXPathPopBoolean
PUBLIC 65568 0 xmlXPathBooleanFunction
PUBLIC 655e0 0 xmlXPathNotFunction
PUBLIC 65650 0 xmlXPathConvertBoolean
PUBLIC 65694 0 xmlXPathFreeContext
PUBLIC 656ec 0 xmlXPathNewParserContext
PUBLIC 657ac 0 xmlXPathFreeParserContext
PUBLIC 65814 0 xmlXPathNextPreceding
PUBLIC 658ec 0 xmlXPathRoot
PUBLIC 65920 0 xmlXPathParseNCName
PUBLIC 65a60 0 xmlXPathParseName
PUBLIC 65b18 0 xmlXPathStringEvalNumber
PUBLIC 65d64 0 xmlXPathCastStringToNumber
PUBLIC 65d68 0 xmlXPathCastNodeToNumber
PUBLIC 6603c 0 xmlXPathSumFunction
PUBLIC 66120 0 xmlXPathCastNodeSetToNumber
PUBLIC 66178 0 xmlXPathCastToNumber
PUBLIC 66254 0 xmlXPathPopNumber
PUBLIC 662d4 0 xmlXPathConvertNumber
PUBLIC 66320 0 xmlXPathNumberFunction
PUBLIC 66880 0 xmlXPathEqualValues
PUBLIC 66a6c 0 xmlXPathNotEqualValues
PUBLIC 66c50 0 xmlXPathCompareValues
PUBLIC 6723c 0 xmlXPathValueFlipSign
PUBLIC 67354 0 xmlXPathAddValues
PUBLIC 673ec 0 xmlXPathSubValues
PUBLIC 67484 0 xmlXPathMultValues
PUBLIC 6751c 0 xmlXPathDivValues
PUBLIC 67688 0 xmlXPathModValues
PUBLIC 67744 0 xmlXPathSubstringFunction
PUBLIC 679ec 0 xmlXPathFloorFunction
PUBLIC 67aa0 0 xmlXPathCeilingFunction
PUBLIC 67b80 0 xmlXPathRoundFunction
PUBLIC 67cc4 0 xmlXPathIsNodeType
PUBLIC 6a804 0 xmlXPathEvalPredicate
PUBLIC 6a8f0 0 xmlXPathEvaluatePredicateResult
PUBLIC 6e494 0 xmlXPathCtxtCompile
PUBLIC 6e584 0 xmlXPathCompile
PUBLIC 6e590 0 xmlXPathCompiledEval
PUBLIC 6e5b0 0 xmlXPathCompiledEvalToBoolean
PUBLIC 6e5bc 0 xmlXPathEvalExpr
PUBLIC 6e698 0 xmlXPathEval
PUBLIC 6e860 0 xmlXPathEvalExpression
PUBLIC 6e9c0 0 xmlXPathRegisterAllFunctions
PUBLIC 6ed60 0 xmlXPathNewContext
PUBLIC 6f280 0 xmlXPtrNewRange
PUBLIC 6f330 0 xmlXPtrNewRangePoints
PUBLIC 6f3f0 0 xmlXPtrNewRangePointNode
PUBLIC 6f4a0 0 xmlXPtrNewRangeNodePoint
PUBLIC 6f55c 0 xmlXPtrNewRangeNodes
PUBLIC 6f5f0 0 xmlXPtrNewCollapsedRange
PUBLIC 6f66c 0 xmlXPtrNewRangeNodeObject
PUBLIC 6f7d4 0 xmlXPtrLocationSetCreate
PUBLIC 6f8a0 0 xmlXPtrLocationSetAdd
PUBLIC 6fa00 0 xmlXPtrLocationSetMerge
PUBLIC 6fa48 0 xmlXPtrLocationSetDel
PUBLIC 6fac0 0 xmlXPtrLocationSetRemove
PUBLIC 6fb10 0 xmlXPtrFreeLocationSet
PUBLIC 6fb80 0 xmlXPtrNewLocationSetNodes
PUBLIC 6fc98 0 xmlXPtrNewLocationSetNodeSet
PUBLIC 6fd3c 0 xmlXPtrWrapLocationSet
PUBLIC 70508 0 xmlXPtrRangeToFunction
PUBLIC 70670 0 xmlXPtrNewContext
PUBLIC 7079c 0 xmlXPtrEval
PUBLIC 70eb8 0 xmlXPtrAdvanceNode
PUBLIC 716c0 0 xmlXPtrBuildNodeList
PUBLIC 71c3c 0 xmlXPtrEvalRangePredicate
PUBLIC 72bc4 0 xmlNanoHTTPCleanup
PUBLIC 72c14 0 xmlNanoHTTPScanProxy
PUBLIC 72d04 0 xmlNanoHTTPInit
PUBLIC 72db0 0 xmlNanoHTTPRead
PUBLIC 72f08 0 xmlNanoHTTPClose
PUBLIC 72f14 0 xmlNanoHTTPMethodRedir
PUBLIC 73b04 0 xmlNanoHTTPOpenRedir
PUBLIC 73b3c 0 xmlNanoHTTPMethod
PUBLIC 73b64 0 xmlNanoHTTPOpen
PUBLIC 73b90 0 xmlNanoHTTPFetch
PUBLIC 73c70 0 xmlNanoHTTPSave
PUBLIC 73d20 0 xmlNanoHTTPReturnCode
PUBLIC 73d30 0 xmlNanoHTTPAuthHeader
PUBLIC 73d3c 0 xmlNanoHTTPContentLength
PUBLIC 73d4c 0 xmlNanoHTTPRedir
PUBLIC 73d58 0 xmlNanoHTTPEncoding
PUBLIC 73d64 0 xmlNanoHTTPMimeType
PUBLIC 740ec 0 xmlNanoFTPCleanup
PUBLIC 741a8 0 xmlNanoFTPProxy
PUBLIC 74300 0 xmlNanoFTPUpdateURL
PUBLIC 74408 0 xmlNanoFTPScanProxy
PUBLIC 744f8 0 xmlNanoFTPInit
PUBLIC 74610 0 xmlNanoFTPNewCtxt
PUBLIC 746f0 0 xmlNanoFTPFreeCtxt
PUBLIC 7477c 0 xmlNanoFTPGetResponse
PUBLIC 74780 0 xmlNanoFTPCheckResponse
PUBLIC 74844 0 xmlNanoFTPQuit
PUBLIC 748c8 0 xmlNanoFTPConnect
PUBLIC 75050 0 xmlNanoFTPConnectTo
PUBLIC 750c0 0 xmlNanoFTPCwd
PUBLIC 7517c 0 xmlNanoFTPDele
PUBLIC 75234 0 xmlNanoFTPGetConnection
PUBLIC 756b0 0 xmlNanoFTPCloseConnection
PUBLIC 757a0 0 xmlNanoFTPList
PUBLIC 75f0c 0 xmlNanoFTPGetSocket
PUBLIC 760a4 0 xmlNanoFTPGet
PUBLIC 76240 0 xmlNanoFTPRead
PUBLIC 762b8 0 xmlNanoFTPOpen
PUBLIC 76334 0 xmlNanoFTPClose
PUBLIC 78400 0 xmlFreeCatalog
PUBLIC 7846c 0 xmlConvertSGMLCatalog
PUBLIC 78500 0 xmlParseCatalogFile
PUBLIC 79764 0 xmlLoadSGMLSuperCatalog
PUBLIC 797ec 0 xmlLoadACatalog
PUBLIC 79910 0 xmlACatalogResolveSystem
PUBLIC 799c0 0 xmlACatalogResolvePublic
PUBLIC 79a70 0 xmlACatalogResolve
PUBLIC 79ba4 0 xmlACatalogResolveURI
PUBLIC 79c58 0 xmlACatalogDump
PUBLIC 79d98 0 xmlACatalogAdd
PUBLIC 7a2f4 0 xmlACatalogRemove
PUBLIC 7a42c 0 xmlNewCatalog
PUBLIC 7a490 0 xmlCatalogIsEmpty
PUBLIC 7a504 0 xmlInitializeCatalog
PUBLIC 7a6a4 0 xmlLoadCatalog
PUBLIC 7a72c 0 xmlLoadCatalogs
PUBLIC 7a800 0 xmlCatalogCleanup
PUBLIC 7a8d8 0 xmlCatalogResolveSystem
PUBLIC 7a918 0 xmlCatalogResolvePublic
PUBLIC 7a958 0 xmlCatalogResolve
PUBLIC 7a9a0 0 xmlCatalogResolveURI
PUBLIC 7a9e0 0 xmlCatalogDump
PUBLIC 7aa24 0 xmlCatalogAdd
PUBLIC 7ab08 0 xmlCatalogRemove
PUBLIC 7ab60 0 xmlCatalogConvert
PUBLIC 7abb0 0 xmlCatalogGetDefaults
PUBLIC 7abc4 0 xmlCatalogSetDefaults
PUBLIC 7acc8 0 xmlCatalogSetDefaultPrefer
PUBLIC 7ad84 0 xmlCatalogSetDebug
PUBLIC 7adac 0 xmlCatalogFreeLocal
PUBLIC 7adf4 0 xmlCatalogAddLocal
PUBLIC 7aed0 0 xmlCatalogLocalResolve
PUBLIC 7afc8 0 xmlCatalogLocalResolveURI
PUBLIC 7b070 0 xmlCatalogGetSystem
PUBLIC 7b184 0 xmlCatalogGetPublic
PUBLIC 7b298 0 xmlInitGlobals
PUBLIC 7b2c0 0 xmlCleanupGlobals
PUBLIC 7b2f0 0 xmlInitializeGlobalState
PUBLIC 7b4d4 0 xmlThrDefSetGenericErrorFunc
PUBLIC 7b53c 0 xmlThrDefSetStructuredErrorFunc
PUBLIC 7b570 0 xmlRegisterNodeDefault
PUBLIC 7b5a0 0 xmlThrDefRegisterNodeDefault
PUBLIC 7b5e8 0 xmlDeregisterNodeDefault
PUBLIC 7b618 0 xmlThrDefDeregisterNodeDefault
PUBLIC 7b660 0 xmlThrDefParserInputBufferCreateFilenameDefault
PUBLIC 7b6b0 0 xmlThrDefOutputBufferCreateFilenameDefault
PUBLIC 7b700 0 __docbDefaultSAXHandler
PUBLIC 7b710 0 __htmlDefaultSAXHandler
PUBLIC 7b720 0 __xmlLastError
PUBLIC 7b730 0 __oldXMLWDcompatibility
PUBLIC 7b740 0 __xmlBufferAllocScheme
PUBLIC 7b750 0 xmlThrDefBufferAllocScheme
PUBLIC 7b790 0 __xmlDefaultBufferSize
PUBLIC 7b7a0 0 xmlThrDefDefaultBufferSize
PUBLIC 7b7e0 0 __xmlDefaultSAXHandler
PUBLIC 7b7f0 0 __xmlDefaultSAXLocator
PUBLIC 7b800 0 __xmlDoValidityCheckingDefaultValue
PUBLIC 7b810 0 xmlThrDefDoValidityCheckingDefaultValue
PUBLIC 7b844 0 __xmlGenericError
PUBLIC 7b854 0 __xmlStructuredError
PUBLIC 7b864 0 __xmlGenericErrorContext
PUBLIC 7b874 0 __xmlStructuredErrorContext
PUBLIC 7b884 0 __xmlGetWarningsDefaultValue
PUBLIC 7b894 0 xmlThrDefGetWarningsDefaultValue
PUBLIC 7b8d4 0 __xmlIndentTreeOutput
PUBLIC 7b8e4 0 xmlThrDefIndentTreeOutput
PUBLIC 7b924 0 __xmlTreeIndentString
PUBLIC 7b934 0 xmlThrDefTreeIndentString
PUBLIC 7b974 0 __xmlKeepBlanksDefaultValue
PUBLIC 7b984 0 xmlThrDefKeepBlanksDefaultValue
PUBLIC 7b9c4 0 __xmlLineNumbersDefaultValue
PUBLIC 7b9d4 0 xmlThrDefLineNumbersDefaultValue
PUBLIC 7ba08 0 __xmlLoadExtDtdDefaultValue
PUBLIC 7ba18 0 xmlThrDefLoadExtDtdDefaultValue
PUBLIC 7ba4c 0 __xmlParserDebugEntities
PUBLIC 7ba5c 0 xmlThrDefParserDebugEntities
PUBLIC 7ba90 0 __xmlParserVersion
PUBLIC 7baa0 0 __xmlPedanticParserDefaultValue
PUBLIC 7bab0 0 xmlThrDefPedanticParserDefaultValue
PUBLIC 7bae4 0 __xmlSaveNoEmptyTags
PUBLIC 7baf4 0 xmlThrDefSaveNoEmptyTags
PUBLIC 7bb28 0 __xmlSubstituteEntitiesDefaultValue
PUBLIC 7bb38 0 xmlThrDefSubstituteEntitiesDefaultValue
PUBLIC 7bb6c 0 __xmlRegisterNodeDefaultValue
PUBLIC 7bb7c 0 __xmlDeregisterNodeDefaultValue
PUBLIC 7bb8c 0 __xmlParserInputBufferCreateFilenameValue
PUBLIC 7bb9c 0 __xmlOutputBufferCreateFilenameValue
PUBLIC 7bbac 0 xmlNewMutex
PUBLIC 7bbb4 0 xmlFreeMutex
PUBLIC 7bbc0 0 xmlMutexLock
PUBLIC 7bbc4 0 xmlMutexUnlock
PUBLIC 7bbc8 0 xmlNewRMutex
PUBLIC 7bbd0 0 xmlFreeRMutex
PUBLIC 7bbdc 0 xmlRMutexLock
PUBLIC 7bbe0 0 xmlRMutexUnlock
PUBLIC 7bbe4 0 __xmlGlobalInitMutexLock
PUBLIC 7bbe8 0 __xmlGlobalInitMutexUnlock
PUBLIC 7bbec 0 __xmlGlobalInitMutexDestroy
PUBLIC 7bbf0 0 xmlGetGlobalState
PUBLIC 7bbf8 0 xmlGetThreadId
PUBLIC 7bc00 0 xmlIsMainThread
PUBLIC 7bc08 0 xmlLockLibrary
PUBLIC 7bc10 0 xmlUnlockLibrary
PUBLIC 7bc18 0 xmlInitThreads
PUBLIC 7bc1c 0 xmlCleanupThreads
PUBLIC 7bc20 0 xmlStrndup
PUBLIC 7bc8c 0 xmlStrdup
PUBLIC 7bcb8 0 xmlCharStrndup
PUBLIC 7bd40 0 xmlCharStrdup
PUBLIC 7bd6c 0 xmlStrcmp
PUBLIC 7bdc4 0 xmlStrEqual
PUBLIC 7be10 0 xmlStrQEqual
PUBLIC 7beb8 0 xmlStrncmp
PUBLIC 7bef4 0 xmlStrcasecmp
PUBLIC 7bf60 0 xmlStrncasecmp
PUBLIC 7bfe0 0 xmlStrchr
PUBLIC 7c010 0 xmlStrsub
PUBLIC 7c068 0 xmlStrlen
PUBLIC 7c08c 0 xmlStrstr
PUBLIC 7c100 0 xmlStrcasestr
PUBLIC 7c188 0 xmlStrncat
PUBLIC 7c234 0 xmlStrncatNew
PUBLIC 7c2f4 0 xmlStrcat
PUBLIC 7c334 0 xmlStrPrintf
PUBLIC 7c388 0 xmlStrVPrintf
PUBLIC 7c3c0 0 xmlUTF8Size
PUBLIC 7c410 0 xmlUTF8Charcmp
PUBLIC 7c444 0 xmlUTF8Strlen
PUBLIC 7c4e0 0 xmlGetUTF8Char
PUBLIC 7c628 0 xmlCheckUTF8
PUBLIC 7c704 0 xmlUTF8Strsize
PUBLIC 7c768 0 xmlUTF8Strndup
PUBLIC 7c808 0 xmlUTF8Strpos
PUBLIC 7c878 0 xmlUTF8Strloc
PUBLIC 7c91c 0 xmlUTF8Strsub
PUBLIC 82004 0 xmlRegNewExecCtxt
PUBLIC 8217c 0 xmlRegFreeExecCtxt
PUBLIC 822a4 0 xmlRegExecPushString
PUBLIC 822ac 0 xmlRegExecPushString2
PUBLIC 823fc 0 xmlRegExecNextValues
PUBLIC 8242c 0 xmlRegExecErrInfo
PUBLIC 82474 0 xmlRegexpPrint
PUBLIC 82a80 0 xmlRegexpExec
PUBLIC 830e8 0 xmlRegFreeRegexp
PUBLIC 8323c 0 xmlFreeAutomata
PUBLIC 83248 0 xmlNewAutomata
PUBLIC 832cc 0 xmlRegexpIsDeterminist
PUBLIC 83a88 0 xmlRegexpCompile
PUBLIC 83b58 0 xmlAutomataSetFlags
PUBLIC 83b6c 0 xmlAutomataGetInitState
PUBLIC 83b78 0 xmlAutomataSetFinalState
PUBLIC 83b98 0 xmlAutomataNewTransition
PUBLIC 83c2c 0 xmlAutomataNewTransition2
PUBLIC 83d54 0 xmlAutomataNewNegTrans
PUBLIC 83ecc 0 xmlAutomataNewCountTrans2
PUBLIC 840ac 0 xmlAutomataNewCountTrans
PUBLIC 841c8 0 xmlAutomataNewOnceTrans2
PUBLIC 84378 0 xmlAutomataNewOnceTrans
PUBLIC 84474 0 xmlAutomataNewState
PUBLIC 844a4 0 xmlAutomataNewEpsilon
PUBLIC 844e0 0 xmlAutomataNewAllTrans
PUBLIC 84580 0 xmlAutomataNewCounter
PUBLIC 845bc 0 xmlAutomataNewCountedTrans
PUBLIC 84614 0 xmlAutomataNewCounterTrans
PUBLIC 8466c 0 xmlAutomataCompile
PUBLIC 8469c 0 xmlAutomataIsDeterminist
PUBLIC 846c0 0 xmlExpNewCtxt
PUBLIC 847c0 0 xmlExpFreeCtxt
PUBLIC 84804 0 xmlExpFree
PUBLIC 86024 0 xmlExpRef
PUBLIC 86038 0 xmlExpNewAtom
PUBLIC 86094 0 xmlExpNewOr
PUBLIC 86104 0 xmlExpNewSeq
PUBLIC 86174 0 xmlExpNewRange
PUBLIC 861ec 0 xmlExpGetLanguage
PUBLIC 86228 0 xmlExpGetStart
PUBLIC 86264 0 xmlExpIsNillable
PUBLIC 86278 0 xmlExpStringDerive
PUBLIC 862e4 0 xmlExpExpDerive
PUBLIC 8636c 0 xmlExpSubsume
PUBLIC 8643c 0 xmlExpParse
PUBLIC 864a4 0 xmlExpDump
PUBLIC 864bc 0 xmlExpMaxToken
PUBLIC 864cc 0 xmlExpCtxtNbNodes
PUBLIC 864dc 0 xmlExpCtxtNbCons
PUBLIC 87688 0 xmlSchemaInitTypes
PUBLIC 87cec 0 xmlSchemaCleanupTypes
PUBLIC 87d88 0 xmlSchemaIsBuiltInTypeFacet
PUBLIC 87e54 0 xmlSchemaGetBuiltInType
PUBLIC 882e0 0 xmlSchemaValueAppend
PUBLIC 88300 0 xmlSchemaValueGetNext
PUBLIC 8830c 0 xmlSchemaValueGetAsString
PUBLIC 88378 0 xmlSchemaValueGetAsBoolean
PUBLIC 88394 0 xmlSchemaNewStringValue
PUBLIC 883f0 0 xmlSchemaNewNOTATIONValue
PUBLIC 8841c 0 xmlSchemaNewQNameValue
PUBLIC 88440 0 xmlSchemaFreeValue
PUBLIC 89a50 0 xmlSchemaGetPredefinedType
PUBLIC 89aa4 0 xmlSchemaGetBuiltInListSimpleTypeItemType
PUBLIC 89b18 0 xmlSchemaWhiteSpaceReplace
PUBLIC 89b94 0 xmlSchemaCollapseString
PUBLIC 89d0c 0 xmlSchemaValPredefTypeNode
PUBLIC 8c1b8 0 xmlSchemaValPredefTypeNodeNoNorm
PUBLIC 8c1d8 0 xmlSchemaValidatePredefinedType
PUBLIC 8c1e0 0 xmlSchemaCopyValue
PUBLIC 8c35c 0 xmlSchemaCompareValues
PUBLIC 8c79c 0 xmlSchemaCompareValuesWhtsp
PUBLIC 8c7e8 0 xmlSchemaGetFacetValueAsULong
PUBLIC 8c7f8 0 xmlSchemaValidateLengthFacet
PUBLIC 8c830 0 xmlSchemaValidateLengthFacetWhtsp
PUBLIC 8c834 0 xmlSchemaValidateFacet
PUBLIC 8c88c 0 xmlSchemaValidateListSimpleTypeFacet
PUBLIC 8c948 0 xmlSchemaValidateFacetWhtsp
PUBLIC 8c94c 0 xmlSchemaGetCanonValue
PUBLIC 8d34c 0 xmlSchemaGetCanonValueWhtsp
PUBLIC 8d42c 0 xmlSchemaGetValType
PUBLIC 8d438 0 xmlUCSIsAegeanNumbers
PUBLIC 8d450 0 xmlUCSIsAlphabeticPresentationForms
PUBLIC 8d464 0 xmlUCSIsArabic
PUBLIC 8d478 0 xmlUCSIsArabicPresentationFormsA
PUBLIC 8d490 0 xmlUCSIsArabicPresentationFormsB
PUBLIC 8d4a8 0 xmlUCSIsArmenian
PUBLIC 8d4bc 0 xmlUCSIsArrows
PUBLIC 8d4d4 0 xmlUCSIsBasicLatin
PUBLIC 8d4e4 0 xmlUCSIsBengali
PUBLIC 8d4f8 0 xmlUCSIsBlockElements
PUBLIC 8d50c 0 xmlUCSIsBopomofo
PUBLIC 8d520 0 xmlUCSIsBopomofoExtended
PUBLIC 8d538 0 xmlUCSIsBoxDrawing
PUBLIC 8d54c 0 xmlUCSIsBraillePatterns
PUBLIC 8d560 0 xmlUCSIsBuhid
PUBLIC 8d574 0 xmlUCSIsByzantineMusicalSymbols
PUBLIC 8d588 0 xmlUCSIsCJKCompatibility
PUBLIC 8d59c 0 xmlUCSIsCJKCompatibilityForms
PUBLIC 8d5b4 0 xmlUCSIsCJKCompatibilityIdeographs
PUBLIC 8d5c8 0 xmlUCSIsCJKCompatibilityIdeographsSupplement
PUBLIC 8d5dc 0 xmlUCSIsCJKRadicalsSupplement
PUBLIC 8d5f0 0 xmlUCSIsCJKSymbolsandPunctuation
PUBLIC 8d604 0 xmlUCSIsCJKUnifiedIdeographs
PUBLIC 8d618 0 xmlUCSIsCJKUnifiedIdeographsExtensionA
PUBLIC 8d62c 0 xmlUCSIsCJKUnifiedIdeographsExtensionB
PUBLIC 8d644 0 xmlUCSIsCherokee
PUBLIC 8d65c 0 xmlUCSIsCombiningDiacriticalMarks
PUBLIC 8d670 0 xmlUCSIsCombiningDiacriticalMarksforSymbols
PUBLIC 8d688 0 xmlUCSIsCombiningHalfMarks
PUBLIC 8d6a0 0 xmlUCSIsCombiningMarksforSymbols
PUBLIC 8d6b8 0 xmlUCSIsControlPictures
PUBLIC 8d6cc 0 xmlUCSIsCurrencySymbols
PUBLIC 8d6e4 0 xmlUCSIsCypriotSyllabary
PUBLIC 8d6f8 0 xmlUCSIsCyrillic
PUBLIC 8d70c 0 xmlUCSIsCyrillicSupplement
PUBLIC 8d720 0 xmlUCSIsDeseret
PUBLIC 8d734 0 xmlUCSIsDevanagari
PUBLIC 8d748 0 xmlUCSIsDingbats
PUBLIC 8d75c 0 xmlUCSIsEnclosedAlphanumerics
PUBLIC 8d774 0 xmlUCSIsEnclosedCJKLettersandMonths
PUBLIC 8d788 0 xmlUCSIsEthiopic
PUBLIC 8d79c 0 xmlUCSIsGeneralPunctuation
PUBLIC 8d7b0 0 xmlUCSIsGeometricShapes
PUBLIC 8d7c8 0 xmlUCSIsGeorgian
PUBLIC 8d7e0 0 xmlUCSIsGothic
PUBLIC 8d7f8 0 xmlUCSIsGreek
PUBLIC 8d80c 0 xmlUCSIsGreekExtended
PUBLIC 8d820 0 xmlUCSIsGreekandCoptic
PUBLIC 8d834 0 xmlUCSIsGujarati
PUBLIC 8d848 0 xmlUCSIsGurmukhi
PUBLIC 8d85c 0 xmlUCSIsHalfwidthandFullwidthForms
PUBLIC 8d870 0 xmlUCSIsHangulCompatibilityJamo
PUBLIC 8d888 0 xmlUCSIsHangulJamo
PUBLIC 8d89c 0 xmlUCSIsHangulSyllables
PUBLIC 8d8b4 0 xmlUCSIsHanunoo
PUBLIC 8d8cc 0 xmlUCSIsHebrew
PUBLIC 8d8e0 0 xmlUCSIsHighPrivateUseSurrogates
PUBLIC 8d8f8 0 xmlUCSIsHighSurrogates
PUBLIC 8d90c 0 xmlUCSIsHiragana
PUBLIC 8d920 0 xmlUCSIsIPAExtensions
PUBLIC 8d934 0 xmlUCSIsIdeographicDescriptionCharacters
PUBLIC 8d94c 0 xmlUCSIsKanbun
PUBLIC 8d964 0 xmlUCSIsKangxiRadicals
PUBLIC 8d978 0 xmlUCSIsKannada
PUBLIC 8d98c 0 xmlUCSIsKatakana
PUBLIC 8d9a4 0 xmlUCSIsKatakanaPhoneticExtensions
PUBLIC 8d9bc 0 xmlUCSIsKhmer
PUBLIC 8d9d0 0 xmlUCSIsKhmerSymbols
PUBLIC 8d9e8 0 xmlUCSIsLao
PUBLIC 8d9fc 0 xmlUCSIsLatin1Supplement
PUBLIC 8da10 0 xmlUCSIsLatinExtendedA
PUBLIC 8da24 0 xmlUCSIsLatinExtendedB
PUBLIC 8da38 0 xmlUCSIsLatinExtendedAdditional
PUBLIC 8da4c 0 xmlUCSIsLetterlikeSymbols
PUBLIC 8da60 0 xmlUCSIsLimbu
PUBLIC 8da74 0 xmlUCSIsLinearBIdeograms
PUBLIC 8da8c 0 xmlUCSIsLinearBSyllabary
PUBLIC 8daa0 0 xmlUCSIsLowSurrogates
PUBLIC 8dab4 0 xmlUCSIsMalayalam
PUBLIC 8dac8 0 xmlUCSIsMathematicalAlphanumericSymbols
PUBLIC 8dadc 0 xmlUCSIsMathematicalOperators
PUBLIC 8daf0 0 xmlUCSIsMiscellaneousMathematicalSymbolsA
PUBLIC 8db04 0 xmlUCSIsMiscellaneousMathematicalSymbolsB
PUBLIC 8db18 0 xmlUCSIsMiscellaneousSymbols
PUBLIC 8db2c 0 xmlUCSIsMiscellaneousSymbolsandArrows
PUBLIC 8db40 0 xmlUCSIsMiscellaneousTechnical
PUBLIC 8db54 0 xmlUCSIsMongolian
PUBLIC 8db68 0 xmlUCSIsMusicalSymbols
PUBLIC 8db80 0 xmlUCSIsMyanmar
PUBLIC 8db94 0 xmlUCSIsNumberForms
PUBLIC 8dbac 0 xmlUCSIsOgham
PUBLIC 8dbc0 0 xmlUCSIsOldItalic
PUBLIC 8dbd8 0 xmlUCSIsOpticalCharacterRecognition
PUBLIC 8dbec 0 xmlUCSIsOriya
PUBLIC 8dc00 0 xmlUCSIsOsmanya
PUBLIC 8dc18 0 xmlUCSIsPhoneticExtensions
PUBLIC 8dc2c 0 xmlUCSIsPrivateUse
PUBLIC 8dc48 0 xmlUCSIsPrivateUseArea
PUBLIC 8dc5c 0 xmlUCSIsRunic
PUBLIC 8dc74 0 xmlUCSIsShavian
PUBLIC 8dc8c 0 xmlUCSIsSinhala
PUBLIC 8dca0 0 xmlUCSIsSmallFormVariants
PUBLIC 8dcb8 0 xmlUCSIsSpacingModifierLetters
PUBLIC 8dccc 0 xmlUCSIsSpecials
PUBLIC 8dce4 0 xmlUCSIsSuperscriptsandSubscripts
PUBLIC 8dcfc 0 xmlUCSIsSupplementalArrowsA
PUBLIC 8dd14 0 xmlUCSIsSupplementalArrowsB
PUBLIC 8dd28 0 xmlUCSIsSupplementalMathematicalOperators
PUBLIC 8dd3c 0 xmlUCSIsSupplementaryPrivateUseAreaA
PUBLIC 8dd50 0 xmlUCSIsSupplementaryPrivateUseAreaB
PUBLIC 8dd64 0 xmlUCSIsSyriac
PUBLIC 8dd78 0 xmlUCSIsTagalog
PUBLIC 8dd8c 0 xmlUCSIsTagbanwa
PUBLIC 8dda4 0 xmlUCSIsTags
PUBLIC 8ddb8 0 xmlUCSIsTaiLe
PUBLIC 8ddd0 0 xmlUCSIsTaiXuanJingSymbols
PUBLIC 8dde8 0 xmlUCSIsTamil
PUBLIC 8ddfc 0 xmlUCSIsTelugu
PUBLIC 8de10 0 xmlUCSIsThaana
PUBLIC 8de24 0 xmlUCSIsThai
PUBLIC 8de38 0 xmlUCSIsTibetan
PUBLIC 8de4c 0 xmlUCSIsUgaritic
PUBLIC 8de64 0 xmlUCSIsUnifiedCanadianAboriginalSyllabics
PUBLIC 8de78 0 xmlUCSIsVariationSelectors
PUBLIC 8de8c 0 xmlUCSIsVariationSelectorsSupplement
PUBLIC 8dea4 0 xmlUCSIsYiRadicals
PUBLIC 8debc 0 xmlUCSIsYiSyllables
PUBLIC 8ded0 0 xmlUCSIsYijingHexagramSymbols
PUBLIC 8dee8 0 xmlUCSIsCatCc
PUBLIC 8df00 0 xmlUCSIsCatCs
PUBLIC 8df3c 0 xmlUCSIsCatMe
PUBLIC 8df80 0 xmlUCSIsCatNl
PUBLIC 8dfe4 0 xmlUCSIsCatZl
PUBLIC 8dff8 0 xmlUCSIsCatZp
PUBLIC 8e07c 0 xmlUCSIsCatC
PUBLIC 8e08c 0 xmlUCSIsCatCf
PUBLIC 8e0a0 0 xmlUCSIsCatL
PUBLIC 8e0b4 0 xmlUCSIsCatLl
PUBLIC 8e0c8 0 xmlUCSIsCatLm
PUBLIC 8e0dc 0 xmlUCSIsCatLo
PUBLIC 8e0f0 0 xmlUCSIsCatLt
PUBLIC 8e104 0 xmlUCSIsCatLu
PUBLIC 8e118 0 xmlUCSIsCatM
PUBLIC 8e12c 0 xmlUCSIsCatMc
PUBLIC 8e140 0 xmlUCSIsCatMn
PUBLIC 8e154 0 xmlUCSIsCatN
PUBLIC 8e168 0 xmlUCSIsCatNd
PUBLIC 8e17c 0 xmlUCSIsCatNo
PUBLIC 8e190 0 xmlUCSIsCatP
PUBLIC 8e1a4 0 xmlUCSIsCatPd
PUBLIC 8e1b8 0 xmlUCSIsCatPe
PUBLIC 8e1cc 0 xmlUCSIsCatPo
PUBLIC 8e1e0 0 xmlUCSIsCatPs
PUBLIC 8e1f4 0 xmlUCSIsCatS
PUBLIC 8e208 0 xmlUCSIsCatSc
PUBLIC 8e21c 0 xmlUCSIsCatSk
PUBLIC 8e230 0 xmlUCSIsCatSm
PUBLIC 8e244 0 xmlUCSIsCatSo
PUBLIC 8e258 0 xmlUCSIsCatZ
PUBLIC 8e26c 0 xmlUCSIsCatCo
PUBLIC 8e2b0 0 xmlUCSIsCatPc
PUBLIC 8e318 0 xmlUCSIsCatPf
PUBLIC 8e348 0 xmlUCSIsCatPi
PUBLIC 8e38c 0 xmlUCSIsCatZs
PUBLIC 8e3e0 0 xmlUCSIsBlock
PUBLIC 8e418 0 xmlUCSIsCat
PUBLIC 9b1b0 0 xmlRelaxNGFree
PUBLIC 9b2ec 0 xmlRelaxParserSetFlag
PUBLIC 9b330 0 xmlRelaxNGInitTypes
PUBLIC 9b43c 0 xmlRelaxNGCleanupTypes
PUBLIC 9b47c 0 xmlRelaxNGNewParserCtxt
PUBLIC 9b50c 0 xmlRelaxNGNewMemParserCtxt
PUBLIC 9b5ac 0 xmlRelaxNGNewDocParserCtxt
PUBLIC 9b638 0 xmlRelaxNGFreeParserCtxt
PUBLIC 9b794 0 xmlRelaxNGParse
PUBLIC 9ba30 0 xmlRelaxNGSetParserErrors
PUBLIC 9ba48 0 xmlRelaxNGGetParserErrors
PUBLIC 9ba84 0 xmlRelaxNGSetParserStructuredErrors
PUBLIC 9baa0 0 xmlRelaxNGDump
PUBLIC 9bc30 0 xmlRelaxNGDumpTree
PUBLIC 9bc74 0 xmlRelaxNGValidatePushElement
PUBLIC 9bd90 0 xmlRelaxNGValidatePushCData
PUBLIC 9be2c 0 xmlRelaxNGValidatePopElement
PUBLIC 9beb0 0 xmlRelaxNGValidateFullElement
PUBLIC 9bf40 0 xmlRelaxNGNewValidCtxt
PUBLIC 9bfec 0 xmlRelaxNGFreeValidCtxt
PUBLIC 9c110 0 xmlRelaxNGSetValidErrors
PUBLIC 9c128 0 xmlRelaxNGSetValidStructuredErrors
PUBLIC 9c144 0 xmlRelaxNGGetValidErrors
PUBLIC 9c180 0 xmlRelaxNGValidateDoc
PUBLIC 9cab0 0 xmlDictCleanup
PUBLIC 9cae0 0 xmlDictCreate
PUBLIC 9cba0 0 xmlDictReference
PUBLIC 9cc10 0 xmlDictCreateSub
PUBLIC 9cc40 0 xmlDictFree
PUBLIC 9cda0 0 xmlDictLookup
PUBLIC 9d078 0 xmlDictExists
PUBLIC 9d260 0 xmlDictQLookup
PUBLIC 9d6b4 0 xmlDictOwns
PUBLIC 9d70c 0 xmlDictSize
PUBLIC 9d78c 0 xmlSAX2IsStandalone
PUBLIC 9d7b4 0 xmlSAX2HasInternalSubset
PUBLIC 9d7d8 0 xmlSAX2HasExternalSubset
PUBLIC 9d7fc 0 xmlSAX2SetDocumentLocator
PUBLIC 9d800 0 xmlSAX2IgnorableWhitespace
PUBLIC 9d804 0 xmlSAX2ResolveEntity
PUBLIC 9da88 0 xmlSAX2GetParameterEntity
PUBLIC 9da98 0 xmlSAX2StartDocument
PUBLIC 9dba4 0 xmlSAX2EndDocument
PUBLIC 9e5dc 0 xmlSAX2StartElement
PUBLIC 9ed7c 0 xmlSAX2EndElement
PUBLIC 9ee2c 0 xmlSAX2EndElementNs
PUBLIC 9f12c 0 xmlSAX2StartElementNs
PUBLIC 9fb18 0 xmlSAX2Reference
PUBLIC 9fb64 0 xmlSAX2Characters
PUBLIC 9fdb0 0 xmlSAX2ProcessingInstruction
PUBLIC 9fe50 0 xmlSAX2Comment
PUBLIC 9fef0 0 xmlSAX2CDataBlock
PUBLIC 9ff50 0 xmlSAX2InternalSubset
PUBLIC 9ffe4 0 xmlSAX2ExternalSubset
PUBLIC a0260 0 xmlSAX2NotationDecl
PUBLIC a0348 0 xmlSAX2ElementDecl
PUBLIC a041c 0 xmlSAX2AttributeDecl
PUBLIC a05e4 0 xmlSAX2UnparsedEntityDecl
PUBLIC a0730 0 xmlSAX2EntityDecl
PUBLIC a08b0 0 xmlSAX2GetEntity
PUBLIC a0a38 0 xmlSAX2GetPublicId
PUBLIC a0a40 0 xmlSAX2GetSystemId
PUBLIC a0a58 0 xmlSAX2GetLineNumber
PUBLIC a0a70 0 xmlSAX2GetColumnNumber
PUBLIC a0a88 0 xmlSAXDefaultVersion
PUBLIC a0ab0 0 xmlSAXVersion
PUBLIC a0cc0 0 xmlSAX2InitDefaultSAXHandler
PUBLIC a0d08 0 xmlDefaultSAXHandlerInit
PUBLIC a0d1c 0 xmlSAX2InitHtmlDefaultSAXHandler
PUBLIC a0e5c 0 htmlDefaultSAXHandlerInit
PUBLIC a0e6c 0 xmlSAX2InitDocbDefaultSAXHandler
PUBLIC a0fdc 0 docbDefaultSAXHandlerInit
PUBLIC a0fec 0 xmlCharInRange
PUBLIC a10cc 0 xmlIsBaseChar
PUBLIC a1124 0 xmlIsBlank
PUBLIC a115c 0 xmlIsChar
PUBLIC a11b8 0 xmlIsCombining
PUBLIC a11d8 0 xmlIsDigit
PUBLIC a1204 0 xmlIsExtender
PUBLIC a122c 0 xmlIsIdeographic
PUBLIC a1274 0 xmlIsPubidChar
PUBLIC a2a5c 0 xmlFreePattern
PUBLIC a2b74 0 xmlFreePatternList
PUBLIC a2b9c 0 xmlFreeStreamCtxt
PUBLIC a2be8 0 xmlStreamPush
PUBLIC a2bf0 0 xmlStreamPushNode
PUBLIC a2bf4 0 xmlStreamPushAttr
PUBLIC a2bfc 0 xmlStreamPop
PUBLIC a2c80 0 xmlStreamWantsAnyNode
PUBLIC a2cb8 0 xmlPatterncompile
PUBLIC a3a04 0 xmlPatternMatch
PUBLIC a3e1c 0 xmlPatternGetStreamCtxt
PUBLIC a3f04 0 xmlPatternStreamable
PUBLIC a3f34 0 xmlPatternMaxDepth
PUBLIC a3fa0 0 xmlPatternMinDepth
PUBLIC a3fe8 0 xmlPatternFromRoot
PUBLIC a4870 0 xmlIsXHTML
PUBLIC a4958 0 xmlNsListDumpOutput
PUBLIC a4984 0 xmlSaveToFd
PUBLIC a49d8 0 xmlSaveToFilename
PUBLIC a4a30 0 xmlSaveToBuffer
PUBLIC a4ad8 0 xmlSaveToIO
PUBLIC a4b3c 0 xmlSaveFlush
PUBLIC a4b5c 0 xmlSaveClose
PUBLIC a4b88 0 xmlSaveSetEscape
PUBLIC a4b9c 0 xmlSaveSetAttrEscape
PUBLIC a4bb0 0 xmlAttrSerializeTxtContent
PUBLIC a6e80 0 xmlSaveTree
PUBLIC a6eac 0 xmlSaveDoc
PUBLIC a6ed0 0 xmlNodeDumpOutput
PUBLIC a6f98 0 xmlNodeDump
PUBLIC a706c 0 xmlElemDump
PUBLIC a70fc 0 xmlDocDumpFormatMemoryEnc
PUBLIC a724c 0 xmlDocDumpMemory
PUBLIC a7264 0 xmlDocDumpFormatMemory
PUBLIC a727c 0 xmlDocDumpMemoryEnc
PUBLIC a7294 0 xmlDocFormatDump
PUBLIC a735c 0 xmlDocDump
PUBLIC a7364 0 xmlSaveFileTo
PUBLIC a73e4 0 xmlSaveFormatFileTo
PUBLIC a7480 0 xmlSaveFormatFileEnc
PUBLIC a754c 0 xmlSaveFileEnc
PUBLIC a7554 0 xmlSaveFormatFile
PUBLIC a7560 0 xmlSaveFile
PUBLIC a756c 0 initxmlDefaultSAXHandler
PUBLIC a7720 0 inithtmlDefaultSAXHandler
PUBLIC a785c 0 initdocbDefaultSAXHandler
PUBLIC a802c 0 xmlGetPredefinedEntity
PUBLIC a8158 0 xmlAddDtdEntity
PUBLIC a81ec 0 xmlAddDocEntity
PUBLIC a8280 0 xmlNewEntity
PUBLIC a82e8 0 xmlGetParameterEntity
PUBLIC a8350 0 xmlGetDtdEntity
PUBLIC a837c 0 xmlGetDocEntity
PUBLIC a83fc 0 xmlEncodeEntitiesReentrant
PUBLIC a8824 0 xmlEncodeSpecialChars
PUBLIC a89b8 0 xmlCreateEntitiesTable
PUBLIC a89c0 0 xmlFreeEntitiesTable
PUBLIC a89d0 0 xmlCopyEntitiesTable
PUBLIC a89e0 0 xmlDumpEntityDecl
PUBLIC a8c74 0 xmlDumpEntitiesTable
PUBLIC a9008 0 xmlCheckVersion
PUBLIC a90e0 0 xmlErrMemory
PUBLIC a91d8 0 __xmlErrEncoding
PUBLIC a927c 0 xmlIsLetter
PUBLIC a9314 0 xmlParserInputRead
PUBLIC a93d8 0 xmlParserInputGrow
PUBLIC a9488 0 xmlParserInputShrink
PUBLIC a9564 0 xmlNextChar
PUBLIC a9904 0 xmlCurrentChar
PUBLIC a9c9c 0 xmlStringCurrentChar
PUBLIC a9ee8 0 xmlCopyCharMultiByte
PUBLIC a9fb8 0 xmlCopyChar
PUBLIC a9fdc 0 xmlSwitchEncoding
PUBLIC aa3c0 0 xmlSwitchInputEncoding
PUBLIC aa3c8 0 xmlSwitchToEncoding
PUBLIC aa418 0 xmlFreeInputStream
PUBLIC aa4bc 0 xmlNewInputStream
PUBLIC aa540 0 xmlNewIOInputStream
PUBLIC aa5f8 0 xmlNewEntityInputStream
PUBLIC aa768 0 xmlNewStringInputStream
PUBLIC aa82c 0 xmlNewInputFromFile
PUBLIC aa9c0 0 xmlFreeParserCtxt
PUBLIC aac44 0 xmlInitNodeInfoSeq
PUBLIC aac5c 0 xmlInitParserCtxt
PUBLIC ab07c 0 xmlNewParserCtxt
PUBLIC ab0e4 0 xmlClearNodeInfoSeq
PUBLIC ab11c 0 xmlClearParserCtxt
PUBLIC ab13c 0 xmlParserFindNodeInfoIndex
PUBLIC ab1e4 0 xmlParserFindNodeInfo
PUBLIC ab238 0 xmlParserAddNodeInfo
PUBLIC ab3b4 0 xmlPedanticParserDefault
PUBLIC ab3d0 0 xmlLineNumbersDefault
PUBLIC ab3ec 0 xmlSubstituteEntitiesDefault
PUBLIC ab408 0 xmlKeepBlanksDefault
PUBLIC ab5e0 0 xmlListCreate
PUBLIC ab6f4 0 xmlListSearch
PUBLIC ab71c 0 xmlListReverseSearch
PUBLIC ab744 0 xmlListInsert
PUBLIC ab7e0 0 xmlListAppend
PUBLIC ab878 0 xmlListRemoveFirst
PUBLIC ab8a8 0 xmlListRemoveLast
PUBLIC ab8d8 0 xmlListRemoveAll
PUBLIC ab914 0 xmlListClear
PUBLIC ab94c 0 xmlListDelete
PUBLIC ab984 0 xmlListEmpty
PUBLIC ab9ac 0 xmlListFront
PUBLIC ab9bc 0 xmlListEnd
PUBLIC ab9cc 0 xmlListSize
PUBLIC ab9fc 0 xmlListPopFront
PUBLIC aba24 0 xmlListPopBack
PUBLIC aba4c 0 xmlListPushFront
PUBLIC abadc 0 xmlListPushBack
PUBLIC abb70 0 xmlLinkGetData
PUBLIC abb7c 0 xmlListReverse
PUBLIC abbb4 0 xmlListWalk
PUBLIC abc04 0 xmlListReverseWalk
PUBLIC abc54 0 xmlListCopy
PUBLIC abcb8 0 xmlListMerge
PUBLIC abcd0 0 xmlListDup
PUBLIC abd10 0 xmlListSort
PUBLIC adad4 0 xmlDebugDumpString
PUBLIC adb88 0 xmlDebugDumpAttr
PUBLIC adbc8 0 xmlDebugDumpEntities
PUBLIC adce0 0 xmlDebugDumpAttrList
PUBLIC add94 0 xmlDebugDumpOneNode
PUBLIC addd4 0 xmlDebugDumpNode
PUBLIC ade20 0 xmlDebugDumpNodeList
PUBLIC ade6c 0 xmlDebugDumpDocumentHead
PUBLIC adebc 0 xmlDebugDumpDocument
PUBLIC adf0c 0 xmlDebugDumpDTD
PUBLIC adfbc 0 xmlDebugCheckDocument
PUBLIC ae00c 0 xmlLsCountNode
PUBLIC ae0c8 0 xmlLsOneNode
PUBLIC ae304 0 xmlBoolToText
PUBLIC ae32c 0 xmlShellPrintXPathError
PUBLIC ae4f4 0 xmlShellPrintNode
PUBLIC ae4f8 0 xmlShellPrintXPathResult
PUBLIC ae4fc 0 xmlShellList
PUBLIC ae584 0 xmlShellBase
PUBLIC ae608 0 xmlShellDir
PUBLIC ae674 0 xmlShellCat
PUBLIC ae704 0 xmlShellLoad
PUBLIC ae7cc 0 xmlShellWrite
PUBLIC ae908 0 xmlShellSave
PUBLIC aea1c 0 xmlShellValidate
PUBLIC aeac4 0 xmlShellDu
PUBLIC aec0c 0 xmlShellPwd
PUBLIC aec84 0 xmlShell
PUBLIC bdf8c 0 xmlSchemaNewFacet
PUBLIC bdfc4 0 xmlSchemaFreeWildcard
PUBLIC be020 0 xmlSchemaFreeFacet
PUBLIC c4398 0 xmlSchemaFreeType
PUBLIC c46e4 0 xmlSchemaFree
PUBLIC c5690 0 xmlSchemaDump
PUBLIC c577c 0 xmlSchemaNewParserCtxt
PUBLIC c57c0 0 xmlSchemaNewMemParserCtxt
PUBLIC c5808 0 xmlSchemaNewDocParserCtxt
PUBLIC c5848 0 xmlSchemaGetParserErrors
PUBLIC c5884 0 xmlSchemaNewValidCtxt
PUBLIC c58f0 0 xmlSchemaFreeValidCtxt
PUBLIC c5b08 0 xmlSchemaFreeParserCtxt
PUBLIC c5b9c 0 xmlSchemaCheckFacet
PUBLIC c5ff8 0 xmlSchemaIsValid
PUBLIC c6018 0 xmlSchemaSetValidErrors
PUBLIC c604c 0 xmlSchemaSetParserErrors
PUBLIC c6080 0 xmlSchemaSetValidStructuredErrors
PUBLIC cbd54 0 xmlSchemaSetParserStructuredErrors
PUBLIC cda48 0 xmlSchemaParse
PUBLIC cfdc4 0 xmlSchemaGetValidErrors
PUBLIC cfe00 0 xmlSchemaSetValidOptions
PUBLIC cfe34 0 xmlSchemaValidCtxtGetOptions
PUBLIC cfe44 0 xmlSchemaValidateOneElement
PUBLIC cfe84 0 xmlSchemaValidateDoc
PUBLIC cff08 0 xmlSchemaSAXPlug
PUBLIC d02ec 0 xmlSchemaSAXUnplug
PUBLIC d0364 0 xmlSchemaValidateStream
PUBLIC d0474 0 xmlSchemaValidateFile
PUBLIC d04c8 0 xmlSchemaValidCtxtGetParserCtxt
PUBLIC d1b0c 0 xmlTextReaderReadState
PUBLIC d1b1c 0 xmlTextReaderExpand
PUBLIC d1cd0 0 xmlTextReaderReadInnerXml
PUBLIC d1d9c 0 xmlTextReaderReadOuterXml
PUBLIC d1e2c 0 xmlTextReaderReadString
PUBLIC d1ee4 0 xmlNewTextReader
PUBLIC d2230 0 xmlNewTextReaderFilename
PUBLIC d22ec 0 xmlFreeTextReader
PUBLIC d2500 0 xmlTextReaderClose
PUBLIC d25a4 0 xmlTextReaderGetAttributeNo
PUBLIC d2654 0 xmlTextReaderGetAttribute
PUBLIC d27d4 0 xmlTextReaderGetAttributeNs
PUBLIC d28bc 0 xmlTextReaderGetRemainder
PUBLIC d299c 0 xmlTextReaderLookupNamespace
PUBLIC d29dc 0 xmlTextReaderMoveToAttributeNo
PUBLIC d2a6c 0 xmlTextReaderMoveToAttribute
PUBLIC d2c5c 0 xmlTextReaderMoveToAttributeNs
PUBLIC d2d78 0 xmlTextReaderMoveToFirstAttribute
PUBLIC d2dd0 0 xmlTextReaderMoveToNextAttribute
PUBLIC d2e54 0 xmlTextReaderMoveToElement
PUBLIC d2ea4 0 xmlTextReaderReadAttributeValue
PUBLIC d2f70 0 xmlTextReaderConstEncoding
PUBLIC d2fbc 0 xmlTextReaderAttributeCount
PUBLIC d3044 0 xmlTextReaderNodeType
PUBLIC d3174 0 xmlTextReaderIsEmptyElement
PUBLIC d31fc 0 xmlTextReaderName
PUBLIC d335c 0 xmlTextReaderLocalName
PUBLIC d33c0 0 xmlTextReaderConstName
PUBLIC d3520 0 xmlTextReaderConstLocalName
PUBLIC d3598 0 xmlTextReaderPrefix
PUBLIC d3610 0 xmlTextReaderConstPrefix
PUBLIC d3694 0 xmlTextReaderNamespaceUri
PUBLIC d36f4 0 xmlTextReaderConstNamespaceUri
PUBLIC d3760 0 xmlTextReaderBaseUri
PUBLIC d3784 0 xmlTextReaderConstBaseUri
PUBLIC d37e8 0 xmlTextReaderDepth
PUBLIC d382c 0 xmlTextReaderHasAttributes
PUBLIC d388c 0 xmlTextReaderHasValue
PUBLIC d38f4 0 xmlTextReaderValue
PUBLIC d3978 0 xmlTextReaderConstValue
PUBLIC d3a98 0 xmlTextReaderIsDefault
PUBLIC d3aa8 0 xmlTextReaderQuoteChar
PUBLIC d3ab8 0 xmlTextReaderXmlLang
PUBLIC d3ad8 0 xmlTextReaderConstXmlLang
PUBLIC d3b38 0 xmlTextReaderConstString
PUBLIC d3b4c 0 xmlTextReaderNormalization
PUBLIC d3b5c 0 xmlTextReaderSetParserProp
PUBLIC d3c34 0 xmlTextReaderGetParserProp
PUBLIC d3cb0 0 xmlTextReaderGetParserLineNumber
PUBLIC d3cd4 0 xmlTextReaderGetParserColumnNumber
PUBLIC d3cf8 0 xmlTextReaderCurrentNode
PUBLIC d3d14 0 xmlTextReaderPreserve
PUBLIC d3d88 0 xmlTextReaderRead
PUBLIC d4948 0 xmlTextReaderNextSibling
PUBLIC d49a8 0 xmlTextReaderNext
PUBLIC d4a2c 0 xmlTextReaderPreservePattern
PUBLIC d4b70 0 xmlTextReaderCurrentDoc
PUBLIC d4bac 0 xmlTextReaderRelaxNGSetSchema
PUBLIC d4cb8 0 xmlTextReaderSetSchema
PUBLIC d4e60 0 xmlTextReaderRelaxNGValidate
PUBLIC d4ff4 0 xmlTextReaderSchemaValidateCtxt
PUBLIC d5000 0 xmlTextReaderSchemaValidate
PUBLIC d5008 0 xmlTextReaderIsNamespaceDecl
PUBLIC d5044 0 xmlTextReaderConstXmlVersion
PUBLIC d5090 0 xmlTextReaderStandalone
PUBLIC d50cc 0 xmlTextReaderLocatorLineNumber
PUBLIC d5124 0 xmlTextReaderLocatorBaseURI
PUBLIC d5180 0 xmlTextReaderSetErrorHandler
PUBLIC d5300 0 xmlTextReaderSetStructuredErrorHandler
PUBLIC d5480 0 xmlTextReaderIsValid
PUBLIC d54e0 0 xmlTextReaderGetErrorHandler
PUBLIC d54fc 0 xmlTextReaderSetup
PUBLIC d59d8 0 xmlTextReaderByteConsumed
PUBLIC d59f8 0 xmlReaderWalker
PUBLIC d5aac 0 xmlReaderForFile
PUBLIC d5ae4 0 xmlReaderForMemory
PUBLIC d5b54 0 xmlReaderForDoc
PUBLIC d5b98 0 xmlReaderForFd
PUBLIC d5c18 0 xmlReaderForIO
PUBLIC d5c8c 0 xmlReaderNewWalker
PUBLIC d5d38 0 xmlReaderNewFile
PUBLIC d5d90 0 xmlReaderNewMemory
PUBLIC d5de8 0 xmlReaderNewDoc
PUBLIC d5e40 0 xmlReaderNewFd
PUBLIC d5e9c 0 xmlReaderNewIO
PUBLIC d7118 0 xmlXIncludeNewContext
PUBLIC d7194 0 xmlXIncludeFreeContext
PUBLIC d72c0 0 xmlXIncludeSetFlags
PUBLIC d8b98 0 xmlXIncludeProcessTreeFlagsData
PUBLIC d8c20 0 xmlXIncludeProcessFlagsData
PUBLIC d8c58 0 xmlXIncludeProcessFlags
PUBLIC d8c60 0 xmlXIncludeProcess
PUBLIC d8c68 0 xmlXIncludeProcessTreeFlags
PUBLIC d8ce8 0 xmlXIncludeProcessTree
PUBLIC d8cf0 0 xmlXIncludeProcessNode
PUBLIC d8d38 0 __aeabi_uidiv
PUBLIC d8de0 0 __aeabi_uidivmod
PUBLIC d8e00 0 __aeabi_idiv
PUBLIC d8edc 0 __aeabi_idivmod
PUBLIC d8efc 0 __aeabi_idiv0
PUBLIC d9340 0 _Unwind_GetCFA
PUBLIC d9348 0 __gnu_Unwind_RaiseException
PUBLIC d93ec 0 __gnu_Unwind_ForcedUnwind
PUBLIC d9408 0 __gnu_Unwind_Resume
PUBLIC d947c 0 __gnu_Unwind_Resume_or_Rethrow
PUBLIC d949c 0 _Unwind_Complete
PUBLIC d94a0 0 _Unwind_DeleteException
PUBLIC d94c0 0 _Unwind_VRS_Get
PUBLIC d9544 0 _Unwind_VRS_Set
PUBLIC d95cc 0 __gnu_Unwind_Backtrace
PUBLIC d9a80 0 __aeabi_unwind_cpp_pr0
PUBLIC d9a88 0 __aeabi_unwind_cpp_pr1
PUBLIC d9a90 0 __aeabi_unwind_cpp_pr2
PUBLIC d9a98 0 _Unwind_VRS_Pop
PUBLIC d9de4 0 restore_core_regs
PUBLIC d9df8 0 __gnu_Unwind_Restore_VFP
PUBLIC d9e00 0 __gnu_Unwind_Save_VFP
PUBLIC d9e08 0 __gnu_Unwind_Restore_VFP_D
PUBLIC d9e10 0 __gnu_Unwind_Save_VFP_D
PUBLIC d9e18 0 __gnu_Unwind_Restore_VFP_D_16_to_31
PUBLIC d9e20 0 __gnu_Unwind_Save_VFP_D_16_to_31
PUBLIC d9e28 0 __gnu_Unwind_Restore_WMMXD
PUBLIC d9e6c 0 __gnu_Unwind_Save_WMMXD
PUBLIC d9eb0 0 __gnu_Unwind_Restore_WMMXC
PUBLIC d9ec4 0 __gnu_Unwind_Save_WMMXC
PUBLIC d9ed8 0 ___Unwind_RaiseException
PUBLIC d9efc 0 ___Unwind_Resume
PUBLIC d9f20 0 ___Unwind_Resume_or_Rethrow
PUBLIC d9f44 0 ___Unwind_ForcedUnwind
PUBLIC d9f68 0 ___Unwind_Backtrace
PUBLIC da018 0 __gnu_unwind_execute
PUBLIC da394 0 __gnu_unwind_frame
PUBLIC da3d4 0 _Unwind_GetRegionStart
PUBLIC da3e4 0 _Unwind_GetLanguageSpecificData
PUBLIC da400 0 _Unwind_GetDataRelBase
PUBLIC da408 0 _Unwind_GetTextRelBase
STACK CFI INIT d8d38 a8 .cfa: sp 0 + .ra: lr
STACK CFI INIT d8e00 dc .cfa: sp 0 + .ra: lr
STACK CFI INIT d8f0c 18 .cfa: sp 0 + .ra: lr
STACK CFI INIT d8f24 ac .cfa: sp 0 + .ra: lr
STACK CFI d8f28 .cfa: sp 48 + .ra: .cfa -4 + ^ r0: .cfa -48 + ^ r1: .cfa -44 + ^ r10: .cfa -12 + ^ r11: .cfa -8 + ^ r2: .cfa -40 + ^ r4: .cfa -36 + ^ r5: .cfa -32 + ^ r6: .cfa -28 + ^ r7: .cfa -24 + ^ r8: .cfa -20 + ^ r9: .cfa -16 + ^
STACK CFI INIT d8fd0 50 .cfa: sp 0 + .ra: lr
STACK CFI INIT d9020 10c .cfa: sp 0 + .ra: lr
STACK CFI d9028 .cfa: sp 24 + .ra: .cfa -4 + ^ r0: .cfa -24 + ^ r1: .cfa -20 + ^ r2: .cfa -16 + ^ r4: .cfa -12 + ^ r5: .cfa -8 + ^
STACK CFI INIT d912c 6c .cfa: sp 0 + .ra: lr
STACK CFI d9134 .cfa: sp 8 + .ra: .cfa -4 + ^ r4: .cfa -8 + ^
STACK CFI INIT d9198 14 .cfa: sp 0 + .ra: lr
STACK CFI INIT d91ac 8 .cfa: sp 0 + .ra: lr
STACK CFI INIT d91b4 4 .cfa: sp 0 + .ra: lr
STACK CFI INIT d91b8 64 .cfa: sp 0 + .ra: lr
STACK CFI d91bc .cfa: sp 16 + .ra: .cfa -4 + ^ r4: .cfa -16 + ^ r5: .cfa -12 + ^ r6: .cfa -8 + ^
STACK CFI INIT d921c 124 .cfa: sp 0 + .ra: lr
STACK CFI d9220 .cfa: sp 36 + .ra: .cfa -4 + ^ r10: .cfa -12 + ^ r11: .cfa -8 + ^ r4: .cfa -36 + ^ r5: .cfa -32 + ^ r6: .cfa -28 + ^ r7: .cfa -24 + ^ r8: .cfa -20 + ^ r9: .cfa -16 + ^
STACK CFI d923c .cfa: sp 1008 +
STACK CFI INIT d9340 8 .cfa: sp 0 + .ra: lr
STACK CFI INIT d9348 a4 .cfa: sp 0 + .ra: lr
STACK CFI d9350 .cfa: sp 20 + .ra: .cfa -4 + ^ r4: .cfa -20 + ^ r5: .cfa -16 + ^ r6: .cfa -12 + ^ r7: .cfa -8 + ^
STACK CFI d9364 .cfa: sp 504 +
STACK CFI INIT d93ec 1c .cfa: sp 0 + .ra: lr
STACK CFI INIT d9408 74 .cfa: sp 0 + .ra: lr
STACK CFI d940c .cfa: sp 16 + .ra: .cfa -4 + ^ r4: .cfa -16 + ^ r5: .cfa -12 + ^ r6: .cfa -8 + ^
STACK CFI INIT d947c 20 .cfa: sp 0 + .ra: lr
STACK CFI INIT d949c 4 .cfa: sp 0 + .ra: lr
STACK CFI INIT d94a0 20 .cfa: sp 0 + .ra: lr
STACK CFI d94a4 .cfa: sp 8 + .ra: .cfa -4 + ^ r3: .cfa -8 + ^
STACK CFI INIT d94c0 5c .cfa: sp 0 + .ra: lr
STACK CFI INIT d951c 28 .cfa: sp 0 + .ra: lr
STACK CFI d9520 .cfa: sp 24 + .ra: .cfa -4 + ^ r0: .cfa -24 + ^ r1: .cfa -20 + ^ r2: .cfa -16 + ^ r3: .cfa -12 + ^ r4: .cfa -8 + ^
STACK CFI INIT d9544 5c .cfa: sp 0 + .ra: lr
STACK CFI INIT d95a0 2c .cfa: sp 0 + .ra: lr
STACK CFI d95a4 .cfa: sp 24 + .ra: .cfa -4 + ^ r0: .cfa -24 + ^ r1: .cfa -20 + ^ r2: .cfa -16 + ^ r3: .cfa -12 + ^ r4: .cfa -8 + ^
STACK CFI INIT d95cc c4 .cfa: sp 0 + .ra: lr
STACK CFI d95d4 .cfa: sp 24 + .ra: .cfa -4 + ^ r4: .cfa -24 + ^ r5: .cfa -20 + ^ r6: .cfa -16 + ^ r7: .cfa -12 + ^ r8: .cfa -8 + ^
STACK CFI d95e8 .cfa: sp 592 +
STACK CFI INIT d9690 3f0 .cfa: sp 0 + .ra: lr
STACK CFI d9694 .cfa: sp 36 + .ra: .cfa -4 + ^ r10: .cfa -12 + ^ r11: .cfa -8 + ^ r4: .cfa -36 + ^ r5: .cfa -32 + ^ r6: .cfa -28 + ^ r7: .cfa -24 + ^ r8: .cfa -20 + ^ r9: .cfa -16 + ^
STACK CFI d96a0 .cfa: sp 72 +
STACK CFI INIT d9a80 8 .cfa: sp 0 + .ra: lr
STACK CFI INIT d9a88 8 .cfa: sp 0 + .ra: lr
STACK CFI INIT d9a90 8 .cfa: sp 0 + .ra: lr
STACK CFI INIT d9a98 34c .cfa: sp 0 + .ra: lr
STACK CFI d9a9c .cfa: sp 28 + .ra: .cfa -4 + ^ r4: .cfa -28 + ^ r5: .cfa -24 + ^ r6: .cfa -20 + ^ r7: .cfa -16 + ^ r8: .cfa -12 + ^ r9: .cfa -8 + ^
STACK CFI d9aa4 .cfa: sp 296 +
STACK CFI INIT d9f8c 60 .cfa: sp 0 + .ra: lr
STACK CFI INIT d9fec 28 .cfa: sp 0 + .ra: lr
STACK CFI d9ff0 .cfa: sp 24 + .ra: .cfa -4 + ^ r0: .cfa -24 + ^ r1: .cfa -20 + ^ r2: .cfa -16 + ^ r3: .cfa -12 + ^ r4: .cfa -8 + ^
STACK CFI INIT da014 4 .cfa: sp 0 + .ra: lr
STACK CFI INIT da018 37c .cfa: sp 0 + .ra: lr
STACK CFI da01c .cfa: sp 48 + .ra: .cfa -4 + ^ r0: .cfa -48 + ^ r1: .cfa -44 + ^ r10: .cfa -8 + ^ r2: .cfa -40 + ^ r3: .cfa -36 + ^ r4: .cfa -32 + ^ r5: .cfa -28 + ^ r6: .cfa -24 + ^ r7: .cfa -20 + ^ r8: .cfa -16 + ^ r9: .cfa -12 + ^
STACK CFI INIT da394 40 .cfa: sp 0 + .ra: lr
STACK CFI da398 .cfa: sp 24 + .ra: .cfa -4 + ^ r0: .cfa -24 + ^ r1: .cfa -20 + ^ r2: .cfa -16 + ^ r3: .cfa -12 + ^ r4: .cfa -8 + ^
STACK CFI INIT da3d4 10 .cfa: sp 0 + .ra: lr
STACK CFI da3d8 .cfa: sp 8 + .ra: .cfa -4 + ^ r3: .cfa -8 + ^
STACK CFI INIT da3e4 1c .cfa: sp 0 + .ra: lr
STACK CFI da3e8 .cfa: sp 8 + .ra: .cfa -4 + ^ r3: .cfa -8 + ^
STACK CFI INIT da400 8 .cfa: sp 0 + .ra: lr
STACK CFI da404 .cfa: sp 8 + .ra: .cfa -4 + ^ r3: .cfa -8 + ^
STACK CFI INIT da408 8 .cfa: sp 0 + .ra: lr
STACK CFI da40c .cfa: sp 8 + .ra: .cfa -4 + ^ r3: .cfa -8 + ^
