MODULE Linux arm BBFF00BCD82D151E9DE08B2CC721F3000 libcpluff-arm.so
FUNC 485c 16c 0 cp_define_symbol
FUNC 49c8 504 0 cp_resolve_symbol
FUNC 4ecc 1c4 0 cp_release_symbol
FUNC 5090 81c 0 cp_scan_plugins
FUNC 58ac 8c 0 resource_error
FUNC 5938 8 0 dealloc_plugin_info
FUNC 5940 12c 0 descriptor_errorf
FUNC 5a6c ac 0 descriptor_errorf
FUNC 5b18 328 0 end_element_handler
FUNC 5e40 1c0 0 check_attributes
FUNC 6000 170 0 character_data_handler
FUNC 6170 150 0 parser_strscat
FUNC 62c0 438 0 init_cfg_element
FUNC 66f8 1378 0 start_element_handler
FUNC 7a70 4b8 0 cp_load_plugin_descriptor
FUNC 7f28 400 0 cp_load_plugin_descriptor_from_memory
FUNC 8328 14 0 comp_el_holder
FUNC 833c 20 0 process_event
FUNC 835c 3c 0 process_unregister_plistener
FUNC 8398 1d0 0 lookup_cfg_element
FUNC 8568 11c 0 dealloc_plugins_info
FUNC 8684 120 0 dealloc_ext_points_info
FUNC 87a4 120 0 dealloc_extensions_info
FUNC 88c4 9c 0 cpi_register_info
FUNC 8960 88 0 cpi_use_info
FUNC 89e8 e4 0 cpi_release_info
FUNC 8acc 118 0 cp_release_info
FUNC 8be4 a4 0 cpi_release_infos
FUNC 8c88 140 0 cp_get_plugin_info
FUNC 8dc8 258 0 cp_get_plugins_info
FUNC 9020 5c 0 cp_get_plugin_state
FUNC 907c 240 0 cp_get_ext_points_info
FUNC 92bc 414 0 cp_get_extensions_info
FUNC 96d0 10 0 cpi_unregister_plisteners
FUNC 96e0 104 0 cp_register_plistener
FUNC 97e4 cc 0 cp_unregister_plistener
FUNC 98b0 124 0 cpi_deliver_event
FUNC 99d4 8 0 cp_lookup_cfg_element
FUNC 99dc b8 0 cp_lookup_cfg_value
FUNC 9a94 1c8 0 warn_dependency_loop
FUNC 9c5c 1e0 0 stop_plugin_rec
FUNC 9e3c 164 0 unregister_extensions
FUNC 9fa0 5f0 0 resolve_plugin_prel_rec
FUNC a590 600 0 resolve_plugin_commit_rec
FUNC ab90 424 0 free_cfg_element_content
FUNC afb4 4ec 0 resolve_plugin_failed_rec
FUNC b4a0 144 0 unresolve_plugin_rec
FUNC b5e4 7e0 0 start_plugin_rec
FUNC bdc4 308 0 cp_install_plugin
FUNC c0cc ac 0 cpi_start_plugin
FUNC c178 12c 0 cp_start_plugin
FUNC c2a4 9c 0 cp_stop_plugin
FUNC c340 60 0 cp_stop_plugins
FUNC c3a0 190 0 cpi_free_plugin
FUNC c530 130 0 cp_uninstall_plugin
FUNC c660 104 0 cp_uninstall_plugins
FUNC c764 190 0 cp_run_function
FUNC c8f4 dc 0 cp_run_plugins_step
FUNC c9d0 1c 0 cp_run_plugins
FUNC c9ec c0 0 cpi_stop_plugin_run
FUNC caac 14 0 comp_logger
FUNC cac0 3c 0 process_unregister_logger
FUNC cafc c8 0 cpi_log
FUNC cbc4 104 0 cpi_logf
FUNC ccc8 258 0 cp_register_logger
FUNC cf20 10c 0 cp_unregister_logger
FUNC d02c 10 0 cpi_unregister_loggers
FUNC d03c 128 0 cp_log
FUNC d164 50 0 cp_is_logged
FUNC d1b4 114 0 free_plugin_env
FUNC d2c8 54 0 cpi_free_context
FUNC d31c 3c 0 cpi_new_context
FUNC d358 27c 0 cp_create_context
FUNC d5d4 1d8 0 cp_destroy_context
FUNC d7ac 74 0 cpi_destroy_all_contexts
FUNC d820 23c 0 cp_register_pcollection
FUNC da5c 1b0 0 cp_unregister_pcollection
FUNC dc0c 17c 0 cp_unregister_pcollections
FUNC dd88 70 0 cp_set_context_args
FUNC ddf8 3c 0 cp_get_context_args
FUNC de34 e8 0 cpi_check_invocation
FUNC df1c c 0 cpi_lock_context
FUNC df28 c 0 cpi_unlock_context
FUNC df34 c 0 cpi_wait_context
FUNC df40 c 0 cpi_signal_context
FUNC df4c 70 0 cpi_context_owner
FUNC dfbc 10 0 cp_get_version
FUNC dfcc 10 0 cp_get_host_type
FUNC dfdc 10 0 cpi_lock_framework
FUNC dfec 10 0 cpi_unlock_framework
FUNC dffc 54 0 cp_init
FUNC e050 40 0 cp_destroy
FUNC e090 14 0 cp_set_fatal_error_handler
FUNC e0a4 80 0 cpi_fatalf
FUNC e124 1c 0 cpi_fatal_null_arg
FUNC e140 c 0 cpi_comp_ptr
FUNC e14c 4 0 cpi_hashfunc_ptr
FUNC e150 58 0 cpi_ptrset_add
FUNC e1a8 44 0 cpi_ptrset_remove
FUNC e1ec 20 0 cpi_ptrset_contains
FUNC e20c 24 0 cpi_process_free_ptr
FUNC e230 374 0 cpi_vercmp
FUNC e5a4 1c 0 list_init
FUNC e5c0 2c 0 list_create
FUNC e5ec 4 0 list_destroy
FUNC e5f0 4c 0 list_destroy_nodes
FUNC e63c 48 0 list_return_nodes
FUNC e684 24 0 list_ins_after
FUNC e6a8 24 0 list_ins_before
FUNC e6cc 3c 0 list_delete
FUNC e708 3c 0 list_process
FUNC e744 28 0 lnode_create
FUNC e76c 14 0 lnode_init
FUNC e780 4 0 lnode_destroy
FUNC e784 5c 0 lnode_pool_init
FUNC e7e0 9c 0 lnode_pool_create
FUNC e87c 48 0 lnode_pool_isfrom
FUNC e8c4 1c 0 lnode_pool_destroy
FUNC e8e0 2c 0 lnode_borrow
FUNC e90c 14 0 lnode_return
FUNC e920 3c 0 list_contains
FUNC e95c 78 0 list_extract
FUNC e9d4 74 0 list_transfer
FUNC ea48 118 0 list_merge
FUNC eb60 824 0 list_sort
FUNC f384 50 0 list_find
FUNC f3d4 5c 0 list_is_sorted
FUNC f430 10 0 list_isempty
FUNC f440 18 0 list_isfull
FUNC f458 10 0 lnode_pool_isempty
FUNC f468 24 0 list_append
FUNC f48c 24 0 list_prepend
FUNC f4b0 14 0 list_first
FUNC f4c4 14 0 list_last
FUNC f4d8 8 0 list_count
FUNC f4e0 40 0 list_del_first
FUNC f520 40 0 list_del_last
FUNC f560 8 0 lnode_put
FUNC f568 8 0 lnode_get
FUNC f570 14 0 list_next
FUNC f584 14 0 list_prev
FUNC f598 24 0 lnode_is_in_a_list
FUNC f5bc ac 0 list_verify
FUNC f668 60 0 hash_fun_default
FUNC f6c8 8 0 hnode_alloc
FUNC f6d0 4 0 hnode_free
FUNC f6d4 4 0 hash_comp_default
FUNC f6d8 12c 0 hash_create
FUNC f804 48 0 hash_set_allocator
FUNC f84c 174 0 hash_free_nodes
FUNC f9c0 20 0 hash_free
FUNC f9e0 1c 0 hash_destroy
FUNC f9fc ac 0 hash_init
FUNC faa8 64 0 hash_scan_begin
FUNC fb0c 8c 0 hash_scan_next
FUNC fb98 178 0 hash_insert
FUNC fd10 78 0 hash_lookup
FUNC fd88 158 0 hash_delete
FUNC fee0 50 0 hash_alloc_insert
FUNC ff30 164 0 hash_delete_free
FUNC 10094 60 0 hash_scan_delete
FUNC 100f4 74 0 hash_scan_delfree
FUNC 10168 100 0 hash_verify
FUNC 10268 18 0 hash_isfull
FUNC 10280 10 0 hash_isempty
FUNC 10290 24 0 hnode_create
FUNC 102b4 10 0 hnode_init
FUNC 102c4 4 0 hnode_destroy
FUNC 102c8 8 0 hnode_put
FUNC 102d0 8 0 hnode_get
FUNC 102d8 8 0 hnode_getkey
FUNC 102e0 8 0 hash_count
FUNC 102e8 8 0 hash_size
FUNC 102f0 b0 0 cpi_create_mutex
FUNC 103a0 2c 0 cpi_destroy_mutex
FUNC 103cc c0 0 cpi_lock_mutex
FUNC 1048c c4 0 cpi_unlock_mutex
FUNC 10550 140 0 cpi_wait_mutex
FUNC 10690 b0 0 cpi_signal_mutex
FUNC 10740 4 0 __wrap_dlopen
FUNC 10744 4 0 __wrap_popen
FUNC 10748 4 0 __wrap_calloc
FUNC 1074c 4 0 __wrap_malloc
FUNC 10750 4 0 __wrap_realloc
FUNC 10754 4 0 __wrap_free
FUNC 10758 1c 0 __wrap_open
FUNC 10774 1c 0 __wrap_open64
FUNC 10790 4 0 __wrap_close
FUNC 10794 4 0 __wrap_write
FUNC 10798 4 0 __wrap_read
FUNC 1079c 4 0 __wrap_lseek
FUNC 107a0 4 0 __wrap_lseek64
FUNC 107a4 4 0 __wrap_fclose
FUNC 107a8 4 0 __wrap_ferror
FUNC 107ac 4 0 __wrap_clearerr
FUNC 107b0 4 0 __wrap_feof
FUNC 107b4 4 0 __wrap_fileno
FUNC 107b8 4 0 __wrap_fopen
FUNC 107bc 4 0 __wrap_fopen64
FUNC 107c0 4 0 __wrap_fdopen
FUNC 107c4 4 0 __wrap_freopen
FUNC 107c8 4 0 __wrap_fread
FUNC 107cc 4 0 __wrap_fwrite
FUNC 107d0 4 0 __wrap_fflush
FUNC 107d4 4 0 __wrap_fputc
FUNC 107d8 4 0 __wrap_fputs
FUNC 107dc 4 0 __wrap__IO_putc
FUNC 107e0 4 0 __wrap_fseek
FUNC 107e4 4 0 __wrap_fseeko64
FUNC 107e8 4 0 __wrap_ftell
FUNC 107ec 4 0 __wrap_ftello64
FUNC 107f0 4 0 __wrap_rewind
FUNC 107f4 4 0 __wrap_fgetpos
FUNC 107f8 4 0 __wrap_fgetpos64
FUNC 107fc 4 0 __wrap_fsetpos
FUNC 10800 4 0 __wrap_fsetpos64
FUNC 10804 4 0 __wrap_opendir
FUNC 10808 4 0 __wrap_readdir
FUNC 1080c 4 0 __wrap_readdir64
FUNC 10810 4 0 __wrap_closedir
FUNC 10814 4 0 __wrap_rewinddir
FUNC 10818 30 0 __wrap_fprintf
FUNC 10848 4 0 __wrap_vfprintf
FUNC 1084c 40 0 __wrap_printf
FUNC 1088c 4 0 __wrap_fgetc
FUNC 10890 4 0 __wrap_fgets
FUNC 10894 4 0 __wrap__IO_getc
FUNC 10898 4 0 __wrap__IO_getc_unlocked
FUNC 1089c 4 0 __wrap_getc_unlocked
FUNC 108a0 4 0 __wrap_ungetc
FUNC 108a4 4 0 __wrap_getc
FUNC 108a8 30 0 __wrap_ioctl
FUNC 108d8 4 0 __wrap__stat
FUNC 108dc 4 0 __wrap_stat
FUNC 108e0 c 0 __wrap___xstat64
FUNC 108ec c 0 __wrap___lxstat64
FUNC 108f8 4 0 __wrap_flockfile
FUNC 108fc 4 0 __wrap_ftrylockfile
FUNC 10900 4 0 __wrap_funlockfile
FUNC 10904 c 0 __wrap___fxstat64
FUNC 10910 4 0 __wrap_fstat
FUNC 10914 4 0 __wrap_setvbuf
FUNC 10918 4 0 __wrap_getmntent
FUNC 26324 18 0 selfrel_offset31
FUNC 2633c ac 0 search_EIT_table
FUNC 263e8 50 0 __gnu_unwind_get_pr_addr
FUNC 26438 110 0 get_eit_entry
FUNC 26548 6c 0 restore_non_core_regs
FUNC 265b4 14 0 _Unwind_decode_typeinfo_ptr
FUNC 265c8 8 0 __gnu_unwind_24bit
FUNC 265d0 4 0 _Unwind_DebugHook
FUNC 265d4 64 0 unwind_phase2
FUNC 26638 124 0 unwind_phase2_forced
FUNC 2675c 8 0 _Unwind_GetCFA
FUNC 26764 a4 0 __gnu_Unwind_RaiseException
FUNC 26808 1c 0 __gnu_Unwind_ForcedUnwind
FUNC 26824 74 0 __gnu_Unwind_Resume
FUNC 26898 20 0 __gnu_Unwind_Resume_or_Rethrow
FUNC 268b8 4 0 _Unwind_Complete
FUNC 268bc 20 0 _Unwind_DeleteException
FUNC 268dc 5c 0 _Unwind_VRS_Get
FUNC 26938 28 0 _Unwind_GetGR
FUNC 26960 5c 0 _Unwind_VRS_Set
FUNC 269bc 2c 0 _Unwind_SetGR
FUNC 269e8 c4 0 __gnu_Unwind_Backtrace
FUNC 26aac 3f4 0 __gnu_unwind_pr_common
FUNC 26ea0 8 0 __aeabi_unwind_cpp_pr0
FUNC 26ea8 8 0 __aeabi_unwind_cpp_pr1
FUNC 26eb0 8 0 __aeabi_unwind_cpp_pr2
FUNC 26eb8 358 0 _Unwind_VRS_Pop
FUNC 273b8 60 0 next_unwind_byte
FUNC 27418 28 0 _Unwind_GetGR
FUNC 27440 4 0 unwind_UCB_from_context
FUNC 27444 37c 0 __gnu_unwind_execute
FUNC 277c0 40 0 __gnu_unwind_frame
FUNC 27800 10 0 _Unwind_GetRegionStart
FUNC 27810 1c 0 _Unwind_GetLanguageSpecificData
FUNC 2782c 8 0 _Unwind_GetDataRelBase
FUNC 27834 8 0 _Unwind_GetTextRelBase
PUBLIC 485c 0 cp_define_symbol
PUBLIC 49c8 0 cp_resolve_symbol
PUBLIC 4ecc 0 cp_release_symbol
PUBLIC 5090 0 cp_scan_plugins
PUBLIC 7a70 0 cp_load_plugin_descriptor
PUBLIC 7f28 0 cp_load_plugin_descriptor_from_memory
PUBLIC 8acc 0 cp_release_info
PUBLIC 8c88 0 cp_get_plugin_info
PUBLIC 8dc8 0 cp_get_plugins_info
PUBLIC 9020 0 cp_get_plugin_state
PUBLIC 907c 0 cp_get_ext_points_info
PUBLIC 92bc 0 cp_get_extensions_info
PUBLIC 96e0 0 cp_register_plistener
PUBLIC 97e4 0 cp_unregister_plistener
PUBLIC 99d4 0 cp_lookup_cfg_element
PUBLIC 99dc 0 cp_lookup_cfg_value
PUBLIC bdc4 0 cp_install_plugin
PUBLIC c178 0 cp_start_plugin
PUBLIC c2a4 0 cp_stop_plugin
PUBLIC c340 0 cp_stop_plugins
PUBLIC c530 0 cp_uninstall_plugin
PUBLIC c660 0 cp_uninstall_plugins
PUBLIC c764 0 cp_run_function
PUBLIC c8f4 0 cp_run_plugins_step
PUBLIC c9d0 0 cp_run_plugins
PUBLIC ccc8 0 cp_register_logger
PUBLIC cf20 0 cp_unregister_logger
PUBLIC d03c 0 cp_log
PUBLIC d164 0 cp_is_logged
PUBLIC d358 0 cp_create_context
PUBLIC d5d4 0 cp_destroy_context
PUBLIC d820 0 cp_register_pcollection
PUBLIC da5c 0 cp_unregister_pcollection
PUBLIC dc0c 0 cp_unregister_pcollections
PUBLIC dd88 0 cp_set_context_args
PUBLIC ddf8 0 cp_get_context_args
PUBLIC dfbc 0 cp_get_version
PUBLIC dfcc 0 cp_get_host_type
PUBLIC dffc 0 cp_init
PUBLIC e050 0 cp_destroy
PUBLIC e090 0 cp_set_fatal_error_handler
PUBLIC 10740 0 __wrap_dlopen
PUBLIC 10744 0 __wrap_popen
PUBLIC 10748 0 __wrap_calloc
PUBLIC 1074c 0 __wrap_malloc
PUBLIC 10750 0 __wrap_realloc
PUBLIC 10754 0 __wrap_free
PUBLIC 10758 0 __wrap_open
PUBLIC 10774 0 __wrap_open64
PUBLIC 10790 0 __wrap_close
PUBLIC 10794 0 __wrap_write
PUBLIC 10798 0 __wrap_read
PUBLIC 1079c 0 __wrap_lseek
PUBLIC 107a0 0 __wrap_lseek64
PUBLIC 107a4 0 __wrap_fclose
PUBLIC 107a8 0 __wrap_ferror
PUBLIC 107ac 0 __wrap_clearerr
PUBLIC 107b0 0 __wrap_feof
PUBLIC 107b4 0 __wrap_fileno
PUBLIC 107b8 0 __wrap_fopen
PUBLIC 107bc 0 __wrap_fopen64
PUBLIC 107c0 0 __wrap_fdopen
PUBLIC 107c4 0 __wrap_freopen
PUBLIC 107c8 0 __wrap_fread
PUBLIC 107cc 0 __wrap_fwrite
PUBLIC 107d0 0 __wrap_fflush
PUBLIC 107d4 0 __wrap_fputc
PUBLIC 107d8 0 __wrap_fputs
PUBLIC 107dc 0 __wrap__IO_putc
PUBLIC 107e0 0 __wrap_fseek
PUBLIC 107e4 0 __wrap_fseeko64
PUBLIC 107e8 0 __wrap_ftell
PUBLIC 107ec 0 __wrap_ftello64
PUBLIC 107f0 0 __wrap_rewind
PUBLIC 107f4 0 __wrap_fgetpos
PUBLIC 107f8 0 __wrap_fgetpos64
PUBLIC 107fc 0 __wrap_fsetpos
PUBLIC 10800 0 __wrap_fsetpos64
PUBLIC 10804 0 __wrap_opendir
PUBLIC 10808 0 __wrap_readdir
PUBLIC 1080c 0 __wrap_readdir64
PUBLIC 10810 0 __wrap_closedir
PUBLIC 10814 0 __wrap_rewinddir
PUBLIC 10818 0 __wrap_fprintf
PUBLIC 10848 0 __wrap_vfprintf
PUBLIC 1084c 0 __wrap_printf
PUBLIC 1088c 0 __wrap_fgetc
PUBLIC 10890 0 __wrap_fgets
PUBLIC 10894 0 __wrap__IO_getc
PUBLIC 10898 0 __wrap__IO_getc_unlocked
PUBLIC 1089c 0 __wrap_getc_unlocked
PUBLIC 108a0 0 __wrap_ungetc
PUBLIC 108a4 0 __wrap_getc
PUBLIC 108a8 0 __wrap_ioctl
PUBLIC 108d8 0 __wrap__stat
PUBLIC 108dc 0 __wrap_stat
PUBLIC 108e0 0 __wrap___xstat64
PUBLIC 108ec 0 __wrap___lxstat64
PUBLIC 108f8 0 __wrap_flockfile
PUBLIC 108fc 0 __wrap_ftrylockfile
PUBLIC 10900 0 __wrap_funlockfile
PUBLIC 10904 0 __wrap___fxstat64
PUBLIC 10910 0 __wrap_fstat
PUBLIC 10914 0 __wrap_setvbuf
PUBLIC 10918 0 __wrap_getmntent
PUBLIC 16fcc 0 XML_ParserReset
PUBLIC 171b0 0 XML_SetEncoding
PUBLIC 171fc 0 XML_ParserFree
PUBLIC 176c4 0 XML_ParserCreate_MM
PUBLIC 1771c 0 XML_ParserCreate
PUBLIC 17728 0 XML_ParserCreateNS
PUBLIC 17744 0 XML_ExternalEntityParserCreate
PUBLIC 17ce8 0 XML_UseParserAsHandlerArg
PUBLIC 17cf0 0 XML_UseForeignDTD
PUBLIC 17d0c 0 XML_SetReturnNSTriplet
PUBLIC 17d2c 0 XML_SetUserData
PUBLIC 17d44 0 XML_SetBase
PUBLIC 17d7c 0 XML_GetBase
PUBLIC 17d84 0 XML_GetSpecifiedAttributeCount
PUBLIC 17d8c 0 XML_GetIdAttributeIndex
PUBLIC 17d94 0 XML_SetElementHandler
PUBLIC 17da0 0 XML_SetStartElementHandler
PUBLIC 17da8 0 XML_SetEndElementHandler
PUBLIC 17db0 0 XML_SetCharacterDataHandler
PUBLIC 17db8 0 XML_SetProcessingInstructionHandler
PUBLIC 17dc0 0 XML_SetCommentHandler
PUBLIC 17dc8 0 XML_SetCdataSectionHandler
PUBLIC 17dd4 0 XML_SetStartCdataSectionHandler
PUBLIC 17ddc 0 XML_SetEndCdataSectionHandler
PUBLIC 17de4 0 XML_SetDefaultHandler
PUBLIC 17df4 0 XML_SetDefaultHandlerExpand
PUBLIC 17e04 0 XML_SetDoctypeDeclHandler
PUBLIC 17e10 0 XML_SetStartDoctypeDeclHandler
PUBLIC 17e18 0 XML_SetEndDoctypeDeclHandler
PUBLIC 17e20 0 XML_SetUnparsedEntityDeclHandler
PUBLIC 17e28 0 XML_SetNotationDeclHandler
PUBLIC 17e30 0 XML_SetNamespaceDeclHandler
PUBLIC 17e3c 0 XML_SetStartNamespaceDeclHandler
PUBLIC 17e44 0 XML_SetEndNamespaceDeclHandler
PUBLIC 17e4c 0 XML_SetNotStandaloneHandler
PUBLIC 17e54 0 XML_SetExternalEntityRefHandler
PUBLIC 17e5c 0 XML_SetExternalEntityRefHandlerArg
PUBLIC 17e6c 0 XML_SetSkippedEntityHandler
PUBLIC 17e74 0 XML_SetUnknownEncodingHandler
PUBLIC 17e80 0 XML_SetElementDeclHandler
PUBLIC 17e88 0 XML_SetAttlistDeclHandler
PUBLIC 17e90 0 XML_SetEntityDeclHandler
PUBLIC 17e98 0 XML_SetXmlDeclHandler
PUBLIC 17ea0 0 XML_SetParamEntityParsing
PUBLIC 17ebc 0 XML_ParseBuffer
PUBLIC 17fb0 0 XML_GetBuffer
PUBLIC 1810c 0 XML_Parse
PUBLIC 1822c 0 XML_StopParser
PUBLIC 1828c 0 XML_ResumeParser
PUBLIC 18348 0 XML_GetParsingStatus
PUBLIC 18398 0 XML_GetErrorCode
PUBLIC 183a0 0 XML_GetCurrentByteIndex
PUBLIC 183c0 0 XML_GetCurrentByteCount
PUBLIC 183f0 0 XML_GetInputContext
PUBLIC 18424 0 XML_GetCurrentLineNumber
PUBLIC 18468 0 XML_GetCurrentColumnNumber
PUBLIC 184a8 0 XML_FreeContentModel
PUBLIC 184bc 0 XML_MemMalloc
PUBLIC 184d0 0 XML_MemRealloc
PUBLIC 184e8 0 XML_MemFree
PUBLIC 184fc 0 XML_DefaultCurrent
PUBLIC 1852c 0 XML_ErrorString
PUBLIC 18554 0 XML_ExpatVersion
PUBLIC 18564 0 XML_ExpatVersionInfo
PUBLIC 18578 0 XML_GetFeatureList
PUBLIC 243dc 0 XmlUtf8Encode
PUBLIC 24590 0 XmlUtf16Encode
PUBLIC 245e0 0 XmlSizeOfUnknownEncoding
PUBLIC 245e8 0 XmlInitUnknownEncoding
PUBLIC 2485c 0 XmlGetUtf8InternalEncoding
PUBLIC 24870 0 XmlGetUtf16InternalEncoding
PUBLIC 24884 0 XmlInitEncoding
PUBLIC 248ec 0 XmlParseXmlDecl
PUBLIC 24958 0 XmlGetUtf8InternalEncodingNS
PUBLIC 2496c 0 XmlGetUtf16InternalEncodingNS
PUBLIC 24980 0 XmlInitEncodingNS
PUBLIC 249e8 0 XmlParseXmlDeclNS
PUBLIC 24a54 0 XmlInitUnknownEncodingNS
PUBLIC 262dc 0 XmlPrologStateInit
PUBLIC 26304 0 XmlPrologStateInitExternalEntity
PUBLIC 2675c 0 _Unwind_GetCFA
PUBLIC 26764 0 __gnu_Unwind_RaiseException
PUBLIC 26808 0 __gnu_Unwind_ForcedUnwind
PUBLIC 26824 0 __gnu_Unwind_Resume
PUBLIC 26898 0 __gnu_Unwind_Resume_or_Rethrow
PUBLIC 268b8 0 _Unwind_Complete
PUBLIC 268bc 0 _Unwind_DeleteException
PUBLIC 268dc 0 _Unwind_VRS_Get
PUBLIC 26960 0 _Unwind_VRS_Set
PUBLIC 269e8 0 __gnu_Unwind_Backtrace
PUBLIC 26ea0 0 __aeabi_unwind_cpp_pr0
PUBLIC 26ea8 0 __aeabi_unwind_cpp_pr1
PUBLIC 26eb0 0 __aeabi_unwind_cpp_pr2
PUBLIC 26eb8 0 _Unwind_VRS_Pop
PUBLIC 27210 0 restore_core_regs
PUBLIC 27224 0 __gnu_Unwind_Restore_VFP
PUBLIC 2722c 0 __gnu_Unwind_Save_VFP
PUBLIC 27234 0 __gnu_Unwind_Restore_VFP_D
PUBLIC 2723c 0 __gnu_Unwind_Save_VFP_D
PUBLIC 27244 0 __gnu_Unwind_Restore_VFP_D_16_to_31
PUBLIC 2724c 0 __gnu_Unwind_Save_VFP_D_16_to_31
PUBLIC 27254 0 __gnu_Unwind_Restore_WMMXD
PUBLIC 27298 0 __gnu_Unwind_Save_WMMXD
PUBLIC 272dc 0 __gnu_Unwind_Restore_WMMXC
PUBLIC 272f0 0 __gnu_Unwind_Save_WMMXC
PUBLIC 27304 0 ___Unwind_RaiseException
PUBLIC 27328 0 ___Unwind_Resume
PUBLIC 2734c 0 ___Unwind_Resume_or_Rethrow
PUBLIC 27370 0 ___Unwind_ForcedUnwind
PUBLIC 27394 0 ___Unwind_Backtrace
PUBLIC 27444 0 __gnu_unwind_execute
PUBLIC 277c0 0 __gnu_unwind_frame
PUBLIC 27800 0 _Unwind_GetRegionStart
PUBLIC 27810 0 _Unwind_GetLanguageSpecificData
PUBLIC 2782c 0 _Unwind_GetDataRelBase
PUBLIC 27834 0 _Unwind_GetTextRelBase
STACK CFI INIT 485c 16c .cfa: sp 0 + .ra: lr
STACK CFI 4864 .cfa: sp 24 + .ra: .cfa -4 + ^ r4: .cfa -24 + ^ r5: .cfa -20 + ^ r6: .cfa -16 + ^ r7: .cfa -12 + ^ r8: .cfa -8 + ^
STACK CFI 486c .cfa: sp 32 +
STACK CFI INIT 49c8 504 .cfa: sp 0 + .ra: lr
STACK CFI 49cc .cfa: sp 36 + .ra: .cfa -4 + ^ r10: .cfa -12 + ^ r11: .cfa -8 + ^ r4: .cfa -36 + ^ r5: .cfa -32 + ^ r6: .cfa -28 + ^ r7: .cfa -24 + ^ r8: .cfa -20 + ^ r9: .cfa -16 + ^
STACK CFI 49d0 .cfa: sp 120 +
STACK CFI INIT 4ecc 1c4 .cfa: sp 0 + .ra: lr
STACK CFI 4ed0 .cfa: sp 28 + .ra: .cfa -4 + ^ r4: .cfa -28 + ^ r5: .cfa -24 + ^ r6: .cfa -20 + ^ r7: .cfa -16 + ^ r8: .cfa -12 + ^ r9: .cfa -8 + ^
STACK CFI 4ed4 .cfa: sp 104 +
STACK CFI INIT 5090 81c .cfa: sp 0 + .ra: lr
STACK CFI 5094 .cfa: sp 36 + .ra: .cfa -4 + ^ r10: .cfa -12 + ^ r11: .cfa -8 + ^ r4: .cfa -36 + ^ r5: .cfa -32 + ^ r6: .cfa -28 + ^ r7: .cfa -24 + ^ r8: .cfa -20 + ^ r9: .cfa -16 + ^
STACK CFI 5098 .cfa: sp 112 +
STACK CFI INIT 58ac 8c .cfa: sp 0 + .ra: lr
STACK CFI 58b4 .cfa: sp 20 + .ra: .cfa -4 + ^ r4: .cfa -20 + ^ r5: .cfa -16 + ^ r6: .cfa -12 + ^ r7: .cfa -8 + ^
STACK CFI 58bc .cfa: sp 32 +
STACK CFI INIT 5938 8 .cfa: sp 0 + .ra: lr
STACK CFI INIT 5940 12c .cfa: sp 0 + .ra: lr
STACK CFI 5944 .cfa: sp 8 + r2: .cfa -8 + ^ r3: .cfa -4 + ^
STACK CFI 5948 .cfa: sp 32 + .ra: .cfa -12 + ^ r4: .cfa -32 + ^ r5: .cfa -28 + ^ r6: .cfa -24 + ^ r7: .cfa -20 + ^ r8: .cfa -16 + ^
STACK CFI 594c .cfa: sp 184 +
STACK CFI INIT 5a6c ac .cfa: sp 0 + .ra: lr
STACK CFI 5a70 .cfa: sp 8 + r2: .cfa -8 + ^ r3: .cfa -4 + ^
STACK CFI 5a78 .cfa: sp 32 + .ra: .cfa -12 + ^ r4: .cfa -32 + ^ r5: .cfa -28 + ^ r6: .cfa -24 + ^ r7: .cfa -20 + ^ r8: .cfa -16 + ^
STACK CFI 5a7c .cfa: sp 184 +
STACK CFI INIT 5b18 328 .cfa: sp 0 + .ra: lr
STACK CFI 5b20 .cfa: sp 16 + .ra: .cfa -4 + ^ r4: .cfa -16 + ^ r5: .cfa -12 + ^ r6: .cfa -8 + ^
STACK CFI INIT 5e40 1c0 .cfa: sp 0 + .ra: lr
STACK CFI 5e44 .cfa: sp 36 + .ra: .cfa -4 + ^ r10: .cfa -12 + ^ r11: .cfa -8 + ^ r4: .cfa -36 + ^ r5: .cfa -32 + ^ r6: .cfa -28 + ^ r7: .cfa -24 + ^ r8: .cfa -20 + ^ r9: .cfa -16 + ^
STACK CFI 5e4c .cfa: sp 56 +
STACK CFI INIT 6000 170 .cfa: sp 0 + .ra: lr
STACK CFI 6004 .cfa: sp 20 + .ra: .cfa -4 + ^ r4: .cfa -20 + ^ r5: .cfa -16 + ^ r6: .cfa -12 + ^ r7: .cfa -8 + ^
STACK CFI 6010 .cfa: sp 32 +
STACK CFI INIT 6170 150 .cfa: sp 0 + .ra: lr
STACK CFI 6174 .cfa: sp 16 + r0: .cfa -16 + ^ r1: .cfa -12 + ^ r2: .cfa -8 + ^ r3: .cfa -4 + ^
STACK CFI 6178 .cfa: sp 40 + .ra: .cfa -20 + ^ r4: .cfa -40 + ^ r5: .cfa -36 + ^ r6: .cfa -32 + ^ r7: .cfa -28 + ^ r8: .cfa -24 + ^
STACK CFI 617c .cfa: sp 56 +
STACK CFI INIT 62c0 438 .cfa: sp 0 + .ra: lr
STACK CFI 62c4 .cfa: sp 36 + .ra: .cfa -4 + ^ r10: .cfa -12 + ^ r11: .cfa -8 + ^ r4: .cfa -36 + ^ r5: .cfa -32 + ^ r6: .cfa -28 + ^ r7: .cfa -24 + ^ r8: .cfa -20 + ^ r9: .cfa -16 + ^
STACK CFI 62c8 .cfa: sp 72 +
STACK CFI INIT 66f8 1378 .cfa: sp 0 + .ra: lr
STACK CFI 6700 .cfa: sp 36 + .ra: .cfa -4 + ^ r10: .cfa -12 + ^ r11: .cfa -8 + ^ r4: .cfa -36 + ^ r5: .cfa -32 + ^ r6: .cfa -28 + ^ r7: .cfa -24 + ^ r8: .cfa -20 + ^ r9: .cfa -16 + ^
STACK CFI 6708 .cfa: sp 80 +
STACK CFI INIT 7a70 4b8 .cfa: sp 0 + .ra: lr
STACK CFI 7a74 .cfa: sp 36 + .ra: .cfa -4 + ^ r10: .cfa -12 + ^ r11: .cfa -8 + ^ r4: .cfa -36 + ^ r5: .cfa -32 + ^ r6: .cfa -28 + ^ r7: .cfa -24 + ^ r8: .cfa -20 + ^ r9: .cfa -16 + ^
STACK CFI 7a78 .cfa: sp 72 +
STACK CFI INIT 7f28 400 .cfa: sp 0 + .ra: lr
STACK CFI 7f2c .cfa: sp 36 + .ra: .cfa -4 + ^ r10: .cfa -12 + ^ r11: .cfa -8 + ^ r4: .cfa -36 + ^ r5: .cfa -32 + ^ r6: .cfa -28 + ^ r7: .cfa -24 + ^ r8: .cfa -20 + ^ r9: .cfa -16 + ^
STACK CFI 7f30 .cfa: sp 64 +
STACK CFI INIT 8328 14 .cfa: sp 0 + .ra: lr
STACK CFI INIT 833c 20 .cfa: sp 0 + .ra: lr
STACK CFI 8340 .cfa: sp 8 + .ra: .cfa -4 + ^ r3: .cfa -8 + ^
STACK CFI INIT 835c 3c .cfa: sp 0 + .ra: lr
STACK CFI 8364 .cfa: sp 16 + .ra: .cfa -4 + ^ r3: .cfa -16 + ^ r4: .cfa -12 + ^ r5: .cfa -8 + ^
STACK CFI INIT 8398 1d0 .cfa: sp 0 + .ra: lr
STACK CFI 839c .cfa: sp 36 + .ra: .cfa -4 + ^ r10: .cfa -12 + ^ r11: .cfa -8 + ^ r4: .cfa -36 + ^ r5: .cfa -32 + ^ r6: .cfa -28 + ^ r7: .cfa -24 + ^ r8: .cfa -20 + ^ r9: .cfa -16 + ^
STACK CFI 83a4 .cfa: sp 56 +
STACK CFI INIT 8568 11c .cfa: sp 0 + .ra: lr
STACK CFI 856c .cfa: sp 36 + .ra: .cfa -4 + ^ r10: .cfa -12 + ^ r11: .cfa -8 + ^ r4: .cfa -36 + ^ r5: .cfa -32 + ^ r6: .cfa -28 + ^ r7: .cfa -24 + ^ r8: .cfa -20 + ^ r9: .cfa -16 + ^
STACK CFI 8578 .cfa: sp 48 +
STACK CFI INIT 8684 120 .cfa: sp 0 + .ra: lr
STACK CFI 868c .cfa: sp 36 + .ra: .cfa -4 + ^ r10: .cfa -12 + ^ r11: .cfa -8 + ^ r4: .cfa -36 + ^ r5: .cfa -32 + ^ r6: .cfa -28 + ^ r7: .cfa -24 + ^ r8: .cfa -20 + ^ r9: .cfa -16 + ^
STACK CFI 8694 .cfa: sp 48 +
STACK CFI INIT 87a4 120 .cfa: sp 0 + .ra: lr
STACK CFI 87ac .cfa: sp 36 + .ra: .cfa -4 + ^ r10: .cfa -12 + ^ r11: .cfa -8 + ^ r4: .cfa -36 + ^ r5: .cfa -32 + ^ r6: .cfa -28 + ^ r7: .cfa -24 + ^ r8: .cfa -20 + ^ r9: .cfa -16 + ^
STACK CFI 87b4 .cfa: sp 48 +
STACK CFI INIT 88c4 9c .cfa: sp 0 + .ra: lr
STACK CFI 88c8 .cfa: sp 24 + .ra: .cfa -4 + ^ r4: .cfa -24 + ^ r5: .cfa -20 + ^ r6: .cfa -16 + ^ r7: .cfa -12 + ^ r8: .cfa -8 + ^
STACK CFI INIT 8960 88 .cfa: sp 0 + .ra: lr
STACK CFI 8968 .cfa: sp 12 + .ra: .cfa -4 + ^ r4: .cfa -12 + ^ r5: .cfa -8 + ^
STACK CFI 8970 .cfa: sp 24 +
STACK CFI INIT 89e8 e4 .cfa: sp 0 + .ra: lr
STACK CFI 89f0 .cfa: sp 20 + .ra: .cfa -4 + ^ r4: .cfa -20 + ^ r5: .cfa -16 + ^ r6: .cfa -12 + ^ r7: .cfa -8 + ^
STACK CFI 89f8 .cfa: sp 32 +
STACK CFI INIT 8acc 118 .cfa: sp 0 + .ra: lr
STACK CFI 8ad0 .cfa: sp 20 + .ra: .cfa -4 + ^ r4: .cfa -20 + ^ r5: .cfa -16 + ^ r6: .cfa -12 + ^ r7: .cfa -8 + ^
STACK CFI 8ad4 .cfa: sp 32 +
STACK CFI INIT 8be4 a4 .cfa: sp 0 + .ra: lr
STACK CFI 8bec .cfa: sp 24 + .ra: .cfa -4 + ^ r4: .cfa -24 + ^ r5: .cfa -20 + ^ r6: .cfa -16 + ^ r7: .cfa -12 + ^ r8: .cfa -8 + ^
STACK CFI 8bf0 .cfa: sp 48 +
STACK CFI INIT 8c88 140 .cfa: sp 0 + .ra: lr
STACK CFI 8c8c .cfa: sp 20 + .ra: .cfa -4 + ^ r4: .cfa -20 + ^ r5: .cfa -16 + ^ r6: .cfa -12 + ^ r7: .cfa -8 + ^
STACK CFI 8c94 .cfa: sp 32 +
STACK CFI INIT 8dc8 258 .cfa: sp 0 + .ra: lr
STACK CFI 8dcc .cfa: sp 36 + .ra: .cfa -4 + ^ r10: .cfa -12 + ^ r11: .cfa -8 + ^ r4: .cfa -36 + ^ r5: .cfa -32 + ^ r6: .cfa -28 + ^ r7: .cfa -24 + ^ r8: .cfa -20 + ^ r9: .cfa -16 + ^
STACK CFI 8dd0 .cfa: sp 80 +
STACK CFI INIT 9020 5c .cfa: sp 0 + .ra: lr
STACK CFI 9024 .cfa: sp 16 + .ra: .cfa -4 + ^ r3: .cfa -16 + ^ r4: .cfa -12 + ^ r5: .cfa -8 + ^
STACK CFI INIT 907c 240 .cfa: sp 0 + .ra: lr
STACK CFI 9080 .cfa: sp 36 + .ra: .cfa -4 + ^ r10: .cfa -12 + ^ r11: .cfa -8 + ^ r4: .cfa -36 + ^ r5: .cfa -32 + ^ r6: .cfa -28 + ^ r7: .cfa -24 + ^ r8: .cfa -20 + ^ r9: .cfa -16 + ^
STACK CFI 9084 .cfa: sp 80 +
STACK CFI INIT 92bc 414 .cfa: sp 0 + .ra: lr
STACK CFI 92c0 .cfa: sp 36 + .ra: .cfa -4 + ^ r10: .cfa -12 + ^ r11: .cfa -8 + ^ r4: .cfa -36 + ^ r5: .cfa -32 + ^ r6: .cfa -28 + ^ r7: .cfa -24 + ^ r8: .cfa -20 + ^ r9: .cfa -16 + ^
STACK CFI 92c4 .cfa: sp 88 +
STACK CFI INIT 96d0 10 .cfa: sp 0 + .ra: lr
STACK CFI INIT 96e0 104 .cfa: sp 0 + .ra: lr
STACK CFI 96e4 .cfa: sp 20 + .ra: .cfa -4 + ^ r4: .cfa -20 + ^ r5: .cfa -16 + ^ r6: .cfa -12 + ^ r7: .cfa -8 + ^
STACK CFI 96e8 .cfa: sp 88 +
STACK CFI INIT 97e4 cc .cfa: sp 0 + .ra: lr
STACK CFI 97e8 .cfa: sp 16 + .ra: .cfa -4 + ^ r4: .cfa -16 + ^ r5: .cfa -12 + ^ r6: .cfa -8 + ^
STACK CFI 97ec .cfa: sp 96 +
STACK CFI INIT 98b0 124 .cfa: sp 0 + .ra: lr
STACK CFI 98b4 .cfa: sp 16 + .ra: .cfa -4 + ^ r4: .cfa -16 + ^ r5: .cfa -12 + ^ r6: .cfa -8 + ^
STACK CFI INIT 99d4 8 .cfa: sp 0 + .ra: lr
STACK CFI INIT 99dc b8 .cfa: sp 0 + .ra: lr
STACK CFI 99e0 .cfa: sp 24 + .ra: .cfa -4 + ^ r4: .cfa -24 + ^ r5: .cfa -20 + ^ r6: .cfa -16 + ^ r7: .cfa -12 + ^ r8: .cfa -8 + ^
STACK CFI INIT 9a94 1c8 .cfa: sp 0 + .ra: lr
STACK CFI 9a9c .cfa: sp 36 + .ra: .cfa -4 + ^ r10: .cfa -12 + ^ r11: .cfa -8 + ^ r4: .cfa -36 + ^ r5: .cfa -32 + ^ r6: .cfa -28 + ^ r7: .cfa -24 + ^ r8: .cfa -20 + ^ r9: .cfa -16 + ^
STACK CFI 9aa4 .cfa: sp 48 +
STACK CFI INIT 9c5c 1e0 .cfa: sp 0 + .ra: lr
STACK CFI 9c64 .cfa: sp 24 + .ra: .cfa -4 + ^ r4: .cfa -24 + ^ r5: .cfa -20 + ^ r6: .cfa -16 + ^ r7: .cfa -12 + ^ r8: .cfa -8 + ^
STACK CFI 9c6c .cfa: sp 48 +
STACK CFI INIT 9e3c 164 .cfa: sp 0 + .ra: lr
STACK CFI 9e40 .cfa: sp 40 + .ra: .cfa -4 + ^ r10: .cfa -12 + ^ r11: .cfa -8 + ^ r3: .cfa -40 + ^ r4: .cfa -36 + ^ r5: .cfa -32 + ^ r6: .cfa -28 + ^ r7: .cfa -24 + ^ r8: .cfa -20 + ^ r9: .cfa -16 + ^
STACK CFI INIT 9fa0 5f0 .cfa: sp 0 + .ra: lr
STACK CFI 9fa8 .cfa: sp 36 + .ra: .cfa -4 + ^ r10: .cfa -12 + ^ r11: .cfa -8 + ^ r4: .cfa -36 + ^ r5: .cfa -32 + ^ r6: .cfa -28 + ^ r7: .cfa -24 + ^ r8: .cfa -20 + ^ r9: .cfa -16 + ^
STACK CFI 9fb0 .cfa: sp 72 +
STACK CFI INIT a590 600 .cfa: sp 0 + .ra: lr
STACK CFI a598 .cfa: sp 36 + .ra: .cfa -4 + ^ r10: .cfa -12 + ^ r11: .cfa -8 + ^ r4: .cfa -36 + ^ r5: .cfa -32 + ^ r6: .cfa -28 + ^ r7: .cfa -24 + ^ r8: .cfa -20 + ^ r9: .cfa -16 + ^
STACK CFI a59c .cfa: sp 112 +
STACK CFI INIT ab90 424 .cfa: sp 0 + .ra: lr
STACK CFI ab94 .cfa: sp 36 + .ra: .cfa -4 + ^ r10: .cfa -12 + ^ r11: .cfa -8 + ^ r4: .cfa -36 + ^ r5: .cfa -32 + ^ r6: .cfa -28 + ^ r7: .cfa -24 + ^ r8: .cfa -20 + ^ r9: .cfa -16 + ^
STACK CFI ab98 .cfa: sp 80 +
STACK CFI INIT afb4 4ec .cfa: sp 0 + .ra: lr
STACK CFI afbc .cfa: sp 36 + .ra: .cfa -4 + ^ r10: .cfa -12 + ^ r11: .cfa -8 + ^ r4: .cfa -36 + ^ r5: .cfa -32 + ^ r6: .cfa -28 + ^ r7: .cfa -24 + ^ r8: .cfa -20 + ^ r9: .cfa -16 + ^
STACK CFI afc0 .cfa: sp 88 +
STACK CFI INIT b4a0 144 .cfa: sp 0 + .ra: lr
STACK CFI b4a8 .cfa: sp 16 + .ra: .cfa -4 + ^ r4: .cfa -16 + ^ r5: .cfa -12 + ^ r6: .cfa -8 + ^
STACK CFI b4b0 .cfa: sp 32 +
STACK CFI INIT b5e4 7e0 .cfa: sp 0 + .ra: lr
STACK CFI b5ec .cfa: sp 36 + .ra: .cfa -4 + ^ r10: .cfa -12 + ^ r11: .cfa -8 + ^ r4: .cfa -36 + ^ r5: .cfa -32 + ^ r6: .cfa -28 + ^ r7: .cfa -24 + ^ r8: .cfa -20 + ^ r9: .cfa -16 + ^
STACK CFI b5f4 .cfa: sp 72 +
STACK CFI INIT bdc4 308 .cfa: sp 0 + .ra: lr
STACK CFI bdc8 .cfa: sp 32 + .ra: .cfa -4 + ^ r10: .cfa -8 + ^ r4: .cfa -32 + ^ r5: .cfa -28 + ^ r6: .cfa -24 + ^ r7: .cfa -20 + ^ r8: .cfa -16 + ^ r9: .cfa -12 + ^
STACK CFI bdcc .cfa: sp 56 +
STACK CFI INIT c0cc ac .cfa: sp 0 + .ra: lr
STACK CFI c0d0 .cfa: sp 24 + .ra: .cfa -4 + ^ r3: .cfa -24 + ^ r4: .cfa -20 + ^ r5: .cfa -16 + ^ r6: .cfa -12 + ^ r7: .cfa -8 + ^
STACK CFI INIT c178 12c .cfa: sp 0 + .ra: lr
STACK CFI c17c .cfa: sp 24 + .ra: .cfa -4 + ^ r3: .cfa -24 + ^ r4: .cfa -20 + ^ r5: .cfa -16 + ^ r6: .cfa -12 + ^ r7: .cfa -8 + ^
STACK CFI INIT c2a4 9c .cfa: sp 0 + .ra: lr
STACK CFI c2a8 .cfa: sp 16 + .ra: .cfa -4 + ^ r3: .cfa -16 + ^ r4: .cfa -12 + ^ r5: .cfa -8 + ^
STACK CFI INIT c340 60 .cfa: sp 0 + .ra: lr
STACK CFI c344 .cfa: sp 8 + .ra: .cfa -4 + ^ r4: .cfa -8 + ^
STACK CFI INIT c3a0 190 .cfa: sp 0 + .ra: lr
STACK CFI c3a4 .cfa: sp 24 + .ra: .cfa -4 + ^ r3: .cfa -24 + ^ r4: .cfa -20 + ^ r5: .cfa -16 + ^ r6: .cfa -12 + ^ r7: .cfa -8 + ^
STACK CFI INIT c530 130 .cfa: sp 0 + .ra: lr
STACK CFI c534 .cfa: sp 16 + .ra: .cfa -4 + ^ r4: .cfa -16 + ^ r5: .cfa -12 + ^ r6: .cfa -8 + ^
STACK CFI c538 .cfa: sp 32 +
STACK CFI INIT c660 104 .cfa: sp 0 + .ra: lr
STACK CFI c664 .cfa: sp 32 + .ra: .cfa -4 + ^ r10: .cfa -8 + ^ r4: .cfa -32 + ^ r5: .cfa -28 + ^ r6: .cfa -24 + ^ r7: .cfa -20 + ^ r8: .cfa -16 + ^ r9: .cfa -12 + ^
STACK CFI c668 .cfa: sp 56 +
STACK CFI INIT c764 190 .cfa: sp 0 + .ra: lr
STACK CFI c76c .cfa: sp 24 + .ra: .cfa -4 + ^ r4: .cfa -24 + ^ r5: .cfa -20 + ^ r6: .cfa -16 + ^ r7: .cfa -12 + ^ r8: .cfa -8 + ^
STACK CFI INIT c8f4 dc .cfa: sp 0 + .ra: lr
STACK CFI c8f8 .cfa: sp 24 + .ra: .cfa -4 + ^ r3: .cfa -24 + ^ r4: .cfa -20 + ^ r5: .cfa -16 + ^ r6: .cfa -12 + ^ r7: .cfa -8 + ^
STACK CFI INIT c9d0 1c .cfa: sp 0 + .ra: lr
STACK CFI c9d4 .cfa: sp 8 + .ra: .cfa -4 + ^ r4: .cfa -8 + ^
STACK CFI INIT c9ec c0 .cfa: sp 0 + .ra: lr
STACK CFI c9f0 .cfa: sp 32 + .ra: .cfa -4 + ^ r10: .cfa -8 + ^ r4: .cfa -32 + ^ r5: .cfa -28 + ^ r6: .cfa -24 + ^ r7: .cfa -20 + ^ r8: .cfa -16 + ^ r9: .cfa -12 + ^
STACK CFI INIT caac 14 .cfa: sp 0 + .ra: lr
STACK CFI INIT cac0 3c .cfa: sp 0 + .ra: lr
STACK CFI cac8 .cfa: sp 16 + .ra: .cfa -4 + ^ r3: .cfa -16 + ^ r4: .cfa -12 + ^ r5: .cfa -8 + ^
STACK CFI INIT cafc c8 .cfa: sp 0 + .ra: lr
STACK CFI cb00 .cfa: sp 32 + .ra: .cfa -4 + ^ r10: .cfa -8 + ^ r4: .cfa -32 + ^ r5: .cfa -28 + ^ r6: .cfa -24 + ^ r7: .cfa -20 + ^ r8: .cfa -16 + ^ r9: .cfa -12 + ^
STACK CFI INIT cbc4 104 .cfa: sp 0 + .ra: lr
STACK CFI cbc8 .cfa: sp 8 + r2: .cfa -8 + ^ r3: .cfa -4 + ^
STACK CFI cbcc .cfa: sp 36 + .ra: .cfa -12 + ^ r4: .cfa -36 + ^ r5: .cfa -32 + ^ r6: .cfa -28 + ^ r7: .cfa -24 + ^ r8: .cfa -20 + ^ r9: .cfa -16 + ^
STACK CFI cbd0 .cfa: sp 304 +
STACK CFI INIT ccc8 258 .cfa: sp 0 + .ra: lr
STACK CFI cccc .cfa: sp 28 + .ra: .cfa -4 + ^ r4: .cfa -28 + ^ r5: .cfa -24 + ^ r6: .cfa -20 + ^ r7: .cfa -16 + ^ r8: .cfa -12 + ^ r9: .cfa -8 + ^
STACK CFI ccd0 .cfa: sp 120 +
STACK CFI INIT cf20 10c .cfa: sp 0 + .ra: lr
STACK CFI cf24 .cfa: sp 16 + .ra: .cfa -4 + ^ r4: .cfa -16 + ^ r5: .cfa -12 + ^ r6: .cfa -8 + ^
STACK CFI cf28 .cfa: sp 104 +
STACK CFI INIT d02c 10 .cfa: sp 0 + .ra: lr
STACK CFI INIT d03c 128 .cfa: sp 0 + .ra: lr
STACK CFI d040 .cfa: sp 32 + .ra: .cfa -4 + ^ r3: .cfa -32 + ^ r4: .cfa -28 + ^ r5: .cfa -24 + ^ r6: .cfa -20 + ^ r7: .cfa -16 + ^ r8: .cfa -12 + ^ r9: .cfa -8 + ^
STACK CFI INIT d164 50 .cfa: sp 0 + .ra: lr
STACK CFI d168 .cfa: sp 16 + .ra: .cfa -4 + ^ r3: .cfa -16 + ^ r4: .cfa -12 + ^ r5: .cfa -8 + ^
STACK CFI INIT d1b4 114 .cfa: sp 0 + .ra: lr
STACK CFI d1b8 .cfa: sp 8 + .ra: .cfa -4 + ^ r4: .cfa -8 + ^
STACK CFI INIT d2c8 54 .cfa: sp 0 + .ra: lr
STACK CFI d2d0 .cfa: sp 8 + .ra: .cfa -4 + ^ r4: .cfa -8 + ^
STACK CFI INIT d31c 3c .cfa: sp 0 + .ra: lr
STACK CFI d320 .cfa: sp 16 + .ra: .cfa -4 + ^ r4: .cfa -16 + ^ r5: .cfa -12 + ^ r6: .cfa -8 + ^
STACK CFI INIT d358 27c .cfa: sp 0 + .ra: lr
STACK CFI d35c .cfa: sp 24 + .ra: .cfa -4 + ^ r3: .cfa -24 + ^ r4: .cfa -20 + ^ r5: .cfa -16 + ^ r6: .cfa -12 + ^ r7: .cfa -8 + ^
STACK CFI INIT d5d4 1d8 .cfa: sp 0 + .ra: lr
STACK CFI d5dc .cfa: sp 16 + .ra: .cfa -4 + ^ r4: .cfa -16 + ^ r5: .cfa -12 + ^ r6: .cfa -8 + ^
STACK CFI INIT d7ac 74 .cfa: sp 0 + .ra: lr
STACK CFI d7b0 .cfa: sp 16 + .ra: .cfa -4 + ^ r3: .cfa -16 + ^ r4: .cfa -12 + ^ r5: .cfa -8 + ^
STACK CFI INIT d820 23c .cfa: sp 0 + .ra: lr
STACK CFI d824 .cfa: sp 24 + .ra: .cfa -4 + ^ r3: .cfa -24 + ^ r4: .cfa -20 + ^ r5: .cfa -16 + ^ r6: .cfa -12 + ^ r7: .cfa -8 + ^
STACK CFI INIT da5c 1b0 .cfa: sp 0 + .ra: lr
STACK CFI da60 .cfa: sp 24 + .ra: .cfa -4 + ^ r3: .cfa -24 + ^ r4: .cfa -20 + ^ r5: .cfa -16 + ^ r6: .cfa -12 + ^ r7: .cfa -8 + ^
STACK CFI INIT dc0c 17c .cfa: sp 0 + .ra: lr
STACK CFI dc10 .cfa: sp 16 + .ra: .cfa -4 + ^ r3: .cfa -16 + ^ r4: .cfa -12 + ^ r5: .cfa -8 + ^
STACK CFI INIT dd88 70 .cfa: sp 0 + .ra: lr
STACK CFI dd90 .cfa: sp 16 + .ra: .cfa -4 + ^ r4: .cfa -16 + ^ r5: .cfa -12 + ^ r6: .cfa -8 + ^
STACK CFI INIT ddf8 3c .cfa: sp 0 + .ra: lr
STACK CFI ddfc .cfa: sp 16 + .ra: .cfa -4 + ^ r3: .cfa -16 + ^ r4: .cfa -12 + ^ r5: .cfa -8 + ^
STACK CFI INIT de34 e8 .cfa: sp 0 + .ra: lr
STACK CFI de3c .cfa: sp 8 + .ra: .cfa -4 + ^ r3: .cfa -8 + ^
STACK CFI INIT df1c c .cfa: sp 0 + .ra: lr
STACK CFI INIT df28 c .cfa: sp 0 + .ra: lr
STACK CFI INIT df34 c .cfa: sp 0 + .ra: lr
STACK CFI INIT df40 c .cfa: sp 0 + .ra: lr
STACK CFI INIT df4c 70 .cfa: sp 0 + .ra: lr
STACK CFI df50 .cfa: sp 16 + .ra: .cfa -4 + ^ r3: .cfa -16 + ^ r4: .cfa -12 + ^ r5: .cfa -8 + ^
STACK CFI INIT dfbc 10 .cfa: sp 0 + .ra: lr
STACK CFI INIT dfcc 10 .cfa: sp 0 + .ra: lr
STACK CFI INIT dfdc 10 .cfa: sp 0 + .ra: lr
STACK CFI INIT dfec 10 .cfa: sp 0 + .ra: lr
STACK CFI INIT dffc 54 .cfa: sp 0 + .ra: lr
STACK CFI e000 .cfa: sp 8 + .ra: .cfa -4 + ^ r4: .cfa -8 + ^
STACK CFI INIT e050 40 .cfa: sp 0 + .ra: lr
STACK CFI e054 .cfa: sp 16 + .ra: .cfa -4 + ^ r3: .cfa -16 + ^ r4: .cfa -12 + ^ r5: .cfa -8 + ^
STACK CFI INIT e090 14 .cfa: sp 0 + .ra: lr
STACK CFI INIT e0a4 80 .cfa: sp 0 + .ra: lr
STACK CFI e0a8 .cfa: sp 16 + r0: .cfa -16 + ^ r1: .cfa -12 + ^ r2: .cfa -8 + ^ r3: .cfa -4 + ^
STACK CFI e0b0 .cfa: sp 24 + .ra: .cfa -20 + ^ r4: .cfa -24 + ^
STACK CFI e0b4 .cfa: sp 288 +
STACK CFI INIT e124 1c .cfa: sp 0 + .ra: lr
STACK CFI e134 .cfa: sp 8 + .ra: .cfa -4 + ^ r3: .cfa -8 + ^
STACK CFI INIT e140 c .cfa: sp 0 + .ra: lr
STACK CFI INIT e14c 4 .cfa: sp 0 + .ra: lr
STACK CFI INIT e150 58 .cfa: sp 0 + .ra: lr
STACK CFI e158 .cfa: sp 16 + .ra: .cfa -4 + ^ r3: .cfa -16 + ^ r4: .cfa -12 + ^ r5: .cfa -8 + ^
STACK CFI INIT e1a8 44 .cfa: sp 0 + .ra: lr
STACK CFI e1b0 .cfa: sp 16 + .ra: .cfa -4 + ^ r3: .cfa -16 + ^ r4: .cfa -12 + ^ r5: .cfa -8 + ^
STACK CFI INIT e1ec 20 .cfa: sp 0 + .ra: lr
STACK CFI e1f4 .cfa: sp 8 + .ra: .cfa -4 + ^ r3: .cfa -8 + ^
STACK CFI INIT e20c 24 .cfa: sp 0 + .ra: lr
STACK CFI e210 .cfa: sp 16 + .ra: .cfa -4 + ^ r3: .cfa -16 + ^ r4: .cfa -12 + ^ r5: .cfa -8 + ^
STACK CFI INIT e230 374 .cfa: sp 0 + .ra: lr
STACK CFI e238 .cfa: sp 32 + .ra: .cfa -4 + ^ r10: .cfa -8 + ^ r4: .cfa -32 + ^ r5: .cfa -28 + ^ r6: .cfa -24 + ^ r7: .cfa -20 + ^ r8: .cfa -16 + ^ r9: .cfa -12 + ^
STACK CFI e240 .cfa: sp 48 +
STACK CFI INIT e5a4 1c .cfa: sp 0 + .ra: lr
STACK CFI INIT e5c0 2c .cfa: sp 0 + .ra: lr
STACK CFI e5c4 .cfa: sp 8 + .ra: .cfa -4 + ^ r4: .cfa -8 + ^
STACK CFI INIT e5ec 4 .cfa: sp 0 + .ra: lr
STACK CFI INIT e5f0 4c .cfa: sp 0 + .ra: lr
STACK CFI e5f8 .cfa: sp 16 + .ra: .cfa -4 + ^ r4: .cfa -16 + ^ r5: .cfa -12 + ^ r6: .cfa -8 + ^
STACK CFI INIT e63c 48 .cfa: sp 0 + .ra: lr
STACK CFI INIT e684 24 .cfa: sp 0 + .ra: lr
STACK CFI INIT e6a8 24 .cfa: sp 0 + .ra: lr
STACK CFI INIT e6cc 3c .cfa: sp 0 + .ra: lr
STACK CFI e6d0 .cfa: sp 8 + r4: .cfa -8 + ^ r5: .cfa -4 + ^
STACK CFI INIT e708 3c .cfa: sp 0 + .ra: lr
STACK CFI e70c .cfa: sp 24 + .ra: .cfa -4 + ^ r3: .cfa -24 + ^ r4: .cfa -20 + ^ r5: .cfa -16 + ^ r6: .cfa -12 + ^ r7: .cfa -8 + ^
STACK CFI INIT e744 28 .cfa: sp 0 + .ra: lr
STACK CFI e748 .cfa: sp 8 + .ra: .cfa -4 + ^ r4: .cfa -8 + ^
STACK CFI INIT e76c 14 .cfa: sp 0 + .ra: lr
STACK CFI INIT e780 4 .cfa: sp 0 + .ra: lr
STACK CFI INIT e784 5c .cfa: sp 0 + .ra: lr
STACK CFI e788 .cfa: sp 4 + r4: .cfa -4 + ^
STACK CFI INIT e7e0 9c .cfa: sp 0 + .ra: lr
STACK CFI e7e4 .cfa: sp 24 + .ra: .cfa -4 + ^ r3: .cfa -24 + ^ r4: .cfa -20 + ^ r5: .cfa -16 + ^ r6: .cfa -12 + ^ r7: .cfa -8 + ^
STACK CFI INIT e87c 48 .cfa: sp 0 + .ra: lr
STACK CFI INIT e8c4 1c .cfa: sp 0 + .ra: lr
STACK CFI e8c8 .cfa: sp 8 + .ra: .cfa -4 + ^ r4: .cfa -8 + ^
STACK CFI INIT e8e0 2c .cfa: sp 0 + .ra: lr
STACK CFI INIT e90c 14 .cfa: sp 0 + .ra: lr
STACK CFI INIT e920 3c .cfa: sp 0 + .ra: lr
STACK CFI INIT e95c 78 .cfa: sp 0 + .ra: lr
STACK CFI e968 .cfa: sp 4 + r4: .cfa -4 + ^
STACK CFI INIT e9d4 74 .cfa: sp 0 + .ra: lr
STACK CFI e9dc .cfa: sp 4 + r4: .cfa -4 + ^
STACK CFI INIT ea48 118 .cfa: sp 0 + .ra: lr
STACK CFI ea50 .cfa: sp 32 + .ra: .cfa -4 + ^ r3: .cfa -32 + ^ r4: .cfa -28 + ^ r5: .cfa -24 + ^ r6: .cfa -20 + ^ r7: .cfa -16 + ^ r8: .cfa -12 + ^ r9: .cfa -8 + ^
STACK CFI INIT eb60 824 .cfa: sp 0 + .ra: lr
STACK CFI eb64 .cfa: sp 28 + .ra: .cfa -4 + ^ r4: .cfa -28 + ^ r5: .cfa -24 + ^ r6: .cfa -20 + ^ r7: .cfa -16 + ^ r8: .cfa -12 + ^ r9: .cfa -8 + ^
STACK CFI eb70 .cfa: sp 128 +
STACK CFI INIT f384 50 .cfa: sp 0 + .ra: lr
STACK CFI f388 .cfa: sp 24 + .ra: .cfa -4 + ^ r3: .cfa -24 + ^ r4: .cfa -20 + ^ r5: .cfa -16 + ^ r6: .cfa -12 + ^ r7: .cfa -8 + ^
STACK CFI INIT f3d4 5c .cfa: sp 0 + .ra: lr
STACK CFI f3dc .cfa: sp 16 + .ra: .cfa -4 + ^ r4: .cfa -16 + ^ r5: .cfa -12 + ^ r6: .cfa -8 + ^
STACK CFI INIT f430 10 .cfa: sp 0 + .ra: lr
STACK CFI INIT f440 18 .cfa: sp 0 + .ra: lr
STACK CFI INIT f458 10 .cfa: sp 0 + .ra: lr
STACK CFI INIT f468 24 .cfa: sp 0 + .ra: lr
STACK CFI INIT f48c 24 .cfa: sp 0 + .ra: lr
STACK CFI INIT f4b0 14 .cfa: sp 0 + .ra: lr
STACK CFI INIT f4c4 14 .cfa: sp 0 + .ra: lr
STACK CFI INIT f4d8 8 .cfa: sp 0 + .ra: lr
STACK CFI INIT f4e0 40 .cfa: sp 0 + .ra: lr
STACK CFI f4ec .cfa: sp 8 + r4: .cfa -8 + ^ r5: .cfa -4 + ^
STACK CFI INIT f520 40 .cfa: sp 0 + .ra: lr
STACK CFI f52c .cfa: sp 8 + r4: .cfa -8 + ^ r5: .cfa -4 + ^
STACK CFI INIT f560 8 .cfa: sp 0 + .ra: lr
STACK CFI INIT f568 8 .cfa: sp 0 + .ra: lr
STACK CFI INIT f570 14 .cfa: sp 0 + .ra: lr
STACK CFI INIT f584 14 .cfa: sp 0 + .ra: lr
STACK CFI INIT f598 24 .cfa: sp 0 + .ra: lr
STACK CFI INIT f5bc ac .cfa: sp 0 + .ra: lr
STACK CFI INIT f668 60 .cfa: sp 0 + .ra: lr
STACK CFI INIT f6c8 8 .cfa: sp 0 + .ra: lr
STACK CFI INIT f6d0 4 .cfa: sp 0 + .ra: lr
STACK CFI INIT f6d4 4 .cfa: sp 0 + .ra: lr
STACK CFI INIT f6d8 12c .cfa: sp 0 + .ra: lr
STACK CFI f6e0 .cfa: sp 24 + .ra: .cfa -4 + ^ r4: .cfa -24 + ^ r5: .cfa -20 + ^ r6: .cfa -16 + ^ r7: .cfa -12 + ^ r8: .cfa -8 + ^
STACK CFI INIT f804 48 .cfa: sp 0 + .ra: lr
STACK CFI INIT f84c 174 .cfa: sp 0 + .ra: lr
STACK CFI f854 .cfa: sp 24 + .ra: .cfa -4 + ^ r4: .cfa -24 + ^ r5: .cfa -20 + ^ r6: .cfa -16 + ^ r7: .cfa -12 + ^ r8: .cfa -8 + ^
STACK CFI INIT f9c0 20 .cfa: sp 0 + .ra: lr
STACK CFI f9c4 .cfa: sp 8 + .ra: .cfa -4 + ^ r4: .cfa -8 + ^
STACK CFI INIT f9e0 1c .cfa: sp 0 + .ra: lr
STACK CFI f9e4 .cfa: sp 8 + .ra: .cfa -4 + ^ r4: .cfa -8 + ^
STACK CFI INIT f9fc ac .cfa: sp 0 + .ra: lr
STACK CFI fa00 .cfa: sp 12 + r4: .cfa -12 + ^ r5: .cfa -8 + ^ r6: .cfa -4 + ^
STACK CFI INIT faa8 64 .cfa: sp 0 + .ra: lr
STACK CFI INIT fb0c 8c .cfa: sp 0 + .ra: lr
STACK CFI fb1c .cfa: sp 4 + r4: .cfa -4 + ^
STACK CFI INIT fb98 178 .cfa: sp 0 + .ra: lr
STACK CFI fba0 .cfa: sp 36 + .ra: .cfa -4 + ^ r10: .cfa -12 + ^ r11: .cfa -8 + ^ r4: .cfa -36 + ^ r5: .cfa -32 + ^ r6: .cfa -28 + ^ r7: .cfa -24 + ^ r8: .cfa -20 + ^ r9: .cfa -16 + ^
STACK CFI fba8 .cfa: sp 56 +
STACK CFI INIT fd10 78 .cfa: sp 0 + .ra: lr
STACK CFI fd14 .cfa: sp 24 + .ra: .cfa -4 + ^ r3: .cfa -24 + ^ r4: .cfa -20 + ^ r5: .cfa -16 + ^ r6: .cfa -12 + ^ r7: .cfa -8 + ^
STACK CFI INIT fd88 158 .cfa: sp 0 + .ra: lr
STACK CFI fd8c .cfa: sp 24 + .ra: .cfa -4 + ^ r3: .cfa -24 + ^ r4: .cfa -20 + ^ r5: .cfa -16 + ^ r6: .cfa -12 + ^ r7: .cfa -8 + ^
STACK CFI INIT fee0 50 .cfa: sp 0 + .ra: lr
STACK CFI fee4 .cfa: sp 16 + .ra: .cfa -4 + ^ r4: .cfa -16 + ^ r5: .cfa -12 + ^ r6: .cfa -8 + ^
STACK CFI INIT ff30 164 .cfa: sp 0 + .ra: lr
STACK CFI ff34 .cfa: sp 24 + .ra: .cfa -4 + ^ r3: .cfa -24 + ^ r4: .cfa -20 + ^ r5: .cfa -16 + ^ r6: .cfa -12 + ^ r7: .cfa -8 + ^
STACK CFI INIT 10094 60 .cfa: sp 0 + .ra: lr
STACK CFI INIT 100f4 74 .cfa: sp 0 + .ra: lr
STACK CFI 10108 .cfa: sp 8 + .ra: .cfa -4 + ^ r4: .cfa -8 + ^
STACK CFI INIT 10168 100 .cfa: sp 0 + .ra: lr
STACK CFI 10170 .cfa: sp 16 + r4: .cfa -16 + ^ r5: .cfa -12 + ^ r6: .cfa -8 + ^ r7: .cfa -4 + ^
STACK CFI INIT 10268 18 .cfa: sp 0 + .ra: lr
STACK CFI INIT 10280 10 .cfa: sp 0 + .ra: lr
STACK CFI INIT 10290 24 .cfa: sp 0 + .ra: lr
STACK CFI 10294 .cfa: sp 8 + .ra: .cfa -4 + ^ r4: .cfa -8 + ^
STACK CFI INIT 102b4 10 .cfa: sp 0 + .ra: lr
STACK CFI INIT 102c4 4 .cfa: sp 0 + .ra: lr
STACK CFI INIT 102c8 8 .cfa: sp 0 + .ra: lr
STACK CFI INIT 102d0 8 .cfa: sp 0 + .ra: lr
STACK CFI INIT 102d8 8 .cfa: sp 0 + .ra: lr
STACK CFI INIT 102e0 8 .cfa: sp 0 + .ra: lr
STACK CFI INIT 102e8 8 .cfa: sp 0 + .ra: lr
STACK CFI INIT 102f0 b0 .cfa: sp 0 + .ra: lr
STACK CFI 102f4 .cfa: sp 24 + .ra: .cfa -4 + ^ r3: .cfa -24 + ^ r4: .cfa -20 + ^ r5: .cfa -16 + ^ r6: .cfa -12 + ^ r7: .cfa -8 + ^
STACK CFI INIT 103a0 2c .cfa: sp 0 + .ra: lr
STACK CFI 103a4 .cfa: sp 8 + .ra: .cfa -4 + ^ r4: .cfa -8 + ^
STACK CFI INIT 103cc c0 .cfa: sp 0 + .ra: lr
STACK CFI 103d0 .cfa: sp 24 + .ra: .cfa -4 + ^ r3: .cfa -24 + ^ r4: .cfa -20 + ^ r5: .cfa -16 + ^ r6: .cfa -12 + ^ r7: .cfa -8 + ^
STACK CFI INIT 1048c c4 .cfa: sp 0 + .ra: lr
STACK CFI 10490 .cfa: sp 16 + .ra: .cfa -4 + ^ r4: .cfa -16 + ^ r5: .cfa -12 + ^ r6: .cfa -8 + ^
STACK CFI INIT 10550 140 .cfa: sp 0 + .ra: lr
STACK CFI 10554 .cfa: sp 24 + .ra: .cfa -4 + ^ r4: .cfa -24 + ^ r5: .cfa -20 + ^ r6: .cfa -16 + ^ r7: .cfa -12 + ^ r8: .cfa -8 + ^
STACK CFI INIT 10690 b0 .cfa: sp 0 + .ra: lr
STACK CFI 10694 .cfa: sp 16 + .ra: .cfa -4 + ^ r4: .cfa -16 + ^ r5: .cfa -12 + ^ r6: .cfa -8 + ^
STACK CFI INIT 10740 4 .cfa: sp 0 + .ra: lr
STACK CFI INIT 10744 4 .cfa: sp 0 + .ra: lr
STACK CFI INIT 10748 4 .cfa: sp 0 + .ra: lr
STACK CFI INIT 1074c 4 .cfa: sp 0 + .ra: lr
STACK CFI INIT 10750 4 .cfa: sp 0 + .ra: lr
STACK CFI INIT 10754 4 .cfa: sp 0 + .ra: lr
STACK CFI INIT 10758 1c .cfa: sp 0 + .ra: lr
STACK CFI 1075c .cfa: sp 12 + r1: .cfa -12 + ^ r2: .cfa -8 + ^ r3: .cfa -4 + ^
STACK CFI 10760 .cfa: sp 16 + .ra: .cfa -16 + ^
STACK CFI INIT 10774 1c .cfa: sp 0 + .ra: lr
STACK CFI 10778 .cfa: sp 12 + r1: .cfa -12 + ^ r2: .cfa -8 + ^ r3: .cfa -4 + ^
STACK CFI 1077c .cfa: sp 16 + .ra: .cfa -16 + ^
STACK CFI INIT 10790 4 .cfa: sp 0 + .ra: lr
STACK CFI INIT 10794 4 .cfa: sp 0 + .ra: lr
STACK CFI INIT 10798 4 .cfa: sp 0 + .ra: lr
STACK CFI INIT 1079c 4 .cfa: sp 0 + .ra: lr
STACK CFI INIT 107a0 4 .cfa: sp 0 + .ra: lr
STACK CFI INIT 107a4 4 .cfa: sp 0 + .ra: lr
STACK CFI INIT 107a8 4 .cfa: sp 0 + .ra: lr
STACK CFI INIT 107ac 4 .cfa: sp 0 + .ra: lr
STACK CFI INIT 107b0 4 .cfa: sp 0 + .ra: lr
STACK CFI INIT 107b4 4 .cfa: sp 0 + .ra: lr
STACK CFI INIT 107b8 4 .cfa: sp 0 + .ra: lr
STACK CFI INIT 107bc 4 .cfa: sp 0 + .ra: lr
STACK CFI INIT 107c0 4 .cfa: sp 0 + .ra: lr
STACK CFI INIT 107c4 4 .cfa: sp 0 + .ra: lr
STACK CFI INIT 107c8 4 .cfa: sp 0 + .ra: lr
STACK CFI INIT 107cc 4 .cfa: sp 0 + .ra: lr
STACK CFI INIT 107d0 4 .cfa: sp 0 + .ra: lr
STACK CFI INIT 107d4 4 .cfa: sp 0 + .ra: lr
STACK CFI INIT 107d8 4 .cfa: sp 0 + .ra: lr
STACK CFI INIT 107dc 4 .cfa: sp 0 + .ra: lr
STACK CFI INIT 107e0 4 .cfa: sp 0 + .ra: lr
STACK CFI INIT 107e4 4 .cfa: sp 0 + .ra: lr
STACK CFI INIT 107e8 4 .cfa: sp 0 + .ra: lr
STACK CFI INIT 107ec 4 .cfa: sp 0 + .ra: lr
STACK CFI INIT 107f0 4 .cfa: sp 0 + .ra: lr
STACK CFI INIT 107f4 4 .cfa: sp 0 + .ra: lr
STACK CFI INIT 107f8 4 .cfa: sp 0 + .ra: lr
STACK CFI INIT 107fc 4 .cfa: sp 0 + .ra: lr
STACK CFI INIT 10800 4 .cfa: sp 0 + .ra: lr
STACK CFI INIT 10804 4 .cfa: sp 0 + .ra: lr
STACK CFI INIT 10808 4 .cfa: sp 0 + .ra: lr
STACK CFI INIT 1080c 4 .cfa: sp 0 + .ra: lr
STACK CFI INIT 10810 4 .cfa: sp 0 + .ra: lr
STACK CFI INIT 10814 4 .cfa: sp 0 + .ra: lr
STACK CFI INIT 10818 30 .cfa: sp 0 + .ra: lr
STACK CFI 1081c .cfa: sp 12 + r1: .cfa -12 + ^ r2: .cfa -8 + ^ r3: .cfa -4 + ^
STACK CFI 10820 .cfa: sp 16 + .ra: .cfa -16 + ^
STACK CFI 10824 .cfa: sp 24 +
STACK CFI INIT 10848 4 .cfa: sp 0 + .ra: lr
STACK CFI INIT 1084c 40 .cfa: sp 0 + .ra: lr
STACK CFI 10850 .cfa: sp 16 + r0: .cfa -16 + ^ r1: .cfa -12 + ^ r2: .cfa -8 + ^ r3: .cfa -4 + ^
STACK CFI 10858 .cfa: sp 20 + .ra: .cfa -20 + ^
STACK CFI 1085c .cfa: sp 32 +
STACK CFI INIT 1088c 4 .cfa: sp 0 + .ra: lr
STACK CFI INIT 10890 4 .cfa: sp 0 + .ra: lr
STACK CFI INIT 10894 4 .cfa: sp 0 + .ra: lr
STACK CFI INIT 10898 4 .cfa: sp 0 + .ra: lr
STACK CFI INIT 1089c 4 .cfa: sp 0 + .ra: lr
STACK CFI INIT 108a0 4 .cfa: sp 0 + .ra: lr
STACK CFI INIT 108a4 4 .cfa: sp 0 + .ra: lr
STACK CFI INIT 108a8 30 .cfa: sp 0 + .ra: lr
STACK CFI 108ac .cfa: sp 12 + r1: .cfa -12 + ^ r2: .cfa -8 + ^ r3: .cfa -4 + ^
STACK CFI 108b0 .cfa: sp 16 + .ra: .cfa -16 + ^
STACK CFI 108b4 .cfa: sp 24 +
STACK CFI INIT 108d8 4 .cfa: sp 0 + .ra: lr
STACK CFI INIT 108dc 4 .cfa: sp 0 + .ra: lr
STACK CFI INIT 108e0 c .cfa: sp 0 + .ra: lr
STACK CFI INIT 108ec c .cfa: sp 0 + .ra: lr
STACK CFI INIT 108f8 4 .cfa: sp 0 + .ra: lr
STACK CFI INIT 108fc 4 .cfa: sp 0 + .ra: lr
STACK CFI INIT 10900 4 .cfa: sp 0 + .ra: lr
STACK CFI INIT 10904 c .cfa: sp 0 + .ra: lr
STACK CFI INIT 10910 4 .cfa: sp 0 + .ra: lr
STACK CFI INIT 10914 4 .cfa: sp 0 + .ra: lr
STACK CFI INIT 10918 4 .cfa: sp 0 + .ra: lr
STACK CFI INIT 26324 18 .cfa: sp 0 + .ra: lr
STACK CFI INIT 2633c ac .cfa: sp 0 + .ra: lr
STACK CFI 26340 .cfa: sp 48 + .ra: .cfa -4 + ^ r0: .cfa -48 + ^ r1: .cfa -44 + ^ r10: .cfa -12 + ^ r11: .cfa -8 + ^ r2: .cfa -40 + ^ r4: .cfa -36 + ^ r5: .cfa -32 + ^ r6: .cfa -28 + ^ r7: .cfa -24 + ^ r8: .cfa -20 + ^ r9: .cfa -16 + ^
STACK CFI INIT 263e8 50 .cfa: sp 0 + .ra: lr
STACK CFI INIT 26438 110 .cfa: sp 0 + .ra: lr
STACK CFI 26440 .cfa: sp 24 + .ra: .cfa -4 + ^ r0: .cfa -24 + ^ r1: .cfa -20 + ^ r2: .cfa -16 + ^ r4: .cfa -12 + ^ r5: .cfa -8 + ^
STACK CFI INIT 26548 6c .cfa: sp 0 + .ra: lr
STACK CFI 26550 .cfa: sp 8 + .ra: .cfa -4 + ^ r4: .cfa -8 + ^
STACK CFI INIT 265b4 14 .cfa: sp 0 + .ra: lr
STACK CFI INIT 265c8 8 .cfa: sp 0 + .ra: lr
STACK CFI INIT 265d0 4 .cfa: sp 0 + .ra: lr
STACK CFI INIT 265d4 64 .cfa: sp 0 + .ra: lr
STACK CFI 265d8 .cfa: sp 16 + .ra: .cfa -4 + ^ r4: .cfa -16 + ^ r5: .cfa -12 + ^ r6: .cfa -8 + ^
STACK CFI INIT 26638 124 .cfa: sp 0 + .ra: lr
STACK CFI 2663c .cfa: sp 36 + .ra: .cfa -4 + ^ r10: .cfa -12 + ^ r11: .cfa -8 + ^ r4: .cfa -36 + ^ r5: .cfa -32 + ^ r6: .cfa -28 + ^ r7: .cfa -24 + ^ r8: .cfa -20 + ^ r9: .cfa -16 + ^
STACK CFI 26658 .cfa: sp 1008 +
STACK CFI INIT 2675c 8 .cfa: sp 0 + .ra: lr
STACK CFI INIT 26764 a4 .cfa: sp 0 + .ra: lr
STACK CFI 26768 .cfa: sp 20 + .ra: .cfa -4 + ^ r4: .cfa -20 + ^ r5: .cfa -16 + ^ r6: .cfa -12 + ^ r7: .cfa -8 + ^
STACK CFI 26784 .cfa: sp 504 +
STACK CFI INIT 26808 1c .cfa: sp 0 + .ra: lr
STACK CFI INIT 26824 74 .cfa: sp 0 + .ra: lr
STACK CFI 26828 .cfa: sp 16 + .ra: .cfa -4 + ^ r4: .cfa -16 + ^ r5: .cfa -12 + ^ r6: .cfa -8 + ^
STACK CFI INIT 26898 20 .cfa: sp 0 + .ra: lr
STACK CFI INIT 268b8 4 .cfa: sp 0 + .ra: lr
STACK CFI INIT 268bc 20 .cfa: sp 0 + .ra: lr
STACK CFI 268c0 .cfa: sp 8 + .ra: .cfa -4 + ^ r3: .cfa -8 + ^
STACK CFI INIT 268dc 5c .cfa: sp 0 + .ra: lr
STACK CFI INIT 26938 28 .cfa: sp 0 + .ra: lr
STACK CFI 2693c .cfa: sp 24 + .ra: .cfa -4 + ^ r0: .cfa -24 + ^ r1: .cfa -20 + ^ r2: .cfa -16 + ^ r3: .cfa -12 + ^ r4: .cfa -8 + ^
STACK CFI INIT 26960 5c .cfa: sp 0 + .ra: lr
STACK CFI INIT 269bc 2c .cfa: sp 0 + .ra: lr
STACK CFI 269c0 .cfa: sp 24 + .ra: .cfa -4 + ^ r0: .cfa -24 + ^ r1: .cfa -20 + ^ r2: .cfa -16 + ^ r3: .cfa -12 + ^ r4: .cfa -8 + ^
STACK CFI INIT 269e8 c4 .cfa: sp 0 + .ra: lr
STACK CFI 269ec .cfa: sp 24 + .ra: .cfa -4 + ^ r4: .cfa -24 + ^ r5: .cfa -20 + ^ r6: .cfa -16 + ^ r7: .cfa -12 + ^ r8: .cfa -8 + ^
STACK CFI 26a08 .cfa: sp 592 +
STACK CFI INIT 26aac 3f4 .cfa: sp 0 + .ra: lr
STACK CFI 26ab0 .cfa: sp 36 + .ra: .cfa -4 + ^ r10: .cfa -12 + ^ r11: .cfa -8 + ^ r4: .cfa -36 + ^ r5: .cfa -32 + ^ r6: .cfa -28 + ^ r7: .cfa -24 + ^ r8: .cfa -20 + ^ r9: .cfa -16 + ^
STACK CFI 26abc .cfa: sp 72 +
STACK CFI INIT 26ea0 8 .cfa: sp 0 + .ra: lr
STACK CFI INIT 26ea8 8 .cfa: sp 0 + .ra: lr
STACK CFI INIT 26eb0 8 .cfa: sp 0 + .ra: lr
STACK CFI INIT 26eb8 358 .cfa: sp 0 + .ra: lr
STACK CFI 26ebc .cfa: sp 28 + .ra: .cfa -4 + ^ r4: .cfa -28 + ^ r5: .cfa -24 + ^ r6: .cfa -20 + ^ r7: .cfa -16 + ^ r8: .cfa -12 + ^ r9: .cfa -8 + ^
STACK CFI 26ec4 .cfa: sp 296 +
STACK CFI INIT 273b8 60 .cfa: sp 0 + .ra: lr
STACK CFI INIT 27418 28 .cfa: sp 0 + .ra: lr
STACK CFI 2741c .cfa: sp 24 + .ra: .cfa -4 + ^ r0: .cfa -24 + ^ r1: .cfa -20 + ^ r2: .cfa -16 + ^ r3: .cfa -12 + ^ r4: .cfa -8 + ^
STACK CFI INIT 27440 4 .cfa: sp 0 + .ra: lr
STACK CFI INIT 27444 37c .cfa: sp 0 + .ra: lr
STACK CFI 27448 .cfa: sp 48 + .ra: .cfa -4 + ^ r0: .cfa -48 + ^ r1: .cfa -44 + ^ r10: .cfa -8 + ^ r2: .cfa -40 + ^ r3: .cfa -36 + ^ r4: .cfa -32 + ^ r5: .cfa -28 + ^ r6: .cfa -24 + ^ r7: .cfa -20 + ^ r8: .cfa -16 + ^ r9: .cfa -12 + ^
STACK CFI INIT 277c0 40 .cfa: sp 0 + .ra: lr
STACK CFI 277c4 .cfa: sp 24 + .ra: .cfa -4 + ^ r0: .cfa -24 + ^ r1: .cfa -20 + ^ r2: .cfa -16 + ^ r3: .cfa -12 + ^ r4: .cfa -8 + ^
STACK CFI INIT 27800 10 .cfa: sp 0 + .ra: lr
STACK CFI 27804 .cfa: sp 8 + .ra: .cfa -4 + ^ r3: .cfa -8 + ^
STACK CFI INIT 27810 1c .cfa: sp 0 + .ra: lr
STACK CFI 27814 .cfa: sp 8 + .ra: .cfa -4 + ^ r3: .cfa -8 + ^
STACK CFI INIT 2782c 8 .cfa: sp 0 + .ra: lr
STACK CFI 27830 .cfa: sp 8 + .ra: .cfa -4 + ^ r3: .cfa -8 + ^
STACK CFI INIT 27834 8 .cfa: sp 0 + .ra: lr
STACK CFI 27838 .cfa: sp 8 + .ra: .cfa -4 + ^ r3: .cfa -8 + ^
