MODULE Linux arm 79ADE3505BDA6020DB587EE32D78EDEF0 lib_imagingmorph.so
FUNC f58 2cc 0 apply
FUNC 1224 23c 0 match
FUNC 1460 f8 0 get_on_pixels
FUNC 1558 6c 0 init_imagingmorph
FUNC 15c4 18 0 selfrel_offset31
FUNC 15dc ac 0 search_EIT_table
FUNC 1688 50 0 __gnu_unwind_get_pr_addr
FUNC 16d8 110 0 get_eit_entry
FUNC 17e8 6c 0 restore_non_core_regs
FUNC 1854 14 0 _Unwind_decode_typeinfo_ptr
FUNC 1868 8 0 __gnu_unwind_24bit
FUNC 1870 4 0 _Unwind_DebugHook
FUNC 1874 64 0 unwind_phase2
FUNC 18d8 124 0 unwind_phase2_forced
FUNC 19fc 8 0 _Unwind_GetCFA
FUNC 1a04 a4 0 __gnu_Unwind_RaiseException
FUNC 1aa8 1c 0 __gnu_Unwind_ForcedUnwind
FUNC 1ac4 74 0 __gnu_Unwind_Resume
FUNC 1b38 20 0 __gnu_Unwind_Resume_or_Rethrow
FUNC 1b58 4 0 _Unwind_Complete
FUNC 1b5c 20 0 _Unwind_DeleteException
FUNC 1b7c 5c 0 _Unwind_VRS_Get
FUNC 1bd8 28 0 _Unwind_GetGR
FUNC 1c00 5c 0 _Unwind_VRS_Set
FUNC 1c5c 2c 0 _Unwind_SetGR
FUNC 1c88 c4 0 __gnu_Unwind_Backtrace
FUNC 1d4c 3f4 0 __gnu_unwind_pr_common
FUNC 2140 8 0 __aeabi_unwind_cpp_pr0
FUNC 2148 8 0 __aeabi_unwind_cpp_pr1
FUNC 2150 8 0 __aeabi_unwind_cpp_pr2
FUNC 2158 358 0 _Unwind_VRS_Pop
FUNC 2658 60 0 next_unwind_byte
FUNC 26b8 28 0 _Unwind_GetGR
FUNC 26e0 4 0 unwind_UCB_from_context
FUNC 26e4 37c 0 __gnu_unwind_execute
FUNC 2a60 40 0 __gnu_unwind_frame
FUNC 2aa0 10 0 _Unwind_GetRegionStart
FUNC 2ab0 1c 0 _Unwind_GetLanguageSpecificData
FUNC 2acc 8 0 _Unwind_GetDataRelBase
FUNC 2ad4 8 0 _Unwind_GetTextRelBase
PUBLIC 1558 0 init_imagingmorph
PUBLIC 19fc 0 _Unwind_GetCFA
PUBLIC 1a04 0 __gnu_Unwind_RaiseException
PUBLIC 1aa8 0 __gnu_Unwind_ForcedUnwind
PUBLIC 1ac4 0 __gnu_Unwind_Resume
PUBLIC 1b38 0 __gnu_Unwind_Resume_or_Rethrow
PUBLIC 1b58 0 _Unwind_Complete
PUBLIC 1b5c 0 _Unwind_DeleteException
PUBLIC 1b7c 0 _Unwind_VRS_Get
PUBLIC 1c00 0 _Unwind_VRS_Set
PUBLIC 1c88 0 __gnu_Unwind_Backtrace
PUBLIC 2140 0 __aeabi_unwind_cpp_pr0
PUBLIC 2148 0 __aeabi_unwind_cpp_pr1
PUBLIC 2150 0 __aeabi_unwind_cpp_pr2
PUBLIC 2158 0 _Unwind_VRS_Pop
PUBLIC 24b0 0 restore_core_regs
PUBLIC 24c4 0 __gnu_Unwind_Restore_VFP
PUBLIC 24cc 0 __gnu_Unwind_Save_VFP
PUBLIC 24d4 0 __gnu_Unwind_Restore_VFP_D
PUBLIC 24dc 0 __gnu_Unwind_Save_VFP_D
PUBLIC 24e4 0 __gnu_Unwind_Restore_VFP_D_16_to_31
PUBLIC 24ec 0 __gnu_Unwind_Save_VFP_D_16_to_31
PUBLIC 24f4 0 __gnu_Unwind_Restore_WMMXD
PUBLIC 2538 0 __gnu_Unwind_Save_WMMXD
PUBLIC 257c 0 __gnu_Unwind_Restore_WMMXC
PUBLIC 2590 0 __gnu_Unwind_Save_WMMXC
PUBLIC 25a4 0 ___Unwind_RaiseException
PUBLIC 25c8 0 ___Unwind_Resume
PUBLIC 25ec 0 ___Unwind_Resume_or_Rethrow
PUBLIC 2610 0 ___Unwind_ForcedUnwind
PUBLIC 2634 0 ___Unwind_Backtrace
PUBLIC 26e4 0 __gnu_unwind_execute
PUBLIC 2a60 0 __gnu_unwind_frame
PUBLIC 2aa0 0 _Unwind_GetRegionStart
PUBLIC 2ab0 0 _Unwind_GetLanguageSpecificData
PUBLIC 2acc 0 _Unwind_GetDataRelBase
PUBLIC 2ad4 0 _Unwind_GetTextRelBase
STACK CFI INIT f58 2cc .cfa: sp 0 + .ra: lr
STACK CFI f64 .cfa: sp 36 + .ra: .cfa -4 + ^ r10: .cfa -12 + ^ r11: .cfa -8 + ^ r4: .cfa -36 + ^ r5: .cfa -32 + ^ r6: .cfa -28 + ^ r7: .cfa -24 + ^ r8: .cfa -20 + ^ r9: .cfa -16 + ^
STACK CFI f68 .cfa: sp 104 +
STACK CFI INIT 1224 23c .cfa: sp 0 + .ra: lr
STACK CFI 1228 .cfa: sp 36 + .ra: .cfa -4 + ^ r10: .cfa -12 + ^ r11: .cfa -8 + ^ r4: .cfa -36 + ^ r5: .cfa -32 + ^ r6: .cfa -28 + ^ r7: .cfa -24 + ^ r8: .cfa -20 + ^ r9: .cfa -16 + ^
STACK CFI 1230 .cfa: sp 72 +
STACK CFI INIT 1460 f8 .cfa: sp 0 + .ra: lr
STACK CFI 1464 .cfa: sp 36 + .ra: .cfa -4 + ^ r10: .cfa -12 + ^ r11: .cfa -8 + ^ r4: .cfa -36 + ^ r5: .cfa -32 + ^ r6: .cfa -28 + ^ r7: .cfa -24 + ^ r8: .cfa -20 + ^ r9: .cfa -16 + ^
STACK CFI 146c .cfa: sp 48 +
STACK CFI INIT 1558 6c .cfa: sp 0 + .ra: lr
STACK CFI 156c .cfa: sp 8 + .ra: .cfa -4 + ^ r4: .cfa -8 + ^
STACK CFI 1570 .cfa: sp 16 +
STACK CFI INIT 15c4 18 .cfa: sp 0 + .ra: lr
STACK CFI INIT 15dc ac .cfa: sp 0 + .ra: lr
STACK CFI 15e0 .cfa: sp 48 + .ra: .cfa -4 + ^ r0: .cfa -48 + ^ r1: .cfa -44 + ^ r10: .cfa -12 + ^ r11: .cfa -8 + ^ r2: .cfa -40 + ^ r4: .cfa -36 + ^ r5: .cfa -32 + ^ r6: .cfa -28 + ^ r7: .cfa -24 + ^ r8: .cfa -20 + ^ r9: .cfa -16 + ^
STACK CFI INIT 1688 50 .cfa: sp 0 + .ra: lr
STACK CFI INIT 16d8 110 .cfa: sp 0 + .ra: lr
STACK CFI 16e0 .cfa: sp 24 + .ra: .cfa -4 + ^ r0: .cfa -24 + ^ r1: .cfa -20 + ^ r2: .cfa -16 + ^ r4: .cfa -12 + ^ r5: .cfa -8 + ^
STACK CFI INIT 17e8 6c .cfa: sp 0 + .ra: lr
STACK CFI 17f0 .cfa: sp 8 + .ra: .cfa -4 + ^ r4: .cfa -8 + ^
STACK CFI INIT 1854 14 .cfa: sp 0 + .ra: lr
STACK CFI INIT 1868 8 .cfa: sp 0 + .ra: lr
STACK CFI INIT 1870 4 .cfa: sp 0 + .ra: lr
STACK CFI INIT 1874 64 .cfa: sp 0 + .ra: lr
STACK CFI 1878 .cfa: sp 16 + .ra: .cfa -4 + ^ r4: .cfa -16 + ^ r5: .cfa -12 + ^ r6: .cfa -8 + ^
STACK CFI INIT 18d8 124 .cfa: sp 0 + .ra: lr
STACK CFI 18dc .cfa: sp 36 + .ra: .cfa -4 + ^ r10: .cfa -12 + ^ r11: .cfa -8 + ^ r4: .cfa -36 + ^ r5: .cfa -32 + ^ r6: .cfa -28 + ^ r7: .cfa -24 + ^ r8: .cfa -20 + ^ r9: .cfa -16 + ^
STACK CFI 18f8 .cfa: sp 1008 +
STACK CFI INIT 19fc 8 .cfa: sp 0 + .ra: lr
STACK CFI INIT 1a04 a4 .cfa: sp 0 + .ra: lr
STACK CFI 1a08 .cfa: sp 20 + .ra: .cfa -4 + ^ r4: .cfa -20 + ^ r5: .cfa -16 + ^ r6: .cfa -12 + ^ r7: .cfa -8 + ^
STACK CFI 1a24 .cfa: sp 504 +
STACK CFI INIT 1aa8 1c .cfa: sp 0 + .ra: lr
STACK CFI INIT 1ac4 74 .cfa: sp 0 + .ra: lr
STACK CFI 1ac8 .cfa: sp 16 + .ra: .cfa -4 + ^ r4: .cfa -16 + ^ r5: .cfa -12 + ^ r6: .cfa -8 + ^
STACK CFI INIT 1b38 20 .cfa: sp 0 + .ra: lr
STACK CFI INIT 1b58 4 .cfa: sp 0 + .ra: lr
STACK CFI INIT 1b5c 20 .cfa: sp 0 + .ra: lr
STACK CFI 1b60 .cfa: sp 8 + .ra: .cfa -4 + ^ r3: .cfa -8 + ^
STACK CFI INIT 1b7c 5c .cfa: sp 0 + .ra: lr
STACK CFI INIT 1bd8 28 .cfa: sp 0 + .ra: lr
STACK CFI 1bdc .cfa: sp 24 + .ra: .cfa -4 + ^ r0: .cfa -24 + ^ r1: .cfa -20 + ^ r2: .cfa -16 + ^ r3: .cfa -12 + ^ r4: .cfa -8 + ^
STACK CFI INIT 1c00 5c .cfa: sp 0 + .ra: lr
STACK CFI INIT 1c5c 2c .cfa: sp 0 + .ra: lr
STACK CFI 1c60 .cfa: sp 24 + .ra: .cfa -4 + ^ r0: .cfa -24 + ^ r1: .cfa -20 + ^ r2: .cfa -16 + ^ r3: .cfa -12 + ^ r4: .cfa -8 + ^
STACK CFI INIT 1c88 c4 .cfa: sp 0 + .ra: lr
STACK CFI 1c8c .cfa: sp 24 + .ra: .cfa -4 + ^ r4: .cfa -24 + ^ r5: .cfa -20 + ^ r6: .cfa -16 + ^ r7: .cfa -12 + ^ r8: .cfa -8 + ^
STACK CFI 1ca8 .cfa: sp 592 +
STACK CFI INIT 1d4c 3f4 .cfa: sp 0 + .ra: lr
STACK CFI 1d50 .cfa: sp 36 + .ra: .cfa -4 + ^ r10: .cfa -12 + ^ r11: .cfa -8 + ^ r4: .cfa -36 + ^ r5: .cfa -32 + ^ r6: .cfa -28 + ^ r7: .cfa -24 + ^ r8: .cfa -20 + ^ r9: .cfa -16 + ^
STACK CFI 1d5c .cfa: sp 72 +
STACK CFI INIT 2140 8 .cfa: sp 0 + .ra: lr
STACK CFI INIT 2148 8 .cfa: sp 0 + .ra: lr
STACK CFI INIT 2150 8 .cfa: sp 0 + .ra: lr
STACK CFI INIT 2158 358 .cfa: sp 0 + .ra: lr
STACK CFI 215c .cfa: sp 28 + .ra: .cfa -4 + ^ r4: .cfa -28 + ^ r5: .cfa -24 + ^ r6: .cfa -20 + ^ r7: .cfa -16 + ^ r8: .cfa -12 + ^ r9: .cfa -8 + ^
STACK CFI 2164 .cfa: sp 296 +
STACK CFI INIT 2658 60 .cfa: sp 0 + .ra: lr
STACK CFI INIT 26b8 28 .cfa: sp 0 + .ra: lr
STACK CFI 26bc .cfa: sp 24 + .ra: .cfa -4 + ^ r0: .cfa -24 + ^ r1: .cfa -20 + ^ r2: .cfa -16 + ^ r3: .cfa -12 + ^ r4: .cfa -8 + ^
STACK CFI INIT 26e0 4 .cfa: sp 0 + .ra: lr
STACK CFI INIT 26e4 37c .cfa: sp 0 + .ra: lr
STACK CFI 26e8 .cfa: sp 48 + .ra: .cfa -4 + ^ r0: .cfa -48 + ^ r1: .cfa -44 + ^ r10: .cfa -8 + ^ r2: .cfa -40 + ^ r3: .cfa -36 + ^ r4: .cfa -32 + ^ r5: .cfa -28 + ^ r6: .cfa -24 + ^ r7: .cfa -20 + ^ r8: .cfa -16 + ^ r9: .cfa -12 + ^
STACK CFI INIT 2a60 40 .cfa: sp 0 + .ra: lr
STACK CFI 2a64 .cfa: sp 24 + .ra: .cfa -4 + ^ r0: .cfa -24 + ^ r1: .cfa -20 + ^ r2: .cfa -16 + ^ r3: .cfa -12 + ^ r4: .cfa -8 + ^
STACK CFI INIT 2aa0 10 .cfa: sp 0 + .ra: lr
STACK CFI 2aa4 .cfa: sp 8 + .ra: .cfa -4 + ^ r3: .cfa -8 + ^
STACK CFI INIT 2ab0 1c .cfa: sp 0 + .ra: lr
STACK CFI 2ab4 .cfa: sp 8 + .ra: .cfa -4 + ^ r3: .cfa -8 + ^
STACK CFI INIT 2acc 8 .cfa: sp 0 + .ra: lr
STACK CFI 2ad0 .cfa: sp 8 + .ra: .cfa -4 + ^ r3: .cfa -8 + ^
STACK CFI INIT 2ad4 8 .cfa: sp 0 + .ra: lr
STACK CFI 2ad8 .cfa: sp 8 + .ra: .cfa -4 + ^ r3: .cfa -8 + ^
