MODULE Linux arm E5E756CA684E1A43D0DD95B0FC9522750 libXBMC_pvr-arm.so
FUNC f70 84 0 PVR_register_me
FUNC ff4 20 0 PVR_unregister_me
FUNC 1014 24 0 PVR_transfer_epg_entry
FUNC 1038 24 0 PVR_transfer_channel_entry
FUNC 105c 24 0 PVR_transfer_timer_entry
FUNC 1080 24 0 PVR_transfer_recording_entry
FUNC 10a4 20 0 PVR_add_menu_hook
FUNC 10c4 2c 0 PVR_recording
FUNC 10f0 1c 0 PVR_trigger_channel_update
FUNC 110c 1c 0 PVR_trigger_channel_groups_update
FUNC 1128 1c 0 PVR_trigger_timer_update
FUNC 1144 1c 0 PVR_trigger_recording_update
FUNC 1160 20 0 PVR_trigger_epg_update
FUNC 1180 20 0 PVR_free_demux_packet
FUNC 11a0 28 0 PVR_allocate_demux_packet
FUNC 11c8 24 0 PVR_transfer_channel_group
FUNC 11ec 24 0 PVR_transfer_channel_group_member
FUNC 1210 18 0 selfrel_offset31
FUNC 1228 ac 0 search_EIT_table
FUNC 12d4 50 0 __gnu_unwind_get_pr_addr
FUNC 1324 10c 0 get_eit_entry
FUNC 1430 6c 0 restore_non_core_regs
FUNC 149c 14 0 _Unwind_decode_typeinfo_ptr
FUNC 14b0 8 0 __gnu_unwind_24bit
FUNC 14b8 4 0 _Unwind_DebugHook
FUNC 14bc 64 0 unwind_phase2
FUNC 1520 124 0 unwind_phase2_forced
FUNC 1644 8 0 _Unwind_GetCFA
FUNC 164c a4 0 __gnu_Unwind_RaiseException
FUNC 16f0 1c 0 __gnu_Unwind_ForcedUnwind
FUNC 170c 74 0 __gnu_Unwind_Resume
FUNC 1780 20 0 __gnu_Unwind_Resume_or_Rethrow
FUNC 17a0 4 0 _Unwind_Complete
FUNC 17a4 20 0 _Unwind_DeleteException
FUNC 17c4 5c 0 _Unwind_VRS_Get
FUNC 1820 28 0 _Unwind_GetGR
FUNC 1848 5c 0 _Unwind_VRS_Set
FUNC 18a4 2c 0 _Unwind_SetGR
FUNC 18d0 c4 0 __gnu_Unwind_Backtrace
FUNC 1994 3f0 0 __gnu_unwind_pr_common
FUNC 1d84 8 0 __aeabi_unwind_cpp_pr0
FUNC 1d8c 8 0 __aeabi_unwind_cpp_pr1
FUNC 1d94 8 0 __aeabi_unwind_cpp_pr2
FUNC 1d9c 34c 0 _Unwind_VRS_Pop
FUNC 2290 60 0 next_unwind_byte
FUNC 22f0 28 0 _Unwind_GetGR
FUNC 2318 4 0 unwind_UCB_from_context
FUNC 231c 37c 0 __gnu_unwind_execute
FUNC 2698 40 0 __gnu_unwind_frame
FUNC 26d8 10 0 _Unwind_GetRegionStart
FUNC 26e8 1c 0 _Unwind_GetLanguageSpecificData
FUNC 2704 8 0 _Unwind_GetDataRelBase
FUNC 270c 8 0 _Unwind_GetTextRelBase
PUBLIC f70 0 PVR_register_me
PUBLIC ff4 0 PVR_unregister_me
PUBLIC 1014 0 PVR_transfer_epg_entry
PUBLIC 1038 0 PVR_transfer_channel_entry
PUBLIC 105c 0 PVR_transfer_timer_entry
PUBLIC 1080 0 PVR_transfer_recording_entry
PUBLIC 10a4 0 PVR_add_menu_hook
PUBLIC 10c4 0 PVR_recording
PUBLIC 10f0 0 PVR_trigger_channel_update
PUBLIC 110c 0 PVR_trigger_channel_groups_update
PUBLIC 1128 0 PVR_trigger_timer_update
PUBLIC 1144 0 PVR_trigger_recording_update
PUBLIC 1160 0 PVR_trigger_epg_update
PUBLIC 1180 0 PVR_free_demux_packet
PUBLIC 11a0 0 PVR_allocate_demux_packet
PUBLIC 11c8 0 PVR_transfer_channel_group
PUBLIC 11ec 0 PVR_transfer_channel_group_member
PUBLIC 1644 0 _Unwind_GetCFA
PUBLIC 164c 0 __gnu_Unwind_RaiseException
PUBLIC 16f0 0 __gnu_Unwind_ForcedUnwind
PUBLIC 170c 0 __gnu_Unwind_Resume
PUBLIC 1780 0 __gnu_Unwind_Resume_or_Rethrow
PUBLIC 17a0 0 _Unwind_Complete
PUBLIC 17a4 0 _Unwind_DeleteException
PUBLIC 17c4 0 _Unwind_VRS_Get
PUBLIC 1848 0 _Unwind_VRS_Set
PUBLIC 18d0 0 __gnu_Unwind_Backtrace
PUBLIC 1d84 0 __aeabi_unwind_cpp_pr0
PUBLIC 1d8c 0 __aeabi_unwind_cpp_pr1
PUBLIC 1d94 0 __aeabi_unwind_cpp_pr2
PUBLIC 1d9c 0 _Unwind_VRS_Pop
PUBLIC 20e8 0 restore_core_regs
PUBLIC 20fc 0 __gnu_Unwind_Restore_VFP
PUBLIC 2104 0 __gnu_Unwind_Save_VFP
PUBLIC 210c 0 __gnu_Unwind_Restore_VFP_D
PUBLIC 2114 0 __gnu_Unwind_Save_VFP_D
PUBLIC 211c 0 __gnu_Unwind_Restore_VFP_D_16_to_31
PUBLIC 2124 0 __gnu_Unwind_Save_VFP_D_16_to_31
PUBLIC 212c 0 __gnu_Unwind_Restore_WMMXD
PUBLIC 2170 0 __gnu_Unwind_Save_WMMXD
PUBLIC 21b4 0 __gnu_Unwind_Restore_WMMXC
PUBLIC 21c8 0 __gnu_Unwind_Save_WMMXC
PUBLIC 21dc 0 ___Unwind_RaiseException
PUBLIC 2200 0 ___Unwind_Resume
PUBLIC 2224 0 ___Unwind_Resume_or_Rethrow
PUBLIC 2248 0 ___Unwind_ForcedUnwind
PUBLIC 226c 0 ___Unwind_Backtrace
PUBLIC 231c 0 __gnu_unwind_execute
PUBLIC 2698 0 __gnu_unwind_frame
PUBLIC 26d8 0 _Unwind_GetRegionStart
PUBLIC 26e8 0 _Unwind_GetLanguageSpecificData
PUBLIC 2704 0 _Unwind_GetDataRelBase
PUBLIC 270c 0 _Unwind_GetTextRelBase
STACK CFI INIT f70 84 .cfa: sp 0 + .ra: lr
STACK CFI f78 .cfa: sp 8 + .ra: .cfa -4 + ^ r4: .cfa -8 + ^
STACK CFI INIT ff4 20 .cfa: sp 0 + .ra: lr
STACK CFI 1000 .cfa: sp 8 + .ra: .cfa -4 + ^ r3: .cfa -8 + ^
STACK CFI INIT 1014 24 .cfa: sp 0 + .ra: lr
STACK CFI 101c .cfa: sp 8 + .ra: .cfa -4 + ^ r3: .cfa -8 + ^
STACK CFI INIT 1038 24 .cfa: sp 0 + .ra: lr
STACK CFI 1040 .cfa: sp 8 + .ra: .cfa -4 + ^ r3: .cfa -8 + ^
STACK CFI INIT 105c 24 .cfa: sp 0 + .ra: lr
STACK CFI 1064 .cfa: sp 8 + .ra: .cfa -4 + ^ r3: .cfa -8 + ^
STACK CFI INIT 1080 24 .cfa: sp 0 + .ra: lr
STACK CFI 1088 .cfa: sp 8 + .ra: .cfa -4 + ^ r3: .cfa -8 + ^
STACK CFI INIT 10a4 20 .cfa: sp 0 + .ra: lr
STACK CFI 10ac .cfa: sp 8 + .ra: .cfa -4 + ^ r3: .cfa -8 + ^
STACK CFI INIT 10c4 2c .cfa: sp 0 + .ra: lr
STACK CFI 10cc .cfa: sp 8 + .ra: .cfa -4 + ^ r4: .cfa -8 + ^
STACK CFI INIT 10f0 1c .cfa: sp 0 + .ra: lr
STACK CFI 10f8 .cfa: sp 8 + .ra: .cfa -4 + ^ r3: .cfa -8 + ^
STACK CFI INIT 110c 1c .cfa: sp 0 + .ra: lr
STACK CFI 1114 .cfa: sp 8 + .ra: .cfa -4 + ^ r3: .cfa -8 + ^
STACK CFI INIT 1128 1c .cfa: sp 0 + .ra: lr
STACK CFI 1130 .cfa: sp 8 + .ra: .cfa -4 + ^ r3: .cfa -8 + ^
STACK CFI INIT 1144 1c .cfa: sp 0 + .ra: lr
STACK CFI 114c .cfa: sp 8 + .ra: .cfa -4 + ^ r3: .cfa -8 + ^
STACK CFI INIT 1160 20 .cfa: sp 0 + .ra: lr
STACK CFI 1168 .cfa: sp 8 + .ra: .cfa -4 + ^ r3: .cfa -8 + ^
STACK CFI INIT 1180 20 .cfa: sp 0 + .ra: lr
STACK CFI 1188 .cfa: sp 8 + .ra: .cfa -4 + ^ r3: .cfa -8 + ^
STACK CFI INIT 11a0 28 .cfa: sp 0 + .ra: lr
STACK CFI 11a8 .cfa: sp 8 + .ra: .cfa -4 + ^ r3: .cfa -8 + ^
STACK CFI INIT 11c8 24 .cfa: sp 0 + .ra: lr
STACK CFI 11d0 .cfa: sp 8 + .ra: .cfa -4 + ^ r3: .cfa -8 + ^
STACK CFI INIT 11ec 24 .cfa: sp 0 + .ra: lr
STACK CFI 11f4 .cfa: sp 8 + .ra: .cfa -4 + ^ r3: .cfa -8 + ^
STACK CFI INIT 1210 18 .cfa: sp 0 + .ra: lr
STACK CFI INIT 1228 ac .cfa: sp 0 + .ra: lr
STACK CFI 122c .cfa: sp 48 + .ra: .cfa -4 + ^ r0: .cfa -48 + ^ r1: .cfa -44 + ^ r10: .cfa -12 + ^ r11: .cfa -8 + ^ r2: .cfa -40 + ^ r4: .cfa -36 + ^ r5: .cfa -32 + ^ r6: .cfa -28 + ^ r7: .cfa -24 + ^ r8: .cfa -20 + ^ r9: .cfa -16 + ^
STACK CFI INIT 12d4 50 .cfa: sp 0 + .ra: lr
STACK CFI INIT 1324 10c .cfa: sp 0 + .ra: lr
STACK CFI 132c .cfa: sp 24 + .ra: .cfa -4 + ^ r0: .cfa -24 + ^ r1: .cfa -20 + ^ r2: .cfa -16 + ^ r4: .cfa -12 + ^ r5: .cfa -8 + ^
STACK CFI INIT 1430 6c .cfa: sp 0 + .ra: lr
STACK CFI 1438 .cfa: sp 8 + .ra: .cfa -4 + ^ r4: .cfa -8 + ^
STACK CFI INIT 149c 14 .cfa: sp 0 + .ra: lr
STACK CFI INIT 14b0 8 .cfa: sp 0 + .ra: lr
STACK CFI INIT 14b8 4 .cfa: sp 0 + .ra: lr
STACK CFI INIT 14bc 64 .cfa: sp 0 + .ra: lr
STACK CFI 14c0 .cfa: sp 16 + .ra: .cfa -4 + ^ r4: .cfa -16 + ^ r5: .cfa -12 + ^ r6: .cfa -8 + ^
STACK CFI INIT 1520 124 .cfa: sp 0 + .ra: lr
STACK CFI 1524 .cfa: sp 36 + .ra: .cfa -4 + ^ r10: .cfa -12 + ^ r11: .cfa -8 + ^ r4: .cfa -36 + ^ r5: .cfa -32 + ^ r6: .cfa -28 + ^ r7: .cfa -24 + ^ r8: .cfa -20 + ^ r9: .cfa -16 + ^
STACK CFI 1540 .cfa: sp 1008 +
STACK CFI INIT 1644 8 .cfa: sp 0 + .ra: lr
STACK CFI INIT 164c a4 .cfa: sp 0 + .ra: lr
STACK CFI 1654 .cfa: sp 20 + .ra: .cfa -4 + ^ r4: .cfa -20 + ^ r5: .cfa -16 + ^ r6: .cfa -12 + ^ r7: .cfa -8 + ^
STACK CFI 1668 .cfa: sp 504 +
STACK CFI INIT 16f0 1c .cfa: sp 0 + .ra: lr
STACK CFI INIT 170c 74 .cfa: sp 0 + .ra: lr
STACK CFI 1710 .cfa: sp 16 + .ra: .cfa -4 + ^ r4: .cfa -16 + ^ r5: .cfa -12 + ^ r6: .cfa -8 + ^
STACK CFI INIT 1780 20 .cfa: sp 0 + .ra: lr
STACK CFI INIT 17a0 4 .cfa: sp 0 + .ra: lr
STACK CFI INIT 17a4 20 .cfa: sp 0 + .ra: lr
STACK CFI 17a8 .cfa: sp 8 + .ra: .cfa -4 + ^ r3: .cfa -8 + ^
STACK CFI INIT 17c4 5c .cfa: sp 0 + .ra: lr
STACK CFI INIT 1820 28 .cfa: sp 0 + .ra: lr
STACK CFI 1824 .cfa: sp 24 + .ra: .cfa -4 + ^ r0: .cfa -24 + ^ r1: .cfa -20 + ^ r2: .cfa -16 + ^ r3: .cfa -12 + ^ r4: .cfa -8 + ^
STACK CFI INIT 1848 5c .cfa: sp 0 + .ra: lr
STACK CFI INIT 18a4 2c .cfa: sp 0 + .ra: lr
STACK CFI 18a8 .cfa: sp 24 + .ra: .cfa -4 + ^ r0: .cfa -24 + ^ r1: .cfa -20 + ^ r2: .cfa -16 + ^ r3: .cfa -12 + ^ r4: .cfa -8 + ^
STACK CFI INIT 18d0 c4 .cfa: sp 0 + .ra: lr
STACK CFI 18d8 .cfa: sp 24 + .ra: .cfa -4 + ^ r4: .cfa -24 + ^ r5: .cfa -20 + ^ r6: .cfa -16 + ^ r7: .cfa -12 + ^ r8: .cfa -8 + ^
STACK CFI 18ec .cfa: sp 592 +
STACK CFI INIT 1994 3f0 .cfa: sp 0 + .ra: lr
STACK CFI 1998 .cfa: sp 36 + .ra: .cfa -4 + ^ r10: .cfa -12 + ^ r11: .cfa -8 + ^ r4: .cfa -36 + ^ r5: .cfa -32 + ^ r6: .cfa -28 + ^ r7: .cfa -24 + ^ r8: .cfa -20 + ^ r9: .cfa -16 + ^
STACK CFI 19a4 .cfa: sp 72 +
STACK CFI INIT 1d84 8 .cfa: sp 0 + .ra: lr
STACK CFI INIT 1d8c 8 .cfa: sp 0 + .ra: lr
STACK CFI INIT 1d94 8 .cfa: sp 0 + .ra: lr
STACK CFI INIT 1d9c 34c .cfa: sp 0 + .ra: lr
STACK CFI 1da0 .cfa: sp 28 + .ra: .cfa -4 + ^ r4: .cfa -28 + ^ r5: .cfa -24 + ^ r6: .cfa -20 + ^ r7: .cfa -16 + ^ r8: .cfa -12 + ^ r9: .cfa -8 + ^
STACK CFI 1da8 .cfa: sp 296 +
STACK CFI INIT 2290 60 .cfa: sp 0 + .ra: lr
STACK CFI INIT 22f0 28 .cfa: sp 0 + .ra: lr
STACK CFI 22f4 .cfa: sp 24 + .ra: .cfa -4 + ^ r0: .cfa -24 + ^ r1: .cfa -20 + ^ r2: .cfa -16 + ^ r3: .cfa -12 + ^ r4: .cfa -8 + ^
STACK CFI INIT 2318 4 .cfa: sp 0 + .ra: lr
STACK CFI INIT 231c 37c .cfa: sp 0 + .ra: lr
STACK CFI 2320 .cfa: sp 48 + .ra: .cfa -4 + ^ r0: .cfa -48 + ^ r1: .cfa -44 + ^ r10: .cfa -8 + ^ r2: .cfa -40 + ^ r3: .cfa -36 + ^ r4: .cfa -32 + ^ r5: .cfa -28 + ^ r6: .cfa -24 + ^ r7: .cfa -20 + ^ r8: .cfa -16 + ^ r9: .cfa -12 + ^
STACK CFI INIT 2698 40 .cfa: sp 0 + .ra: lr
STACK CFI 269c .cfa: sp 24 + .ra: .cfa -4 + ^ r0: .cfa -24 + ^ r1: .cfa -20 + ^ r2: .cfa -16 + ^ r3: .cfa -12 + ^ r4: .cfa -8 + ^
STACK CFI INIT 26d8 10 .cfa: sp 0 + .ra: lr
STACK CFI 26dc .cfa: sp 8 + .ra: .cfa -4 + ^ r3: .cfa -8 + ^
STACK CFI INIT 26e8 1c .cfa: sp 0 + .ra: lr
STACK CFI 26ec .cfa: sp 8 + .ra: .cfa -4 + ^ r3: .cfa -8 + ^
STACK CFI INIT 2704 8 .cfa: sp 0 + .ra: lr
STACK CFI 2708 .cfa: sp 8 + .ra: .cfa -4 + ^ r3: .cfa -8 + ^
STACK CFI INIT 270c 8 .cfa: sp 0 + .ra: lr
STACK CFI 2710 .cfa: sp 8 + .ra: .cfa -4 + ^ r3: .cfa -8 + ^
