MODULE Linux arm 2B16AC96F8D140F4803E014A9547D1B70 lib_imaging.so
FUNC c9b0 14 0 image_length
FUNC c9c4 168 0 _getattr_unsafe_ptrs
FUNC cb2c 1c 0 _getattr_size
FUNC cb48 18 0 _getattr_ptr
FUNC cb60 8 0 _getattr_id
FUNC cb68 c 0 _getattr_bands
FUNC cb74 c 0 _isblock
FUNC cb80 8 0 _getattr_mode
FUNC cb88 74 0 pixel_access_new
FUNC cbfc 9c 0 _draw_new
FUNC cc98 38 0 _getcount
FUNC ccd0 70 0 _save_ppm
FUNC cd40 208 0 _font_new
FUNC cf48 124 0 _putpalettealphas
FUNC d06c 1b4 0 _putpalette
FUNC d220 110 0 _getpalette
FUNC d330 78 0 _fillband
FUNC d3a8 18c 0 im_setmode
FUNC d534 90 0 _putband
FUNC d5c4 a8 0 _getprojection
FUNC d66c e0 0 _getextrema
FUNC d74c 90 0 _copy2
FUNC d7dc 8d4 0 _putdata
FUNC e0b0 208 0 _histogram
FUNC e2b8 90 0 _convert2
FUNC e348 44 0 pixel_access_dealloc
FUNC e38c 1c 0 _dealloc
FUNC e3a8 44 0 _draw_dealloc
FUNC e3ec 44 0 _font_dealloc
FUNC e430 128 0 _draw_pieslice
FUNC e558 124 0 _draw_ellipse
FUNC e67c 128 0 _draw_chord
FUNC e7a4 104 0 _draw_bitmap
FUNC e8a8 118 0 _draw_arc
FUNC e9c0 e0 0 _draw_points
FUNC eaa0 90 0 _draw_point
FUNC eb30 124 0 _draw_rectangle
FUNC ec54 1e0 0 _draw_polygon
FUNC ee34 a8 0 _draw_line
FUNC eedc 1d4 0 _draw_lines
FUNC f0b0 84 0 _crc32
FUNC f134 dc 0 _getcodecstatus
FUNC f210 48 0 _getpalettemode
FUNC f258 104 0 _putpalettealpha
FUNC f35c 64 0 _getbbox
FUNC f3c0 d4 0 _draw_outline
FUNC f494 194 0 getlist
FUNC f628 2e0 0 _getpixel
FUNC f908 1d4 0 image_item
FUNC fadc 2dc 0 _getcolors
FUNC fdb8 2b0 0 pixel_access_getitem
FUNC 10068 33c 0 _draw_ink
FUNC 103a4 3bc 0 _putpixel
FUNC 10760 54 0 PyImagingNew
FUNC 107b4 50 0 _new_block
FUNC 10804 50 0 _new_array
FUNC 10854 44 0 _effect_spread
FUNC 10898 88 0 _box_blur
FUNC 10920 90 0 _unsharp_mask
FUNC 109b0 90 0 _gaussian_blur
FUNC 10a40 58 0 _chop_xor
FUNC 10a98 58 0 _chop_or
FUNC 10af0 58 0 _chop_and
FUNC 10b48 58 0 _chop_subtract_modulo
FUNC 10ba0 58 0 _chop_add_modulo
FUNC 10bf8 80 0 _chop_subtract
FUNC 10c78 80 0 _chop_add
FUNC 10cf8 58 0 _chop_screen
FUNC 10d50 58 0 _chop_multiply
FUNC 10da8 58 0 _chop_difference
FUNC 10e00 58 0 _chop_darker
FUNC 10e58 58 0 _chop_lighter
FUNC 10eb0 14 0 _chop_invert
FUNC 10ec4 44 0 _getband
FUNC 10f08 148 0 _transpose
FUNC 11050 1dc 0 _rotate
FUNC 1122c 148 0 _resize
FUNC 11374 4c 0 _rankfilter
FUNC 113c0 a0 0 _quantize
FUNC 11460 6c 0 _point_transform
FUNC 114cc e34 0 _point
FUNC 12300 4c 0 _offset
FUNC 1234c 44 0 _modefilter
FUNC 12390 60 0 _expand_image
FUNC 123f0 68 0 _crop
FUNC 12458 34 0 _copy
FUNC 1248c c0 0 _convert_transparent
FUNC 1254c e4 0 _convert_matrix
FUNC 12630 124 0 _convert
FUNC 12754 3c 0 _radial_gradient
FUNC 12790 3c 0 _linear_gradient
FUNC 127cc 58 0 _effect_noise
FUNC 12824 bc 0 _effect_mandelbrot
FUNC 128e0 3c 0 _open_ppm
FUNC 1291c 50 0 _new
FUNC 1296c 380 0 _fill
FUNC 12cec 88 0 _blend
FUNC 12d74 64 0 _alpha_composite
FUNC 12dd8 44 0 PyImaging_AsImaging
FUNC 12e1c 3ec 0 _paste
FUNC 13208 14 0 ImagingSectionEnter
FUNC 1321c 8 0 ImagingSectionLeave
FUNC 13224 44 0 PyImaging_CheckBuffer
FUNC 13268 94 0 PyImaging_GetBuffer
FUNC 132fc 2c 0 ImagingError_IOError
FUNC 13328 4 0 ImagingError_MemoryError
FUNC 1332c 2c 0 ImagingError_Mismatch
FUNC 13358 2c 0 ImagingError_ModeError
FUNC 13384 38 0 ImagingError_ValueError
FUNC 133bc 340 0 _transform2
FUNC 136fc e0 0 _filter
FUNC 137dc 498 0 pixel_access_setitem
FUNC 13c74 4 0 ImagingError_Clear
FUNC 13c78 6c 0 _font_text_asBytes
FUNC 13ce4 a0 0 _font_getsize
FUNC 13d84 1a8 0 _font_getmask
FUNC 13f2c 180 0 init_imaging
FUNC 140b0 8 0 _get_handles_eof
FUNC 140b8 1d8 0 _setimage
FUNC 14290 30 0 _decode_cleanup
FUNC 142c0 80 0 _decode
FUNC 14340 68 0 _dealloc
FUNC 143a8 88 0 get_unpacker
FUNC 14430 198 0 PyImaging_BitDecoderNew
FUNC 145c8 74 0 PyImaging_FliDecoderNew
FUNC 1463c 174 0 PyImaging_GifDecoderNew
FUNC 147b0 bc 0 PyImaging_HexDecoderNew
FUNC 1486c 114 0 PyImaging_TiffLzwDecoderNew
FUNC 14980 180 0 PyImaging_LibTiffDecoderNew
FUNC 14b00 9c 0 PyImaging_MspDecoderNew
FUNC 14b9c bc 0 PyImaging_PackbitsDecoderNew
FUNC 14c58 a4 0 PyImaging_PcdDecoderNew
FUNC 14cfc cc 0 PyImaging_PcxDecoderNew
FUNC 14dc8 12c 0 PyImaging_RawDecoderNew
FUNC 14ef4 bc 0 PyImaging_SunRleDecoderNew
FUNC 14fb0 fc 0 PyImaging_TgaRleDecoderNew
FUNC 150ac a4 0 PyImaging_XbmDecoderNew
FUNC 15150 114 0 PyImaging_ZipDecoderNew
FUNC 15264 190 0 PyImaging_JpegDecoderNew
FUNC 153f4 1cc 0 _setimage
FUNC 155c0 f4 0 _encode_to_file
FUNC 156b4 30 0 _encode_cleanup
FUNC 156e4 f0 0 _encode
FUNC 157d4 68 0 _dealloc
FUNC 1583c 88 0 get_packer
FUNC 158c4 60 0 PyImaging_EpsEncoderNew
FUNC 15924 124 0 PyImaging_GifEncoderNew
FUNC 15a48 c0 0 PyImaging_PcxEncoderNew
FUNC 15b08 e0 0 PyImaging_RawEncoderNew
FUNC 15be8 90 0 PyImaging_XbmEncoderNew
FUNC 15c78 1d0 0 PyImaging_ZipEncoderNew
FUNC 15e48 558 0 PyImaging_JpegEncoderNew
FUNC 163a0 694 0 PyImaging_LibTiffEncoderNew
FUNC 16a34 4 0 ImagingDestroyMap
FUNC 16a38 a4 0 mapping_seek
FUNC 16adc 21c 0 mapping_readimage
FUNC 16cf8 d0 0 mapping_read
FUNC 16dc8 4 0 mapping_dealloc
FUNC 16dcc 44 0 mapping_destroy_buffer
FUNC 16e10 58 0 PyImaging_MapperNew
FUNC 16e68 3c 0 PyImaging_Mapper
FUNC 16ea4 2d4 0 PyImaging_MapBuffer
FUNC 17178 84 0 _outline_transform
FUNC 171fc 4c 0 _outline_close
FUNC 17248 64 0 _outline_move
FUNC 172ac a0 0 _outline_curve
FUNC 1734c 64 0 _outline_line
FUNC 173b0 1c 0 _outline_dealloc
FUNC 173cc 20 0 PyOutline_AsOutline
FUNC 173ec 70 0 PyOutline_Create
FUNC 1745c 8 0 path_len
FUNC 17464 2c 0 path_clip_polyline
FUNC 17490 2c 0 path_clip_polygon
FUNC 174bc 14 0 path_getattr_id
FUNC 174d0 180 0 path_getbbox
FUNC 17650 1d4 0 path_transform
FUNC 17824 148 0 path_map
FUNC 1796c 108 0 path_compact
FUNC 17a74 154 0 path_tolist
FUNC 17bc8 1c 0 path_dealloc
FUNC 17be4 a0 0 path_setitem
FUNC 17c84 7c 0 path_getitem
FUNC 17d00 e0 0 path_getslice
FUNC 17de0 204 0 path_subscript
FUNC 17fe4 668 0 PyPath_Flatten
FUNC 1864c f4 0 PyPath_Create
FUNC 18740 10 0 line_8
FUNC 18750 10 0 line_16
FUNC 18760 10 0 line_32
FUNC 18770 14 0 get_pixel_8
FUNC 18784 18 0 get_pixel_16L
FUNC 1879c 20 0 get_pixel_16B
FUNC 187bc 14 0 get_pixel_32
FUNC 187d0 14 0 get_pixel_32L
FUNC 187e4 34 0 get_pixel_32B
FUNC 18818 14 0 put_pixel_8
FUNC 1882c 20 0 put_pixel_16L
FUNC 1884c 20 0 put_pixel_16B
FUNC 1886c 30 0 put_pixel_32L
FUNC 1889c 30 0 put_pixel_32B
FUNC 188cc 14 0 put_pixel_32
FUNC 188e0 28 0 put_pixel
FUNC 18908 74 0 get_pixel
FUNC 1897c e28 0 ImagingAccessInit
FUNC 197a4 98 0 ImagingAccessNew
FUNC 1983c 4 0 _ImagingAccessDelete
FUNC 19840 20c 0 ImagingAlphaComposite
FUNC 19a50 30 0 bilinear_filter
FUNC 19a80 84 0 bicubic_filter
FUNC 19b04 e0 0 lanczos_filter
FUNC 19be4 1320 0 ImagingResampleHorizontal
FUNC 1af04 d4 0 ImagingResample
FUNC 1afd8 f8 0 ImagingGetBand
FUNC 1b0d0 118 0 ImagingPutBand
FUNC 1b1e8 c4 0 ImagingFillBand
FUNC 1b2ac 21c 0 ImagingBitDecode
FUNC 1b4c8 220 0 ImagingBlend
FUNC 1b6e8 108 0 ImagingChopLighter
FUNC 1b7f0 108 0 ImagingChopDarker
FUNC 1b8f8 10c 0 ImagingChopDifference
FUNC 1ba04 114 0 ImagingChopMultiply
FUNC 1bb18 124 0 ImagingChopScreen
FUNC 1bc3c 130 0 ImagingChopAdd
FUNC 1bd6c 130 0 ImagingChopSubtract
FUNC 1be9c 134 0 ImagingChopAnd
FUNC 1bfd0 138 0 ImagingChopOr
FUNC 1c108 134 0 ImagingChopXor
FUNC 1c23c f0 0 ImagingChopAddModulo
FUNC 1c32c f0 0 ImagingChopSubtractModulo
FUNC 1c420 248 0 bit2l
FUNC 1c668 1e0 0 bit2rgb
FUNC 1c848 1c0 0 bit2cmyk
FUNC 1ca08 1cc 0 bit2ycbcr
FUNC 1cbd4 204 0 l2bit
FUNC 1cdd8 334 0 l2la
FUNC 1d10c 334 0 l2rgb
FUNC 1d440 1d8 0 la2l
FUNC 1d618 2e4 0 la2rgb
FUNC 1d8fc 618 0 rgb2bit
FUNC 1df14 680 0 rgb2l
FUNC 1e594 2dc 0 rgb2la
FUNC 1e870 470 0 rgb2i
FUNC 1ece0 228 0 rgb2f
FUNC 1ef08 308 0 rgb2bgr15
FUNC 1f210 308 0 rgb2bgr16
FUNC 1f518 118 0 rgb2bgr24
FUNC 1f630 12c 0 rgb2rgba
FUNC 1f75c 2dc 0 rgba2la
FUNC 1fa38 12c 0 rgba2rgb
FUNC 1fb64 3b0 0 rgba2rgba
FUNC 1ff14 ec 0 rgba2rgbA
FUNC 20000 36c 0 l2cmyk
FUNC 2036c 144 0 rgb2cmyk
FUNC 204b0 418 0 cmyk2rgb
FUNC 208c8 120 0 bit2i
FUNC 209e8 264 0 l2i
FUNC 20c4c 54 0 i2l
FUNC 20ca0 178 0 i2f
FUNC 20e18 138 0 bit2f
FUNC 20f50 338 0 l2f
FUNC 21288 68 0 f2l
FUNC 212f0 178 0 f2i
FUNC 21468 338 0 l2ycbcr
FUNC 217a0 1d8 0 ycbcr2l
FUNC 21978 530 0 I_I16L
FUNC 21ea8 4f0 0 I_I16B
FUNC 22398 3e0 0 I16L_I
FUNC 22778 3e4 0 I16B_I
FUNC 22b5c 30c 0 I16L_F
FUNC 22e68 314 0 I16B_F
FUNC 2317c 264 0 L_I16L
FUNC 233e0 264 0 L_I16B
FUNC 23644 38 0 I16L_L
FUNC 2367c 38 0 I16B_L
FUNC 236b4 74 0 p2bit
FUNC 23728 7c 0 p2l
FUNC 237a4 88 0 pa2la
FUNC 2382c 330 0 p2i
FUNC 23b5c 2f8 0 p2f
FUNC 23e54 4c 0 p2rgb
FUNC 23ea0 4c 0 p2rgba
FUNC 23eec 54 0 pa2rgba
FUNC 23f40 a0 0 p2cmyk
FUNC 23fe0 2c4 0 frompalette
FUNC 242a4 54 0 p2ycbcr
FUNC 242f8 1b0 0 rgb2hsv
FUNC 244a8 310 0 tobilevel
FUNC 247b8 14 0 round
FUNC 247cc 258 0 hsv2rgb
FUNC 24a24 76c 0 ImagingConvert
FUNC 25190 428 0 ImagingConvert2
FUNC 255b8 1b8 0 ImagingConvertTransparent
FUNC 25770 f4 0 ImagingConvertInPlace
FUNC 25868 e8 0 ImagingConvertRGB2YCbCr
FUNC 25950 e8 0 ImagingConvertYCbCr2RGB
FUNC 25a38 c0 0 ImagingCopy
FUNC 25af8 c8 0 ImagingCopy2
FUNC 25bc0 40 0 ImagingCRC32
FUNC 25c00 dc 0 ImagingCrop
FUNC 25ce0 d8 0 point32rgba
FUNC 25db8 120 0 hline32rgba
FUNC 25ed8 2c 0 x_cmp
FUNC 25f04 34 0 point8
FUNC 25f38 34 0 point32
FUNC 25f6c 8c 0 hline32
FUNC 25ff8 90 0 hline8
FUNC 26088 204 0 line8
FUNC 2628c 22c 0 line32
FUNC 264b8 458 0 polygon32
FUNC 26910 45c 0 polygon8
FUNC 26d6c 514 0 line32rgba
FUNC 27280 61c 0 polygon32rgba
FUNC 2789c 780 0 ellipse
FUNC 2801c 60 0 ImagingDrawPoint
FUNC 2807c 7c 0 ImagingDrawLine
FUNC 280f8 59c 0 ImagingDrawWideLine
FUNC 28694 188 0 ImagingDrawRectangle
FUNC 2881c 3d0 0 ImagingDrawPolygon
FUNC 28bec 40 0 ImagingDrawBitmap
FUNC 28c2c 48 0 ImagingDrawArc
FUNC 28c74 4c 0 ImagingDrawChord
FUNC 28cc0 48 0 ImagingDrawEllipse
FUNC 28d08 4c 0 ImagingDrawPieslice
FUNC 28d54 28 0 ImagingOutlineDelete
FUNC 28d7c 28 0 ImagingOutlineMove
FUNC 28da4 44 0 ImagingOutlineNew
FUNC 28de8 148 0 ImagingOutlineLine
FUNC 28f30 200 0 ImagingOutlineCurve
FUNC 29130 78 0 ImagingOutlineCurve2
FUNC 291a8 3c 0 ImagingOutlineClose
FUNC 291e4 200 0 ImagingOutlineTransform
FUNC 293e4 7c 0 ImagingDrawOutline
FUNC 29460 1bc 0 ImagingEffectMandelbrot
FUNC 2961c 130 0 ImagingEffectNoise
FUNC 2974c 250 0 ImagingEffectSpread
FUNC 299a0 150 0 ImagingEpsEncode
FUNC 29af0 294 0 ImagingOpenPPM
FUNC 29d84 f4 0 ImagingSaveRaw
FUNC 29e78 f8 0 ImagingSavePPM
FUNC 29f70 198 0 ImagingFill
FUNC 2a108 60 0 ImagingFillLinearGradient
FUNC 2a168 c4 0 ImagingFillRadialGradient
FUNC 2a22c 5d4 0 ImagingExpand
FUNC 2a800 758 0 ImagingFilter
FUNC 2af58 590 0 ImagingFliDecode
FUNC 2b4e8 4c 0 affine_transform
FUNC 2b534 6c 0 perspective_transform
FUNC 2b5a0 64 0 quad_transform
FUNC 2b604 80 0 nearest_filter8
FUNC 2b684 84 0 nearest_filter16
FUNC 2b708 80 0 nearest_filter32
FUNC 2b788 388 0 bicubic_filter32F
FUNC 2bb10 3c0 0 bicubic_filter32I
FUNC 2bed0 7a8 0 bicubic_filter32LA
FUNC 2c678 3e8 0 bicubic_filter8
FUNC 2ca60 1bc 0 bilinear_filter32F
FUNC 2cc1c 1bc 0 bilinear_filter32I
FUNC 2cdd8 2ac 0 bilinear_filter32LA
FUNC 2d084 1b8 0 bilinear_filter8
FUNC 2d23c 508 0 bicubic_filter32RGB
FUNC 2d744 22c 0 bilinear_filter32RGB
FUNC 2d970 160 0 ImagingFlipLeftRight
FUNC 2dad0 cc 0 ImagingFlipTopBottom
FUNC 2db9c 27c 0 ImagingRotate90
FUNC 2de18 254 0 ImagingTranspose
FUNC 2e06c 48 0 ImagingTransposeToNew
FUNC 2e0b4 178 0 ImagingRotate180
FUNC 2e22c 274 0 ImagingRotate270
FUNC 2e4a0 214 0 ImagingTransform
FUNC 2e6b4 fa0 0 ImagingTransformAffine
FUNC 2f654 214 0 ImagingTransformPerspective
FUNC 2f868 214 0 ImagingTransformQuad
FUNC 2fa7c 114 0 ImagingRotate
FUNC 2fb90 1fc 0 ImagingGetBBox
FUNC 2fd8c 148 0 ImagingGetProjection
FUNC 2fed4 658 0 ImagingGetExtrema
FUNC 3052c 2b8 0 ImagingGetColors
FUNC 307e4 5a0 0 ImagingGifDecode
FUNC 30d84 d0 0 emit
FUNC 30e54 1034 0 ImagingGifEncode
FUNC 31e88 134 0 ImagingHexDecode
FUNC 31fbc 24 0 ImagingHistogramDelete
FUNC 31fe0 44 0 ImagingHistogramNew
FUNC 32024 534 0 ImagingGetHistogram
FUNC 32558 4 0 stub
FUNC 3255c 8 0 fill_input_buffer
FUNC 32564 48 0 skip_input_data
FUNC 325ac 4 0 output
FUNC 325b0 14 0 error
FUNC 325c4 60 0 jpeg_buffer_src
FUNC 32624 4ec 0 ImagingJpegDecode
FUNC 32b10 18 0 ImagingJpegDecodeCleanup
FUNC 32b28 4 0 stub
FUNC 32b2c 8 0 empty_output_buffer
FUNC 32b34 1c 0 error
FUNC 32b50 2c 0 jpeg_buffer_dest
FUNC 32b7c 674 0 ImagingJpegEncode
FUNC 331f0 34 0 ImagingJpegVersion
FUNC 33224 380 0 ImagingLzwDecode
FUNC 335a4 2e8 0 ImagingConvertMatrix
FUNC 3388c 310 0 ImagingModeFilter
FUNC 33b9c 140 0 ImagingMspDecode
FUNC 33cdc 8c 0 ImagingNegative
FUNC 33d68 1b4 0 ImagingOffset
FUNC 33f1c 50 0 pack1
FUNC 33f6c 50 0 pack1I
FUNC 33fbc 54 0 pack1R
FUNC 34010 54 0 pack1IR
FUNC 34064 23c 0 pack1L
FUNC 342a0 3f8 0 packP4
FUNC 34698 714 0 packP2
FUNC 34dac 244 0 packLA
FUNC 34ff0 1c4 0 packLAL
FUNC 351b4 120 0 ImagingPackRGB
FUNC 352d4 12c 0 ImagingPackXRGB
FUNC 35400 118 0 ImagingPackBGR
FUNC 35518 124 0 ImagingPackBGRX
FUNC 3563c 124 0 ImagingPackXBGR
FUNC 35760 114 0 ImagingPackBGRA
FUNC 35874 10c 0 ImagingPackABGR
FUNC 35980 26c 0 packRGBL
FUNC 35bec 31c 0 packRGBXL
FUNC 35f08 60 0 packI16B
FUNC 35f68 240 0 packI16N_I16B
FUNC 361a8 15c 0 packI16N_I16
FUNC 36304 12c 0 packI32S
FUNC 36430 144 0 ImagingPackLAB
FUNC 36574 1ec 0 copy4I
FUNC 36760 1e4 0 band0
FUNC 36944 1cc 0 band1
FUNC 36b10 1cc 0 band2
FUNC 36cdc 1cc 0 band3
FUNC 36ea8 8 0 copy3
FUNC 36eb0 8 0 copy2
FUNC 36eb8 8 0 copy4
FUNC 36ec0 4 0 copy1
FUNC 36ec4 b8 0 ImagingFindPacker
FUNC 36f7c 164 0 ImagingPackbitsDecode
FUNC 370e0 108 0 ImagingPaletteNew
FUNC 371e8 16c 0 ImagingPaletteNewBrowser
FUNC 37354 48 0 ImagingPaletteDuplicate
FUNC 3739c 28 0 ImagingPaletteDelete
FUNC 373c4 468 0 ImagingPaletteCacheUpdate
FUNC 3782c 68 0 ImagingPaletteCachePrepare
FUNC 37894 28 0 ImagingPaletteCacheDelete
FUNC 378c0 2bbc 0 ImagingPaste
FUNC 3a47c 2af4 0 ImagingFill2
FUNC 3cf70 40 0 unshifted_pixel_hash
FUNC 3cfb0 50 0 unshifted_pixel_cmp
FUNC 3d000 10 0 exists_count_func
FUNC 3d010 c 0 new_count_func
FUNC 3d01c 14 0 rehash_collide
FUNC 3d030 11c 0 mergesort_pixels
FUNC 3d14c 10 0 box_heap_cmp
FUNC 3d15c 34 0 _sort_ulong_ptr_keys
FUNC 3d190 6c 0 compute_distances
FUNC 3d1fc c0 0 hash_to_list
FUNC 3d2bc a4 0 pixel_cmp
FUNC 3d360 54 0 pixel_hash
FUNC 3d3b4 1d4 0 build_distance_tables
FUNC 3d588 828 0 k_means
FUNC 3ddb0 808 0 free_box_tree
FUNC 3e5b8 66c 0 annotate_hash_table
FUNC 3ec24 c04 0 quantize
FUNC 3f828 67c 0 quantize2
FUNC 3fea4 6f0 0 ImagingQuantize
FUNC 40598 10 0 compare_bucket_count
FUNC 405a8 54 0 add_bucket_values
FUNC 405fc 354 0 copy_color_cube
FUNC 40950 15c 0 subtract_color_buckets
FUNC 40aac 80 0 lookup_color
FUNC 40b2c 118 0 add_lookup_buckets
FUNC 40c44 58 0 combined_palette
FUNC 40c9c 7b4 0 quantize_octree
FUNC 41450 38 0 _hashtable_destroy
FUNC 41488 1f8 0 _hashtable_resize
FUNC 41680 d0 0 _hashtable_insert
FUNC 41750 1b4 0 _hashtable_rehash
FUNC 41904 ac 0 hashtable_new
FUNC 419b0 124 0 hashtable_insert_or_update_computed
FUNC 41ad4 4 0 hashtable_update
FUNC 41ad8 4 0 hashtable_insert
FUNC 41adc 70 0 hashtable_foreach_update
FUNC 41b4c 6c 0 hashtable_foreach
FUNC 41bb8 90 0 hashtable_free
FUNC 41c48 10 0 hashtable_set_value_destroy_func
FUNC 41c58 10 0 hashtable_set_key_destroy_func
FUNC 41c68 b4 0 hashtable_remove
FUNC 41d1c cc 0 hashtable_delete
FUNC 41de8 8 0 hashtable_rehash_compute
FUNC 41df0 c 0 hashtable_rehash
FUNC 41dfc c4 0 hashtable_lookup_or_insert
FUNC 41ec0 78 0 hashtable_lookup
FUNC 41f38 8 0 hashtable_get_count
FUNC 41f40 8 0 hashtable_get_user_data
FUNC 41f48 10 0 hashtable_set_user_data
FUNC 41f58 1c 0 ImagingQuantHeapFree
FUNC 41f74 e0 0 ImagingQuantHeapRemove
FUNC 42054 d8 0 ImagingQuantHeapAdd
FUNC 4212c 20 0 ImagingQuantHeapTop
FUNC 4214c 64 0 ImagingQuantHeapNew
FUNC 421b0 178 0 ImagingPcdDecode
FUNC 42328 1d4 0 ImagingPcxDecode
FUNC 424fc 37c 0 ImagingPcxEncode
FUNC 42878 6c 0 im_point_8_8
FUNC 428e4 84 0 im_point_2x8_2x8
FUNC 42968 94 0 im_point_3x8_3x8
FUNC 429fc a4 0 im_point_4x8_4x8
FUNC 42aa0 70 0 im_point_8_32
FUNC 42b10 80 0 im_point_32_8
FUNC 42b90 194 0 ImagingPoint
FUNC 42d24 2a8 0 ImagingPointTransform
FUNC 42fcc ae0 0 ImagingRankFilter
FUNC 43aac 138 0 ImagingRawDecode
FUNC 43be4 14c 0 ImagingRawEncode
FUNC 43d30 4c 0 ImagingDestroyArray
FUNC 43d7c 10 0 ImagingDestroyBlock
FUNC 43d8c 4cc 0 ImagingNewPrologueSubtype
FUNC 44258 8 0 ImagingNewPrologue
FUNC 44260 48 0 ImagingNewEpilogue
FUNC 442a8 4c 0 ImagingDelete
FUNC 442f4 d4 0 ImagingNewArray
FUNC 443c8 9c 0 ImagingNewBlock
FUNC 44464 94 0 ImagingNew
FUNC 444f8 64 0 ImagingNew2
FUNC 4455c 3c 0 ImagingCopyInfo
FUNC 44598 170 0 ImagingSunRleDecode
FUNC 44708 230 0 ImagingTgaRleDecode
FUNC 44938 f8 0 unpack1
FUNC 44a30 118 0 unpack1I
FUNC 44b48 e4 0 unpack1R
FUNC 44c2c 124 0 unpack1IR
FUNC 44d50 cc 0 unpackL2
FUNC 44e1c 80 0 unpackL4
FUNC 44e9c f0 0 unpackLA
FUNC 44f8c 1d0 0 unpackLAL
FUNC 4515c 1e8 0 unpackLI
FUNC 45344 3c 0 unpackLR
FUNC 45380 1e0 0 unpackL16
FUNC 45560 1f0 0 unpackL16B
FUNC 45750 f8 0 unpackP1
FUNC 45848 94 0 unpackP2
FUNC 458dc 4c 0 unpackP4
FUNC 45928 74 0 unpackP2L
FUNC 4599c a0 0 unpackP4L
FUNC 45a3c 124 0 ImagingUnpackRGB
FUNC 45b60 44 0 unpackRGB16B
FUNC 45ba4 224 0 unpackRGBL
FUNC 45dc8 64 0 unpackRGBR
FUNC 45e2c 11c 0 ImagingUnpackBGR
FUNC 45f48 8cc 0 ImagingUnpackRGB15
FUNC 46814 504 0 ImagingUnpackRGBA15
FUNC 46d18 8ec 0 ImagingUnpackBGR15
FUNC 47604 53c 0 ImagingUnpackBGRA15
FUNC 47b40 914 0 ImagingUnpackRGB16
FUNC 48454 924 0 ImagingUnpackBGR16
FUNC 48d78 430 0 ImagingUnpackRGB4B
FUNC 491a8 4a0 0 ImagingUnpackRGBA4B
FUNC 49648 124 0 ImagingUnpackBGRX
FUNC 4976c 12c 0 ImagingUnpackXRGB
FUNC 49898 12c 0 ImagingUnpackXBGR
FUNC 499c4 f0 0 unpackRGBALA
FUNC 49ab4 118 0 unpackRGBALA16B
FUNC 49bcc 128 0 unpackRGBa
FUNC 49cf4 12c 0 unpackRGBAI
FUNC 49e20 260 0 unpackRGBAL
FUNC 4a080 188 0 unpackRGBA16B
FUNC 4a208 10c 0 unpackARGB
FUNC 4a314 10c 0 unpackABGR
FUNC 4a420 114 0 unpackBGRA
FUNC 4a534 170 0 unpackCMYKI
FUNC 4a6a4 148 0 ImagingUnpackLAB
FUNC 4a7ec 240 0 unpackI16N_I16B
FUNC 4aa2c 15c 0 unpackI16N_I16
FUNC 4ab88 70 0 unpackI12_I16
FUNC 4abf8 26c 0 unpackI8
FUNC 4ae64 26c 0 unpackI8S
FUNC 4b0d0 40 0 unpackI16
FUNC 4b110 40 0 unpackI16S
FUNC 4b150 40 0 unpackI16B
FUNC 4b190 40 0 unpackI16BS
FUNC 4b1d0 40 0 unpackI16N
FUNC 4b210 40 0 unpackI16NS
FUNC 4b250 58 0 unpackI32
FUNC 4b2a8 58 0 unpackI32S
FUNC 4b300 58 0 unpackI32B
FUNC 4b358 58 0 unpackI32BS
FUNC 4b3b0 58 0 unpackI32N
FUNC 4b408 58 0 unpackI32NS
FUNC 4b460 378 0 unpackF8
FUNC 4b7d8 378 0 unpackF8S
FUNC 4bb50 44 0 unpackF16
FUNC 4bb94 44 0 unpackF16S
FUNC 4bbd8 44 0 unpackF16B
FUNC 4bc1c 44 0 unpackF16BS
FUNC 4bc60 44 0 unpackF16N
FUNC 4bca4 44 0 unpackF16NS
FUNC 4bce8 58 0 unpackF32
FUNC 4bd40 58 0 unpackF32S
FUNC 4bd98 58 0 unpackF32B
FUNC 4bdf0 58 0 unpackF32BS
FUNC 4be48 58 0 unpackF32N
FUNC 4bea0 58 0 unpackF32NS
FUNC 4bef8 54 0 unpackF32F
FUNC 4bf4c 54 0 unpackF32BF
FUNC 4bfa0 54 0 unpackF32NF
FUNC 4bff4 34 0 unpackF64F
FUNC 4c028 78 0 unpackF64BF
FUNC 4c0a0 34 0 unpackF64NF
FUNC 4c0d4 b8 0 band0
FUNC 4c18c b4 0 band1
FUNC 4c240 b4 0 band2
FUNC 4c2f4 b4 0 band3
FUNC 4c3a8 dc 0 band0I
FUNC 4c484 d8 0 band1I
FUNC 4c55c d8 0 band2I
FUNC 4c634 d8 0 band3I
FUNC 4c70c 8 0 copy2
FUNC 4c714 8 0 copy4
FUNC 4c71c 4 0 copy1
FUNC 4c720 b8 0 ImagingFindUnpacker
FUNC 4c7d8 ec 0 ImagingUnpackYCC
FUNC 4c8c4 130 0 ImagingUnpackYCCA
FUNC 4c9f4 268 0 ImagingUnsharpMask
FUNC 4cc5c 198 0 ImagingXbmDecode
FUNC 4cdf4 274 0 ImagingXbmEncode
FUNC 4d068 768 0 ImagingZipDecode
FUNC 4d7d0 7fc 0 ImagingZipEncode
FUNC 4dfcc 10 0 ImagingZipVersion
FUNC 4dfdc 8 0 _tiffNullMapProc
FUNC 4dfe4 4 0 _tiffUnmapProc
FUNC 4dfe8 4 0 dump_state
FUNC 4dfec 5c 0 _tiffReadProc
FUNC 4e048 c4 0 _tiffWriteProc
FUNC 4e10c 5c 0 _tiffSeekProc
FUNC 4e168 10 0 _tiffCloseProc
FUNC 4e178 14 0 _tiffSizeProc
FUNC 4e18c 2c 0 _tiffMapProc
FUNC 4e1b8 28 0 ImagingLibTiffInit
FUNC 4e1e0 220 0 ImagingLibTiffDecode
FUNC 4e400 11c 0 ImagingLibTiffEncodeInit
FUNC 4e51c 38 0 ImagingLibTiffSetField
FUNC 4e554 194 0 ImagingLibTiffEncode
FUNC 4e6e8 23c 0 ImagingIncrementalCodecCreate
FUNC 4e924 c4 0 ImagingIncrementalCodecDestroy
FUNC 4e9e8 15c 0 ImagingIncrementalCodecPushBuffer
FUNC 4eb44 10 0 ImagingIncrementalCodecBytesInBuffer
FUNC 4eb54 13c 0 ImagingIncrementalCodecRead
FUNC 4ec90 1e8 0 ImagingIncrementalCodecWrite
FUNC 4ee78 cc 0 codec_thread
FUNC 4ef44 150 0 ImagingIncrementalCodecSkip
FUNC 4f094 78 0 ImagingIncrementalCodecSeek
FUNC 4f10c 1400 0 ImagingHorizontalBoxBlur
FUNC 5050c 1e0 0 ImagingBoxBlur
FUNC 506ec e0 0 ImagingGaussianBlur
FUNC a6ba0 18 0 selfrel_offset31
FUNC a6bb8 ac 0 search_EIT_table
FUNC a6c64 50 0 __gnu_unwind_get_pr_addr
FUNC a6cb4 110 0 get_eit_entry
FUNC a6dc4 6c 0 restore_non_core_regs
FUNC a6e30 14 0 _Unwind_decode_typeinfo_ptr
FUNC a6e44 8 0 __gnu_unwind_24bit
FUNC a6e4c 4 0 _Unwind_DebugHook
FUNC a6e50 64 0 unwind_phase2
FUNC a6eb4 124 0 unwind_phase2_forced
FUNC a6fd8 8 0 _Unwind_GetCFA
FUNC a6fe0 a4 0 __gnu_Unwind_RaiseException
FUNC a7084 1c 0 __gnu_Unwind_ForcedUnwind
FUNC a70a0 74 0 __gnu_Unwind_Resume
FUNC a7114 20 0 __gnu_Unwind_Resume_or_Rethrow
FUNC a7134 4 0 _Unwind_Complete
FUNC a7138 20 0 _Unwind_DeleteException
FUNC a7158 5c 0 _Unwind_VRS_Get
FUNC a71b4 28 0 _Unwind_GetGR
FUNC a71dc 5c 0 _Unwind_VRS_Set
FUNC a7238 2c 0 _Unwind_SetGR
FUNC a7264 c4 0 __gnu_Unwind_Backtrace
FUNC a7328 3f4 0 __gnu_unwind_pr_common
FUNC a771c 8 0 __aeabi_unwind_cpp_pr0
FUNC a7724 8 0 __aeabi_unwind_cpp_pr1
FUNC a772c 8 0 __aeabi_unwind_cpp_pr2
FUNC a7734 358 0 _Unwind_VRS_Pop
FUNC a7c34 60 0 next_unwind_byte
FUNC a7c94 28 0 _Unwind_GetGR
FUNC a7cbc 4 0 unwind_UCB_from_context
FUNC a7cc0 37c 0 __gnu_unwind_execute
FUNC a803c 40 0 __gnu_unwind_frame
FUNC a807c 10 0 _Unwind_GetRegionStart
FUNC a808c 1c 0 _Unwind_GetLanguageSpecificData
FUNC a80a8 8 0 _Unwind_GetDataRelBase
FUNC a80b0 8 0 _Unwind_GetTextRelBase
PUBLIC 10760 0 PyImagingNew
PUBLIC 12dd8 0 PyImaging_AsImaging
PUBLIC 13208 0 ImagingSectionEnter
PUBLIC 1321c 0 ImagingSectionLeave
PUBLIC 13224 0 PyImaging_CheckBuffer
PUBLIC 13268 0 PyImaging_GetBuffer
PUBLIC 132fc 0 ImagingError_IOError
PUBLIC 13328 0 ImagingError_MemoryError
PUBLIC 1332c 0 ImagingError_Mismatch
PUBLIC 13358 0 ImagingError_ModeError
PUBLIC 13384 0 ImagingError_ValueError
PUBLIC 13c74 0 ImagingError_Clear
PUBLIC 13c78 0 _font_text_asBytes
PUBLIC 13f2c 0 init_imaging
PUBLIC 143a8 0 get_unpacker
PUBLIC 14430 0 PyImaging_BitDecoderNew
PUBLIC 145c8 0 PyImaging_FliDecoderNew
PUBLIC 1463c 0 PyImaging_GifDecoderNew
PUBLIC 147b0 0 PyImaging_HexDecoderNew
PUBLIC 1486c 0 PyImaging_TiffLzwDecoderNew
PUBLIC 14980 0 PyImaging_LibTiffDecoderNew
PUBLIC 14b00 0 PyImaging_MspDecoderNew
PUBLIC 14b9c 0 PyImaging_PackbitsDecoderNew
PUBLIC 14c58 0 PyImaging_PcdDecoderNew
PUBLIC 14cfc 0 PyImaging_PcxDecoderNew
PUBLIC 14dc8 0 PyImaging_RawDecoderNew
PUBLIC 14ef4 0 PyImaging_SunRleDecoderNew
PUBLIC 14fb0 0 PyImaging_TgaRleDecoderNew
PUBLIC 150ac 0 PyImaging_XbmDecoderNew
PUBLIC 15150 0 PyImaging_ZipDecoderNew
PUBLIC 15264 0 PyImaging_JpegDecoderNew
PUBLIC 1583c 0 get_packer
PUBLIC 158c4 0 PyImaging_EpsEncoderNew
PUBLIC 15924 0 PyImaging_GifEncoderNew
PUBLIC 15a48 0 PyImaging_PcxEncoderNew
PUBLIC 15b08 0 PyImaging_RawEncoderNew
PUBLIC 15be8 0 PyImaging_XbmEncoderNew
PUBLIC 15c78 0 PyImaging_ZipEncoderNew
PUBLIC 15e48 0 PyImaging_JpegEncoderNew
PUBLIC 163a0 0 PyImaging_LibTiffEncoderNew
PUBLIC 16e10 0 PyImaging_MapperNew
PUBLIC 16e68 0 PyImaging_Mapper
PUBLIC 16ea4 0 PyImaging_MapBuffer
PUBLIC 173cc 0 PyOutline_AsOutline
PUBLIC 173ec 0 PyOutline_Create
PUBLIC 17fe4 0 PyPath_Flatten
PUBLIC 1864c 0 PyPath_Create
PUBLIC 1897c 0 ImagingAccessInit
PUBLIC 197a4 0 ImagingAccessNew
PUBLIC 1983c 0 _ImagingAccessDelete
PUBLIC 19840 0 ImagingAlphaComposite
PUBLIC 19be4 0 ImagingResampleHorizontal
PUBLIC 1af04 0 ImagingResample
PUBLIC 1afd8 0 ImagingGetBand
PUBLIC 1b0d0 0 ImagingPutBand
PUBLIC 1b1e8 0 ImagingFillBand
PUBLIC 1b2ac 0 ImagingBitDecode
PUBLIC 1b4c8 0 ImagingBlend
PUBLIC 1b6e8 0 ImagingChopLighter
PUBLIC 1b7f0 0 ImagingChopDarker
PUBLIC 1b8f8 0 ImagingChopDifference
PUBLIC 1ba04 0 ImagingChopMultiply
PUBLIC 1bb18 0 ImagingChopScreen
PUBLIC 1bc3c 0 ImagingChopAdd
PUBLIC 1bd6c 0 ImagingChopSubtract
PUBLIC 1be9c 0 ImagingChopAnd
PUBLIC 1bfd0 0 ImagingChopOr
PUBLIC 1c108 0 ImagingChopXor
PUBLIC 1c23c 0 ImagingChopAddModulo
PUBLIC 1c32c 0 ImagingChopSubtractModulo
PUBLIC 247b8 0 round
PUBLIC 24a24 0 ImagingConvert
PUBLIC 25190 0 ImagingConvert2
PUBLIC 255b8 0 ImagingConvertTransparent
PUBLIC 25770 0 ImagingConvertInPlace
PUBLIC 25868 0 ImagingConvertRGB2YCbCr
PUBLIC 25950 0 ImagingConvertYCbCr2RGB
PUBLIC 25a38 0 ImagingCopy
PUBLIC 25af8 0 ImagingCopy2
PUBLIC 25bc0 0 ImagingCRC32
PUBLIC 25c00 0 ImagingCrop
PUBLIC 2801c 0 ImagingDrawPoint
PUBLIC 2807c 0 ImagingDrawLine
PUBLIC 280f8 0 ImagingDrawWideLine
PUBLIC 28694 0 ImagingDrawRectangle
PUBLIC 2881c 0 ImagingDrawPolygon
PUBLIC 28bec 0 ImagingDrawBitmap
PUBLIC 28c2c 0 ImagingDrawArc
PUBLIC 28c74 0 ImagingDrawChord
PUBLIC 28cc0 0 ImagingDrawEllipse
PUBLIC 28d08 0 ImagingDrawPieslice
PUBLIC 28d54 0 ImagingOutlineDelete
PUBLIC 28d7c 0 ImagingOutlineMove
PUBLIC 28da4 0 ImagingOutlineNew
PUBLIC 28de8 0 ImagingOutlineLine
PUBLIC 28f30 0 ImagingOutlineCurve
PUBLIC 29130 0 ImagingOutlineCurve2
PUBLIC 291a8 0 ImagingOutlineClose
PUBLIC 291e4 0 ImagingOutlineTransform
PUBLIC 293e4 0 ImagingDrawOutline
PUBLIC 29460 0 ImagingEffectMandelbrot
PUBLIC 2961c 0 ImagingEffectNoise
PUBLIC 2974c 0 ImagingEffectSpread
PUBLIC 299a0 0 ImagingEpsEncode
PUBLIC 29af0 0 ImagingOpenPPM
PUBLIC 29d84 0 ImagingSaveRaw
PUBLIC 29e78 0 ImagingSavePPM
PUBLIC 29f70 0 ImagingFill
PUBLIC 2a108 0 ImagingFillLinearGradient
PUBLIC 2a168 0 ImagingFillRadialGradient
PUBLIC 2a22c 0 ImagingExpand
PUBLIC 2a800 0 ImagingFilter
PUBLIC 2af58 0 ImagingFliDecode
PUBLIC 2d970 0 ImagingFlipLeftRight
PUBLIC 2dad0 0 ImagingFlipTopBottom
PUBLIC 2db9c 0 ImagingRotate90
PUBLIC 2de18 0 ImagingTranspose
PUBLIC 2e06c 0 ImagingTransposeToNew
PUBLIC 2e0b4 0 ImagingRotate180
PUBLIC 2e22c 0 ImagingRotate270
PUBLIC 2e4a0 0 ImagingTransform
PUBLIC 2e6b4 0 ImagingTransformAffine
PUBLIC 2f654 0 ImagingTransformPerspective
PUBLIC 2f868 0 ImagingTransformQuad
PUBLIC 2fa7c 0 ImagingRotate
PUBLIC 2fb90 0 ImagingGetBBox
PUBLIC 2fd8c 0 ImagingGetProjection
PUBLIC 2fed4 0 ImagingGetExtrema
PUBLIC 3052c 0 ImagingGetColors
PUBLIC 307e4 0 ImagingGifDecode
PUBLIC 30e54 0 ImagingGifEncode
PUBLIC 31e88 0 ImagingHexDecode
PUBLIC 31fbc 0 ImagingHistogramDelete
PUBLIC 31fe0 0 ImagingHistogramNew
PUBLIC 32024 0 ImagingGetHistogram
PUBLIC 325c4 0 jpeg_buffer_src
PUBLIC 32624 0 ImagingJpegDecode
PUBLIC 32b10 0 ImagingJpegDecodeCleanup
PUBLIC 32b50 0 jpeg_buffer_dest
PUBLIC 32b7c 0 ImagingJpegEncode
PUBLIC 331f0 0 ImagingJpegVersion
PUBLIC 33224 0 ImagingLzwDecode
PUBLIC 335a4 0 ImagingConvertMatrix
PUBLIC 3388c 0 ImagingModeFilter
PUBLIC 33b9c 0 ImagingMspDecode
PUBLIC 33cdc 0 ImagingNegative
PUBLIC 33d68 0 ImagingOffset
PUBLIC 351b4 0 ImagingPackRGB
PUBLIC 352d4 0 ImagingPackXRGB
PUBLIC 35400 0 ImagingPackBGR
PUBLIC 35518 0 ImagingPackBGRX
PUBLIC 3563c 0 ImagingPackXBGR
PUBLIC 35760 0 ImagingPackBGRA
PUBLIC 35874 0 ImagingPackABGR
PUBLIC 36430 0 ImagingPackLAB
PUBLIC 36ec4 0 ImagingFindPacker
PUBLIC 36f7c 0 ImagingPackbitsDecode
PUBLIC 370e0 0 ImagingPaletteNew
PUBLIC 371e8 0 ImagingPaletteNewBrowser
PUBLIC 37354 0 ImagingPaletteDuplicate
PUBLIC 3739c 0 ImagingPaletteDelete
PUBLIC 373c4 0 ImagingPaletteCacheUpdate
PUBLIC 3782c 0 ImagingPaletteCachePrepare
PUBLIC 37894 0 ImagingPaletteCacheDelete
PUBLIC 378c0 0 ImagingPaste
PUBLIC 3a47c 0 ImagingFill2
PUBLIC 3ec24 0 quantize
PUBLIC 3f828 0 quantize2
PUBLIC 3fea4 0 ImagingQuantize
PUBLIC 405a8 0 add_bucket_values
PUBLIC 40950 0 subtract_color_buckets
PUBLIC 40aac 0 lookup_color
PUBLIC 40b2c 0 add_lookup_buckets
PUBLIC 40c44 0 combined_palette
PUBLIC 40c9c 0 quantize_octree
PUBLIC 41904 0 hashtable_new
PUBLIC 419b0 0 hashtable_insert_or_update_computed
PUBLIC 41ad4 0 hashtable_update
PUBLIC 41ad8 0 hashtable_insert
PUBLIC 41adc 0 hashtable_foreach_update
PUBLIC 41b4c 0 hashtable_foreach
PUBLIC 41bb8 0 hashtable_free
PUBLIC 41c48 0 hashtable_set_value_destroy_func
PUBLIC 41c58 0 hashtable_set_key_destroy_func
PUBLIC 41c68 0 hashtable_remove
PUBLIC 41d1c 0 hashtable_delete
PUBLIC 41de8 0 hashtable_rehash_compute
PUBLIC 41df0 0 hashtable_rehash
PUBLIC 41dfc 0 hashtable_lookup_or_insert
PUBLIC 41ec0 0 hashtable_lookup
PUBLIC 41f38 0 hashtable_get_count
PUBLIC 41f40 0 hashtable_get_user_data
PUBLIC 41f48 0 hashtable_set_user_data
PUBLIC 41f58 0 ImagingQuantHeapFree
PUBLIC 41f74 0 ImagingQuantHeapRemove
PUBLIC 42054 0 ImagingQuantHeapAdd
PUBLIC 4212c 0 ImagingQuantHeapTop
PUBLIC 4214c 0 ImagingQuantHeapNew
PUBLIC 421b0 0 ImagingPcdDecode
PUBLIC 42328 0 ImagingPcxDecode
PUBLIC 424fc 0 ImagingPcxEncode
PUBLIC 42b90 0 ImagingPoint
PUBLIC 42d24 0 ImagingPointTransform
PUBLIC 42fcc 0 ImagingRankFilter
PUBLIC 43aac 0 ImagingRawDecode
PUBLIC 43be4 0 ImagingRawEncode
PUBLIC 43d8c 0 ImagingNewPrologueSubtype
PUBLIC 44258 0 ImagingNewPrologue
PUBLIC 44260 0 ImagingNewEpilogue
PUBLIC 442a8 0 ImagingDelete
PUBLIC 442f4 0 ImagingNewArray
PUBLIC 443c8 0 ImagingNewBlock
PUBLIC 44464 0 ImagingNew
PUBLIC 444f8 0 ImagingNew2
PUBLIC 4455c 0 ImagingCopyInfo
PUBLIC 44598 0 ImagingSunRleDecode
PUBLIC 44708 0 ImagingTgaRleDecode
PUBLIC 45a3c 0 ImagingUnpackRGB
PUBLIC 45b60 0 unpackRGB16B
PUBLIC 45e2c 0 ImagingUnpackBGR
PUBLIC 45f48 0 ImagingUnpackRGB15
PUBLIC 46814 0 ImagingUnpackRGBA15
PUBLIC 46d18 0 ImagingUnpackBGR15
PUBLIC 47604 0 ImagingUnpackBGRA15
PUBLIC 47b40 0 ImagingUnpackRGB16
PUBLIC 48454 0 ImagingUnpackBGR16
PUBLIC 48d78 0 ImagingUnpackRGB4B
PUBLIC 491a8 0 ImagingUnpackRGBA4B
PUBLIC 4a080 0 unpackRGBA16B
PUBLIC 4a6a4 0 ImagingUnpackLAB
PUBLIC 4c720 0 ImagingFindUnpacker
PUBLIC 4c7d8 0 ImagingUnpackYCC
PUBLIC 4c8c4 0 ImagingUnpackYCCA
PUBLIC 4c9f4 0 ImagingUnsharpMask
PUBLIC 4cc5c 0 ImagingXbmDecode
PUBLIC 4cdf4 0 ImagingXbmEncode
PUBLIC 4d068 0 ImagingZipDecode
PUBLIC 4d7d0 0 ImagingZipEncode
PUBLIC 4dfcc 0 ImagingZipVersion
PUBLIC 4dfdc 0 _tiffNullMapProc
PUBLIC 4dfe4 0 _tiffUnmapProc
PUBLIC 4dfe8 0 dump_state
PUBLIC 4dfec 0 _tiffReadProc
PUBLIC 4e048 0 _tiffWriteProc
PUBLIC 4e10c 0 _tiffSeekProc
PUBLIC 4e168 0 _tiffCloseProc
PUBLIC 4e178 0 _tiffSizeProc
PUBLIC 4e18c 0 _tiffMapProc
PUBLIC 4e1b8 0 ImagingLibTiffInit
PUBLIC 4e1e0 0 ImagingLibTiffDecode
PUBLIC 4e400 0 ImagingLibTiffEncodeInit
PUBLIC 4e51c 0 ImagingLibTiffSetField
PUBLIC 4e554 0 ImagingLibTiffEncode
PUBLIC 4e6e8 0 ImagingIncrementalCodecCreate
PUBLIC 4e924 0 ImagingIncrementalCodecDestroy
PUBLIC 4e9e8 0 ImagingIncrementalCodecPushBuffer
PUBLIC 4eb44 0 ImagingIncrementalCodecBytesInBuffer
PUBLIC 4eb54 0 ImagingIncrementalCodecRead
PUBLIC 4ec90 0 ImagingIncrementalCodecWrite
PUBLIC 4ef44 0 ImagingIncrementalCodecSkip
PUBLIC 4f094 0 ImagingIncrementalCodecSeek
PUBLIC 4f10c 0 ImagingHorizontalBoxBlur
PUBLIC 5050c 0 ImagingBoxBlur
PUBLIC 506ec 0 ImagingGaussianBlur
PUBLIC 507cc 0 jpeg_CreateCompress
PUBLIC 508f8 0 jpeg_destroy_compress
PUBLIC 508fc 0 jpeg_abort_compress
PUBLIC 50900 0 jpeg_suppress_tables
PUBLIC 50994 0 jpeg_finish_compress
PUBLIC 50af8 0 jpeg_write_marker
PUBLIC 50b8c 0 jpeg_write_m_header
PUBLIC 50bf4 0 jpeg_write_m_byte
PUBLIC 50c08 0 jpeg_write_tables
PUBLIC 50c84 0 jpeg_start_compress
PUBLIC 50d28 0 jpeg_write_scanlines
PUBLIC 50e2c 0 jpeg_write_raw_data
PUBLIC 50f3c 0 jinit_compress_master
PUBLIC 51170 0 jinit_c_main_controller
PUBLIC 53fa4 0 jinit_marker_writer
PUBLIC 55164 0 jpeg_calc_jpeg_dimensions
PUBLIC 55180 0 jinit_c_master_control
PUBLIC 55530 0 jpeg_abort
PUBLIC 55574 0 jpeg_destroy
PUBLIC 555a0 0 jpeg_alloc_quant_table
PUBLIC 555c4 0 jpeg_alloc_huff_table
PUBLIC 555e8 0 jpeg_add_quant_table
PUBLIC 55728 0 jpeg_default_qtables
PUBLIC 55778 0 jpeg_set_linear_quality
PUBLIC 557cc 0 jpeg_quality_scaling
PUBLIC 55810 0 jpeg_set_quality
PUBLIC 55838 0 jpeg_set_colorspace
PUBLIC 55b60 0 jpeg_default_colorspace
PUBLIC 55c08 0 jpeg_set_defaults
PUBLIC 56028 0 jpeg_simple_progression
PUBLIC 5817c 0 jinit_phuff_encoder
PUBLIC 58738 0 jinit_c_prep_controller
PUBLIC 5a0f0 0 jinit_downsampler
PUBLIC 5a348 0 jpeg_CreateDecompress
PUBLIC 5a44c 0 jpeg_destroy_decompress
PUBLIC 5a450 0 jpeg_abort_decompress
PUBLIC 5a454 0 jpeg_consume_input
PUBLIC 5a704 0 jpeg_read_header
PUBLIC 5a78c 0 jpeg_input_complete
PUBLIC 5a7cc 0 jpeg_has_multiple_scans
PUBLIC 5a80c 0 jpeg_finish_decompress
PUBLIC 5a9f4 0 jpeg_start_decompress
PUBLIC 5ab0c 0 jpeg_read_scanlines
PUBLIC 5abe4 0 jpeg_read_raw_data
PUBLIC 5accc 0 jpeg_start_output
PUBLIC 5ad3c 0 jpeg_finish_output
PUBLIC 5b6b8 0 jpeg_core_output_dimensions
PUBLIC 5b7f0 0 jinit_input_controller
PUBLIC 5d8e0 0 jpeg_resync_to_restart
PUBLIC 5da3c 0 jinit_marker_reader
PUBLIC 5db28 0 jpeg_save_markers
PUBLIC 5dc10 0 jpeg_set_marker_processor
PUBLIC 5df68 0 jpeg_calc_output_dimensions
PUBLIC 5e228 0 jpeg_new_colormap
PUBLIC 5e2bc 0 jinit_master_decompress
PUBLIC 60504 0 jinit_merged_upsampler
PUBLIC 61e6c 0 jinit_phuff_decoder
PUBLIC 62288 0 jinit_d_post_controller
PUBLIC 632a0 0 jinit_upsampler
PUBLIC 63810 0 jpeg_std_error
PUBLIC 64654 0 jinit_1pass_quantizer
PUBLIC 667b0 0 jinit_2pass_quantizer
PUBLIC 66948 0 jdiv_round_up
PUBLIC 6695c 0 jround_up
PUBLIC 66978 0 jcopy_sample_rows
PUBLIC 66a7c 0 jcopy_block_row
PUBLIC 66a90 0 jzero_far
PUBLIC 682e0 0 jinit_memory_mgr
PUBLIC 68494 0 jpeg_get_small
PUBLIC 6849c 0 jpeg_free_small
PUBLIC 684a4 0 jpeg_get_large
PUBLIC 684ac 0 jpeg_free_large
PUBLIC 684b4 0 jpeg_mem_available
PUBLIC 684bc 0 jpeg_open_backing_store
PUBLIC 684d8 0 jpeg_mem_init
PUBLIC 684e0 0 jpeg_mem_term
PUBLIC 6aa28 0 jinit_arith_encoder
PUBLIC 6bc1c 0 jinit_arith_decoder
PUBLIC 6bcdc 0 jsimd_can_rgb_ycc
PUBLIC 6bd94 0 jsimd_can_rgb_gray
PUBLIC 6be40 0 jsimd_can_ycc_rgb
PUBLIC 6bef8 0 jsimd_rgb_ycc_convert
PUBLIC 6bfd0 0 jsimd_rgb_gray_convert
PUBLIC 6bfd4 0 jsimd_ycc_rgb_convert
PUBLIC 6c0ac 0 jsimd_can_h2v2_downsample
PUBLIC 6c158 0 jsimd_can_h2v1_downsample
PUBLIC 6c204 0 jsimd_h2v2_downsample
PUBLIC 6c208 0 jsimd_h2v1_downsample
PUBLIC 6c20c 0 jsimd_can_h2v2_upsample
PUBLIC 6c2b8 0 jsimd_can_h2v1_upsample
PUBLIC 6c364 0 jsimd_h2v2_upsample
PUBLIC 6c368 0 jsimd_h2v1_upsample
PUBLIC 6c36c 0 jsimd_can_h2v2_fancy_upsample
PUBLIC 6c418 0 jsimd_can_h2v1_fancy_upsample
PUBLIC 6c4c4 0 jsimd_h2v2_fancy_upsample
PUBLIC 6c4c8 0 jsimd_h2v1_fancy_upsample
PUBLIC 6c4cc 0 jsimd_can_h2v2_merged_upsample
PUBLIC 6c578 0 jsimd_can_h2v1_merged_upsample
PUBLIC 6c624 0 jsimd_h2v2_merged_upsample
PUBLIC 6c628 0 jsimd_h2v1_merged_upsample
PUBLIC 6c62c 0 jsimd_can_convsamp
PUBLIC 6c6e4 0 jsimd_can_convsamp_float
PUBLIC 6c790 0 jsimd_convsamp
PUBLIC 6c7ac 0 jsimd_convsamp_float
PUBLIC 6c7b0 0 jsimd_can_fdct_islow
PUBLIC 6c85c 0 jsimd_can_fdct_ifast
PUBLIC 6c914 0 jsimd_can_fdct_float
PUBLIC 6c9c0 0 jsimd_fdct_islow
PUBLIC 6c9c4 0 jsimd_fdct_ifast
PUBLIC 6c9e0 0 jsimd_fdct_float
PUBLIC 6c9e4 0 jsimd_can_quantize
PUBLIC 6ca9c 0 jsimd_can_quantize_float
PUBLIC 6cb48 0 jsimd_quantize
PUBLIC 6cb64 0 jsimd_quantize_float
PUBLIC 6cb68 0 jsimd_can_idct_2x2
PUBLIC 6cc20 0 jsimd_can_idct_4x4
PUBLIC 6ccd8 0 jsimd_idct_2x2
PUBLIC 6cd08 0 jsimd_idct_4x4
PUBLIC 6cd38 0 jsimd_can_idct_islow
PUBLIC 6cdf0 0 jsimd_can_idct_ifast
PUBLIC 6cea8 0 jsimd_can_idct_float
PUBLIC 6cf54 0 jsimd_idct_islow
PUBLIC 6cf84 0 jsimd_idct_ifast
PUBLIC 6cfb4 0 jsimd_idct_float
PUBLIC 70fa8 0 jinit_c_coef_controller
PUBLIC 72dfc 0 jinit_color_converter
PUBLIC 74058 0 jinit_forward_dct
PUBLIC 7a078 0 jpeg_make_c_derived_tbl
PUBLIC 7a55c 0 jpeg_gen_optimal_table
PUBLIC 7ab28 0 jinit_huff_encoder
PUBLIC 7c2a8 0 jinit_d_coef_controller
PUBLIC 7ef18 0 jinit_color_deconverter
PUBLIC 7f908 0 jinit_inverse_dct
PUBLIC 7f9a0 0 jpeg_make_d_derived_tbl
PUBLIC 80234 0 jpeg_fill_bit_buffer
PUBLIC 80394 0 jpeg_huff_decode
PUBLIC 810a0 0 jinit_huff_decoder
PUBLIC 81d98 0 jinit_d_main_controller
PUBLIC 81f68 0 jpeg_fdct_float
PUBLIC 82170 0 jpeg_fdct_ifast
PUBLIC 829e8 0 jpeg_fdct_islow
PUBLIC 83e5c 0 jpeg_idct_float
PUBLIC 842e0 0 jpeg_idct_ifast
PUBLIC 84984 0 jpeg_idct_islow
PUBLIC 8513c 0 jpeg_idct_4x4
PUBLIC 855e8 0 jpeg_idct_2x2
PUBLIC 85944 0 jpeg_idct_1x1
PUBLIC 85980 0 TIFFCleanup
PUBLIC 85aa0 0 TIFFClose
PUBLIC 863dc 0 _TIFFsetByteArray
PUBLIC 863e4 0 _TIFFsetString
PUBLIC 86410 0 _TIFFsetNString
PUBLIC 86418 0 _TIFFsetShortArray
PUBLIC 86420 0 _TIFFsetLongArray
PUBLIC 86428 0 _TIFFsetFloatArray
PUBLIC 871e0 0 _TIFFsetDoubleArray
PUBLIC 871e8 0 TIFFVSetField
PUBLIC 872c8 0 TIFFSetField
PUBLIC 872f0 0 TIFFVGetField
PUBLIC 87350 0 TIFFGetField
PUBLIC 87378 0 TIFFFreeDirectory
PUBLIC 8750c 0 TIFFSetTagExtender
PUBLIC 87528 0 TIFFDefaultDirectory
PUBLIC 87638 0 TIFFCreateDirectory
PUBLIC 87664 0 TIFFNumberOfDirectories
PUBLIC 876b4 0 TIFFSetDirectory
PUBLIC 87734 0 TIFFSetSubDirectory
PUBLIC 87744 0 TIFFCurrentDirOffset
PUBLIC 8774c 0 TIFFLastDirectory
PUBLIC 8775c 0 TIFFUnlinkDirectory
PUBLIC 87924 0 TIFFReassignTagToIgnore
PUBLIC 87a70 0 _TIFFGetFieldInfo
PUBLIC 87a88 0 _TIFFGetExifFieldInfo
PUBLIC 87aa8 0 _TIFFPrintFieldInfo
PUBLIC 87b8c 0 TIFFDataWidth
PUBLIC 87bb0 0 _TIFFDataSize
PUBLIC 87bdc 0 _TIFFSampleToTagType
PUBLIC 87c60 0 TIFFFindFieldInfo
PUBLIC 87d08 0 _TIFFMergeFieldInfo
PUBLIC 87e1c 0 _TIFFSetupFieldInfo
PUBLIC 87ee8 0 TIFFMergeFieldInfo
PUBLIC 87f28 0 TIFFFindFieldInfoByName
PUBLIC 87fe0 0 TIFFFieldWithTag
PUBLIC 88028 0 TIFFFieldWithName
PUBLIC 88070 0 _TIFFCreateAnonFieldInfo
PUBLIC 88104 0 _TIFFFindOrRegisterFieldInfo
PUBLIC 89804 0 TIFFReadDirectory
PUBLIC 8ae18 0 TIFFReadCustomDirectory
PUBLIC 8b1ac 0 TIFFReadEXIFDirectory
PUBLIC 8b1e0 0 TIFFSetErrorHandler
PUBLIC 8b1fc 0 TIFFSetErrorHandlerExt
PUBLIC 8b218 0 TIFFError
PUBLIC 8b28c 0 TIFFErrorExt
PUBLIC 8b308 0 TIFFFlushData
PUBLIC 8b350 0 TIFFFlush
PUBLIC 8b3a4 0 _TIFFgetMode
PUBLIC 8b408 0 TIFFClientOpen
PUBLIC 8b994 0 TIFFFileName
PUBLIC 8b99c 0 TIFFSetFileName
PUBLIC 8b9ac 0 TIFFFileno
PUBLIC 8b9b4 0 TIFFSetFileno
PUBLIC 8b9c4 0 TIFFClientdata
PUBLIC 8b9cc 0 TIFFSetClientdata
PUBLIC 8b9dc 0 TIFFGetMode
PUBLIC 8b9e4 0 TIFFSetMode
PUBLIC 8b9f4 0 TIFFIsTiled
PUBLIC 8ba00 0 TIFFCurrentRow
PUBLIC 8ba08 0 TIFFCurrentDirectory
PUBLIC 8ba14 0 TIFFCurrentStrip
PUBLIC 8ba1c 0 TIFFCurrentTile
PUBLIC 8ba24 0 TIFFIsByteSwapped
PUBLIC 8ba30 0 TIFFIsUpSampled
PUBLIC 8ba3c 0 TIFFIsMSB2LSB
PUBLIC 8ba48 0 TIFFIsBigEndian
PUBLIC 8ba64 0 TIFFGetReadProc
PUBLIC 8ba6c 0 TIFFGetWriteProc
PUBLIC 8ba74 0 TIFFGetSeekProc
PUBLIC 8ba7c 0 TIFFGetCloseProc
PUBLIC 8ba84 0 TIFFGetSizeProc
PUBLIC 8ba8c 0 TIFFGetMapFileProc
PUBLIC 8ba94 0 TIFFGetUnmapFileProc
PUBLIC 8be84 0 TIFFReadRawStrip
PUBLIC 8bf6c 0 TIFFReadRawTile
PUBLIC 8c030 0 TIFFReadBufferSetup
PUBLIC 8c14c 0 TIFFFillStrip
PUBLIC 8c34c 0 TIFFReadScanline
PUBLIC 8c4b4 0 TIFFReadEncodedStrip
PUBLIC 8c5e0 0 TIFFFillTile
PUBLIC 8c86c 0 TIFFReadEncodedTile
PUBLIC 8c938 0 TIFFReadTile
PUBLIC 8c9c4 0 _TIFFNoPostDecode
PUBLIC 8c9c8 0 _TIFFSwab16BitData
PUBLIC 8ca20 0 _TIFFSwab24BitData
PUBLIC 8ca8c 0 _TIFFSwab32BitData
PUBLIC 8caf0 0 _TIFFSwab64BitData
PUBLIC 8cbac 0 TIFFComputeStrip
PUBLIC 8cc10 0 TIFFNumberOfStrips
PUBLIC 8cc7c 0 TIFFRawStripSize
PUBLIC 8ccc0 0 TIFFDefaultStripSize
PUBLIC 8ccd0 0 TIFFScanlineSize
PUBLIC 8cdf4 0 TIFFVStripSize
PUBLIC 8cfbc 0 TIFFStripSize
PUBLIC 8cfd0 0 _TIFFDefaultStripSize
PUBLIC 8d008 0 TIFFOldScanlineSize
PUBLIC 8d060 0 TIFFNewScanlineSize
PUBLIC 8d17c 0 TIFFRasterScanlineSize
PUBLIC 8d1f8 0 TIFFSwabShort
PUBLIC 8d20c 0 TIFFSwabLong
PUBLIC 8d230 0 TIFFSwabArrayOfShort
PUBLIC 8d24c 0 TIFFSwabArrayOfTriples
PUBLIC 8d268 0 TIFFSwabArrayOfLong
PUBLIC 8d29c 0 TIFFSwabDouble
PUBLIC 8d2bc 0 TIFFSwabArrayOfDouble
PUBLIC 8d2ec 0 TIFFGetBitRevTable
PUBLIC 8d318 0 TIFFReverseBits
PUBLIC 8d418 0 TIFFComputeTile
PUBLIC 8d544 0 TIFFCheckTile
PUBLIC 8d634 0 TIFFNumberOfTiles
PUBLIC 8d760 0 TIFFTileRowSize
PUBLIC 8d7dc 0 TIFFVTileSize
PUBLIC 8d9cc 0 TIFFTileSize
PUBLIC 8d9d4 0 TIFFDefaultTileSize
PUBLIC 8d9e4 0 _TIFFDefaultTileSize
PUBLIC 8dbbc 0 TIFFFdOpen
PUBLIC 8dc54 0 TIFFOpen
PUBLIC 8dce4 0 _TIFFmalloc
PUBLIC 8dce8 0 _TIFFfree
PUBLIC 8dcec 0 _TIFFrealloc
PUBLIC 8dcf0 0 _TIFFmemset
PUBLIC 8dcf4 0 _TIFFmemcpy
PUBLIC 8dcf8 0 _TIFFmemcmp
PUBLIC 8dcfc 0 TIFFSetWarningHandler
PUBLIC 8dd18 0 TIFFSetWarningHandlerExt
PUBLIC 8dd34 0 TIFFWarning
PUBLIC 8dda8 0 TIFFWarningExt
PUBLIC 8e0b4 0 TIFFSetupStrips
PUBLIC 8e1ac 0 TIFFWriteCheck
PUBLIC 8e328 0 TIFFWriteRawStrip
PUBLIC 8e440 0 TIFFWriteRawTile
PUBLIC 8e4f0 0 TIFFWriteBufferSetup
PUBLIC 8e5e4 0 TIFFWriteScanline
PUBLIC 8e8b0 0 TIFFWriteEncodedStrip
PUBLIC 8eaf0 0 TIFFWriteEncodedTile
PUBLIC 8ed70 0 TIFFWriteTile
PUBLIC 8ede8 0 TIFFFlushData1
PUBLIC 8ee58 0 TIFFSetWriteOffset
PUBLIC 8ee60 0 lfind
PUBLIC 8eeb0 0 _TIFFCheckRealloc
PUBLIC 8ef28 0 _TIFFCheckMalloc
PUBLIC 8ef50 0 TIFFVGetFieldDefaulted
PUBLIC 8f490 0 TIFFGetFieldDefaulted
PUBLIC 8f4b8 0 _TIFFNoPreCode
PUBLIC 8f4cc 0 _TIFFNoSeek
PUBLIC 8f4f4 0 _TIFFSetDefaultCompressionState
PUBLIC 8f5f4 0 TIFFFindCODEC
PUBLIC 8f6c8 0 _TIFFNoRowEncode
PUBLIC 8f6d8 0 _TIFFNoStripEncode
PUBLIC 8f6e8 0 _TIFFNoTileEncode
PUBLIC 8f760 0 _TIFFNoRowDecode
PUBLIC 8f770 0 _TIFFNoStripDecode
PUBLIC 8f780 0 _TIFFNoTileDecode
PUBLIC 8f790 0 TIFFSetCompressionScheme
PUBLIC 8f7d4 0 TIFFRegisterCODEC
PUBLIC 8f864 0 TIFFUnRegisterCODEC
PUBLIC 8f8c4 0 TIFFGetConfiguredCODECs
PUBLIC 912b4 0 TIFFWriteDirectory
PUBLIC 912d0 0 TIFFCheckpointDirectory
PUBLIC 91330 0 TIFFWriteCustomDirectory
PUBLIC 915b4 0 TIFFRewriteDirectory
PUBLIC 9184c 0 TIFFIsCODECConfigured
PUBLIC 919f4 0 TIFFInitDumpMode
PUBLIC 91cd8 0 _TIFFFax3fillruns
PUBLIC 9623c 0 TIFFInitCCITTFax3
PUBLIC 962b8 0 TIFFInitCCITTFax4
PUBLIC 96370 0 TIFFInitCCITTRLE
PUBLIC 963b0 0 TIFFInitCCITTRLEW
PUBLIC 98aa0 0 TIFFInitJPEG
PUBLIC 9ac5c 0 LogL16toY
PUBLIC 9ad88 0 LogL16fromY
PUBLIC 9af40 0 XYZtoRGB24
PUBLIC 9b0e0 0 LogL10toY
PUBLIC 9b130 0 LogL10fromY
PUBLIC 9b1f0 0 uv_encode
PUBLIC 9b460 0 uv_decode
PUBLIC 9b5f8 0 LogLuv24toXYZ
PUBLIC 9b770 0 LogLuv24fromXYZ
PUBLIC 9b894 0 LogLuv32toXYZ
PUBLIC 9b9f0 0 LogLuv32fromXYZ
PUBLIC 9bb8c 0 TIFFInitSGILog
PUBLIC 9d1a8 0 TIFFInitLZW
PUBLIC 9d4c4 0 TIFFInitNeXT
PUBLIC a0c38 0 TIFFInitOJPEG
PUBLIC a12e0 0 TIFFInitPackBits
PUBLIC a3dcc 0 TIFFInitPixarLog
PUBLIC a5944 0 TIFFPredictorInit
PUBLIC a5a60 0 TIFFPredictorCleanup
PUBLIC a5df8 0 TIFFInitThunderScan
PUBLIC a65bc 0 TIFFInitZIP
PUBLIC a677c 0 __aeabi_uidiv
PUBLIC a6824 0 __aeabi_uidivmod
PUBLIC a6844 0 __aeabi_idiv
PUBLIC a6920 0 __aeabi_idivmod
PUBLIC a6940 0 __aeabi_frsub
PUBLIC a6948 0 __subsf3
PUBLIC a694c 0 __addsf3
PUBLIC a6adc 0 __floatunsisf
PUBLIC a6ae4 0 __floatsisf
PUBLIC a6b04 0 __aeabi_ul2f
PUBLIC a6b14 0 __floatdisf
PUBLIC a6b90 0 __aeabi_idiv0
PUBLIC a6fd8 0 _Unwind_GetCFA
PUBLIC a6fe0 0 __gnu_Unwind_RaiseException
PUBLIC a7084 0 __gnu_Unwind_ForcedUnwind
PUBLIC a70a0 0 __gnu_Unwind_Resume
PUBLIC a7114 0 __gnu_Unwind_Resume_or_Rethrow
PUBLIC a7134 0 _Unwind_Complete
PUBLIC a7138 0 _Unwind_DeleteException
PUBLIC a7158 0 _Unwind_VRS_Get
PUBLIC a71dc 0 _Unwind_VRS_Set
PUBLIC a7264 0 __gnu_Unwind_Backtrace
PUBLIC a771c 0 __aeabi_unwind_cpp_pr0
PUBLIC a7724 0 __aeabi_unwind_cpp_pr1
PUBLIC a772c 0 __aeabi_unwind_cpp_pr2
PUBLIC a7734 0 _Unwind_VRS_Pop
PUBLIC a7a8c 0 restore_core_regs
PUBLIC a7aa0 0 __gnu_Unwind_Restore_VFP
PUBLIC a7aa8 0 __gnu_Unwind_Save_VFP
PUBLIC a7ab0 0 __gnu_Unwind_Restore_VFP_D
PUBLIC a7ab8 0 __gnu_Unwind_Save_VFP_D
PUBLIC a7ac0 0 __gnu_Unwind_Restore_VFP_D_16_to_31
PUBLIC a7ac8 0 __gnu_Unwind_Save_VFP_D_16_to_31
PUBLIC a7ad0 0 __gnu_Unwind_Restore_WMMXD
PUBLIC a7b14 0 __gnu_Unwind_Save_WMMXD
PUBLIC a7b58 0 __gnu_Unwind_Restore_WMMXC
PUBLIC a7b6c 0 __gnu_Unwind_Save_WMMXC
PUBLIC a7b80 0 ___Unwind_RaiseException
PUBLIC a7ba4 0 ___Unwind_Resume
PUBLIC a7bc8 0 ___Unwind_Resume_or_Rethrow
PUBLIC a7bec 0 ___Unwind_ForcedUnwind
PUBLIC a7c10 0 ___Unwind_Backtrace
PUBLIC a7cc0 0 __gnu_unwind_execute
PUBLIC a803c 0 __gnu_unwind_frame
PUBLIC a807c 0 _Unwind_GetRegionStart
PUBLIC a808c 0 _Unwind_GetLanguageSpecificData
PUBLIC a80a8 0 _Unwind_GetDataRelBase
PUBLIC a80b0 0 _Unwind_GetTextRelBase
STACK CFI INIT c9b0 14 .cfa: sp 0 + .ra: lr
STACK CFI INIT c9c4 168 .cfa: sp 0 + .ra: lr
STACK CFI c9c8 .cfa: sp 8 + .ra: .cfa -4 + ^ r4: .cfa -8 + ^
STACK CFI c9cc .cfa: sp 112 +
STACK CFI INIT cb2c 1c .cfa: sp 0 + .ra: lr
STACK CFI INIT cb48 18 .cfa: sp 0 + .ra: lr
STACK CFI INIT cb60 8 .cfa: sp 0 + .ra: lr
STACK CFI INIT cb68 c .cfa: sp 0 + .ra: lr
STACK CFI INIT cb74 c .cfa: sp 0 + .ra: lr
STACK CFI INIT cb80 8 .cfa: sp 0 + .ra: lr
STACK CFI INIT cb88 74 .cfa: sp 0 + .ra: lr
STACK CFI cb8c .cfa: sp 8 + .ra: .cfa -4 + ^ r4: .cfa -8 + ^
STACK CFI cb9c .cfa: sp 16 +
STACK CFI INIT cbfc 9c .cfa: sp 0 + .ra: lr
STACK CFI cc00 .cfa: sp 12 + .ra: .cfa -4 + ^ r4: .cfa -12 + ^ r5: .cfa -8 + ^
STACK CFI cc0c .cfa: sp 40 +
STACK CFI INIT cc98 38 .cfa: sp 0 + .ra: lr
STACK CFI cca4 .cfa: sp 8 + .ra: .cfa -4 + ^ r3: .cfa -8 + ^
STACK CFI INIT ccd0 70 .cfa: sp 0 + .ra: lr
STACK CFI ccd4 .cfa: sp 8 + .ra: .cfa -4 + ^ r4: .cfa -8 + ^
STACK CFI cce4 .cfa: sp 16 +
STACK CFI INIT cd40 208 .cfa: sp 0 + .ra: lr
STACK CFI cd44 .cfa: sp 24 + .ra: .cfa -4 + ^ r4: .cfa -24 + ^ r5: .cfa -20 + ^ r6: .cfa -16 + ^ r7: .cfa -12 + ^ r8: .cfa -8 + ^
STACK CFI cd48 .cfa: sp 56 +
STACK CFI INIT cf48 124 .cfa: sp 0 + .ra: lr
STACK CFI cf4c .cfa: sp 16 + .ra: .cfa -4 + ^ r4: .cfa -16 + ^ r5: .cfa -12 + ^ r6: .cfa -8 + ^
STACK CFI cf5c .cfa: sp 32 +
STACK CFI INIT d06c 1b4 .cfa: sp 0 + .ra: lr
STACK CFI d070 .cfa: sp 20 + .ra: .cfa -4 + ^ r4: .cfa -20 + ^ r5: .cfa -16 + ^ r6: .cfa -12 + ^ r7: .cfa -8 + ^
STACK CFI d080 .cfa: sp 64 +
STACK CFI INIT d220 110 .cfa: sp 0 + .ra: lr
STACK CFI d224 .cfa: sp 16 + .ra: .cfa -4 + ^ r4: .cfa -16 + ^ r5: .cfa -12 + ^ r6: .cfa -8 + ^
STACK CFI d234 .cfa: sp 40 +
STACK CFI INIT d330 78 .cfa: sp 0 + .ra: lr
STACK CFI d334 .cfa: sp 8 + .ra: .cfa -4 + ^ r4: .cfa -8 + ^
STACK CFI d344 .cfa: sp 24 +
STACK CFI INIT d3a8 18c .cfa: sp 0 + .ra: lr
STACK CFI d3ac .cfa: sp 16 + .ra: .cfa -4 + ^ r4: .cfa -16 + ^ r5: .cfa -12 + ^ r6: .cfa -8 + ^
STACK CFI d3bc .cfa: sp 32 +
STACK CFI INIT d534 90 .cfa: sp 0 + .ra: lr
STACK CFI d53c .cfa: sp 8 + .ra: .cfa -4 + ^ r4: .cfa -8 + ^
STACK CFI d54c .cfa: sp 32 +
STACK CFI INIT d5c4 a8 .cfa: sp 0 + .ra: lr
STACK CFI d5c8 .cfa: sp 20 + .ra: .cfa -4 + ^ r4: .cfa -20 + ^ r5: .cfa -16 + ^ r6: .cfa -12 + ^ r7: .cfa -8 + ^
STACK CFI d5d4 .cfa: sp 32 +
STACK CFI INIT d66c e0 .cfa: sp 0 + .ra: lr
STACK CFI d670 .cfa: sp 8 + .ra: .cfa -4 + ^ r4: .cfa -8 + ^
STACK CFI d674 .cfa: sp 24 +
STACK CFI INIT d74c 90 .cfa: sp 0 + .ra: lr
STACK CFI d75c .cfa: sp 4 + .ra: .cfa -4 + ^
STACK CFI d760 .cfa: sp 32 +
STACK CFI INIT d7dc 8d4 .cfa: sp 0 + .ra: lr
STACK CFI d7e0 .cfa: sp 36 + .ra: .cfa -4 + ^ r10: .cfa -12 + ^ r11: .cfa -8 + ^ r4: .cfa -36 + ^ r5: .cfa -32 + ^ r6: .cfa -28 + ^ r7: .cfa -24 + ^ r8: .cfa -20 + ^ r9: .cfa -16 + ^
STACK CFI d7f8 .cfa: sp 52 + s16: .cfa -52 + ^ s18: .cfa -44 + ^
STACK CFI d7fc .cfa: sp 144 +
STACK CFI INIT e0b0 208 .cfa: sp 0 + .ra: lr
STACK CFI e0b8 .cfa: sp 16 + .ra: .cfa -4 + ^ r4: .cfa -16 + ^ r5: .cfa -12 + ^ r6: .cfa -8 + ^
STACK CFI e0c8 .cfa: sp 80 +
STACK CFI INIT e2b8 90 .cfa: sp 0 + .ra: lr
STACK CFI e2c8 .cfa: sp 4 + .ra: .cfa -4 + ^
STACK CFI e2cc .cfa: sp 32 +
STACK CFI INIT e348 44 .cfa: sp 0 + .ra: lr
STACK CFI e34c .cfa: sp 8 + .ra: .cfa -4 + ^ r4: .cfa -8 + ^
STACK CFI INIT e38c 1c .cfa: sp 0 + .ra: lr
STACK CFI e390 .cfa: sp 8 + .ra: .cfa -4 + ^ r4: .cfa -8 + ^
STACK CFI INIT e3a8 44 .cfa: sp 0 + .ra: lr
STACK CFI e3ac .cfa: sp 8 + .ra: .cfa -4 + ^ r4: .cfa -8 + ^
STACK CFI INIT e3ec 44 .cfa: sp 0 + .ra: lr
STACK CFI e3f0 .cfa: sp 8 + .ra: .cfa -4 + ^ r4: .cfa -8 + ^
STACK CFI INIT e430 128 .cfa: sp 0 + .ra: lr
STACK CFI e434 .cfa: sp 12 + .ra: .cfa -4 + ^ r4: .cfa -12 + ^ r5: .cfa -8 + ^
STACK CFI e43c .cfa: sp 88 +
STACK CFI INIT e558 124 .cfa: sp 0 + .ra: lr
STACK CFI e55c .cfa: sp 16 + .ra: .cfa -4 + ^ r4: .cfa -16 + ^ r5: .cfa -12 + ^ r6: .cfa -8 + ^
STACK CFI e56c .cfa: sp 64 +
STACK CFI INIT e67c 128 .cfa: sp 0 + .ra: lr
STACK CFI e680 .cfa: sp 12 + .ra: .cfa -4 + ^ r4: .cfa -12 + ^ r5: .cfa -8 + ^
STACK CFI e688 .cfa: sp 88 +
STACK CFI INIT e7a4 104 .cfa: sp 0 + .ra: lr
STACK CFI e7ac .cfa: sp 12 + .ra: .cfa -4 + ^ r4: .cfa -12 + ^ r5: .cfa -8 + ^
STACK CFI e7bc .cfa: sp 56 +
STACK CFI INIT e8a8 118 .cfa: sp 0 + .ra: lr
STACK CFI e8ac .cfa: sp 12 + .ra: .cfa -4 + ^ r4: .cfa -12 + ^ r5: .cfa -8 + ^
STACK CFI e8bc .cfa: sp 80 +
STACK CFI INIT e9c0 e0 .cfa: sp 0 + .ra: lr
STACK CFI e9c4 .cfa: sp 20 + .ra: .cfa -4 + ^ r4: .cfa -20 + ^ r5: .cfa -16 + ^ r6: .cfa -12 + ^ r7: .cfa -8 + ^
STACK CFI e9d4 .cfa: sp 56 +
STACK CFI INIT eaa0 90 .cfa: sp 0 + .ra: lr
STACK CFI eaa4 .cfa: sp 12 + .ra: .cfa -4 + ^ r4: .cfa -12 + ^ r5: .cfa -8 + ^
STACK CFI eab4 .cfa: sp 48 +
STACK CFI INIT eb30 124 .cfa: sp 0 + .ra: lr
STACK CFI eb34 .cfa: sp 16 + .ra: .cfa -4 + ^ r4: .cfa -16 + ^ r5: .cfa -12 + ^ r6: .cfa -8 + ^
STACK CFI eb44 .cfa: sp 64 +
STACK CFI INIT ec54 1e0 .cfa: sp 0 + .ra: lr
STACK CFI ec58 .cfa: sp 28 + .ra: .cfa -4 + ^ r4: .cfa -28 + ^ r5: .cfa -24 + ^ r6: .cfa -20 + ^ r7: .cfa -16 + ^ r8: .cfa -12 + ^ r9: .cfa -8 + ^
STACK CFI ec68 .cfa: sp 72 +
STACK CFI INIT ee34 a8 .cfa: sp 0 + .ra: lr
STACK CFI ee38 .cfa: sp 12 + .ra: .cfa -4 + ^ r4: .cfa -12 + ^ r5: .cfa -8 + ^
STACK CFI ee40 .cfa: sp 72 +
STACK CFI INIT eedc 1d4 .cfa: sp 0 + .ra: lr
STACK CFI eee0 .cfa: sp 24 + .ra: .cfa -4 + ^ r4: .cfa -24 + ^ r5: .cfa -20 + ^ r6: .cfa -16 + ^ r7: .cfa -12 + ^ r8: .cfa -8 + ^
STACK CFI eef0 .cfa: sp 72 +
STACK CFI INIT f0b0 84 .cfa: sp 0 + .ra: lr
STACK CFI f0b4 .cfa: sp 4 + .ra: .cfa -4 + ^
STACK CFI f0bc .cfa: sp 48 +
STACK CFI INIT f134 dc .cfa: sp 0 + .ra: lr
STACK CFI f140 .cfa: sp 4 + .ra: .cfa -4 + ^
STACK CFI f144 .cfa: sp 16 +
STACK CFI INIT f210 48 .cfa: sp 0 + .ra: lr
STACK CFI f214 .cfa: sp 8 + .ra: .cfa -4 + ^ r4: .cfa -8 + ^
STACK CFI INIT f258 104 .cfa: sp 0 + .ra: lr
STACK CFI f25c .cfa: sp 16 + .ra: .cfa -4 + ^ r4: .cfa -16 + ^ r5: .cfa -12 + ^ r6: .cfa -8 + ^
STACK CFI f26c .cfa: sp 32 +
STACK CFI INIT f35c 64 .cfa: sp 0 + .ra: lr
STACK CFI f360 .cfa: sp 4 + .ra: .cfa -4 + ^
STACK CFI f364 .cfa: sp 32 +
STACK CFI INIT f3c0 d4 .cfa: sp 0 + .ra: lr
STACK CFI f3c4 .cfa: sp 16 + .ra: .cfa -4 + ^ r4: .cfa -16 + ^ r5: .cfa -12 + ^ r6: .cfa -8 + ^
STACK CFI f3d4 .cfa: sp 48 +
STACK CFI INIT f494 194 .cfa: sp 0 + .ra: lr
STACK CFI f498 .cfa: sp 36 + .ra: .cfa -4 + ^ r10: .cfa -12 + ^ r11: .cfa -8 + ^ r4: .cfa -36 + ^ r5: .cfa -32 + ^ r6: .cfa -28 + ^ r7: .cfa -24 + ^ r8: .cfa -20 + ^ r9: .cfa -16 + ^
STACK CFI f49c .cfa: sp 48 +
STACK CFI INIT f628 2e0 .cfa: sp 0 + .ra: lr
STACK CFI f62c .cfa: sp 20 + .ra: .cfa -4 + ^ r4: .cfa -20 + ^ r5: .cfa -16 + ^ r6: .cfa -12 + ^ r7: .cfa -8 + ^
STACK CFI f638 .cfa: sp 40 +
STACK CFI INIT f908 1d4 .cfa: sp 0 + .ra: lr
STACK CFI f90c .cfa: sp 24 + .ra: .cfa -4 + ^ r4: .cfa -24 + ^ r5: .cfa -20 + ^ r6: .cfa -16 + ^ r7: .cfa -12 + ^ r8: .cfa -8 + ^
STACK CFI f918 .cfa: sp 40 +
STACK CFI INIT fadc 2dc .cfa: sp 0 + .ra: lr
STACK CFI fae0 .cfa: sp 36 + .ra: .cfa -4 + ^ r10: .cfa -12 + ^ r11: .cfa -8 + ^ r4: .cfa -36 + ^ r5: .cfa -32 + ^ r6: .cfa -28 + ^ r7: .cfa -24 + ^ r8: .cfa -20 + ^ r9: .cfa -16 + ^
STACK CFI faf0 .cfa: sp 96 +
STACK CFI INIT fdb8 2b0 .cfa: sp 0 + .ra: lr
STACK CFI fdbc .cfa: sp 20 + .ra: .cfa -4 + ^ r4: .cfa -20 + ^ r5: .cfa -16 + ^ r6: .cfa -12 + ^ r7: .cfa -8 + ^
STACK CFI fdc8 .cfa: sp 40 +
STACK CFI INIT 10068 33c .cfa: sp 0 + .ra: lr
STACK CFI 1006c .cfa: sp 16 + .ra: .cfa -4 + ^ r4: .cfa -16 + ^ r5: .cfa -12 + ^ r6: .cfa -8 + ^
STACK CFI 10080 .cfa: sp 24 + s16: .cfa -24 + ^
STACK CFI 10084 .cfa: sp 88 +
STACK CFI INIT 103a4 3bc .cfa: sp 0 + .ra: lr
STACK CFI 103a8 .cfa: sp 20 + .ra: .cfa -4 + ^ r4: .cfa -20 + ^ r5: .cfa -16 + ^ r6: .cfa -12 + ^ r7: .cfa -8 + ^
STACK CFI 103b8 .cfa: sp 28 + s16: .cfa -28 + ^
STACK CFI 103bc .cfa: sp 104 +
STACK CFI INIT 10760 54 .cfa: sp 0 + .ra: lr
STACK CFI 10764 .cfa: sp 16 + .ra: .cfa -4 + ^ r3: .cfa -16 + ^ r4: .cfa -12 + ^ r5: .cfa -8 + ^
STACK CFI INIT 107b4 50 .cfa: sp 0 + .ra: lr
STACK CFI 107c0 .cfa: sp 4 + .ra: .cfa -4 + ^
STACK CFI 107c4 .cfa: sp 40 +
STACK CFI INIT 10804 50 .cfa: sp 0 + .ra: lr
STACK CFI 10810 .cfa: sp 4 + .ra: .cfa -4 + ^
STACK CFI 10814 .cfa: sp 40 +
STACK CFI INIT 10854 44 .cfa: sp 0 + .ra: lr
STACK CFI 10858 .cfa: sp 8 + .ra: .cfa -4 + ^ r4: .cfa -8 + ^
STACK CFI 10868 .cfa: sp 16 +
STACK CFI INIT 10898 88 .cfa: sp 0 + .ra: lr
STACK CFI 1089c .cfa: sp 12 + .ra: .cfa -4 + ^ r4: .cfa -12 + ^ r5: .cfa -8 + ^
STACK CFI 108ac .cfa: sp 32 +
STACK CFI INIT 10920 90 .cfa: sp 0 + .ra: lr
STACK CFI 10924 .cfa: sp 12 + .ra: .cfa -4 + ^ r4: .cfa -12 + ^ r5: .cfa -8 + ^
STACK CFI 10934 .cfa: sp 48 +
STACK CFI INIT 109b0 90 .cfa: sp 0 + .ra: lr
STACK CFI 109b4 .cfa: sp 12 + .ra: .cfa -4 + ^ r4: .cfa -12 + ^ r5: .cfa -8 + ^
STACK CFI 109c4 .cfa: sp 32 +
STACK CFI INIT 10a40 58 .cfa: sp 0 + .ra: lr
STACK CFI 10a48 .cfa: sp 8 + .ra: .cfa -4 + ^ r4: .cfa -8 + ^
STACK CFI 10a58 .cfa: sp 16 +
STACK CFI INIT 10a98 58 .cfa: sp 0 + .ra: lr
STACK CFI 10aa0 .cfa: sp 8 + .ra: .cfa -4 + ^ r4: .cfa -8 + ^
STACK CFI 10ab0 .cfa: sp 16 +
STACK CFI INIT 10af0 58 .cfa: sp 0 + .ra: lr
STACK CFI 10af8 .cfa: sp 8 + .ra: .cfa -4 + ^ r4: .cfa -8 + ^
STACK CFI 10b08 .cfa: sp 16 +
STACK CFI INIT 10b48 58 .cfa: sp 0 + .ra: lr
STACK CFI 10b50 .cfa: sp 8 + .ra: .cfa -4 + ^ r4: .cfa -8 + ^
STACK CFI 10b60 .cfa: sp 16 +
STACK CFI INIT 10ba0 58 .cfa: sp 0 + .ra: lr
STACK CFI 10ba8 .cfa: sp 8 + .ra: .cfa -4 + ^ r4: .cfa -8 + ^
STACK CFI 10bb8 .cfa: sp 16 +
STACK CFI INIT 10bf8 80 .cfa: sp 0 + .ra: lr
STACK CFI 10c04 .cfa: sp 8 + .ra: .cfa -4 + ^ r4: .cfa -8 + ^
STACK CFI 10c0c .cfa: sp 40 +
STACK CFI INIT 10c78 80 .cfa: sp 0 + .ra: lr
STACK CFI 10c84 .cfa: sp 8 + .ra: .cfa -4 + ^ r4: .cfa -8 + ^
STACK CFI 10c8c .cfa: sp 40 +
STACK CFI INIT 10cf8 58 .cfa: sp 0 + .ra: lr
STACK CFI 10d00 .cfa: sp 8 + .ra: .cfa -4 + ^ r4: .cfa -8 + ^
STACK CFI 10d10 .cfa: sp 16 +
STACK CFI INIT 10d50 58 .cfa: sp 0 + .ra: lr
STACK CFI 10d58 .cfa: sp 8 + .ra: .cfa -4 + ^ r4: .cfa -8 + ^
STACK CFI 10d68 .cfa: sp 16 +
STACK CFI INIT 10da8 58 .cfa: sp 0 + .ra: lr
STACK CFI 10db0 .cfa: sp 8 + .ra: .cfa -4 + ^ r4: .cfa -8 + ^
STACK CFI 10dc0 .cfa: sp 16 +
STACK CFI INIT 10e00 58 .cfa: sp 0 + .ra: lr
STACK CFI 10e08 .cfa: sp 8 + .ra: .cfa -4 + ^ r4: .cfa -8 + ^
STACK CFI 10e18 .cfa: sp 16 +
STACK CFI INIT 10e58 58 .cfa: sp 0 + .ra: lr
STACK CFI 10e60 .cfa: sp 8 + .ra: .cfa -4 + ^ r4: .cfa -8 + ^
STACK CFI 10e70 .cfa: sp 16 +
STACK CFI INIT 10eb0 14 .cfa: sp 0 + .ra: lr
STACK CFI 10eb4 .cfa: sp 8 + .ra: .cfa -4 + ^ r3: .cfa -8 + ^
STACK CFI INIT 10ec4 44 .cfa: sp 0 + .ra: lr
STACK CFI 10ec8 .cfa: sp 8 + .ra: .cfa -4 + ^ r4: .cfa -8 + ^
STACK CFI 10ed8 .cfa: sp 16 +
STACK CFI INIT 10f08 148 .cfa: sp 0 + .ra: lr
STACK CFI 10f0c .cfa: sp 12 + .ra: .cfa -4 + ^ r4: .cfa -12 + ^ r5: .cfa -8 + ^
STACK CFI 10f1c .cfa: sp 24 +
STACK CFI INIT 11050 1dc .cfa: sp 0 + .ra: lr
STACK CFI 11054 .cfa: sp 12 + .ra: .cfa -4 + ^ r4: .cfa -12 + ^ r5: .cfa -8 + ^
STACK CFI 11068 .cfa: sp 20 + s16: .cfa -20 + ^
STACK CFI 1106c .cfa: sp 56 +
STACK CFI INIT 1122c 148 .cfa: sp 0 + .ra: lr
STACK CFI 11230 .cfa: sp 16 + .ra: .cfa -4 + ^ r4: .cfa -16 + ^ r5: .cfa -12 + ^ r6: .cfa -8 + ^
STACK CFI 11240 .cfa: sp 112 +
STACK CFI INIT 11374 4c .cfa: sp 0 + .ra: lr
STACK CFI 11378 .cfa: sp 8 + .ra: .cfa -4 + ^ r4: .cfa -8 + ^
STACK CFI 11388 .cfa: sp 24 +
STACK CFI INIT 113c0 a0 .cfa: sp 0 + .ra: lr
STACK CFI 113c4 .cfa: sp 8 + .ra: .cfa -4 + ^ r4: .cfa -8 + ^
STACK CFI 113d4 .cfa: sp 40 +
STACK CFI INIT 11460 6c .cfa: sp 0 + .ra: lr
STACK CFI 11464 .cfa: sp 24 + .ra: .cfa -4 + ^ r4: .cfa -24 + ^ r5: .cfa -20 + ^ r6: .cfa -16 + ^ r7: .cfa -12 + ^ r8: .cfa -8 + ^
STACK CFI 11474 .cfa: sp 48 +
STACK CFI INIT 114cc e34 .cfa: sp 0 + .ra: lr
STACK CFI 114d0 .cfa: sp 36 + .ra: .cfa -4 + ^ r10: .cfa -12 + ^ r11: .cfa -8 + ^ r4: .cfa -36 + ^ r5: .cfa -32 + ^ r6: .cfa -28 + ^ r7: .cfa -24 + ^ r8: .cfa -20 + ^ r9: .cfa -16 + ^
STACK CFI 114d8 .cfa: sp 100 + s16: .cfa -100 + ^ s18: .cfa -92 + ^ s20: .cfa -84 + ^ s22: .cfa -76 + ^ s24: .cfa -68 + ^ s26: .cfa -60 + ^ s28: .cfa -52 + ^ s30: .cfa -44 + ^
STACK CFI 114e0 .cfa: sp 1204 +
STACK CFI 114e8 .cfa: sp 1208 +
STACK CFI INIT 12300 4c .cfa: sp 0 + .ra: lr
STACK CFI 12304 .cfa: sp 8 + .ra: .cfa -4 + ^ r4: .cfa -8 + ^
STACK CFI 12314 .cfa: sp 24 +
STACK CFI INIT 1234c 44 .cfa: sp 0 + .ra: lr
STACK CFI 12350 .cfa: sp 8 + .ra: .cfa -4 + ^ r4: .cfa -8 + ^
STACK CFI 12360 .cfa: sp 16 +
STACK CFI INIT 12390 60 .cfa: sp 0 + .ra: lr
STACK CFI 12394 .cfa: sp 8 + .ra: .cfa -4 + ^ r4: .cfa -8 + ^
STACK CFI 123a4 .cfa: sp 40 +
STACK CFI INIT 123f0 68 .cfa: sp 0 + .ra: lr
STACK CFI 123f4 .cfa: sp 8 + .ra: .cfa -4 + ^ r4: .cfa -8 + ^
STACK CFI 123fc .cfa: sp 48 +
STACK CFI INIT 12458 34 .cfa: sp 0 + .ra: lr
STACK CFI 1245c .cfa: sp 8 + .ra: .cfa -4 + ^ r4: .cfa -8 + ^
STACK CFI INIT 1248c c0 .cfa: sp 0 + .ra: lr
STACK CFI 12490 .cfa: sp 24 + .ra: .cfa -4 + ^ r4: .cfa -24 + ^ r5: .cfa -20 + ^ r6: .cfa -16 + ^ r7: .cfa -12 + ^ r8: .cfa -8 + ^
STACK CFI 12494 .cfa: sp 64 +
STACK CFI INIT 1254c e4 .cfa: sp 0 + .ra: lr
STACK CFI 12550 .cfa: sp 32 + .ra: .cfa -4 + ^ r10: .cfa -8 + ^ r4: .cfa -32 + ^ r5: .cfa -28 + ^ r6: .cfa -24 + ^ r7: .cfa -20 + ^ r8: .cfa -16 + ^ r9: .cfa -12 + ^
STACK CFI 12560 .cfa: sp 136 +
STACK CFI INIT 12630 124 .cfa: sp 0 + .ra: lr
STACK CFI 12634 .cfa: sp 16 + .ra: .cfa -4 + ^ r4: .cfa -16 + ^ r5: .cfa -12 + ^ r6: .cfa -8 + ^
STACK CFI 12644 .cfa: sp 48 +
STACK CFI INIT 12754 3c .cfa: sp 0 + .ra: lr
STACK CFI 12760 .cfa: sp 4 + .ra: .cfa -4 + ^
STACK CFI 12764 .cfa: sp 16 +
STACK CFI INIT 12790 3c .cfa: sp 0 + .ra: lr
STACK CFI 1279c .cfa: sp 4 + .ra: .cfa -4 + ^
STACK CFI 127a0 .cfa: sp 16 +
STACK CFI INIT 127cc 58 .cfa: sp 0 + .ra: lr
STACK CFI 127d8 .cfa: sp 4 + .ra: .cfa -4 + ^
STACK CFI 127dc .cfa: sp 40 +
STACK CFI INIT 12824 bc .cfa: sp 0 + .ra: lr
STACK CFI 12828 .cfa: sp 32 + .ra: .cfa -4 + ^ r10: .cfa -8 + ^ r4: .cfa -32 + ^ r5: .cfa -28 + ^ r6: .cfa -24 + ^ r7: .cfa -20 + ^ r8: .cfa -16 + ^ r9: .cfa -12 + ^
STACK CFI 1282c .cfa: sp 112 +
STACK CFI INIT 128e0 3c .cfa: sp 0 + .ra: lr
STACK CFI 128ec .cfa: sp 4 + .ra: .cfa -4 + ^
STACK CFI 128f0 .cfa: sp 16 +
STACK CFI INIT 1291c 50 .cfa: sp 0 + .ra: lr
STACK CFI 12928 .cfa: sp 4 + .ra: .cfa -4 + ^
STACK CFI 1292c .cfa: sp 40 +
STACK CFI INIT 1296c 380 .cfa: sp 0 + .ra: lr
STACK CFI 12970 .cfa: sp 16 + .ra: .cfa -4 + ^ r4: .cfa -16 + ^ r5: .cfa -12 + ^ r6: .cfa -8 + ^
STACK CFI 12978 .cfa: sp 24 + s16: .cfa -24 + ^
STACK CFI 1297c .cfa: sp 104 +
STACK CFI INIT 12cec 88 .cfa: sp 0 + .ra: lr
STACK CFI 12cf8 .cfa: sp 12 + .ra: .cfa -4 + ^ r4: .cfa -12 + ^ r5: .cfa -8 + ^
STACK CFI 12cfc .cfa: sp 56 +
STACK CFI INIT 12d74 64 .cfa: sp 0 + .ra: lr
STACK CFI 12d84 .cfa: sp 4 + .ra: .cfa -4 + ^
STACK CFI 12d88 .cfa: sp 32 +
STACK CFI INIT 12dd8 44 .cfa: sp 0 + .ra: lr
STACK CFI 12ddc .cfa: sp 8 + .ra: .cfa -4 + ^ r3: .cfa -8 + ^
STACK CFI INIT 12e1c 3ec .cfa: sp 0 + .ra: lr
STACK CFI 12e20 .cfa: sp 20 + .ra: .cfa -4 + ^ r4: .cfa -20 + ^ r5: .cfa -16 + ^ r6: .cfa -12 + ^ r7: .cfa -8 + ^
STACK CFI 12e28 .cfa: sp 28 + s16: .cfa -28 + ^
STACK CFI 12e2c .cfa: sp 144 +
STACK CFI INIT 13208 14 .cfa: sp 0 + .ra: lr
STACK CFI 1320c .cfa: sp 8 + .ra: .cfa -4 + ^ r4: .cfa -8 + ^
STACK CFI INIT 1321c 8 .cfa: sp 0 + .ra: lr
STACK CFI INIT 13224 44 .cfa: sp 0 + .ra: lr
STACK CFI 13228 .cfa: sp 8 + .ra: .cfa -4 + ^ r3: .cfa -8 + ^
STACK CFI INIT 13268 94 .cfa: sp 0 + .ra: lr
STACK CFI 1326c .cfa: sp 8 + r4: .cfa -8 + ^ r5: .cfa -4 + ^
STACK CFI INIT 132fc 2c .cfa: sp 0 + .ra: lr
STACK CFI 13300 .cfa: sp 8 + .ra: .cfa -4 + ^ r3: .cfa -8 + ^
STACK CFI INIT 13328 4 .cfa: sp 0 + .ra: lr
STACK CFI INIT 1332c 2c .cfa: sp 0 + .ra: lr
STACK CFI 13330 .cfa: sp 8 + .ra: .cfa -4 + ^ r3: .cfa -8 + ^
STACK CFI INIT 13358 2c .cfa: sp 0 + .ra: lr
STACK CFI 1335c .cfa: sp 8 + .ra: .cfa -4 + ^ r3: .cfa -8 + ^
STACK CFI INIT 13384 38 .cfa: sp 0 + .ra: lr
STACK CFI 13388 .cfa: sp 8 + .ra: .cfa -4 + ^ r3: .cfa -8 + ^
STACK CFI INIT 133bc 340 .cfa: sp 0 + .ra: lr
STACK CFI 133c8 .cfa: sp 36 + .ra: .cfa -4 + ^ r10: .cfa -12 + ^ r11: .cfa -8 + ^ r4: .cfa -36 + ^ r5: .cfa -32 + ^ r6: .cfa -28 + ^ r7: .cfa -24 + ^ r8: .cfa -20 + ^ r9: .cfa -16 + ^
STACK CFI 133cc .cfa: sp 144 +
STACK CFI INIT 136fc e0 .cfa: sp 0 + .ra: lr
STACK CFI 13700 .cfa: sp 12 + .ra: .cfa -4 + ^ r4: .cfa -12 + ^ r5: .cfa -8 + ^
STACK CFI 13704 .cfa: sp 80 +
STACK CFI INIT 137dc 498 .cfa: sp 0 + .ra: lr
STACK CFI 137e0 .cfa: sp 36 + .ra: .cfa -4 + ^ r10: .cfa -12 + ^ r11: .cfa -8 + ^ r4: .cfa -36 + ^ r5: .cfa -32 + ^ r6: .cfa -28 + ^ r7: .cfa -24 + ^ r8: .cfa -20 + ^ r9: .cfa -16 + ^
STACK CFI 137e8 .cfa: sp 44 + s16: .cfa -44 + ^
STACK CFI 137f0 .cfa: sp 96 +
STACK CFI INIT 13c74 4 .cfa: sp 0 + .ra: lr
STACK CFI INIT 13c78 6c .cfa: sp 0 + .ra: lr
STACK CFI 13c7c .cfa: sp 16 + .ra: .cfa -4 + ^ r3: .cfa -16 + ^ r4: .cfa -12 + ^ r5: .cfa -8 + ^
STACK CFI INIT 13ce4 a0 .cfa: sp 0 + .ra: lr
STACK CFI 13ce8 .cfa: sp 8 + .ra: .cfa -4 + ^ r4: .cfa -8 + ^
STACK CFI 13cf8 .cfa: sp 24 +
STACK CFI INIT 13d84 1a8 .cfa: sp 0 + .ra: lr
STACK CFI 13d88 .cfa: sp 36 + .ra: .cfa -4 + ^ r10: .cfa -12 + ^ r11: .cfa -8 + ^ r4: .cfa -36 + ^ r5: .cfa -32 + ^ r6: .cfa -28 + ^ r7: .cfa -24 + ^ r8: .cfa -20 + ^ r9: .cfa -16 + ^
STACK CFI 13d98 .cfa: sp 96 +
STACK CFI INIT 13f2c 180 .cfa: sp 0 + .ra: lr
STACK CFI 13f30 .cfa: sp 16 + .ra: .cfa -4 + ^ r4: .cfa -16 + ^ r5: .cfa -12 + ^ r6: .cfa -8 + ^
STACK CFI 13f38 .cfa: sp 24 +
STACK CFI INIT 140b0 8 .cfa: sp 0 + .ra: lr
STACK CFI INIT 140b8 1d8 .cfa: sp 0 + .ra: lr
STACK CFI 140bc .cfa: sp 8 + .ra: .cfa -4 + ^ r4: .cfa -8 + ^
STACK CFI 140c0 .cfa: sp 64 +
STACK CFI INIT 14290 30 .cfa: sp 0 + .ra: lr
STACK CFI 14294 .cfa: sp 8 + .ra: .cfa -4 + ^ r3: .cfa -8 + ^
STACK CFI INIT 142c0 80 .cfa: sp 0 + .ra: lr
STACK CFI 142c4 .cfa: sp 16 + .ra: .cfa -4 + ^ r4: .cfa -16 + ^ r5: .cfa -12 + ^ r6: .cfa -8 + ^
STACK CFI 142d4 .cfa: sp 40 +
STACK CFI INIT 14340 68 .cfa: sp 0 + .ra: lr
STACK CFI 14344 .cfa: sp 8 + .ra: .cfa -4 + ^ r4: .cfa -8 + ^
STACK CFI INIT 143a8 88 .cfa: sp 0 + .ra: lr
STACK CFI 143ac .cfa: sp 8 + .ra: .cfa -4 + ^ r4: .cfa -8 + ^
STACK CFI 143b0 .cfa: sp 16 +
STACK CFI INIT 14430 198 .cfa: sp 0 + .ra: lr
STACK CFI 14434 .cfa: sp 16 + .ra: .cfa -4 + ^ r4: .cfa -16 + ^ r5: .cfa -12 + ^ r6: .cfa -8 + ^
STACK CFI 14438 .cfa: sp 80 +
STACK CFI INIT 145c8 74 .cfa: sp 0 + .ra: lr
STACK CFI 145cc .cfa: sp 8 + .ra: .cfa -4 + ^ r4: .cfa -8 + ^
STACK CFI INIT 1463c 174 .cfa: sp 0 + .ra: lr
STACK CFI 14648 .cfa: sp 12 + .ra: .cfa -4 + ^ r4: .cfa -12 + ^ r5: .cfa -8 + ^
STACK CFI 1464c .cfa: sp 48 +
STACK CFI INIT 147b0 bc .cfa: sp 0 + .ra: lr
STACK CFI 147bc .cfa: sp 8 + .ra: .cfa -4 + ^ r4: .cfa -8 + ^
STACK CFI 147c0 .cfa: sp 24 +
STACK CFI INIT 1486c 114 .cfa: sp 0 + .ra: lr
STACK CFI 14878 .cfa: sp 12 + .ra: .cfa -4 + ^ r4: .cfa -12 + ^ r5: .cfa -8 + ^
STACK CFI 1487c .cfa: sp 48 +
STACK CFI INIT 14980 180 .cfa: sp 0 + .ra: lr
STACK CFI 14984 .cfa: sp 12 + .ra: .cfa -4 + ^ r4: .cfa -12 + ^ r5: .cfa -8 + ^
STACK CFI 14988 .cfa: sp 72 +
STACK CFI INIT 14b00 9c .cfa: sp 0 + .ra: lr
STACK CFI 14b04 .cfa: sp 16 + .ra: .cfa -4 + ^ r3: .cfa -16 + ^ r4: .cfa -12 + ^ r5: .cfa -8 + ^
STACK CFI INIT 14b9c bc .cfa: sp 0 + .ra: lr
STACK CFI 14ba8 .cfa: sp 8 + .ra: .cfa -4 + ^ r4: .cfa -8 + ^
STACK CFI 14bac .cfa: sp 24 +
STACK CFI INIT 14c58 a4 .cfa: sp 0 + .ra: lr
STACK CFI 14c5c .cfa: sp 16 + .ra: .cfa -4 + ^ r3: .cfa -16 + ^ r4: .cfa -12 + ^ r5: .cfa -8 + ^
STACK CFI INIT 14cfc cc .cfa: sp 0 + .ra: lr
STACK CFI 14d08 .cfa: sp 8 + .ra: .cfa -4 + ^ r4: .cfa -8 + ^
STACK CFI 14d0c .cfa: sp 40 +
STACK CFI INIT 14dc8 12c .cfa: sp 0 + .ra: lr
STACK CFI 14dcc .cfa: sp 16 + .ra: .cfa -4 + ^ r4: .cfa -16 + ^ r5: .cfa -12 + ^ r6: .cfa -8 + ^
STACK CFI 14dd4 .cfa: sp 56 +
STACK CFI INIT 14ef4 bc .cfa: sp 0 + .ra: lr
STACK CFI 14f00 .cfa: sp 8 + .ra: .cfa -4 + ^ r4: .cfa -8 + ^
STACK CFI 14f04 .cfa: sp 24 +
STACK CFI INIT 14fb0 fc .cfa: sp 0 + .ra: lr
STACK CFI 14fb4 .cfa: sp 8 + .ra: .cfa -4 + ^ r4: .cfa -8 + ^
STACK CFI 14fbc .cfa: sp 48 +
STACK CFI INIT 150ac a4 .cfa: sp 0 + .ra: lr
STACK CFI 150b0 .cfa: sp 16 + .ra: .cfa -4 + ^ r3: .cfa -16 + ^ r4: .cfa -12 + ^ r5: .cfa -8 + ^
STACK CFI INIT 15150 114 .cfa: sp 0 + .ra: lr
STACK CFI 1515c .cfa: sp 12 + .ra: .cfa -4 + ^ r4: .cfa -12 + ^ r5: .cfa -8 + ^
STACK CFI 15160 .cfa: sp 48 +
STACK CFI INIT 15264 190 .cfa: sp 0 + .ra: lr
STACK CFI 15268 .cfa: sp 8 + .ra: .cfa -4 + ^ r4: .cfa -8 + ^
STACK CFI 1526c .cfa: sp 64 +
STACK CFI INIT 153f4 1cc .cfa: sp 0 + .ra: lr
STACK CFI 153f8 .cfa: sp 8 + .ra: .cfa -4 + ^ r4: .cfa -8 + ^
STACK CFI 153fc .cfa: sp 64 +
STACK CFI INIT 155c0 f4 .cfa: sp 0 + .ra: lr
STACK CFI 155c4 .cfa: sp 20 + .ra: .cfa -4 + ^ r4: .cfa -20 + ^ r5: .cfa -16 + ^ r6: .cfa -12 + ^ r7: .cfa -8 + ^
STACK CFI 155d4 .cfa: sp 48 +
STACK CFI INIT 156b4 30 .cfa: sp 0 + .ra: lr
STACK CFI 156b8 .cfa: sp 8 + .ra: .cfa -4 + ^ r3: .cfa -8 + ^
STACK CFI INIT 156e4 f0 .cfa: sp 0 + .ra: lr
STACK CFI 156e8 .cfa: sp 16 + .ra: .cfa -4 + ^ r4: .cfa -16 + ^ r5: .cfa -12 + ^ r6: .cfa -8 + ^
STACK CFI 156f8 .cfa: sp 32 +
STACK CFI INIT 157d4 68 .cfa: sp 0 + .ra: lr
STACK CFI 157d8 .cfa: sp 8 + .ra: .cfa -4 + ^ r4: .cfa -8 + ^
STACK CFI INIT 1583c 88 .cfa: sp 0 + .ra: lr
STACK CFI 15840 .cfa: sp 8 + .ra: .cfa -4 + ^ r4: .cfa -8 + ^
STACK CFI 15844 .cfa: sp 16 +
STACK CFI INIT 158c4 60 .cfa: sp 0 + .ra: lr
STACK CFI 158c8 .cfa: sp 8 + .ra: .cfa -4 + ^ r4: .cfa -8 + ^
STACK CFI INIT 15924 124 .cfa: sp 0 + .ra: lr
STACK CFI 15928 .cfa: sp 12 + .ra: .cfa -4 + ^ r4: .cfa -12 + ^ r5: .cfa -8 + ^
STACK CFI 15930 .cfa: sp 56 +
STACK CFI INIT 15a48 c0 .cfa: sp 0 + .ra: lr
STACK CFI 15a54 .cfa: sp 8 + .ra: .cfa -4 + ^ r4: .cfa -8 + ^
STACK CFI 15a58 .cfa: sp 40 +
STACK CFI INIT 15b08 e0 .cfa: sp 0 + .ra: lr
STACK CFI 15b0c .cfa: sp 12 + .ra: .cfa -4 + ^ r4: .cfa -12 + ^ r5: .cfa -8 + ^
STACK CFI 15b14 .cfa: sp 56 +
STACK CFI INIT 15be8 90 .cfa: sp 0 + .ra: lr
STACK CFI 15bec .cfa: sp 8 + .ra: .cfa -4 + ^ r4: .cfa -8 + ^
STACK CFI INIT 15c78 1d0 .cfa: sp 0 + .ra: lr
STACK CFI 15c7c .cfa: sp 12 + .ra: .cfa -4 + ^ r4: .cfa -12 + ^ r5: .cfa -8 + ^
STACK CFI 15c80 .cfa: sp 96 +
STACK CFI INIT 15e48 558 .cfa: sp 0 + .ra: lr
STACK CFI 15e4c .cfa: sp 36 + .ra: .cfa -4 + ^ r10: .cfa -12 + ^ r11: .cfa -8 + ^ r4: .cfa -36 + ^ r5: .cfa -32 + ^ r6: .cfa -28 + ^ r7: .cfa -24 + ^ r8: .cfa -20 + ^ r9: .cfa -16 + ^
STACK CFI 15e50 .cfa: sp 224 +
STACK CFI INIT 163a0 694 .cfa: sp 0 + .ra: lr
STACK CFI 163a4 .cfa: sp 36 + .ra: .cfa -4 + ^ r10: .cfa -12 + ^ r11: .cfa -8 + ^ r4: .cfa -36 + ^ r5: .cfa -32 + ^ r6: .cfa -28 + ^ r7: .cfa -24 + ^ r8: .cfa -20 + ^ r9: .cfa -16 + ^
STACK CFI 163a8 .cfa: sp 136 +
STACK CFI INIT 16a34 4 .cfa: sp 0 + .ra: lr
STACK CFI INIT 16a38 a4 .cfa: sp 0 + .ra: lr
STACK CFI 16a3c .cfa: sp 8 + .ra: .cfa -4 + ^ r4: .cfa -8 + ^
STACK CFI 16a4c .cfa: sp 24 +
STACK CFI INIT 16adc 21c .cfa: sp 0 + .ra: lr
STACK CFI 16ae0 .cfa: sp 16 + .ra: .cfa -4 + ^ r4: .cfa -16 + ^ r5: .cfa -12 + ^ r6: .cfa -8 + ^
STACK CFI 16ae4 .cfa: sp 72 +
STACK CFI INIT 16cf8 d0 .cfa: sp 0 + .ra: lr
STACK CFI 16cfc .cfa: sp 12 + .ra: .cfa -4 + ^ r4: .cfa -12 + ^ r5: .cfa -8 + ^
STACK CFI 16d0c .cfa: sp 24 +
STACK CFI INIT 16dc8 4 .cfa: sp 0 + .ra: lr
STACK CFI INIT 16dcc 44 .cfa: sp 0 + .ra: lr
STACK CFI 16dd0 .cfa: sp 8 + .ra: .cfa -4 + ^ r4: .cfa -8 + ^
STACK CFI INIT 16e10 58 .cfa: sp 0 + .ra: lr
STACK CFI 16e14 .cfa: sp 8 + .ra: .cfa -4 + ^ r4: .cfa -8 + ^
STACK CFI INIT 16e68 3c .cfa: sp 0 + .ra: lr
STACK CFI 16e74 .cfa: sp 4 + .ra: .cfa -4 + ^
STACK CFI 16e78 .cfa: sp 16 +
STACK CFI INIT 16ea4 2d4 .cfa: sp 0 + .ra: lr
STACK CFI 16ea8 .cfa: sp 16 + .ra: .cfa -4 + ^ r4: .cfa -16 + ^ r5: .cfa -12 + ^ r6: .cfa -8 + ^
STACK CFI 16eac .cfa: sp 168 +
STACK CFI INIT 17178 84 .cfa: sp 0 + .ra: lr
STACK CFI 1717c .cfa: sp 12 + .ra: .cfa -4 + ^ r4: .cfa -12 + ^ r5: .cfa -8 + ^
STACK CFI 17180 .cfa: sp 80 +
STACK CFI INIT 171fc 4c .cfa: sp 0 + .ra: lr
STACK CFI 17200 .cfa: sp 8 + .ra: .cfa -4 + ^ r4: .cfa -8 + ^
STACK CFI INIT 17248 64 .cfa: sp 0 + .ra: lr
STACK CFI 1724c .cfa: sp 8 + .ra: .cfa -4 + ^ r4: .cfa -8 + ^
STACK CFI 1725c .cfa: sp 24 +
STACK CFI INIT 172ac a0 .cfa: sp 0 + .ra: lr
STACK CFI 172b0 .cfa: sp 8 + .ra: .cfa -4 + ^ r4: .cfa -8 + ^
STACK CFI 172b4 .cfa: sp 72 +
STACK CFI INIT 1734c 64 .cfa: sp 0 + .ra: lr
STACK CFI 17350 .cfa: sp 8 + .ra: .cfa -4 + ^ r4: .cfa -8 + ^
STACK CFI 17360 .cfa: sp 24 +
STACK CFI INIT 173b0 1c .cfa: sp 0 + .ra: lr
STACK CFI 173b4 .cfa: sp 8 + .ra: .cfa -4 + ^ r4: .cfa -8 + ^
STACK CFI INIT 173cc 20 .cfa: sp 0 + .ra: lr
STACK CFI INIT 173ec 70 .cfa: sp 0 + .ra: lr
STACK CFI 173f8 .cfa: sp 8 + .ra: .cfa -4 + ^ r4: .cfa -8 + ^
STACK CFI INIT 1745c 8 .cfa: sp 0 + .ra: lr
STACK CFI INIT 17464 2c .cfa: sp 0 + .ra: lr
STACK CFI 17468 .cfa: sp 8 + .ra: .cfa -4 + ^ r3: .cfa -8 + ^
STACK CFI INIT 17490 2c .cfa: sp 0 + .ra: lr
STACK CFI 17494 .cfa: sp 8 + .ra: .cfa -4 + ^ r3: .cfa -8 + ^
STACK CFI INIT 174bc 14 .cfa: sp 0 + .ra: lr
STACK CFI INIT 174d0 180 .cfa: sp 0 + .ra: lr
STACK CFI 174d4 .cfa: sp 8 + .ra: .cfa -4 + ^ r4: .cfa -8 + ^
STACK CFI 174e4 .cfa: sp 32 +
STACK CFI INIT 17650 1d4 .cfa: sp 0 + .ra: lr
STACK CFI 17654 .cfa: sp 16 + .ra: .cfa -4 + ^ r4: .cfa -16 + ^ r5: .cfa -12 + ^ r6: .cfa -8 + ^
STACK CFI 17658 .cfa: sp 96 +
STACK CFI INIT 17824 148 .cfa: sp 0 + .ra: lr
STACK CFI 17828 .cfa: sp 36 + .ra: .cfa -4 + ^ r10: .cfa -12 + ^ r11: .cfa -8 + ^ r4: .cfa -36 + ^ r5: .cfa -32 + ^ r6: .cfa -28 + ^ r7: .cfa -24 + ^ r8: .cfa -20 + ^ r9: .cfa -16 + ^
STACK CFI 17838 .cfa: sp 72 +
STACK CFI INIT 1796c 108 .cfa: sp 0 + .ra: lr
STACK CFI 17970 .cfa: sp 16 + .ra: .cfa -4 + ^ r4: .cfa -16 + ^ r5: .cfa -12 + ^ r6: .cfa -8 + ^
STACK CFI 17980 .cfa: sp 24 +
STACK CFI INIT 17a74 154 .cfa: sp 0 + .ra: lr
STACK CFI 17a78 .cfa: sp 32 + .ra: .cfa -4 + ^ r10: .cfa -8 + ^ r4: .cfa -32 + ^ r5: .cfa -28 + ^ r6: .cfa -24 + ^ r7: .cfa -20 + ^ r8: .cfa -16 + ^ r9: .cfa -12 + ^
STACK CFI 17a88 .cfa: sp 48 +
STACK CFI INIT 17bc8 1c .cfa: sp 0 + .ra: lr
STACK CFI 17bcc .cfa: sp 8 + .ra: .cfa -4 + ^ r4: .cfa -8 + ^
STACK CFI INIT 17be4 a0 .cfa: sp 0 + .ra: lr
STACK CFI 17be8 .cfa: sp 8 + .ra: .cfa -4 + ^ r3: .cfa -8 + ^
STACK CFI INIT 17c84 7c .cfa: sp 0 + .ra: lr
STACK CFI 17c8c .cfa: sp 12 + .ra: .cfa -4 + ^ r4: .cfa -12 + ^ r5: .cfa -8 + ^
STACK CFI 17c90 .cfa: sp 24 +
STACK CFI INIT 17d00 e0 .cfa: sp 0 + .ra: lr
STACK CFI 17d08 .cfa: sp 24 + .ra: .cfa -4 + ^ r4: .cfa -24 + ^ r5: .cfa -20 + ^ r6: .cfa -16 + ^ r7: .cfa -12 + ^ r8: .cfa -8 + ^
STACK CFI INIT 17de0 204 .cfa: sp 0 + .ra: lr
STACK CFI 17de4 .cfa: sp 16 + .ra: .cfa -4 + ^ r4: .cfa -16 + ^ r5: .cfa -12 + ^ r6: .cfa -8 + ^
STACK CFI 17de8 .cfa: sp 64 +
STACK CFI INIT 17fe4 668 .cfa: sp 0 + .ra: lr
STACK CFI 17fec .cfa: sp 36 + .ra: .cfa -4 + ^ r10: .cfa -12 + ^ r11: .cfa -8 + ^ r4: .cfa -36 + ^ r5: .cfa -32 + ^ r6: .cfa -28 + ^ r7: .cfa -24 + ^ r8: .cfa -20 + ^ r9: .cfa -16 + ^
STACK CFI 17ff0 .cfa: sp 136 +
STACK CFI INIT 1864c f4 .cfa: sp 0 + .ra: lr
STACK CFI 18650 .cfa: sp 16 + .ra: .cfa -4 + ^ r4: .cfa -16 + ^ r5: .cfa -12 + ^ r6: .cfa -8 + ^
STACK CFI 18660 .cfa: sp 40 +
STACK CFI INIT 18740 10 .cfa: sp 0 + .ra: lr
STACK CFI INIT 18750 10 .cfa: sp 0 + .ra: lr
STACK CFI INIT 18760 10 .cfa: sp 0 + .ra: lr
STACK CFI INIT 18770 14 .cfa: sp 0 + .ra: lr
STACK CFI INIT 18784 18 .cfa: sp 0 + .ra: lr
STACK CFI INIT 1879c 20 .cfa: sp 0 + .ra: lr
STACK CFI INIT 187bc 14 .cfa: sp 0 + .ra: lr
STACK CFI INIT 187d0 14 .cfa: sp 0 + .ra: lr
STACK CFI INIT 187e4 34 .cfa: sp 0 + .ra: lr
STACK CFI INIT 18818 14 .cfa: sp 0 + .ra: lr
STACK CFI INIT 1882c 20 .cfa: sp 0 + .ra: lr
STACK CFI INIT 1884c 20 .cfa: sp 0 + .ra: lr
STACK CFI INIT 1886c 30 .cfa: sp 0 + .ra: lr
STACK CFI INIT 1889c 30 .cfa: sp 0 + .ra: lr
STACK CFI INIT 188cc 14 .cfa: sp 0 + .ra: lr
STACK CFI INIT 188e0 28 .cfa: sp 0 + .ra: lr
STACK CFI INIT 18908 74 .cfa: sp 0 + .ra: lr
STACK CFI 1890c .cfa: sp 4 + r4: .cfa -4 + ^
STACK CFI INIT 1897c e28 .cfa: sp 0 + .ra: lr
STACK CFI 18984 .cfa: sp 28 + .ra: .cfa -4 + ^ r4: .cfa -28 + ^ r5: .cfa -24 + ^ r6: .cfa -20 + ^ r7: .cfa -16 + ^ r8: .cfa -12 + ^ r9: .cfa -8 + ^
STACK CFI 18988 .cfa: sp 40 +
STACK CFI INIT 197a4 98 .cfa: sp 0 + .ra: lr
STACK CFI 197a8 .cfa: sp 16 + .ra: .cfa -4 + ^ r3: .cfa -16 + ^ r4: .cfa -12 + ^ r5: .cfa -8 + ^
STACK CFI INIT 1983c 4 .cfa: sp 0 + .ra: lr
STACK CFI INIT 19840 20c .cfa: sp 0 + .ra: lr
STACK CFI 1984c .cfa: sp 36 + .ra: .cfa -4 + ^ r10: .cfa -12 + ^ r11: .cfa -8 + ^ r4: .cfa -36 + ^ r5: .cfa -32 + ^ r6: .cfa -28 + ^ r7: .cfa -24 + ^ r8: .cfa -20 + ^ r9: .cfa -16 + ^
STACK CFI 19854 .cfa: sp 48 +
STACK CFI INIT 19a50 30 .cfa: sp 0 + .ra: lr
STACK CFI INIT 19a80 84 .cfa: sp 0 + .ra: lr
STACK CFI INIT 19b04 e0 .cfa: sp 0 + .ra: lr
STACK CFI 19b08 .cfa: sp 8 + .ra: .cfa -4 + ^ r3: .cfa -8 + ^
STACK CFI 19b10 .cfa: sp 24 + s16: .cfa -24 + ^ s18: .cfa -16 + ^
STACK CFI INIT 19be4 1320 .cfa: sp 0 + .ra: lr
STACK CFI 19bec .cfa: sp 36 + .ra: .cfa -4 + ^ r10: .cfa -12 + ^ r11: .cfa -8 + ^ r4: .cfa -36 + ^ r5: .cfa -32 + ^ r6: .cfa -28 + ^ r7: .cfa -24 + ^ r8: .cfa -20 + ^ r9: .cfa -16 + ^
STACK CFI 19bf0 .cfa: sp 76 + s16: .cfa -76 + ^ s18: .cfa -68 + ^ s20: .cfa -60 + ^ s22: .cfa -52 + ^ s24: .cfa -44 + ^
STACK CFI 19bf4 .cfa: sp 136 +
STACK CFI INIT 1af04 d4 .cfa: sp 0 + .ra: lr
STACK CFI 1af08 .cfa: sp 24 + .ra: .cfa -4 + ^ r3: .cfa -24 + ^ r4: .cfa -20 + ^ r5: .cfa -16 + ^ r6: .cfa -12 + ^ r7: .cfa -8 + ^
STACK CFI INIT 1afd8 f8 .cfa: sp 0 + .ra: lr
STACK CFI 1afdc .cfa: sp 24 + .ra: .cfa -4 + ^ r3: .cfa -24 + ^ r4: .cfa -20 + ^ r5: .cfa -16 + ^ r6: .cfa -12 + ^ r7: .cfa -8 + ^
STACK CFI INIT 1b0d0 118 .cfa: sp 0 + .ra: lr
STACK CFI 1b0d8 .cfa: sp 16 + r4: .cfa -16 + ^ r5: .cfa -12 + ^ r6: .cfa -8 + ^ r7: .cfa -4 + ^
STACK CFI INIT 1b1e8 c4 .cfa: sp 0 + .ra: lr
STACK CFI 1b1f0 .cfa: sp 8 + r4: .cfa -8 + ^ r5: .cfa -4 + ^
STACK CFI INIT 1b2ac 21c .cfa: sp 0 + .ra: lr
STACK CFI 1b2b0 .cfa: sp 32 + r10: .cfa -8 + ^ r11: .cfa -4 + ^ r4: .cfa -32 + ^ r5: .cfa -28 + ^ r6: .cfa -24 + ^ r7: .cfa -20 + ^ r8: .cfa -16 + ^ r9: .cfa -12 + ^
STACK CFI INIT 1b4c8 220 .cfa: sp 0 + .ra: lr
STACK CFI 1b4d4 .cfa: sp 32 + .ra: .cfa -4 + ^ r10: .cfa -8 + ^ r4: .cfa -32 + ^ r5: .cfa -28 + ^ r6: .cfa -24 + ^ r7: .cfa -20 + ^ r8: .cfa -16 + ^ r9: .cfa -12 + ^
STACK CFI 1b4dc .cfa: sp 40 + s16: .cfa -40 + ^
STACK CFI INIT 1b6e8 108 .cfa: sp 0 + .ra: lr
STACK CFI 1b6f4 .cfa: sp 32 + .ra: .cfa -4 + ^ r3: .cfa -32 + ^ r4: .cfa -28 + ^ r5: .cfa -24 + ^ r6: .cfa -20 + ^ r7: .cfa -16 + ^ r8: .cfa -12 + ^ r9: .cfa -8 + ^
STACK CFI INIT 1b7f0 108 .cfa: sp 0 + .ra: lr
STACK CFI 1b7fc .cfa: sp 32 + .ra: .cfa -4 + ^ r3: .cfa -32 + ^ r4: .cfa -28 + ^ r5: .cfa -24 + ^ r6: .cfa -20 + ^ r7: .cfa -16 + ^ r8: .cfa -12 + ^ r9: .cfa -8 + ^
STACK CFI INIT 1b8f8 10c .cfa: sp 0 + .ra: lr
STACK CFI 1b904 .cfa: sp 32 + .ra: .cfa -4 + ^ r3: .cfa -32 + ^ r4: .cfa -28 + ^ r5: .cfa -24 + ^ r6: .cfa -20 + ^ r7: .cfa -16 + ^ r8: .cfa -12 + ^ r9: .cfa -8 + ^
STACK CFI INIT 1ba04 114 .cfa: sp 0 + .ra: lr
STACK CFI 1ba10 .cfa: sp 40 + .ra: .cfa -4 + ^ r10: .cfa -12 + ^ r11: .cfa -8 + ^ r3: .cfa -40 + ^ r4: .cfa -36 + ^ r5: .cfa -32 + ^ r6: .cfa -28 + ^ r7: .cfa -24 + ^ r8: .cfa -20 + ^ r9: .cfa -16 + ^
STACK CFI INIT 1bb18 124 .cfa: sp 0 + .ra: lr
STACK CFI 1bb24 .cfa: sp 40 + .ra: .cfa -4 + ^ r10: .cfa -12 + ^ r11: .cfa -8 + ^ r3: .cfa -40 + ^ r4: .cfa -36 + ^ r5: .cfa -32 + ^ r6: .cfa -28 + ^ r7: .cfa -24 + ^ r8: .cfa -20 + ^ r9: .cfa -16 + ^
STACK CFI INIT 1bc3c 130 .cfa: sp 0 + .ra: lr
STACK CFI 1bc48 .cfa: sp 32 + .ra: .cfa -4 + ^ r10: .cfa -8 + ^ r4: .cfa -32 + ^ r5: .cfa -28 + ^ r6: .cfa -24 + ^ r7: .cfa -20 + ^ r8: .cfa -16 + ^ r9: .cfa -12 + ^
STACK CFI 1bc50 .cfa: sp 40 + s16: .cfa -40 + ^
STACK CFI INIT 1bd6c 130 .cfa: sp 0 + .ra: lr
STACK CFI 1bd78 .cfa: sp 32 + .ra: .cfa -4 + ^ r10: .cfa -8 + ^ r4: .cfa -32 + ^ r5: .cfa -28 + ^ r6: .cfa -24 + ^ r7: .cfa -20 + ^ r8: .cfa -16 + ^ r9: .cfa -12 + ^
STACK CFI 1bd80 .cfa: sp 40 + s16: .cfa -40 + ^
STACK CFI INIT 1be9c 134 .cfa: sp 0 + .ra: lr
STACK CFI 1bea8 .cfa: sp 24 + .ra: .cfa -4 + ^ r3: .cfa -24 + ^ r4: .cfa -20 + ^ r5: .cfa -16 + ^ r6: .cfa -12 + ^ r7: .cfa -8 + ^
STACK CFI INIT 1bfd0 138 .cfa: sp 0 + .ra: lr
STACK CFI 1bfdc .cfa: sp 24 + .ra: .cfa -4 + ^ r4: .cfa -24 + ^ r5: .cfa -20 + ^ r6: .cfa -16 + ^ r7: .cfa -12 + ^ r8: .cfa -8 + ^
STACK CFI INIT 1c108 134 .cfa: sp 0 + .ra: lr
STACK CFI 1c114 .cfa: sp 24 + .ra: .cfa -4 + ^ r4: .cfa -24 + ^ r5: .cfa -20 + ^ r6: .cfa -16 + ^ r7: .cfa -12 + ^ r8: .cfa -8 + ^
STACK CFI INIT 1c23c f0 .cfa: sp 0 + .ra: lr
STACK CFI 1c248 .cfa: sp 24 + .ra: .cfa -4 + ^ r4: .cfa -24 + ^ r5: .cfa -20 + ^ r6: .cfa -16 + ^ r7: .cfa -12 + ^ r8: .cfa -8 + ^
STACK CFI INIT 1c32c f0 .cfa: sp 0 + .ra: lr
STACK CFI 1c338 .cfa: sp 24 + .ra: .cfa -4 + ^ r4: .cfa -24 + ^ r5: .cfa -20 + ^ r6: .cfa -16 + ^ r7: .cfa -12 + ^ r8: .cfa -8 + ^
STACK CFI INIT 1c420 248 .cfa: sp 0 + .ra: lr
STACK CFI 1c428 .cfa: sp 12 + r4: .cfa -12 + ^ r5: .cfa -8 + ^ r6: .cfa -4 + ^
STACK CFI INIT 1c668 1e0 .cfa: sp 0 + .ra: lr
STACK CFI 1c670 .cfa: sp 32 + r10: .cfa -8 + ^ r11: .cfa -4 + ^ r4: .cfa -32 + ^ r5: .cfa -28 + ^ r6: .cfa -24 + ^ r7: .cfa -20 + ^ r8: .cfa -16 + ^ r9: .cfa -12 + ^
STACK CFI 1c674 .cfa: sp 40 +
STACK CFI INIT 1c848 1c0 .cfa: sp 0 + .ra: lr
STACK CFI 1c850 .cfa: sp 32 + r10: .cfa -8 + ^ r11: .cfa -4 + ^ r4: .cfa -32 + ^ r5: .cfa -28 + ^ r6: .cfa -24 + ^ r7: .cfa -20 + ^ r8: .cfa -16 + ^ r9: .cfa -12 + ^
STACK CFI 1c854 .cfa: sp 40 +
STACK CFI INIT 1ca08 1cc .cfa: sp 0 + .ra: lr
STACK CFI 1ca10 .cfa: sp 32 + r10: .cfa -8 + ^ r11: .cfa -4 + ^ r4: .cfa -32 + ^ r5: .cfa -28 + ^ r6: .cfa -24 + ^ r7: .cfa -20 + ^ r8: .cfa -16 + ^ r9: .cfa -12 + ^
STACK CFI 1ca14 .cfa: sp 40 +
STACK CFI INIT 1cbd4 204 .cfa: sp 0 + .ra: lr
STACK CFI 1cbdc .cfa: sp 12 + r4: .cfa -12 + ^ r5: .cfa -8 + ^ r6: .cfa -4 + ^
STACK CFI INIT 1cdd8 334 .cfa: sp 0 + .ra: lr
STACK CFI 1cde0 .cfa: sp 32 + r10: .cfa -8 + ^ r11: .cfa -4 + ^ r4: .cfa -32 + ^ r5: .cfa -28 + ^ r6: .cfa -24 + ^ r7: .cfa -20 + ^ r8: .cfa -16 + ^ r9: .cfa -12 + ^
STACK CFI 1cde4 .cfa: sp 40 +
STACK CFI INIT 1d10c 334 .cfa: sp 0 + .ra: lr
STACK CFI 1d114 .cfa: sp 32 + r10: .cfa -8 + ^ r11: .cfa -4 + ^ r4: .cfa -32 + ^ r5: .cfa -28 + ^ r6: .cfa -24 + ^ r7: .cfa -20 + ^ r8: .cfa -16 + ^ r9: .cfa -12 + ^
STACK CFI 1d118 .cfa: sp 40 +
STACK CFI INIT 1d440 1d8 .cfa: sp 0 + .ra: lr
STACK CFI 1d448 .cfa: sp 32 + r10: .cfa -8 + ^ r11: .cfa -4 + ^ r4: .cfa -32 + ^ r5: .cfa -28 + ^ r6: .cfa -24 + ^ r7: .cfa -20 + ^ r8: .cfa -16 + ^ r9: .cfa -12 + ^
STACK CFI 1d44c .cfa: sp 40 +
STACK CFI INIT 1d618 2e4 .cfa: sp 0 + .ra: lr
STACK CFI 1d620 .cfa: sp 20 + r4: .cfa -20 + ^ r5: .cfa -16 + ^ r6: .cfa -12 + ^ r7: .cfa -8 + ^ r8: .cfa -4 + ^
STACK CFI INIT 1d8fc 618 .cfa: sp 0 + .ra: lr
STACK CFI 1d904 .cfa: sp 32 + r10: .cfa -8 + ^ r11: .cfa -4 + ^ r4: .cfa -32 + ^ r5: .cfa -28 + ^ r6: .cfa -24 + ^ r7: .cfa -20 + ^ r8: .cfa -16 + ^ r9: .cfa -12 + ^
STACK CFI 1d908 .cfa: sp 96 + s16: .cfa -96 + ^ s18: .cfa -88 + ^ s20: .cfa -80 + ^ s22: .cfa -72 + ^ s24: .cfa -64 + ^ s26: .cfa -56 + ^ s28: .cfa -48 + ^ s30: .cfa -40 + ^
STACK CFI 1d90c .cfa: sp 104 +
STACK CFI INIT 1df14 680 .cfa: sp 0 + .ra: lr
STACK CFI 1df1c .cfa: sp 32 + r10: .cfa -8 + ^ r11: .cfa -4 + ^ r4: .cfa -32 + ^ r5: .cfa -28 + ^ r6: .cfa -24 + ^ r7: .cfa -20 + ^ r8: .cfa -16 + ^ r9: .cfa -12 + ^
STACK CFI 1df20 .cfa: sp 96 + s16: .cfa -96 + ^ s18: .cfa -88 + ^ s20: .cfa -80 + ^ s22: .cfa -72 + ^ s24: .cfa -64 + ^ s26: .cfa -56 + ^ s28: .cfa -48 + ^ s30: .cfa -40 + ^
STACK CFI 1df24 .cfa: sp 104 +
STACK CFI INIT 1e594 2dc .cfa: sp 0 + .ra: lr
STACK CFI 1e59c .cfa: sp 28 + r10: .cfa -4 + ^ r4: .cfa -28 + ^ r5: .cfa -24 + ^ r6: .cfa -20 + ^ r7: .cfa -16 + ^ r8: .cfa -12 + ^ r9: .cfa -8 + ^
STACK CFI 1e5a0 .cfa: sp 60 + s16: .cfa -60 + ^ s18: .cfa -52 + ^ s20: .cfa -44 + ^ s22: .cfa -36 + ^
STACK CFI 1e5a4 .cfa: sp 128 +
STACK CFI INIT 1e870 470 .cfa: sp 0 + .ra: lr
STACK CFI 1e878 .cfa: sp 32 + r10: .cfa -8 + ^ r11: .cfa -4 + ^ r4: .cfa -32 + ^ r5: .cfa -28 + ^ r6: .cfa -24 + ^ r7: .cfa -20 + ^ r8: .cfa -16 + ^ r9: .cfa -12 + ^
STACK CFI 1e87c .cfa: sp 96 + s16: .cfa -96 + ^ s18: .cfa -88 + ^ s20: .cfa -80 + ^ s22: .cfa -72 + ^ s24: .cfa -64 + ^ s26: .cfa -56 + ^ s28: .cfa -48 + ^ s30: .cfa -40 + ^
STACK CFI 1e880 .cfa: sp 104 +
STACK CFI INIT 1ece0 228 .cfa: sp 0 + .ra: lr
STACK CFI 1ece8 .cfa: sp 32 + r10: .cfa -8 + ^ r11: .cfa -4 + ^ r4: .cfa -32 + ^ r5: .cfa -28 + ^ r6: .cfa -24 + ^ r7: .cfa -20 + ^ r8: .cfa -16 + ^ r9: .cfa -12 + ^
STACK CFI 1ecec .cfa: sp 48 +
STACK CFI INIT 1ef08 308 .cfa: sp 0 + .ra: lr
STACK CFI 1ef10 .cfa: sp 28 + r10: .cfa -4 + ^ r4: .cfa -28 + ^ r5: .cfa -24 + ^ r6: .cfa -20 + ^ r7: .cfa -16 + ^ r8: .cfa -12 + ^ r9: .cfa -8 + ^
STACK CFI INIT 1f210 308 .cfa: sp 0 + .ra: lr
STACK CFI 1f218 .cfa: sp 28 + r10: .cfa -4 + ^ r4: .cfa -28 + ^ r5: .cfa -24 + ^ r6: .cfa -20 + ^ r7: .cfa -16 + ^ r8: .cfa -12 + ^ r9: .cfa -8 + ^
STACK CFI INIT 1f518 118 .cfa: sp 0 + .ra: lr
STACK CFI 1f520 .cfa: sp 20 + r4: .cfa -20 + ^ r5: .cfa -16 + ^ r6: .cfa -12 + ^ r7: .cfa -8 + ^ r8: .cfa -4 + ^
STACK CFI 1f524 .cfa: sp 36 + s16: .cfa -36 + ^ s18: .cfa -28 + ^
STACK CFI INIT 1f630 12c .cfa: sp 0 + .ra: lr
STACK CFI 1f638 .cfa: sp 20 + r4: .cfa -20 + ^ r5: .cfa -16 + ^ r6: .cfa -12 + ^ r7: .cfa -8 + ^ r8: .cfa -4 + ^
STACK CFI INIT 1f75c 2dc .cfa: sp 0 + .ra: lr
STACK CFI 1f764 .cfa: sp 24 + r4: .cfa -24 + ^ r5: .cfa -20 + ^ r6: .cfa -16 + ^ r7: .cfa -12 + ^ r8: .cfa -8 + ^ r9: .cfa -4 + ^
STACK CFI 1f768 .cfa: sp 88 + s16: .cfa -88 + ^ s18: .cfa -80 + ^ s20: .cfa -72 + ^ s22: .cfa -64 + ^ s24: .cfa -56 + ^ s26: .cfa -48 + ^ s28: .cfa -40 + ^ s30: .cfa -32 + ^
STACK CFI 1f76c .cfa: sp 168 +
STACK CFI INIT 1fa38 12c .cfa: sp 0 + .ra: lr
STACK CFI 1fa40 .cfa: sp 20 + r4: .cfa -20 + ^ r5: .cfa -16 + ^ r6: .cfa -12 + ^ r7: .cfa -8 + ^ r8: .cfa -4 + ^
STACK CFI INIT 1fb64 3b0 .cfa: sp 0 + .ra: lr
STACK CFI 1fb6c .cfa: sp 20 + r4: .cfa -20 + ^ r5: .cfa -16 + ^ r6: .cfa -12 + ^ r7: .cfa -8 + ^ r8: .cfa -4 + ^
STACK CFI 1fb70 .cfa: sp 84 + s16: .cfa -84 + ^ s18: .cfa -76 + ^ s20: .cfa -68 + ^ s22: .cfa -60 + ^ s24: .cfa -52 + ^ s26: .cfa -44 + ^ s28: .cfa -36 + ^ s30: .cfa -28 + ^
STACK CFI 1fb74 .cfa: sp 216 +
STACK CFI INIT 1ff14 ec .cfa: sp 0 + .ra: lr
STACK CFI 1ff18 .cfa: sp 40 + .ra: .cfa -4 + ^ r10: .cfa -12 + ^ r11: .cfa -8 + ^ r3: .cfa -40 + ^ r4: .cfa -36 + ^ r5: .cfa -32 + ^ r6: .cfa -28 + ^ r7: .cfa -24 + ^ r8: .cfa -20 + ^ r9: .cfa -16 + ^
STACK CFI INIT 20000 36c .cfa: sp 0 + .ra: lr
STACK CFI 20008 .cfa: sp 32 + r10: .cfa -8 + ^ r11: .cfa -4 + ^ r4: .cfa -32 + ^ r5: .cfa -28 + ^ r6: .cfa -24 + ^ r7: .cfa -20 + ^ r8: .cfa -16 + ^ r9: .cfa -12 + ^
STACK CFI 2000c .cfa: sp 40 +
STACK CFI INIT 2036c 144 .cfa: sp 0 + .ra: lr
STACK CFI 20374 .cfa: sp 20 + r4: .cfa -20 + ^ r5: .cfa -16 + ^ r6: .cfa -12 + ^ r7: .cfa -8 + ^ r8: .cfa -4 + ^
STACK CFI INIT 204b0 418 .cfa: sp 0 + .ra: lr
STACK CFI 204b8 .cfa: sp 20 + r4: .cfa -20 + ^ r5: .cfa -16 + ^ r6: .cfa -12 + ^ r7: .cfa -8 + ^ r8: .cfa -4 + ^
STACK CFI 204bc .cfa: sp 84 + s16: .cfa -84 + ^ s18: .cfa -76 + ^ s20: .cfa -68 + ^ s22: .cfa -60 + ^ s24: .cfa -52 + ^ s26: .cfa -44 + ^ s28: .cfa -36 + ^ s30: .cfa -28 + ^
STACK CFI 204c0 .cfa: sp 200 +
STACK CFI INIT 208c8 120 .cfa: sp 0 + .ra: lr
STACK CFI 208d0 .cfa: sp 16 + r4: .cfa -16 + ^ r5: .cfa -12 + ^ r6: .cfa -8 + ^ r7: .cfa -4 + ^
STACK CFI INIT 209e8 264 .cfa: sp 0 + .ra: lr
STACK CFI 209f0 .cfa: sp 24 + r4: .cfa -24 + ^ r5: .cfa -20 + ^ r6: .cfa -16 + ^ r7: .cfa -12 + ^ r8: .cfa -8 + ^ r9: .cfa -4 + ^
STACK CFI INIT 20c4c 54 .cfa: sp 0 + .ra: lr
STACK CFI 20c54 .cfa: sp 4 + r4: .cfa -4 + ^
STACK CFI INIT 20ca0 178 .cfa: sp 0 + .ra: lr
STACK CFI 20ca8 .cfa: sp 16 + r4: .cfa -16 + ^ r5: .cfa -12 + ^ r6: .cfa -8 + ^ r7: .cfa -4 + ^
STACK CFI INIT 20e18 138 .cfa: sp 0 + .ra: lr
STACK CFI 20e20 .cfa: sp 16 + r4: .cfa -16 + ^ r5: .cfa -12 + ^ r6: .cfa -8 + ^ r7: .cfa -4 + ^
STACK CFI INIT 20f50 338 .cfa: sp 0 + .ra: lr
STACK CFI 20f58 .cfa: sp 24 + r4: .cfa -24 + ^ r5: .cfa -20 + ^ r6: .cfa -16 + ^ r7: .cfa -12 + ^ r8: .cfa -8 + ^ r9: .cfa -4 + ^
STACK CFI INIT 21288 68 .cfa: sp 0 + .ra: lr
STACK CFI 21290 .cfa: sp 4 + r4: .cfa -4 + ^
STACK CFI INIT 212f0 178 .cfa: sp 0 + .ra: lr
STACK CFI 212f8 .cfa: sp 12 + r4: .cfa -12 + ^ r5: .cfa -8 + ^ r6: .cfa -4 + ^
STACK CFI INIT 21468 338 .cfa: sp 0 + .ra: lr
STACK CFI 21470 .cfa: sp 32 + r10: .cfa -8 + ^ r11: .cfa -4 + ^ r4: .cfa -32 + ^ r5: .cfa -28 + ^ r6: .cfa -24 + ^ r7: .cfa -20 + ^ r8: .cfa -16 + ^ r9: .cfa -12 + ^
STACK CFI 21474 .cfa: sp 40 +
STACK CFI INIT 217a0 1d8 .cfa: sp 0 + .ra: lr
STACK CFI 217a8 .cfa: sp 32 + r10: .cfa -8 + ^ r11: .cfa -4 + ^ r4: .cfa -32 + ^ r5: .cfa -28 + ^ r6: .cfa -24 + ^ r7: .cfa -20 + ^ r8: .cfa -16 + ^ r9: .cfa -12 + ^
STACK CFI 217ac .cfa: sp 40 +
STACK CFI INIT 21978 530 .cfa: sp 0 + .ra: lr
STACK CFI 21980 .cfa: sp 32 + r10: .cfa -8 + ^ r11: .cfa -4 + ^ r4: .cfa -32 + ^ r5: .cfa -28 + ^ r6: .cfa -24 + ^ r7: .cfa -20 + ^ r8: .cfa -16 + ^ r9: .cfa -12 + ^
STACK CFI 21984 .cfa: sp 96 + s16: .cfa -96 + ^ s18: .cfa -88 + ^ s20: .cfa -80 + ^ s22: .cfa -72 + ^ s24: .cfa -64 + ^ s26: .cfa -56 + ^ s28: .cfa -48 + ^ s30: .cfa -40 + ^
STACK CFI 21988 .cfa: sp 112 +
STACK CFI INIT 21ea8 4f0 .cfa: sp 0 + .ra: lr
STACK CFI 21eb0 .cfa: sp 32 + r10: .cfa -8 + ^ r11: .cfa -4 + ^ r4: .cfa -32 + ^ r5: .cfa -28 + ^ r6: .cfa -24 + ^ r7: .cfa -20 + ^ r8: .cfa -16 + ^ r9: .cfa -12 + ^
STACK CFI 21eb4 .cfa: sp 96 + s16: .cfa -96 + ^ s18: .cfa -88 + ^ s20: .cfa -80 + ^ s22: .cfa -72 + ^ s24: .cfa -64 + ^ s26: .cfa -56 + ^ s28: .cfa -48 + ^ s30: .cfa -40 + ^
STACK CFI 21eb8 .cfa: sp 128 +
STACK CFI INIT 22398 3e0 .cfa: sp 0 + .ra: lr
STACK CFI 223a0 .cfa: sp 24 + r4: .cfa -24 + ^ r5: .cfa -20 + ^ r6: .cfa -16 + ^ r7: .cfa -12 + ^ r8: .cfa -8 + ^ r9: .cfa -4 + ^
STACK CFI INIT 22778 3e4 .cfa: sp 0 + .ra: lr
STACK CFI 22780 .cfa: sp 24 + r4: .cfa -24 + ^ r5: .cfa -20 + ^ r6: .cfa -16 + ^ r7: .cfa -12 + ^ r8: .cfa -8 + ^ r9: .cfa -4 + ^
STACK CFI INIT 22b5c 30c .cfa: sp 0 + .ra: lr
STACK CFI 22b64 .cfa: sp 24 + r4: .cfa -24 + ^ r5: .cfa -20 + ^ r6: .cfa -16 + ^ r7: .cfa -12 + ^ r8: .cfa -8 + ^ r9: .cfa -4 + ^
STACK CFI INIT 22e68 314 .cfa: sp 0 + .ra: lr
STACK CFI 22e70 .cfa: sp 24 + r4: .cfa -24 + ^ r5: .cfa -20 + ^ r6: .cfa -16 + ^ r7: .cfa -12 + ^ r8: .cfa -8 + ^ r9: .cfa -4 + ^
STACK CFI INIT 2317c 264 .cfa: sp 0 + .ra: lr
STACK CFI 23184 .cfa: sp 32 + r10: .cfa -8 + ^ r11: .cfa -4 + ^ r4: .cfa -32 + ^ r5: .cfa -28 + ^ r6: .cfa -24 + ^ r7: .cfa -20 + ^ r8: .cfa -16 + ^ r9: .cfa -12 + ^
STACK CFI INIT 233e0 264 .cfa: sp 0 + .ra: lr
STACK CFI 233e8 .cfa: sp 32 + r10: .cfa -8 + ^ r11: .cfa -4 + ^ r4: .cfa -32 + ^ r5: .cfa -28 + ^ r6: .cfa -24 + ^ r7: .cfa -20 + ^ r8: .cfa -16 + ^ r9: .cfa -12 + ^
STACK CFI INIT 23644 38 .cfa: sp 0 + .ra: lr
STACK CFI INIT 2367c 38 .cfa: sp 0 + .ra: lr
STACK CFI INIT 236b4 74 .cfa: sp 0 + .ra: lr
STACK CFI 236bc .cfa: sp 32 + r10: .cfa -8 + ^ r11: .cfa -4 + ^ r4: .cfa -32 + ^ r5: .cfa -28 + ^ r6: .cfa -24 + ^ r7: .cfa -20 + ^ r8: .cfa -16 + ^ r9: .cfa -12 + ^
STACK CFI INIT 23728 7c .cfa: sp 0 + .ra: lr
STACK CFI 23730 .cfa: sp 32 + r10: .cfa -8 + ^ r11: .cfa -4 + ^ r4: .cfa -32 + ^ r5: .cfa -28 + ^ r6: .cfa -24 + ^ r7: .cfa -20 + ^ r8: .cfa -16 + ^ r9: .cfa -12 + ^
STACK CFI INIT 237a4 88 .cfa: sp 0 + .ra: lr
STACK CFI 237ac .cfa: sp 32 + r10: .cfa -8 + ^ r11: .cfa -4 + ^ r4: .cfa -32 + ^ r5: .cfa -28 + ^ r6: .cfa -24 + ^ r7: .cfa -20 + ^ r8: .cfa -16 + ^ r9: .cfa -12 + ^
STACK CFI INIT 2382c 330 .cfa: sp 0 + .ra: lr
STACK CFI 23834 .cfa: sp 32 + r10: .cfa -8 + ^ r11: .cfa -4 + ^ r4: .cfa -32 + ^ r5: .cfa -28 + ^ r6: .cfa -24 + ^ r7: .cfa -20 + ^ r8: .cfa -16 + ^ r9: .cfa -12 + ^
STACK CFI 23838 .cfa: sp 56 +
STACK CFI INIT 23b5c 2f8 .cfa: sp 0 + .ra: lr
STACK CFI 23b64 .cfa: sp 32 + r10: .cfa -8 + ^ r11: .cfa -4 + ^ r4: .cfa -32 + ^ r5: .cfa -28 + ^ r6: .cfa -24 + ^ r7: .cfa -20 + ^ r8: .cfa -16 + ^ r9: .cfa -12 + ^
STACK CFI 23b68 .cfa: sp 56 +
STACK CFI INIT 23e54 4c .cfa: sp 0 + .ra: lr
STACK CFI 23e5c .cfa: sp 8 + r4: .cfa -8 + ^ r5: .cfa -4 + ^
STACK CFI INIT 23ea0 4c .cfa: sp 0 + .ra: lr
STACK CFI 23ea8 .cfa: sp 4 + r4: .cfa -4 + ^
STACK CFI INIT 23eec 54 .cfa: sp 0 + .ra: lr
STACK CFI 23ef4 .cfa: sp 8 + r4: .cfa -8 + ^ r5: .cfa -4 + ^
STACK CFI INIT 23f40 a0 .cfa: sp 0 + .ra: lr
STACK CFI 23f48 .cfa: sp 16 + r4: .cfa -16 + ^ r5: .cfa -12 + ^ r6: .cfa -8 + ^ r7: .cfa -4 + ^
STACK CFI INIT 23fe0 2c4 .cfa: sp 0 + .ra: lr
STACK CFI 23fe4 .cfa: sp 24 + .ra: .cfa -4 + ^ r4: .cfa -24 + ^ r5: .cfa -20 + ^ r6: .cfa -16 + ^ r7: .cfa -12 + ^ r8: .cfa -8 + ^
STACK CFI 23ff0 .cfa: sp 32 +
STACK CFI INIT 242a4 54 .cfa: sp 0 + .ra: lr
STACK CFI 242ac .cfa: sp 16 + r4: .cfa -16 + ^ r5: .cfa -12 + ^ r6: .cfa -8 + ^ r7: .cfa -4 + ^
STACK CFI INIT 242f8 1b0 .cfa: sp 0 + .ra: lr
STACK CFI 242fc .cfa: sp 32 + .ra: .cfa -4 + ^ r10: .cfa -8 + ^ r4: .cfa -32 + ^ r5: .cfa -28 + ^ r6: .cfa -24 + ^ r7: .cfa -20 + ^ r8: .cfa -16 + ^ r9: .cfa -12 + ^
STACK CFI 24304 .cfa: sp 72 + s16: .cfa -72 + ^ s18: .cfa -64 + ^ s20: .cfa -56 + ^ s22: .cfa -48 + ^ s24: .cfa -40 + ^
STACK CFI INIT 244a8 310 .cfa: sp 0 + .ra: lr
STACK CFI 244ac .cfa: sp 36 + .ra: .cfa -4 + ^ r10: .cfa -12 + ^ r11: .cfa -8 + ^ r4: .cfa -36 + ^ r5: .cfa -32 + ^ r6: .cfa -28 + ^ r7: .cfa -24 + ^ r8: .cfa -20 + ^ r9: .cfa -16 + ^
STACK CFI 244b8 .cfa: sp 64 +
STACK CFI INIT 247b8 14 .cfa: sp 0 + .ra: lr
STACK CFI INIT 247cc 258 .cfa: sp 0 + .ra: lr
STACK CFI 247d0 .cfa: sp 36 + .ra: .cfa -4 + ^ r10: .cfa -12 + ^ r11: .cfa -8 + ^ r4: .cfa -36 + ^ r5: .cfa -32 + ^ r6: .cfa -28 + ^ r7: .cfa -24 + ^ r8: .cfa -20 + ^ r9: .cfa -16 + ^
STACK CFI 247d8 .cfa: sp 92 + s16: .cfa -92 + ^ s18: .cfa -84 + ^ s20: .cfa -76 + ^ s22: .cfa -68 + ^ s24: .cfa -60 + ^ s26: .cfa -52 + ^ s28: .cfa -44 + ^
STACK CFI 247e0 .cfa: sp 104 +
STACK CFI INIT 24a24 76c .cfa: sp 0 + .ra: lr
STACK CFI 24a28 .cfa: sp 36 + .ra: .cfa -4 + ^ r10: .cfa -12 + ^ r11: .cfa -8 + ^ r4: .cfa -36 + ^ r5: .cfa -32 + ^ r6: .cfa -28 + ^ r7: .cfa -24 + ^ r8: .cfa -20 + ^ r9: .cfa -16 + ^
STACK CFI 24a30 .cfa: sp 112 +
STACK CFI INIT 25190 428 .cfa: sp 0 + .ra: lr
STACK CFI 25194 .cfa: sp 36 + .ra: .cfa -4 + ^ r10: .cfa -12 + ^ r11: .cfa -8 + ^ r4: .cfa -36 + ^ r5: .cfa -32 + ^ r6: .cfa -28 + ^ r7: .cfa -24 + ^ r8: .cfa -20 + ^ r9: .cfa -16 + ^
STACK CFI 2519c .cfa: sp 56 +
STACK CFI INIT 255b8 1b8 .cfa: sp 0 + .ra: lr
STACK CFI 255bc .cfa: sp 32 + .ra: .cfa -4 + ^ r10: .cfa -8 + ^ r4: .cfa -32 + ^ r5: .cfa -28 + ^ r6: .cfa -24 + ^ r7: .cfa -20 + ^ r8: .cfa -16 + ^ r9: .cfa -12 + ^
STACK CFI 255c4 .cfa: sp 40 +
STACK CFI INIT 25770 f4 .cfa: sp 0 + .ra: lr
STACK CFI 25774 .cfa: sp 20 + .ra: .cfa -4 + ^ r4: .cfa -20 + ^ r5: .cfa -16 + ^ r6: .cfa -12 + ^ r7: .cfa -8 + ^
STACK CFI 25780 .cfa: sp 32 +
STACK CFI INIT 25868 e8 .cfa: sp 0 + .ra: lr
STACK CFI 25870 .cfa: sp 32 + r10: .cfa -8 + ^ r11: .cfa -4 + ^ r4: .cfa -32 + ^ r5: .cfa -28 + ^ r6: .cfa -24 + ^ r7: .cfa -20 + ^ r8: .cfa -16 + ^ r9: .cfa -12 + ^
STACK CFI 25874 .cfa: sp 40 +
STACK CFI INIT 25950 e8 .cfa: sp 0 + .ra: lr
STACK CFI 25958 .cfa: sp 24 + r4: .cfa -24 + ^ r5: .cfa -20 + ^ r6: .cfa -16 + ^ r7: .cfa -12 + ^ r8: .cfa -8 + ^ r9: .cfa -4 + ^
STACK CFI INIT 25a38 c0 .cfa: sp 0 + .ra: lr
STACK CFI 25a3c .cfa: sp 20 + .ra: .cfa -4 + ^ r4: .cfa -20 + ^ r5: .cfa -16 + ^ r6: .cfa -12 + ^ r7: .cfa -8 + ^
STACK CFI 25a44 .cfa: sp 32 +
STACK CFI INIT 25af8 c8 .cfa: sp 0 + .ra: lr
STACK CFI 25afc .cfa: sp 20 + .ra: .cfa -4 + ^ r4: .cfa -20 + ^ r5: .cfa -16 + ^ r6: .cfa -12 + ^ r7: .cfa -8 + ^
STACK CFI 25b04 .cfa: sp 32 +
STACK CFI INIT 25bc0 40 .cfa: sp 0 + .ra: lr
STACK CFI INIT 25c00 dc .cfa: sp 0 + .ra: lr
STACK CFI 25c04 .cfa: sp 28 + .ra: .cfa -4 + ^ r4: .cfa -28 + ^ r5: .cfa -24 + ^ r6: .cfa -20 + ^ r7: .cfa -16 + ^ r8: .cfa -12 + ^ r9: .cfa -8 + ^
STACK CFI 25c0c .cfa: sp 56 +
STACK CFI INIT 25ce0 d8 .cfa: sp 0 + .ra: lr
STACK CFI 25ce8 .cfa: sp 16 + r4: .cfa -16 + ^ r5: .cfa -12 + ^ r6: .cfa -8 + ^ r7: .cfa -4 + ^
STACK CFI 25cec .cfa: sp 24 +
STACK CFI INIT 25db8 120 .cfa: sp 0 + .ra: lr
STACK CFI 25dc0 .cfa: sp 24 + r4: .cfa -24 + ^ r5: .cfa -20 + ^ r6: .cfa -16 + ^ r7: .cfa -12 + ^ r8: .cfa -8 + ^ r9: .cfa -4 + ^
STACK CFI INIT 25ed8 2c .cfa: sp 0 + .ra: lr
STACK CFI INIT 25f04 34 .cfa: sp 0 + .ra: lr
STACK CFI INIT 25f38 34 .cfa: sp 0 + .ra: lr
STACK CFI INIT 25f6c 8c .cfa: sp 0 + .ra: lr
STACK CFI 25f74 .cfa: sp 4 + r4: .cfa -4 + ^
STACK CFI INIT 25ff8 90 .cfa: sp 0 + .ra: lr
STACK CFI 25ffc .cfa: sp 4 + r4: .cfa -4 + ^
STACK CFI INIT 26088 204 .cfa: sp 0 + .ra: lr
STACK CFI 2608c .cfa: sp 32 + r10: .cfa -8 + ^ r11: .cfa -4 + ^ r4: .cfa -32 + ^ r5: .cfa -28 + ^ r6: .cfa -24 + ^ r7: .cfa -20 + ^ r8: .cfa -16 + ^ r9: .cfa -12 + ^
STACK CFI 26090 .cfa: sp 48 +
STACK CFI INIT 2628c 22c .cfa: sp 0 + .ra: lr
STACK CFI 26290 .cfa: sp 32 + r10: .cfa -8 + ^ r11: .cfa -4 + ^ r4: .cfa -32 + ^ r5: .cfa -28 + ^ r6: .cfa -24 + ^ r7: .cfa -20 + ^ r8: .cfa -16 + ^ r9: .cfa -12 + ^
STACK CFI 26294 .cfa: sp 40 +
STACK CFI INIT 264b8 458 .cfa: sp 0 + .ra: lr
STACK CFI 264bc .cfa: sp 36 + .ra: .cfa -4 + ^ r10: .cfa -12 + ^ r11: .cfa -8 + ^ r4: .cfa -36 + ^ r5: .cfa -32 + ^ r6: .cfa -28 + ^ r7: .cfa -24 + ^ r8: .cfa -20 + ^ r9: .cfa -16 + ^
STACK CFI 264c4 .cfa: sp 52 + s16: .cfa -52 + ^ s18: .cfa -44 + ^
STACK CFI 264cc .cfa: sp 88 +
STACK CFI INIT 26910 45c .cfa: sp 0 + .ra: lr
STACK CFI 26914 .cfa: sp 36 + .ra: .cfa -4 + ^ r10: .cfa -12 + ^ r11: .cfa -8 + ^ r4: .cfa -36 + ^ r5: .cfa -32 + ^ r6: .cfa -28 + ^ r7: .cfa -24 + ^ r8: .cfa -20 + ^ r9: .cfa -16 + ^
STACK CFI 2691c .cfa: sp 52 + s16: .cfa -52 + ^ s18: .cfa -44 + ^
STACK CFI 26920 .cfa: sp 96 +
STACK CFI INIT 26d6c 514 .cfa: sp 0 + .ra: lr
STACK CFI 26d70 .cfa: sp 32 + r10: .cfa -8 + ^ r11: .cfa -4 + ^ r4: .cfa -32 + ^ r5: .cfa -28 + ^ r6: .cfa -24 + ^ r7: .cfa -20 + ^ r8: .cfa -16 + ^ r9: .cfa -12 + ^
STACK CFI 26d74 .cfa: sp 88 +
STACK CFI INIT 27280 61c .cfa: sp 0 + .ra: lr
STACK CFI 27284 .cfa: sp 36 + .ra: .cfa -4 + ^ r10: .cfa -12 + ^ r11: .cfa -8 + ^ r4: .cfa -36 + ^ r5: .cfa -32 + ^ r6: .cfa -28 + ^ r7: .cfa -24 + ^ r8: .cfa -20 + ^ r9: .cfa -16 + ^
STACK CFI 2728c .cfa: sp 52 + s16: .cfa -52 + ^ s18: .cfa -44 + ^
STACK CFI 27290 .cfa: sp 128 +
STACK CFI INIT 2789c 780 .cfa: sp 0 + .ra: lr
STACK CFI 278a0 .cfa: sp 36 + .ra: .cfa -4 + ^ r10: .cfa -12 + ^ r11: .cfa -8 + ^ r4: .cfa -36 + ^ r5: .cfa -32 + ^ r6: .cfa -28 + ^ r7: .cfa -24 + ^ r8: .cfa -20 + ^ r9: .cfa -16 + ^
STACK CFI 278a8 .cfa: sp 100 + s16: .cfa -100 + ^ s18: .cfa -92 + ^ s20: .cfa -84 + ^ s22: .cfa -76 + ^ s24: .cfa -68 + ^ s26: .cfa -60 + ^ s28: .cfa -52 + ^ s30: .cfa -44 + ^
STACK CFI 278ac .cfa: sp 144 +
STACK CFI INIT 2801c 60 .cfa: sp 0 + .ra: lr
STACK CFI 28020 .cfa: sp 8 + .ra: .cfa -4 + ^ r3: .cfa -8 + ^
STACK CFI INIT 2807c 7c .cfa: sp 0 + .ra: lr
STACK CFI 28080 .cfa: sp 12 + .ra: .cfa -4 + ^ r4: .cfa -12 + ^ r5: .cfa -8 + ^
STACK CFI 28084 .cfa: sp 24 +
STACK CFI INIT 280f8 59c .cfa: sp 0 + .ra: lr
STACK CFI 280fc .cfa: sp 36 + .ra: .cfa -4 + ^ r10: .cfa -12 + ^ r11: .cfa -8 + ^ r4: .cfa -36 + ^ r5: .cfa -32 + ^ r6: .cfa -28 + ^ r7: .cfa -24 + ^ r8: .cfa -20 + ^ r9: .cfa -16 + ^
STACK CFI 28104 .cfa: sp 76 + s16: .cfa -76 + ^ s18: .cfa -68 + ^ s20: .cfa -60 + ^ s22: .cfa -52 + ^ s24: .cfa -44 + ^
STACK CFI 28108 .cfa: sp 224 +
STACK CFI INIT 28694 188 .cfa: sp 0 + .ra: lr
STACK CFI 28698 .cfa: sp 32 + .ra: .cfa -4 + ^ r10: .cfa -8 + ^ r4: .cfa -32 + ^ r5: .cfa -28 + ^ r6: .cfa -24 + ^ r7: .cfa -20 + ^ r8: .cfa -16 + ^ r9: .cfa -12 + ^
STACK CFI 286a4 .cfa: sp 40 +
STACK CFI INIT 2881c 3d0 .cfa: sp 0 + .ra: lr
STACK CFI 28820 .cfa: sp 36 + .ra: .cfa -4 + ^ r10: .cfa -12 + ^ r11: .cfa -8 + ^ r4: .cfa -36 + ^ r5: .cfa -32 + ^ r6: .cfa -28 + ^ r7: .cfa -24 + ^ r8: .cfa -20 + ^ r9: .cfa -16 + ^
STACK CFI 28828 .cfa: sp 64 +
STACK CFI INIT 28bec 40 .cfa: sp 0 + .ra: lr
STACK CFI 28bf0 .cfa: sp 8 + .ra: .cfa -4 + ^ r4: .cfa -8 + ^
STACK CFI 28c00 .cfa: sp 24 +
STACK CFI INIT 28c2c 48 .cfa: sp 0 + .ra: lr
STACK CFI 28c30 .cfa: sp 20 + .ra: .cfa -4 + ^ r4: .cfa -20 + ^ r5: .cfa -16 + ^ r6: .cfa -12 + ^ r7: .cfa -8 + ^
STACK CFI 28c34 .cfa: sp 56 +
STACK CFI INIT 28c74 4c .cfa: sp 0 + .ra: lr
STACK CFI 28c78 .cfa: sp 24 + .ra: .cfa -4 + ^ r4: .cfa -24 + ^ r5: .cfa -20 + ^ r6: .cfa -16 + ^ r7: .cfa -12 + ^ r8: .cfa -8 + ^
STACK CFI 28c7c .cfa: sp 56 +
STACK CFI INIT 28cc0 48 .cfa: sp 0 + .ra: lr
STACK CFI 28cc4 .cfa: sp 24 + .ra: .cfa -4 + ^ r4: .cfa -24 + ^ r5: .cfa -20 + ^ r6: .cfa -16 + ^ r7: .cfa -12 + ^ r8: .cfa -8 + ^
STACK CFI 28cc8 .cfa: sp 56 +
STACK CFI INIT 28d08 4c .cfa: sp 0 + .ra: lr
STACK CFI 28d0c .cfa: sp 24 + .ra: .cfa -4 + ^ r4: .cfa -24 + ^ r5: .cfa -20 + ^ r6: .cfa -16 + ^ r7: .cfa -12 + ^ r8: .cfa -8 + ^
STACK CFI 28d10 .cfa: sp 56 +
STACK CFI INIT 28d54 28 .cfa: sp 0 + .ra: lr
STACK CFI 28d58 .cfa: sp 8 + .ra: .cfa -4 + ^ r4: .cfa -8 + ^
STACK CFI INIT 28d7c 28 .cfa: sp 0 + .ra: lr
STACK CFI 28d80 .cfa: sp 16 +
STACK CFI INIT 28da4 44 .cfa: sp 0 + .ra: lr
STACK CFI 28da8 .cfa: sp 8 + .ra: .cfa -4 + ^ r4: .cfa -8 + ^
STACK CFI INIT 28de8 148 .cfa: sp 0 + .ra: lr
STACK CFI 28dec .cfa: sp 16 + .ra: .cfa -4 + ^ r4: .cfa -16 + ^ r5: .cfa -12 + ^ r6: .cfa -8 + ^
STACK CFI 28df4 .cfa: sp 24 + s16: .cfa -24 + ^
STACK CFI INIT 28f30 200 .cfa: sp 0 + .ra: lr
STACK CFI 28f34 .cfa: sp 40 + .ra: .cfa -4 + ^ r10: .cfa -12 + ^ r11: .cfa -8 + ^ r3: .cfa -40 + ^ r4: .cfa -36 + ^ r5: .cfa -32 + ^ r6: .cfa -28 + ^ r7: .cfa -24 + ^ r8: .cfa -20 + ^ r9: .cfa -16 + ^
STACK CFI 28f3c .cfa: sp 64 + s16: .cfa -64 + ^ s18: .cfa -56 + ^ s20: .cfa -48 + ^
STACK CFI INIT 29130 78 .cfa: sp 0 + .ra: lr
STACK CFI 29134 .cfa: sp 4 + .ra: .cfa -4 + ^
STACK CFI 29138 .cfa: sp 24 +
STACK CFI INIT 291a8 3c .cfa: sp 0 + .ra: lr
STACK CFI INIT 291e4 200 .cfa: sp 0 + .ra: lr
STACK CFI 291e8 .cfa: sp 36 + .ra: .cfa -4 + ^ r10: .cfa -12 + ^ r11: .cfa -8 + ^ r4: .cfa -36 + ^ r5: .cfa -32 + ^ r6: .cfa -28 + ^ r7: .cfa -24 + ^ r8: .cfa -20 + ^ r9: .cfa -16 + ^
STACK CFI 291f0 .cfa: sp 84 + s16: .cfa -84 + ^ s18: .cfa -76 + ^ s20: .cfa -68 + ^ s22: .cfa -60 + ^ s24: .cfa -52 + ^ s26: .cfa -44 + ^
STACK CFI 291f4 .cfa: sp 96 +
STACK CFI INIT 293e4 7c .cfa: sp 0 + .ra: lr
STACK CFI 293e8 .cfa: sp 8 + .ra: .cfa -4 + ^ r4: .cfa -8 + ^
STACK CFI 293ec .cfa: sp 16 +
STACK CFI INIT 29460 1bc .cfa: sp 0 + .ra: lr
STACK CFI 29464 .cfa: sp 36 + .ra: .cfa -4 + ^ r10: .cfa -12 + ^ r11: .cfa -8 + ^ r4: .cfa -36 + ^ r5: .cfa -32 + ^ r6: .cfa -28 + ^ r7: .cfa -24 + ^ r8: .cfa -20 + ^ r9: .cfa -16 + ^
STACK CFI 2946c .cfa: sp 76 + s16: .cfa -76 + ^ s18: .cfa -68 + ^ s20: .cfa -60 + ^ s22: .cfa -52 + ^ s24: .cfa -44 + ^
STACK CFI 29470 .cfa: sp 88 +
STACK CFI INIT 2961c 130 .cfa: sp 0 + .ra: lr
STACK CFI 29620 .cfa: sp 24 + .ra: .cfa -4 + ^ r3: .cfa -24 + ^ r4: .cfa -20 + ^ r5: .cfa -16 + ^ r6: .cfa -12 + ^ r7: .cfa -8 + ^
STACK CFI 29630 .cfa: sp 88 + s16: .cfa -88 + ^ s18: .cfa -80 + ^ s20: .cfa -72 + ^ s22: .cfa -64 + ^ s24: .cfa -56 + ^ s26: .cfa -48 + ^ s28: .cfa -40 + ^ s30: .cfa -32 + ^
STACK CFI INIT 2974c 250 .cfa: sp 0 + .ra: lr
STACK CFI 29750 .cfa: sp 36 + .ra: .cfa -4 + ^ r10: .cfa -12 + ^ r11: .cfa -8 + ^ r4: .cfa -36 + ^ r5: .cfa -32 + ^ r6: .cfa -28 + ^ r7: .cfa -24 + ^ r8: .cfa -20 + ^ r9: .cfa -16 + ^
STACK CFI 29758 .cfa: sp 48 +
STACK CFI INIT 299a0 150 .cfa: sp 0 + .ra: lr
STACK CFI 299a4 .cfa: sp 32 + r10: .cfa -8 + ^ r11: .cfa -4 + ^ r4: .cfa -32 + ^ r5: .cfa -28 + ^ r6: .cfa -24 + ^ r7: .cfa -20 + ^ r8: .cfa -16 + ^ r9: .cfa -12 + ^
STACK CFI 299a8 .cfa: sp 40 +
STACK CFI INIT 29af0 294 .cfa: sp 0 + .ra: lr
STACK CFI 29af8 .cfa: sp 32 + .ra: .cfa -4 + ^ r3: .cfa -32 + ^ r4: .cfa -28 + ^ r5: .cfa -24 + ^ r6: .cfa -20 + ^ r7: .cfa -16 + ^ r8: .cfa -12 + ^ r9: .cfa -8 + ^
STACK CFI INIT 29d84 f4 .cfa: sp 0 + .ra: lr
STACK CFI 29d88 .cfa: sp 32 + .ra: .cfa -4 + ^ r3: .cfa -32 + ^ r4: .cfa -28 + ^ r5: .cfa -24 + ^ r6: .cfa -20 + ^ r7: .cfa -16 + ^ r8: .cfa -12 + ^ r9: .cfa -8 + ^
STACK CFI INIT 29e78 f8 .cfa: sp 0 + .ra: lr
STACK CFI 29e7c .cfa: sp 16 + .ra: .cfa -4 + ^ r3: .cfa -16 + ^ r4: .cfa -12 + ^ r5: .cfa -8 + ^
STACK CFI INIT 29f70 198 .cfa: sp 0 + .ra: lr
STACK CFI 29f74 .cfa: sp 24 + .ra: .cfa -4 + ^ r4: .cfa -24 + ^ r5: .cfa -20 + ^ r6: .cfa -16 + ^ r7: .cfa -12 + ^ r8: .cfa -8 + ^
STACK CFI 29f80 .cfa: sp 40 +
STACK CFI INIT 2a108 60 .cfa: sp 0 + .ra: lr
STACK CFI 2a10c .cfa: sp 16 + .ra: .cfa -4 + ^ r3: .cfa -16 + ^ r4: .cfa -12 + ^ r5: .cfa -8 + ^
STACK CFI INIT 2a168 c4 .cfa: sp 0 + .ra: lr
STACK CFI 2a16c .cfa: sp 32 + .ra: .cfa -4 + ^ r3: .cfa -32 + ^ r4: .cfa -28 + ^ r5: .cfa -24 + ^ r6: .cfa -20 + ^ r7: .cfa -16 + ^ r8: .cfa -12 + ^ r9: .cfa -8 + ^
STACK CFI INIT 2a22c 5d4 .cfa: sp 0 + .ra: lr
STACK CFI 2a234 .cfa: sp 32 + .ra: .cfa -4 + ^ r10: .cfa -8 + ^ r4: .cfa -32 + ^ r5: .cfa -28 + ^ r6: .cfa -24 + ^ r7: .cfa -20 + ^ r8: .cfa -16 + ^ r9: .cfa -12 + ^
STACK CFI INIT 2a800 758 .cfa: sp 0 + .ra: lr
STACK CFI 2a804 .cfa: sp 36 + .ra: .cfa -4 + ^ r10: .cfa -12 + ^ r11: .cfa -8 + ^ r4: .cfa -36 + ^ r5: .cfa -32 + ^ r6: .cfa -28 + ^ r7: .cfa -24 + ^ r8: .cfa -20 + ^ r9: .cfa -16 + ^
STACK CFI 2a80c .cfa: sp 100 + s16: .cfa -100 + ^ s18: .cfa -92 + ^ s20: .cfa -84 + ^ s22: .cfa -76 + ^ s24: .cfa -68 + ^ s26: .cfa -60 + ^ s28: .cfa -52 + ^ s30: .cfa -44 + ^
STACK CFI 2a810 .cfa: sp 120 +
STACK CFI INIT 2af58 590 .cfa: sp 0 + .ra: lr
STACK CFI 2af60 .cfa: sp 36 + .ra: .cfa -4 + ^ r10: .cfa -12 + ^ r11: .cfa -8 + ^ r4: .cfa -36 + ^ r5: .cfa -32 + ^ r6: .cfa -28 + ^ r7: .cfa -24 + ^ r8: .cfa -20 + ^ r9: .cfa -16 + ^
STACK CFI 2af64 .cfa: sp 72 +
STACK CFI INIT 2b4e8 4c .cfa: sp 0 + .ra: lr
STACK CFI INIT 2b534 6c .cfa: sp 0 + .ra: lr
STACK CFI INIT 2b5a0 64 .cfa: sp 0 + .ra: lr
STACK CFI INIT 2b604 80 .cfa: sp 0 + .ra: lr
STACK CFI INIT 2b684 84 .cfa: sp 0 + .ra: lr
STACK CFI INIT 2b708 80 .cfa: sp 0 + .ra: lr
STACK CFI INIT 2b788 388 .cfa: sp 0 + .ra: lr
STACK CFI 2b798 .cfa: sp 32 + .ra: .cfa -4 + ^ r10: .cfa -8 + ^ r4: .cfa -32 + ^ r5: .cfa -28 + ^ r6: .cfa -24 + ^ r7: .cfa -20 + ^ r8: .cfa -16 + ^ r9: .cfa -12 + ^
STACK CFI 2b7a0 .cfa: sp 48 + s16: .cfa -48 + ^ s18: .cfa -40 + ^
STACK CFI INIT 2bb10 3c0 .cfa: sp 0 + .ra: lr
STACK CFI 2bb20 .cfa: sp 36 + .ra: .cfa -4 + ^ r10: .cfa -12 + ^ r11: .cfa -8 + ^ r4: .cfa -36 + ^ r5: .cfa -32 + ^ r6: .cfa -28 + ^ r7: .cfa -24 + ^ r8: .cfa -20 + ^ r9: .cfa -16 + ^
STACK CFI 2bb28 .cfa: sp 52 + s16: .cfa -52 + ^ s18: .cfa -44 + ^
STACK CFI 2bb2c .cfa: sp 64 +
STACK CFI INIT 2bed0 7a8 .cfa: sp 0 + .ra: lr
STACK CFI 2bee0 .cfa: sp 36 + .ra: .cfa -4 + ^ r10: .cfa -12 + ^ r11: .cfa -8 + ^ r4: .cfa -36 + ^ r5: .cfa -32 + ^ r6: .cfa -28 + ^ r7: .cfa -24 + ^ r8: .cfa -20 + ^ r9: .cfa -16 + ^
STACK CFI 2bee8 .cfa: sp 52 + s16: .cfa -52 + ^ s18: .cfa -44 + ^
STACK CFI 2beec .cfa: sp 88 +
STACK CFI INIT 2c678 3e8 .cfa: sp 0 + .ra: lr
STACK CFI 2c688 .cfa: sp 36 + .ra: .cfa -4 + ^ r10: .cfa -12 + ^ r11: .cfa -8 + ^ r4: .cfa -36 + ^ r5: .cfa -32 + ^ r6: .cfa -28 + ^ r7: .cfa -24 + ^ r8: .cfa -20 + ^ r9: .cfa -16 + ^
STACK CFI 2c690 .cfa: sp 52 + s16: .cfa -52 + ^ s18: .cfa -44 + ^
STACK CFI 2c694 .cfa: sp 64 +
STACK CFI INIT 2ca60 1bc .cfa: sp 0 + .ra: lr
STACK CFI 2ca70 .cfa: sp 24 + .ra: .cfa -4 + ^ r4: .cfa -24 + ^ r5: .cfa -20 + ^ r6: .cfa -16 + ^ r7: .cfa -12 + ^ r8: .cfa -8 + ^
STACK CFI 2ca78 .cfa: sp 40 + s16: .cfa -40 + ^ s18: .cfa -32 + ^
STACK CFI INIT 2cc1c 1bc .cfa: sp 0 + .ra: lr
STACK CFI 2cc2c .cfa: sp 24 + .ra: .cfa -4 + ^ r4: .cfa -24 + ^ r5: .cfa -20 + ^ r6: .cfa -16 + ^ r7: .cfa -12 + ^ r8: .cfa -8 + ^
STACK CFI 2cc34 .cfa: sp 40 + s16: .cfa -40 + ^ s18: .cfa -32 + ^
STACK CFI INIT 2cdd8 2ac .cfa: sp 0 + .ra: lr
STACK CFI 2cde8 .cfa: sp 32 + .ra: .cfa -4 + ^ r10: .cfa -8 + ^ r4: .cfa -32 + ^ r5: .cfa -28 + ^ r6: .cfa -24 + ^ r7: .cfa -20 + ^ r8: .cfa -16 + ^ r9: .cfa -12 + ^
STACK CFI 2cdf0 .cfa: sp 48 + s16: .cfa -48 + ^ s18: .cfa -40 + ^
STACK CFI INIT 2d084 1b8 .cfa: sp 0 + .ra: lr
STACK CFI 2d094 .cfa: sp 24 + .ra: .cfa -4 + ^ r4: .cfa -24 + ^ r5: .cfa -20 + ^ r6: .cfa -16 + ^ r7: .cfa -12 + ^ r8: .cfa -8 + ^
STACK CFI 2d09c .cfa: sp 40 + s16: .cfa -40 + ^ s18: .cfa -32 + ^
STACK CFI INIT 2d23c 508 .cfa: sp 0 + .ra: lr
STACK CFI 2d24c .cfa: sp 36 + .ra: .cfa -4 + ^ r10: .cfa -12 + ^ r11: .cfa -8 + ^ r4: .cfa -36 + ^ r5: .cfa -32 + ^ r6: .cfa -28 + ^ r7: .cfa -24 + ^ r8: .cfa -20 + ^ r9: .cfa -16 + ^
STACK CFI 2d254 .cfa: sp 52 + s16: .cfa -52 + ^ s18: .cfa -44 + ^
STACK CFI 2d258 .cfa: sp 128 +
STACK CFI INIT 2d744 22c .cfa: sp 0 + .ra: lr
STACK CFI 2d754 .cfa: sp 36 + .ra: .cfa -4 + ^ r10: .cfa -12 + ^ r11: .cfa -8 + ^ r4: .cfa -36 + ^ r5: .cfa -32 + ^ r6: .cfa -28 + ^ r7: .cfa -24 + ^ r8: .cfa -20 + ^ r9: .cfa -16 + ^
STACK CFI 2d75c .cfa: sp 52 + s16: .cfa -52 + ^ s18: .cfa -44 + ^
STACK CFI 2d760 .cfa: sp 72 +
STACK CFI INIT 2d970 160 .cfa: sp 0 + .ra: lr
STACK CFI 2d97c .cfa: sp 20 + .ra: .cfa -4 + ^ r4: .cfa -20 + ^ r5: .cfa -16 + ^ r6: .cfa -12 + ^ r7: .cfa -8 + ^
STACK CFI 2d984 .cfa: sp 32 +
STACK CFI INIT 2dad0 cc .cfa: sp 0 + .ra: lr
STACK CFI 2dadc .cfa: sp 24 + .ra: .cfa -4 + ^ r4: .cfa -24 + ^ r5: .cfa -20 + ^ r6: .cfa -16 + ^ r7: .cfa -12 + ^ r8: .cfa -8 + ^
STACK CFI 2dae4 .cfa: sp 32 +
STACK CFI INIT 2db9c 27c .cfa: sp 0 + .ra: lr
STACK CFI 2dba8 .cfa: sp 36 + .ra: .cfa -4 + ^ r10: .cfa -12 + ^ r11: .cfa -8 + ^ r4: .cfa -36 + ^ r5: .cfa -32 + ^ r6: .cfa -28 + ^ r7: .cfa -24 + ^ r8: .cfa -20 + ^ r9: .cfa -16 + ^
STACK CFI 2dbb0 .cfa: sp 72 +
STACK CFI INIT 2de18 254 .cfa: sp 0 + .ra: lr
STACK CFI 2de24 .cfa: sp 36 + .ra: .cfa -4 + ^ r10: .cfa -12 + ^ r11: .cfa -8 + ^ r4: .cfa -36 + ^ r5: .cfa -32 + ^ r6: .cfa -28 + ^ r7: .cfa -24 + ^ r8: .cfa -20 + ^ r9: .cfa -16 + ^
STACK CFI 2de2c .cfa: sp 64 +
STACK CFI INIT 2e06c 48 .cfa: sp 0 + .ra: lr
STACK CFI 2e070 .cfa: sp 16 + .ra: .cfa -4 + ^ r3: .cfa -16 + ^ r4: .cfa -12 + ^ r5: .cfa -8 + ^
STACK CFI INIT 2e0b4 178 .cfa: sp 0 + .ra: lr
STACK CFI 2e0c0 .cfa: sp 24 + .ra: .cfa -4 + ^ r4: .cfa -24 + ^ r5: .cfa -20 + ^ r6: .cfa -16 + ^ r7: .cfa -12 + ^ r8: .cfa -8 + ^
STACK CFI 2e0c8 .cfa: sp 32 +
STACK CFI INIT 2e22c 274 .cfa: sp 0 + .ra: lr
STACK CFI 2e238 .cfa: sp 36 + .ra: .cfa -4 + ^ r10: .cfa -12 + ^ r11: .cfa -8 + ^ r4: .cfa -36 + ^ r5: .cfa -32 + ^ r6: .cfa -28 + ^ r7: .cfa -24 + ^ r8: .cfa -20 + ^ r9: .cfa -16 + ^
STACK CFI 2e240 .cfa: sp 72 +
STACK CFI INIT 2e4a0 214 .cfa: sp 0 + .ra: lr
STACK CFI 2e4ac .cfa: sp 36 + .ra: .cfa -4 + ^ r10: .cfa -12 + ^ r11: .cfa -8 + ^ r4: .cfa -36 + ^ r5: .cfa -32 + ^ r6: .cfa -28 + ^ r7: .cfa -24 + ^ r8: .cfa -20 + ^ r9: .cfa -16 + ^
STACK CFI 2e4b0 .cfa: sp 112 +
STACK CFI INIT 2e6b4 fa0 .cfa: sp 0 + .ra: lr
STACK CFI 2e6b8 .cfa: sp 36 + .ra: .cfa -4 + ^ r10: .cfa -12 + ^ r11: .cfa -8 + ^ r4: .cfa -36 + ^ r5: .cfa -32 + ^ r6: .cfa -28 + ^ r7: .cfa -24 + ^ r8: .cfa -20 + ^ r9: .cfa -16 + ^
STACK CFI 2e6c0 .cfa: sp 52 + s16: .cfa -52 + ^ s18: .cfa -44 + ^
STACK CFI 2e6c4 .cfa: sp 152 +
STACK CFI INIT 2f654 214 .cfa: sp 0 + .ra: lr
STACK CFI 2f658 .cfa: sp 24 + .ra: .cfa -4 + ^ r4: .cfa -24 + ^ r5: .cfa -20 + ^ r6: .cfa -16 + ^ r7: .cfa -12 + ^ r8: .cfa -8 + ^
STACK CFI 2f65c .cfa: sp 56 +
STACK CFI INIT 2f868 214 .cfa: sp 0 + .ra: lr
STACK CFI 2f86c .cfa: sp 24 + .ra: .cfa -4 + ^ r4: .cfa -24 + ^ r5: .cfa -20 + ^ r6: .cfa -16 + ^ r7: .cfa -12 + ^ r8: .cfa -8 + ^
STACK CFI 2f870 .cfa: sp 56 +
STACK CFI INIT 2fa7c 114 .cfa: sp 0 + .ra: lr
STACK CFI 2fa80 .cfa: sp 16 + .ra: .cfa -4 + ^ r4: .cfa -16 + ^ r5: .cfa -12 + ^ r6: .cfa -8 + ^
STACK CFI 2fa88 .cfa: sp 32 + s16: .cfa -32 + ^ s18: .cfa -24 + ^
STACK CFI 2fa90 .cfa: sp 104 +
STACK CFI INIT 2fb90 1fc .cfa: sp 0 + .ra: lr
STACK CFI 2fb94 .cfa: sp 32 + r10: .cfa -8 + ^ r11: .cfa -4 + ^ r4: .cfa -32 + ^ r5: .cfa -28 + ^ r6: .cfa -24 + ^ r7: .cfa -20 + ^ r8: .cfa -16 + ^ r9: .cfa -12 + ^
STACK CFI 2fba4 .cfa: sp 40 +
STACK CFI INIT 2fd8c 148 .cfa: sp 0 + .ra: lr
STACK CFI 2fd90 .cfa: sp 28 + .ra: .cfa -4 + ^ r4: .cfa -28 + ^ r5: .cfa -24 + ^ r6: .cfa -20 + ^ r7: .cfa -16 + ^ r8: .cfa -12 + ^ r9: .cfa -8 + ^
STACK CFI 2fd98 .cfa: sp 40 +
STACK CFI INIT 2fed4 658 .cfa: sp 0 + .ra: lr
STACK CFI 2fed8 .cfa: sp 36 + .ra: .cfa -4 + ^ r10: .cfa -12 + ^ r11: .cfa -8 + ^ r4: .cfa -36 + ^ r5: .cfa -32 + ^ r6: .cfa -28 + ^ r7: .cfa -24 + ^ r8: .cfa -20 + ^ r9: .cfa -16 + ^
STACK CFI 2fedc .cfa: sp 56 +
STACK CFI INIT 3052c 2b8 .cfa: sp 0 + .ra: lr
STACK CFI 30534 .cfa: sp 36 + .ra: .cfa -4 + ^ r10: .cfa -12 + ^ r11: .cfa -8 + ^ r4: .cfa -36 + ^ r5: .cfa -32 + ^ r6: .cfa -28 + ^ r7: .cfa -24 + ^ r8: .cfa -20 + ^ r9: .cfa -16 + ^
STACK CFI 30538 .cfa: sp 80 +
STACK CFI INIT 307e4 5a0 .cfa: sp 0 + .ra: lr
STACK CFI 307e8 .cfa: sp 36 + .ra: .cfa -4 + ^ r10: .cfa -12 + ^ r11: .cfa -8 + ^ r4: .cfa -36 + ^ r5: .cfa -32 + ^ r6: .cfa -28 + ^ r7: .cfa -24 + ^ r8: .cfa -20 + ^ r9: .cfa -16 + ^
STACK CFI 307f4 .cfa: sp 56 +
STACK CFI INIT 30d84 d0 .cfa: sp 0 + .ra: lr
STACK CFI 30d88 .cfa: sp 8 + .ra: .cfa -4 + ^ r4: .cfa -8 + ^
STACK CFI 30d94 .cfa: sp 16 +
STACK CFI INIT 30e54 1034 .cfa: sp 0 + .ra: lr
STACK CFI 30e58 .cfa: sp 36 + .ra: .cfa -4 + ^ r10: .cfa -12 + ^ r11: .cfa -8 + ^ r4: .cfa -36 + ^ r5: .cfa -32 + ^ r6: .cfa -28 + ^ r7: .cfa -24 + ^ r8: .cfa -20 + ^ r9: .cfa -16 + ^
STACK CFI 30e64 .cfa: sp 56 +
STACK CFI INIT 31e88 134 .cfa: sp 0 + .ra: lr
STACK CFI 31e90 .cfa: sp 32 + .ra: .cfa -4 + ^ r3: .cfa -32 + ^ r4: .cfa -28 + ^ r5: .cfa -24 + ^ r6: .cfa -20 + ^ r7: .cfa -16 + ^ r8: .cfa -12 + ^ r9: .cfa -8 + ^
STACK CFI INIT 31fbc 24 .cfa: sp 0 + .ra: lr
STACK CFI 31fc0 .cfa: sp 8 + .ra: .cfa -4 + ^ r4: .cfa -8 + ^
STACK CFI INIT 31fe0 44 .cfa: sp 0 + .ra: lr
STACK CFI 31fe4 .cfa: sp 16 + .ra: .cfa -4 + ^ r3: .cfa -16 + ^ r4: .cfa -12 + ^ r5: .cfa -8 + ^
STACK CFI INIT 32024 534 .cfa: sp 0 + .ra: lr
STACK CFI 32028 .cfa: sp 28 + .ra: .cfa -4 + ^ r4: .cfa -28 + ^ r5: .cfa -24 + ^ r6: .cfa -20 + ^ r7: .cfa -16 + ^ r8: .cfa -12 + ^ r9: .cfa -8 + ^
STACK CFI 32030 .cfa: sp 36 + s16: .cfa -36 + ^
STACK CFI 32038 .cfa: sp 56 +
STACK CFI INIT 32558 4 .cfa: sp 0 + .ra: lr
STACK CFI INIT 3255c 8 .cfa: sp 0 + .ra: lr
STACK CFI INIT 32564 48 .cfa: sp 0 + .ra: lr
STACK CFI INIT 325ac 4 .cfa: sp 0 + .ra: lr
STACK CFI INIT 325b0 14 .cfa: sp 0 + .ra: lr
STACK CFI 325b4 .cfa: sp 8 + .ra: .cfa -4 + ^ r3: .cfa -8 + ^
STACK CFI INIT 325c4 60 .cfa: sp 0 + .ra: lr
STACK CFI 325c8 .cfa: sp 8 + r4: .cfa -8 + ^ r5: .cfa -4 + ^
STACK CFI INIT 32624 4ec .cfa: sp 0 + .ra: lr
STACK CFI 32628 .cfa: sp 20 + .ra: .cfa -4 + ^ r4: .cfa -20 + ^ r5: .cfa -16 + ^ r6: .cfa -12 + ^ r7: .cfa -8 + ^
STACK CFI 3262c .cfa: sp 48 +
STACK CFI INIT 32b10 18 .cfa: sp 0 + .ra: lr
STACK CFI 32b14 .cfa: sp 8 + .ra: .cfa -4 + ^ r3: .cfa -8 + ^
STACK CFI INIT 32b28 4 .cfa: sp 0 + .ra: lr
STACK CFI INIT 32b2c 8 .cfa: sp 0 + .ra: lr
STACK CFI INIT 32b34 1c .cfa: sp 0 + .ra: lr
STACK CFI 32b38 .cfa: sp 8 + .ra: .cfa -4 + ^ r4: .cfa -8 + ^
STACK CFI INIT 32b50 2c .cfa: sp 0 + .ra: lr
STACK CFI INIT 32b7c 674 .cfa: sp 0 + .ra: lr
STACK CFI 32b80 .cfa: sp 20 + .ra: .cfa -4 + ^ r4: .cfa -20 + ^ r5: .cfa -16 + ^ r6: .cfa -12 + ^ r7: .cfa -8 + ^
STACK CFI 32b84 .cfa: sp 56 +
STACK CFI INIT 331f0 34 .cfa: sp 0 + .ra: lr
STACK CFI 331f4 .cfa: sp 8 + .ra: .cfa -4 + ^ r4: .cfa -8 + ^
STACK CFI INIT 33224 380 .cfa: sp 0 + .ra: lr
STACK CFI 33228 .cfa: sp 36 + .ra: .cfa -4 + ^ r10: .cfa -12 + ^ r11: .cfa -8 + ^ r4: .cfa -36 + ^ r5: .cfa -32 + ^ r6: .cfa -28 + ^ r7: .cfa -24 + ^ r8: .cfa -20 + ^ r9: .cfa -16 + ^
STACK CFI 33234 .cfa: sp 48 +
STACK CFI INIT 335a4 2e8 .cfa: sp 0 + .ra: lr
STACK CFI 335a8 .cfa: sp 24 + .ra: .cfa -4 + ^ r4: .cfa -24 + ^ r5: .cfa -20 + ^ r6: .cfa -16 + ^ r7: .cfa -12 + ^ r8: .cfa -8 + ^
STACK CFI INIT 3388c 310 .cfa: sp 0 + .ra: lr
STACK CFI 33890 .cfa: sp 36 + .ra: .cfa -4 + ^ r10: .cfa -12 + ^ r11: .cfa -8 + ^ r4: .cfa -36 + ^ r5: .cfa -32 + ^ r6: .cfa -28 + ^ r7: .cfa -24 + ^ r8: .cfa -20 + ^ r9: .cfa -16 + ^
STACK CFI 33898 .cfa: sp 1092 +
STACK CFI 338a0 .cfa: sp 1096 +
STACK CFI INIT 33b9c 140 .cfa: sp 0 + .ra: lr
STACK CFI 33ba0 .cfa: sp 32 + .ra: .cfa -4 + ^ r10: .cfa -8 + ^ r4: .cfa -32 + ^ r5: .cfa -28 + ^ r6: .cfa -24 + ^ r7: .cfa -20 + ^ r8: .cfa -16 + ^ r9: .cfa -12 + ^
STACK CFI INIT 33cdc 8c .cfa: sp 0 + .ra: lr
STACK CFI 33ce0 .cfa: sp 16 + .ra: .cfa -4 + ^ r3: .cfa -16 + ^ r4: .cfa -12 + ^ r5: .cfa -8 + ^
STACK CFI INIT 33d68 1b4 .cfa: sp 0 + .ra: lr
STACK CFI 33d6c .cfa: sp 36 + .ra: .cfa -4 + ^ r10: .cfa -12 + ^ r11: .cfa -8 + ^ r4: .cfa -36 + ^ r5: .cfa -32 + ^ r6: .cfa -28 + ^ r7: .cfa -24 + ^ r8: .cfa -20 + ^ r9: .cfa -16 + ^
STACK CFI 33d74 .cfa: sp 56 +
STACK CFI INIT 33f1c 50 .cfa: sp 0 + .ra: lr
STACK CFI 33f24 .cfa: sp 4 + r4: .cfa -4 + ^
STACK CFI INIT 33f6c 50 .cfa: sp 0 + .ra: lr
STACK CFI 33f74 .cfa: sp 4 + r4: .cfa -4 + ^
STACK CFI INIT 33fbc 54 .cfa: sp 0 + .ra: lr
STACK CFI 33fc4 .cfa: sp 4 + r4: .cfa -4 + ^
STACK CFI INIT 34010 54 .cfa: sp 0 + .ra: lr
STACK CFI 34018 .cfa: sp 4 + r4: .cfa -4 + ^
STACK CFI INIT 34064 23c .cfa: sp 0 + .ra: lr
STACK CFI 3406c .cfa: sp 12 + r4: .cfa -12 + ^ r5: .cfa -8 + ^ r6: .cfa -4 + ^
STACK CFI INIT 342a0 3f8 .cfa: sp 0 + .ra: lr
STACK CFI 342a8 .cfa: sp 32 + r10: .cfa -8 + ^ r11: .cfa -4 + ^ r4: .cfa -32 + ^ r5: .cfa -28 + ^ r6: .cfa -24 + ^ r7: .cfa -20 + ^ r8: .cfa -16 + ^ r9: .cfa -12 + ^
STACK CFI 342ac .cfa: sp 56 +
STACK CFI INIT 34698 714 .cfa: sp 0 + .ra: lr
STACK CFI 346a0 .cfa: sp 32 + r10: .cfa -8 + ^ r11: .cfa -4 + ^ r4: .cfa -32 + ^ r5: .cfa -28 + ^ r6: .cfa -24 + ^ r7: .cfa -20 + ^ r8: .cfa -16 + ^ r9: .cfa -12 + ^
STACK CFI 346a4 .cfa: sp 96 + s16: .cfa -96 + ^ s18: .cfa -88 + ^ s20: .cfa -80 + ^ s22: .cfa -72 + ^ s24: .cfa -64 + ^ s26: .cfa -56 + ^ s28: .cfa -48 + ^ s30: .cfa -40 + ^
STACK CFI 346a8 .cfa: sp 152 +
STACK CFI INIT 34dac 244 .cfa: sp 0 + .ra: lr
STACK CFI 34db4 .cfa: sp 16 + r4: .cfa -16 + ^ r5: .cfa -12 + ^ r6: .cfa -8 + ^ r7: .cfa -4 + ^
STACK CFI INIT 34ff0 1c4 .cfa: sp 0 + .ra: lr
STACK CFI 34ff8 .cfa: sp 32 + r10: .cfa -8 + ^ r11: .cfa -4 + ^ r4: .cfa -32 + ^ r5: .cfa -28 + ^ r6: .cfa -24 + ^ r7: .cfa -20 + ^ r8: .cfa -16 + ^ r9: .cfa -12 + ^
STACK CFI 34ffc .cfa: sp 56 +
STACK CFI INIT 351b4 120 .cfa: sp 0 + .ra: lr
STACK CFI 351bc .cfa: sp 20 + r4: .cfa -20 + ^ r5: .cfa -16 + ^ r6: .cfa -12 + ^ r7: .cfa -8 + ^ r8: .cfa -4 + ^
STACK CFI 351c0 .cfa: sp 36 + s16: .cfa -36 + ^ s18: .cfa -28 + ^
STACK CFI INIT 352d4 12c .cfa: sp 0 + .ra: lr
STACK CFI 352dc .cfa: sp 20 + r4: .cfa -20 + ^ r5: .cfa -16 + ^ r6: .cfa -12 + ^ r7: .cfa -8 + ^ r8: .cfa -4 + ^
STACK CFI INIT 35400 118 .cfa: sp 0 + .ra: lr
STACK CFI 35408 .cfa: sp 20 + r4: .cfa -20 + ^ r5: .cfa -16 + ^ r6: .cfa -12 + ^ r7: .cfa -8 + ^ r8: .cfa -4 + ^
STACK CFI 3540c .cfa: sp 36 + s16: .cfa -36 + ^ s18: .cfa -28 + ^
STACK CFI INIT 35518 124 .cfa: sp 0 + .ra: lr
STACK CFI 35520 .cfa: sp 20 + r4: .cfa -20 + ^ r5: .cfa -16 + ^ r6: .cfa -12 + ^ r7: .cfa -8 + ^ r8: .cfa -4 + ^
STACK CFI INIT 3563c 124 .cfa: sp 0 + .ra: lr
STACK CFI 35644 .cfa: sp 20 + r4: .cfa -20 + ^ r5: .cfa -16 + ^ r6: .cfa -12 + ^ r7: .cfa -8 + ^ r8: .cfa -4 + ^
STACK CFI INIT 35760 114 .cfa: sp 0 + .ra: lr
STACK CFI 35768 .cfa: sp 20 + r4: .cfa -20 + ^ r5: .cfa -16 + ^ r6: .cfa -12 + ^ r7: .cfa -8 + ^ r8: .cfa -4 + ^
STACK CFI INIT 35874 10c .cfa: sp 0 + .ra: lr
STACK CFI 3587c .cfa: sp 20 + r4: .cfa -20 + ^ r5: .cfa -16 + ^ r6: .cfa -12 + ^ r7: .cfa -8 + ^ r8: .cfa -4 + ^
STACK CFI INIT 35980 26c .cfa: sp 0 + .ra: lr
STACK CFI 35988 .cfa: sp 32 + r10: .cfa -8 + ^ r11: .cfa -4 + ^ r4: .cfa -32 + ^ r5: .cfa -28 + ^ r6: .cfa -24 + ^ r7: .cfa -20 + ^ r8: .cfa -16 + ^ r9: .cfa -12 + ^
STACK CFI 3598c .cfa: sp 64 +
STACK CFI INIT 35bec 31c .cfa: sp 0 + .ra: lr
STACK CFI 35bf4 .cfa: sp 32 + r10: .cfa -8 + ^ r11: .cfa -4 + ^ r4: .cfa -32 + ^ r5: .cfa -28 + ^ r6: .cfa -24 + ^ r7: .cfa -20 + ^ r8: .cfa -16 + ^ r9: .cfa -12 + ^
STACK CFI 35bf8 .cfa: sp 80 +
STACK CFI INIT 35f08 60 .cfa: sp 0 + .ra: lr
STACK CFI 35f10 .cfa: sp 8 + r4: .cfa -8 + ^ r5: .cfa -4 + ^
STACK CFI 35f14 .cfa: sp 16 +
STACK CFI INIT 35f68 240 .cfa: sp 0 + .ra: lr
STACK CFI 35f70 .cfa: sp 12 + r4: .cfa -12 + ^ r5: .cfa -8 + ^ r6: .cfa -4 + ^
STACK CFI INIT 361a8 15c .cfa: sp 0 + .ra: lr
STACK CFI 361b0 .cfa: sp 12 + r4: .cfa -12 + ^ r5: .cfa -8 + ^ r6: .cfa -4 + ^
STACK CFI INIT 36304 12c .cfa: sp 0 + .ra: lr
STACK CFI 3630c .cfa: sp 12 + r4: .cfa -12 + ^ r5: .cfa -8 + ^ r6: .cfa -4 + ^
STACK CFI INIT 36430 144 .cfa: sp 0 + .ra: lr
STACK CFI 36438 .cfa: sp 20 + r4: .cfa -20 + ^ r5: .cfa -16 + ^ r6: .cfa -12 + ^ r7: .cfa -8 + ^ r8: .cfa -4 + ^
STACK CFI 3643c .cfa: sp 36 + s16: .cfa -36 + ^ s18: .cfa -28 + ^
STACK CFI INIT 36574 1ec .cfa: sp 0 + .ra: lr
STACK CFI 3657c .cfa: sp 12 + r4: .cfa -12 + ^ r5: .cfa -8 + ^ r6: .cfa -4 + ^
STACK CFI INIT 36760 1e4 .cfa: sp 0 + .ra: lr
STACK CFI 36768 .cfa: sp 32 + r10: .cfa -8 + ^ r11: .cfa -4 + ^ r4: .cfa -32 + ^ r5: .cfa -28 + ^ r6: .cfa -24 + ^ r7: .cfa -20 + ^ r8: .cfa -16 + ^ r9: .cfa -12 + ^
STACK CFI 3676c .cfa: sp 40 +
STACK CFI INIT 36944 1cc .cfa: sp 0 + .ra: lr
STACK CFI 3694c .cfa: sp 32 + r10: .cfa -8 + ^ r11: .cfa -4 + ^ r4: .cfa -32 + ^ r5: .cfa -28 + ^ r6: .cfa -24 + ^ r7: .cfa -20 + ^ r8: .cfa -16 + ^ r9: .cfa -12 + ^
STACK CFI 36950 .cfa: sp 40 +
STACK CFI INIT 36b10 1cc .cfa: sp 0 + .ra: lr
STACK CFI 36b18 .cfa: sp 32 + r10: .cfa -8 + ^ r11: .cfa -4 + ^ r4: .cfa -32 + ^ r5: .cfa -28 + ^ r6: .cfa -24 + ^ r7: .cfa -20 + ^ r8: .cfa -16 + ^ r9: .cfa -12 + ^
STACK CFI 36b1c .cfa: sp 40 +
STACK CFI INIT 36cdc 1cc .cfa: sp 0 + .ra: lr
STACK CFI 36ce4 .cfa: sp 32 + r10: .cfa -8 + ^ r11: .cfa -4 + ^ r4: .cfa -32 + ^ r5: .cfa -28 + ^ r6: .cfa -24 + ^ r7: .cfa -20 + ^ r8: .cfa -16 + ^ r9: .cfa -12 + ^
STACK CFI 36ce8 .cfa: sp 40 +
STACK CFI INIT 36ea8 8 .cfa: sp 0 + .ra: lr
STACK CFI INIT 36eb0 8 .cfa: sp 0 + .ra: lr
STACK CFI INIT 36eb8 8 .cfa: sp 0 + .ra: lr
STACK CFI INIT 36ec0 4 .cfa: sp 0 + .ra: lr
STACK CFI INIT 36ec4 b8 .cfa: sp 0 + .ra: lr
STACK CFI 36ec8 .cfa: sp 32 + .ra: .cfa -4 + ^ r3: .cfa -32 + ^ r4: .cfa -28 + ^ r5: .cfa -24 + ^ r6: .cfa -20 + ^ r7: .cfa -16 + ^ r8: .cfa -12 + ^ r9: .cfa -8 + ^
STACK CFI INIT 36f7c 164 .cfa: sp 0 + .ra: lr
STACK CFI 36f80 .cfa: sp 40 + .ra: .cfa -4 + ^ r10: .cfa -12 + ^ r11: .cfa -8 + ^ r3: .cfa -40 + ^ r4: .cfa -36 + ^ r5: .cfa -32 + ^ r6: .cfa -28 + ^ r7: .cfa -24 + ^ r8: .cfa -20 + ^ r9: .cfa -16 + ^
STACK CFI INIT 370e0 108 .cfa: sp 0 + .ra: lr
STACK CFI 370e8 .cfa: sp 16 + .ra: .cfa -4 + ^ r3: .cfa -16 + ^ r4: .cfa -12 + ^ r5: .cfa -8 + ^
STACK CFI 370f0 .cfa: sp 80 + s16: .cfa -80 + ^ s18: .cfa -72 + ^ s20: .cfa -64 + ^ s22: .cfa -56 + ^ s24: .cfa -48 + ^ s26: .cfa -40 + ^ s28: .cfa -32 + ^ s30: .cfa -24 + ^
STACK CFI INIT 371e8 16c .cfa: sp 0 + .ra: lr
STACK CFI 371f0 .cfa: sp 36 + .ra: .cfa -4 + ^ r10: .cfa -12 + ^ r11: .cfa -8 + ^ r4: .cfa -36 + ^ r5: .cfa -32 + ^ r6: .cfa -28 + ^ r7: .cfa -24 + ^ r8: .cfa -20 + ^ r9: .cfa -16 + ^
STACK CFI 371f4 .cfa: sp 48 +
STACK CFI INIT 37354 48 .cfa: sp 0 + .ra: lr
STACK CFI 37358 .cfa: sp 16 + .ra: .cfa -4 + ^ r3: .cfa -16 + ^ r4: .cfa -12 + ^ r5: .cfa -8 + ^
STACK CFI INIT 3739c 28 .cfa: sp 0 + .ra: lr
STACK CFI 373a0 .cfa: sp 8 + .ra: .cfa -4 + ^ r4: .cfa -8 + ^
STACK CFI INIT 373c4 468 .cfa: sp 0 + .ra: lr
STACK CFI 373c8 .cfa: sp 36 + .ra: .cfa -4 + ^ r10: .cfa -12 + ^ r11: .cfa -8 + ^ r4: .cfa -36 + ^ r5: .cfa -32 + ^ r6: .cfa -28 + ^ r7: .cfa -24 + ^ r8: .cfa -20 + ^ r9: .cfa -16 + ^
STACK CFI 373cc .cfa: sp 3700 +
STACK CFI 373d0 .cfa: sp 3704 +
STACK CFI INIT 3782c 68 .cfa: sp 0 + .ra: lr
STACK CFI 37830 .cfa: sp 16 + .ra: .cfa -4 + ^ r3: .cfa -16 + ^ r4: .cfa -12 + ^ r5: .cfa -8 + ^
STACK CFI INIT 37894 28 .cfa: sp 0 + .ra: lr
STACK CFI 37898 .cfa: sp 8 + .ra: .cfa -4 + ^ r4: .cfa -8 + ^
STACK CFI INIT 378c0 2bbc .cfa: sp 0 + .ra: lr
STACK CFI 378cc .cfa: sp 36 + .ra: .cfa -4 + ^ r10: .cfa -12 + ^ r11: .cfa -8 + ^ r4: .cfa -36 + ^ r5: .cfa -32 + ^ r6: .cfa -28 + ^ r7: .cfa -24 + ^ r8: .cfa -20 + ^ r9: .cfa -16 + ^
STACK CFI 378d0 .cfa: sp 100 + s16: .cfa -100 + ^ s18: .cfa -92 + ^ s20: .cfa -84 + ^ s22: .cfa -76 + ^ s24: .cfa -68 + ^ s26: .cfa -60 + ^ s28: .cfa -52 + ^ s30: .cfa -44 + ^
STACK CFI 378d4 .cfa: sp 224 +
STACK CFI INIT 3a47c 2af4 .cfa: sp 0 + .ra: lr
STACK CFI 3a488 .cfa: sp 36 + .ra: .cfa -4 + ^ r10: .cfa -12 + ^ r11: .cfa -8 + ^ r4: .cfa -36 + ^ r5: .cfa -32 + ^ r6: .cfa -28 + ^ r7: .cfa -24 + ^ r8: .cfa -20 + ^ r9: .cfa -16 + ^
STACK CFI 3a48c .cfa: sp 100 + s16: .cfa -100 + ^ s18: .cfa -92 + ^ s20: .cfa -84 + ^ s22: .cfa -76 + ^ s24: .cfa -68 + ^ s26: .cfa -60 + ^ s28: .cfa -52 + ^ s30: .cfa -44 + ^
STACK CFI 3a490 .cfa: sp 216 +
STACK CFI INIT 3cf70 40 .cfa: sp 0 + .ra: lr
STACK CFI 3cf7c .cfa: sp 4 + r4: .cfa -4 + ^
STACK CFI INIT 3cfb0 50 .cfa: sp 0 + .ra: lr
STACK CFI 3cfc0 .cfa: sp 4 + r4: .cfa -4 + ^
STACK CFI INIT 3d000 10 .cfa: sp 0 + .ra: lr
STACK CFI INIT 3d010 c .cfa: sp 0 + .ra: lr
STACK CFI INIT 3d01c 14 .cfa: sp 0 + .ra: lr
STACK CFI INIT 3d030 11c .cfa: sp 0 + .ra: lr
STACK CFI 3d038 .cfa: sp 24 + .ra: .cfa -4 + ^ r4: .cfa -24 + ^ r5: .cfa -20 + ^ r6: .cfa -16 + ^ r7: .cfa -12 + ^ r8: .cfa -8 + ^
STACK CFI INIT 3d14c 10 .cfa: sp 0 + .ra: lr
STACK CFI INIT 3d15c 34 .cfa: sp 0 + .ra: lr
STACK CFI INIT 3d190 6c .cfa: sp 0 + .ra: lr
STACK CFI 3d194 .cfa: sp 16 + r4: .cfa -16 + ^ r5: .cfa -12 + ^ r6: .cfa -8 + ^ r7: .cfa -4 + ^
STACK CFI INIT 3d1fc c0 .cfa: sp 0 + .ra: lr
STACK CFI 3d200 .cfa: sp 24 + .ra: .cfa -4 + ^ r4: .cfa -24 + ^ r5: .cfa -20 + ^ r6: .cfa -16 + ^ r7: .cfa -12 + ^ r8: .cfa -8 + ^
STACK CFI INIT 3d2bc a4 .cfa: sp 0 + .ra: lr
STACK CFI 3d2c0 .cfa: sp 32 + .ra: .cfa -4 + ^ r3: .cfa -32 + ^ r4: .cfa -28 + ^ r5: .cfa -24 + ^ r6: .cfa -20 + ^ r7: .cfa -16 + ^ r8: .cfa -12 + ^ r9: .cfa -8 + ^
STACK CFI INIT 3d360 54 .cfa: sp 0 + .ra: lr
STACK CFI 3d364 .cfa: sp 16 + .ra: .cfa -4 + ^ r3: .cfa -16 + ^ r4: .cfa -12 + ^ r5: .cfa -8 + ^
STACK CFI INIT 3d3b4 1d4 .cfa: sp 0 + .ra: lr
STACK CFI 3d3bc .cfa: sp 36 + .ra: .cfa -4 + ^ r10: .cfa -12 + ^ r11: .cfa -8 + ^ r4: .cfa -36 + ^ r5: .cfa -32 + ^ r6: .cfa -28 + ^ r7: .cfa -24 + ^ r8: .cfa -20 + ^ r9: .cfa -16 + ^
STACK CFI 3d3c0 .cfa: sp 96 +
STACK CFI INIT 3d588 828 .cfa: sp 0 + .ra: lr
STACK CFI 3d58c .cfa: sp 36 + .ra: .cfa -4 + ^ r10: .cfa -12 + ^ r11: .cfa -8 + ^ r4: .cfa -36 + ^ r5: .cfa -32 + ^ r6: .cfa -28 + ^ r7: .cfa -24 + ^ r8: .cfa -20 + ^ r9: .cfa -16 + ^
STACK CFI 3d594 .cfa: sp 44 + s16: .cfa -44 + ^
STACK CFI 3d598 .cfa: sp 160 +
STACK CFI INIT 3ddb0 808 .cfa: sp 0 + .ra: lr
STACK CFI 3ddb4 .cfa: sp 32 + .ra: .cfa -4 + ^ r3: .cfa -32 + ^ r4: .cfa -28 + ^ r5: .cfa -24 + ^ r6: .cfa -20 + ^ r7: .cfa -16 + ^ r8: .cfa -12 + ^ r9: .cfa -8 + ^
STACK CFI INIT 3e5b8 66c .cfa: sp 0 + .ra: lr
STACK CFI 3e5bc .cfa: sp 36 + .ra: .cfa -4 + ^ r10: .cfa -12 + ^ r11: .cfa -8 + ^ r4: .cfa -36 + ^ r5: .cfa -32 + ^ r6: .cfa -28 + ^ r7: .cfa -24 + ^ r8: .cfa -20 + ^ r9: .cfa -16 + ^
STACK CFI 3e5c4 .cfa: sp 64 +
STACK CFI INIT 3ec24 c04 .cfa: sp 0 + .ra: lr
STACK CFI 3ec28 .cfa: sp 36 + .ra: .cfa -4 + ^ r10: .cfa -12 + ^ r11: .cfa -8 + ^ r4: .cfa -36 + ^ r5: .cfa -32 + ^ r6: .cfa -28 + ^ r7: .cfa -24 + ^ r8: .cfa -20 + ^ r9: .cfa -16 + ^
STACK CFI 3ec2c .cfa: sp 176 +
STACK CFI INIT 3f828 67c .cfa: sp 0 + .ra: lr
STACK CFI 3f82c .cfa: sp 36 + .ra: .cfa -4 + ^ r10: .cfa -12 + ^ r11: .cfa -8 + ^ r4: .cfa -36 + ^ r5: .cfa -32 + ^ r6: .cfa -28 + ^ r7: .cfa -24 + ^ r8: .cfa -20 + ^ r9: .cfa -16 + ^
STACK CFI 3f830 .cfa: sp 176 +
STACK CFI INIT 3fea4 6f0 .cfa: sp 0 + .ra: lr
STACK CFI 3fea8 .cfa: sp 36 + .ra: .cfa -4 + ^ r10: .cfa -12 + ^ r11: .cfa -8 + ^ r4: .cfa -36 + ^ r5: .cfa -32 + ^ r6: .cfa -28 + ^ r7: .cfa -24 + ^ r8: .cfa -20 + ^ r9: .cfa -16 + ^
STACK CFI 3feb0 .cfa: sp 120 +
STACK CFI INIT 40598 10 .cfa: sp 0 + .ra: lr
STACK CFI INIT 405a8 54 .cfa: sp 0 + .ra: lr
STACK CFI INIT 405fc 354 .cfa: sp 0 + .ra: lr
STACK CFI 40600 .cfa: sp 36 + .ra: .cfa -4 + ^ r10: .cfa -12 + ^ r11: .cfa -8 + ^ r4: .cfa -36 + ^ r5: .cfa -32 + ^ r6: .cfa -28 + ^ r7: .cfa -24 + ^ r8: .cfa -20 + ^ r9: .cfa -16 + ^
STACK CFI 40608 .cfa: sp 112 +
STACK CFI INIT 40950 15c .cfa: sp 0 + .ra: lr
STACK CFI 40954 .cfa: sp 40 + .ra: .cfa -4 + ^ r10: .cfa -12 + ^ r11: .cfa -8 + ^ r3: .cfa -40 + ^ r4: .cfa -36 + ^ r5: .cfa -32 + ^ r6: .cfa -28 + ^ r7: .cfa -24 + ^ r8: .cfa -20 + ^ r9: .cfa -16 + ^
STACK CFI 4095c .cfa: sp 48 + s16: .cfa -48 + ^
STACK CFI INIT 40aac 80 .cfa: sp 0 + .ra: lr
STACK CFI 40ab4 .cfa: sp 24 + r4: .cfa -24 + ^ r5: .cfa -20 + ^ r6: .cfa -16 + ^ r7: .cfa -12 + ^ r8: .cfa -8 + ^ r9: .cfa -4 + ^
STACK CFI INIT 40b2c 118 .cfa: sp 0 + .ra: lr
STACK CFI 40b30 .cfa: sp 32 + .ra: .cfa -4 + ^ r10: .cfa -8 + ^ r4: .cfa -32 + ^ r5: .cfa -28 + ^ r6: .cfa -24 + ^ r7: .cfa -20 + ^ r8: .cfa -16 + ^ r9: .cfa -12 + ^
STACK CFI 40b3c .cfa: sp 40 + s16: .cfa -40 + ^
STACK CFI INIT 40c44 58 .cfa: sp 0 + .ra: lr
STACK CFI 40c48 .cfa: sp 24 + .ra: .cfa -4 + ^ r4: .cfa -24 + ^ r5: .cfa -20 + ^ r6: .cfa -16 + ^ r7: .cfa -12 + ^ r8: .cfa -8 + ^
STACK CFI INIT 40c9c 7b4 .cfa: sp 0 + .ra: lr
STACK CFI 40ca0 .cfa: sp 36 + .ra: .cfa -4 + ^ r10: .cfa -12 + ^ r11: .cfa -8 + ^ r4: .cfa -36 + ^ r5: .cfa -32 + ^ r6: .cfa -28 + ^ r7: .cfa -24 + ^ r8: .cfa -20 + ^ r9: .cfa -16 + ^
STACK CFI 40ca8 .cfa: sp 44 + s16: .cfa -44 + ^
STACK CFI 40cac .cfa: sp 88 +
STACK CFI INIT 41450 38 .cfa: sp 0 + .ra: lr
STACK CFI 41454 .cfa: sp 16 + .ra: .cfa -4 + ^ r3: .cfa -16 + ^ r4: .cfa -12 + ^ r5: .cfa -8 + ^
STACK CFI INIT 41488 1f8 .cfa: sp 0 + .ra: lr
STACK CFI 4148c .cfa: sp 24 + .ra: .cfa -4 + ^ r4: .cfa -24 + ^ r5: .cfa -20 + ^ r6: .cfa -16 + ^ r7: .cfa -12 + ^ r8: .cfa -8 + ^
STACK CFI 41494 .cfa: sp 48 + s16: .cfa -48 + ^ s18: .cfa -40 + ^ s20: .cfa -32 + ^
STACK CFI 41498 .cfa: sp 56 +
STACK CFI INIT 41680 d0 .cfa: sp 0 + .ra: lr
STACK CFI 41684 .cfa: sp 24 + .ra: .cfa -4 + ^ r4: .cfa -24 + ^ r5: .cfa -20 + ^ r6: .cfa -16 + ^ r7: .cfa -12 + ^ r8: .cfa -8 + ^
STACK CFI INIT 41750 1b4 .cfa: sp 0 + .ra: lr
STACK CFI 41754 .cfa: sp 36 + .ra: .cfa -4 + ^ r10: .cfa -12 + ^ r11: .cfa -8 + ^ r4: .cfa -36 + ^ r5: .cfa -32 + ^ r6: .cfa -28 + ^ r7: .cfa -24 + ^ r8: .cfa -20 + ^ r9: .cfa -16 + ^
STACK CFI 41760 .cfa: sp 56 +
STACK CFI INIT 41904 ac .cfa: sp 0 + .ra: lr
STACK CFI 41908 .cfa: sp 24 + .ra: .cfa -4 + ^ r3: .cfa -24 + ^ r4: .cfa -20 + ^ r5: .cfa -16 + ^ r6: .cfa -12 + ^ r7: .cfa -8 + ^
STACK CFI INIT 419b0 124 .cfa: sp 0 + .ra: lr
STACK CFI 419b4 .cfa: sp 32 + .ra: .cfa -4 + ^ r3: .cfa -32 + ^ r4: .cfa -28 + ^ r5: .cfa -24 + ^ r6: .cfa -20 + ^ r7: .cfa -16 + ^ r8: .cfa -12 + ^ r9: .cfa -8 + ^
STACK CFI INIT 41ad4 4 .cfa: sp 0 + .ra: lr
STACK CFI INIT 41ad8 4 .cfa: sp 0 + .ra: lr
STACK CFI INIT 41adc 70 .cfa: sp 0 + .ra: lr
STACK CFI 41ae0 .cfa: sp 24 + .ra: .cfa -4 + ^ r4: .cfa -24 + ^ r5: .cfa -20 + ^ r6: .cfa -16 + ^ r7: .cfa -12 + ^ r8: .cfa -8 + ^
STACK CFI INIT 41b4c 6c .cfa: sp 0 + .ra: lr
STACK CFI 41b50 .cfa: sp 24 + .ra: .cfa -4 + ^ r4: .cfa -24 + ^ r5: .cfa -20 + ^ r6: .cfa -16 + ^ r7: .cfa -12 + ^ r8: .cfa -8 + ^
STACK CFI INIT 41bb8 90 .cfa: sp 0 + .ra: lr
STACK CFI 41bbc .cfa: sp 16 + .ra: .cfa -4 + ^ r4: .cfa -16 + ^ r5: .cfa -12 + ^ r6: .cfa -8 + ^
STACK CFI INIT 41c48 10 .cfa: sp 0 + .ra: lr
STACK CFI INIT 41c58 10 .cfa: sp 0 + .ra: lr
STACK CFI INIT 41c68 b4 .cfa: sp 0 + .ra: lr
STACK CFI 41c6c .cfa: sp 32 + .ra: .cfa -4 + ^ r10: .cfa -8 + ^ r4: .cfa -32 + ^ r5: .cfa -28 + ^ r6: .cfa -24 + ^ r7: .cfa -20 + ^ r8: .cfa -16 + ^ r9: .cfa -12 + ^
STACK CFI INIT 41d1c cc .cfa: sp 0 + .ra: lr
STACK CFI 41d20 .cfa: sp 24 + .ra: .cfa -4 + ^ r4: .cfa -24 + ^ r5: .cfa -20 + ^ r6: .cfa -16 + ^ r7: .cfa -12 + ^ r8: .cfa -8 + ^
STACK CFI INIT 41de8 8 .cfa: sp 0 + .ra: lr
STACK CFI INIT 41df0 c .cfa: sp 0 + .ra: lr
STACK CFI INIT 41dfc c4 .cfa: sp 0 + .ra: lr
STACK CFI 41e00 .cfa: sp 32 + .ra: .cfa -4 + ^ r3: .cfa -32 + ^ r4: .cfa -28 + ^ r5: .cfa -24 + ^ r6: .cfa -20 + ^ r7: .cfa -16 + ^ r8: .cfa -12 + ^ r9: .cfa -8 + ^
STACK CFI INIT 41ec0 78 .cfa: sp 0 + .ra: lr
STACK CFI 41ec4 .cfa: sp 24 + .ra: .cfa -4 + ^ r3: .cfa -24 + ^ r4: .cfa -20 + ^ r5: .cfa -16 + ^ r6: .cfa -12 + ^ r7: .cfa -8 + ^
STACK CFI INIT 41f38 8 .cfa: sp 0 + .ra: lr
STACK CFI INIT 41f40 8 .cfa: sp 0 + .ra: lr
STACK CFI INIT 41f48 10 .cfa: sp 0 + .ra: lr
STACK CFI INIT 41f58 1c .cfa: sp 0 + .ra: lr
STACK CFI 41f5c .cfa: sp 8 + .ra: .cfa -4 + ^ r4: .cfa -8 + ^
STACK CFI INIT 41f74 e0 .cfa: sp 0 + .ra: lr
STACK CFI 41f78 .cfa: sp 32 + .ra: .cfa -4 + ^ r3: .cfa -32 + ^ r4: .cfa -28 + ^ r5: .cfa -24 + ^ r6: .cfa -20 + ^ r7: .cfa -16 + ^ r8: .cfa -12 + ^ r9: .cfa -8 + ^
STACK CFI INIT 42054 d8 .cfa: sp 0 + .ra: lr
STACK CFI 42058 .cfa: sp 32 + .ra: .cfa -4 + ^ r3: .cfa -32 + ^ r4: .cfa -28 + ^ r5: .cfa -24 + ^ r6: .cfa -20 + ^ r7: .cfa -16 + ^ r8: .cfa -12 + ^ r9: .cfa -8 + ^
STACK CFI INIT 4212c 20 .cfa: sp 0 + .ra: lr
STACK CFI INIT 4214c 64 .cfa: sp 0 + .ra: lr
STACK CFI 42150 .cfa: sp 16 + .ra: .cfa -4 + ^ r4: .cfa -16 + ^ r5: .cfa -12 + ^ r6: .cfa -8 + ^
STACK CFI INIT 421b0 178 .cfa: sp 0 + .ra: lr
STACK CFI 421b4 .cfa: sp 32 + .ra: .cfa -4 + ^ r10: .cfa -8 + ^ r4: .cfa -32 + ^ r5: .cfa -28 + ^ r6: .cfa -24 + ^ r7: .cfa -20 + ^ r8: .cfa -16 + ^ r9: .cfa -12 + ^
STACK CFI INIT 42328 1d4 .cfa: sp 0 + .ra: lr
STACK CFI 4232c .cfa: sp 36 + .ra: .cfa -4 + ^ r10: .cfa -12 + ^ r11: .cfa -8 + ^ r4: .cfa -36 + ^ r5: .cfa -32 + ^ r6: .cfa -28 + ^ r7: .cfa -24 + ^ r8: .cfa -20 + ^ r9: .cfa -16 + ^
STACK CFI 42334 .cfa: sp 48 +
STACK CFI INIT 424fc 37c .cfa: sp 0 + .ra: lr
STACK CFI 42500 .cfa: sp 36 + .ra: .cfa -4 + ^ r10: .cfa -12 + ^ r11: .cfa -8 + ^ r4: .cfa -36 + ^ r5: .cfa -32 + ^ r6: .cfa -28 + ^ r7: .cfa -24 + ^ r8: .cfa -20 + ^ r9: .cfa -16 + ^
STACK CFI 42504 .cfa: sp 64 +
STACK CFI INIT 42878 6c .cfa: sp 0 + .ra: lr
STACK CFI 42880 .cfa: sp 12 + r4: .cfa -12 + ^ r5: .cfa -8 + ^ r6: .cfa -4 + ^
STACK CFI INIT 428e4 84 .cfa: sp 0 + .ra: lr
STACK CFI 428ec .cfa: sp 12 + r4: .cfa -12 + ^ r5: .cfa -8 + ^ r6: .cfa -4 + ^
STACK CFI INIT 42968 94 .cfa: sp 0 + .ra: lr
STACK CFI 42970 .cfa: sp 12 + r4: .cfa -12 + ^ r5: .cfa -8 + ^ r6: .cfa -4 + ^
STACK CFI INIT 429fc a4 .cfa: sp 0 + .ra: lr
STACK CFI 42a00 .cfa: sp 12 + r4: .cfa -12 + ^ r5: .cfa -8 + ^ r6: .cfa -4 + ^
STACK CFI INIT 42aa0 70 .cfa: sp 0 + .ra: lr
STACK CFI 42aa8 .cfa: sp 12 + r4: .cfa -12 + ^ r5: .cfa -8 + ^ r6: .cfa -4 + ^
STACK CFI INIT 42b10 80 .cfa: sp 0 + .ra: lr
STACK CFI 42b18 .cfa: sp 16 + r4: .cfa -16 + ^ r5: .cfa -12 + ^ r6: .cfa -8 + ^ r7: .cfa -4 + ^
STACK CFI INIT 42b90 194 .cfa: sp 0 + .ra: lr
STACK CFI 42b94 .cfa: sp 24 + .ra: .cfa -4 + ^ r4: .cfa -24 + ^ r5: .cfa -20 + ^ r6: .cfa -16 + ^ r7: .cfa -12 + ^ r8: .cfa -8 + ^
STACK CFI 42b9c .cfa: sp 40 +
STACK CFI INIT 42d24 2a8 .cfa: sp 0 + .ra: lr
STACK CFI 42d28 .cfa: sp 20 + .ra: .cfa -4 + ^ r4: .cfa -20 + ^ r5: .cfa -16 + ^ r6: .cfa -12 + ^ r7: .cfa -8 + ^
STACK CFI 42d30 .cfa: sp 36 + s16: .cfa -36 + ^ s18: .cfa -28 + ^
STACK CFI 42d34 .cfa: sp 48 +
STACK CFI INIT 42fcc ae0 .cfa: sp 0 + .ra: lr
STACK CFI 42fd4 .cfa: sp 36 + .ra: .cfa -4 + ^ r10: .cfa -12 + ^ r11: .cfa -8 + ^ r4: .cfa -36 + ^ r5: .cfa -32 + ^ r6: .cfa -28 + ^ r7: .cfa -24 + ^ r8: .cfa -20 + ^ r9: .cfa -16 + ^
STACK CFI 42fd8 .cfa: sp 120 +
STACK CFI INIT 43aac 138 .cfa: sp 0 + .ra: lr
STACK CFI 43ab0 .cfa: sp 40 + .ra: .cfa -4 + ^ r10: .cfa -12 + ^ r11: .cfa -8 + ^ r3: .cfa -40 + ^ r4: .cfa -36 + ^ r5: .cfa -32 + ^ r6: .cfa -28 + ^ r7: .cfa -24 + ^ r8: .cfa -20 + ^ r9: .cfa -16 + ^
STACK CFI INIT 43be4 14c .cfa: sp 0 + .ra: lr
STACK CFI 43be8 .cfa: sp 24 + .ra: .cfa -4 + ^ r4: .cfa -24 + ^ r5: .cfa -20 + ^ r6: .cfa -16 + ^ r7: .cfa -12 + ^ r8: .cfa -8 + ^
STACK CFI INIT 43d30 4c .cfa: sp 0 + .ra: lr
STACK CFI 43d34 .cfa: sp 16 + .ra: .cfa -4 + ^ r3: .cfa -16 + ^ r4: .cfa -12 + ^ r5: .cfa -8 + ^
STACK CFI INIT 43d7c 10 .cfa: sp 0 + .ra: lr
STACK CFI INIT 43d8c 4cc .cfa: sp 0 + .ra: lr
STACK CFI 43d90 .cfa: sp 20 + .ra: .cfa -4 + ^ r4: .cfa -20 + ^ r5: .cfa -16 + ^ r6: .cfa -12 + ^ r7: .cfa -8 + ^
STACK CFI 43d98 .cfa: sp 32 +
STACK CFI INIT 44258 8 .cfa: sp 0 + .ra: lr
STACK CFI INIT 44260 48 .cfa: sp 0 + .ra: lr
STACK CFI INIT 442a8 4c .cfa: sp 0 + .ra: lr
STACK CFI 442ac .cfa: sp 8 + .ra: .cfa -4 + ^ r4: .cfa -8 + ^
STACK CFI INIT 442f4 d4 .cfa: sp 0 + .ra: lr
STACK CFI 442f8 .cfa: sp 24 + .ra: .cfa -4 + ^ r4: .cfa -24 + ^ r5: .cfa -20 + ^ r6: .cfa -16 + ^ r7: .cfa -12 + ^ r8: .cfa -8 + ^
STACK CFI 442fc .cfa: sp 32 +
STACK CFI INIT 443c8 9c .cfa: sp 0 + .ra: lr
STACK CFI 443cc .cfa: sp 16 + .ra: .cfa -4 + ^ r3: .cfa -16 + ^ r4: .cfa -12 + ^ r5: .cfa -8 + ^
STACK CFI INIT 44464 94 .cfa: sp 0 + .ra: lr
STACK CFI 44468 .cfa: sp 32 + .ra: .cfa -4 + ^ r10: .cfa -8 + ^ r4: .cfa -32 + ^ r5: .cfa -28 + ^ r6: .cfa -24 + ^ r7: .cfa -20 + ^ r8: .cfa -16 + ^ r9: .cfa -12 + ^
STACK CFI INIT 444f8 64 .cfa: sp 0 + .ra: lr
STACK CFI 444fc .cfa: sp 16 + .ra: .cfa -4 + ^ r3: .cfa -16 + ^ r4: .cfa -12 + ^ r5: .cfa -8 + ^
STACK CFI INIT 4455c 3c .cfa: sp 0 + .ra: lr
STACK CFI 44560 .cfa: sp 16 + .ra: .cfa -4 + ^ r3: .cfa -16 + ^ r4: .cfa -12 + ^ r5: .cfa -8 + ^
STACK CFI INIT 44598 170 .cfa: sp 0 + .ra: lr
STACK CFI 4459c .cfa: sp 40 + .ra: .cfa -4 + ^ r10: .cfa -12 + ^ r11: .cfa -8 + ^ r3: .cfa -40 + ^ r4: .cfa -36 + ^ r5: .cfa -32 + ^ r6: .cfa -28 + ^ r7: .cfa -24 + ^ r8: .cfa -20 + ^ r9: .cfa -16 + ^
STACK CFI INIT 44708 230 .cfa: sp 0 + .ra: lr
STACK CFI 4470c .cfa: sp 36 + .ra: .cfa -4 + ^ r10: .cfa -12 + ^ r11: .cfa -8 + ^ r4: .cfa -36 + ^ r5: .cfa -32 + ^ r6: .cfa -28 + ^ r7: .cfa -24 + ^ r8: .cfa -20 + ^ r9: .cfa -16 + ^
STACK CFI 44718 .cfa: sp 56 +
STACK CFI INIT 44938 f8 .cfa: sp 0 + .ra: lr
STACK CFI 44940 .cfa: sp 4 + r4: .cfa -4 + ^
STACK CFI INIT 44a30 118 .cfa: sp 0 + .ra: lr
STACK CFI 44a38 .cfa: sp 8 + r4: .cfa -8 + ^ r5: .cfa -4 + ^
STACK CFI INIT 44b48 e4 .cfa: sp 0 + .ra: lr
STACK CFI 44b50 .cfa: sp 4 + r4: .cfa -4 + ^
STACK CFI INIT 44c2c 124 .cfa: sp 0 + .ra: lr
STACK CFI 44c34 .cfa: sp 4 + r4: .cfa -4 + ^
STACK CFI INIT 44d50 cc .cfa: sp 0 + .ra: lr
STACK CFI 44d58 .cfa: sp 16 + r4: .cfa -16 + ^ r5: .cfa -12 + ^ r6: .cfa -8 + ^ r7: .cfa -4 + ^
STACK CFI INIT 44e1c 80 .cfa: sp 0 + .ra: lr
STACK CFI 44e24 .cfa: sp 12 + r4: .cfa -12 + ^ r5: .cfa -8 + ^ r6: .cfa -4 + ^
STACK CFI INIT 44e9c f0 .cfa: sp 0 + .ra: lr
STACK CFI 44ea4 .cfa: sp 16 + r4: .cfa -16 + ^ r5: .cfa -12 + ^ r6: .cfa -8 + ^ r7: .cfa -4 + ^
STACK CFI INIT 44f8c 1d0 .cfa: sp 0 + .ra: lr
STACK CFI 44f94 .cfa: sp 32 + r10: .cfa -8 + ^ r11: .cfa -4 + ^ r4: .cfa -32 + ^ r5: .cfa -28 + ^ r6: .cfa -24 + ^ r7: .cfa -20 + ^ r8: .cfa -16 + ^ r9: .cfa -12 + ^
STACK CFI 44f98 .cfa: sp 56 +
STACK CFI INIT 4515c 1e8 .cfa: sp 0 + .ra: lr
STACK CFI 45164 .cfa: sp 12 + r4: .cfa -12 + ^ r5: .cfa -8 + ^ r6: .cfa -4 + ^
STACK CFI INIT 45344 3c .cfa: sp 0 + .ra: lr
STACK CFI 4534c .cfa: sp 4 + r4: .cfa -4 + ^
STACK CFI INIT 45380 1e0 .cfa: sp 0 + .ra: lr
STACK CFI 45388 .cfa: sp 32 + r10: .cfa -8 + ^ r11: .cfa -4 + ^ r4: .cfa -32 + ^ r5: .cfa -28 + ^ r6: .cfa -24 + ^ r7: .cfa -20 + ^ r8: .cfa -16 + ^ r9: .cfa -12 + ^
STACK CFI INIT 45560 1f0 .cfa: sp 0 + .ra: lr
STACK CFI 45568 .cfa: sp 32 + r10: .cfa -8 + ^ r11: .cfa -4 + ^ r4: .cfa -32 + ^ r5: .cfa -28 + ^ r6: .cfa -24 + ^ r7: .cfa -20 + ^ r8: .cfa -16 + ^ r9: .cfa -12 + ^
STACK CFI INIT 45750 f8 .cfa: sp 0 + .ra: lr
STACK CFI 45758 .cfa: sp 4 + r4: .cfa -4 + ^
STACK CFI INIT 45848 94 .cfa: sp 0 + .ra: lr
STACK CFI 45850 .cfa: sp 4 + r4: .cfa -4 + ^
STACK CFI INIT 458dc 4c .cfa: sp 0 + .ra: lr
STACK CFI 458e4 .cfa: sp 4 + r4: .cfa -4 + ^
STACK CFI INIT 45928 74 .cfa: sp 0 + .ra: lr
STACK CFI 4592c .cfa: sp 20 + r4: .cfa -20 + ^ r5: .cfa -16 + ^ r6: .cfa -12 + ^ r7: .cfa -8 + ^ r8: .cfa -4 + ^
STACK CFI INIT 4599c a0 .cfa: sp 0 + .ra: lr
STACK CFI 459a0 .cfa: sp 32 + r10: .cfa -8 + ^ r11: .cfa -4 + ^ r4: .cfa -32 + ^ r5: .cfa -28 + ^ r6: .cfa -24 + ^ r7: .cfa -20 + ^ r8: .cfa -16 + ^ r9: .cfa -12 + ^
STACK CFI INIT 45a3c 124 .cfa: sp 0 + .ra: lr
STACK CFI 45a44 .cfa: sp 20 + r4: .cfa -20 + ^ r5: .cfa -16 + ^ r6: .cfa -12 + ^ r7: .cfa -8 + ^ r8: .cfa -4 + ^
STACK CFI 45a48 .cfa: sp 36 + s16: .cfa -36 + ^ s18: .cfa -28 + ^
STACK CFI INIT 45b60 44 .cfa: sp 0 + .ra: lr
STACK CFI INIT 45ba4 224 .cfa: sp 0 + .ra: lr
STACK CFI 45bac .cfa: sp 32 + r10: .cfa -8 + ^ r11: .cfa -4 + ^ r4: .cfa -32 + ^ r5: .cfa -28 + ^ r6: .cfa -24 + ^ r7: .cfa -20 + ^ r8: .cfa -16 + ^ r9: .cfa -12 + ^
STACK CFI 45bb0 .cfa: sp 72 +
STACK CFI INIT 45dc8 64 .cfa: sp 0 + .ra: lr
STACK CFI 45dd0 .cfa: sp 4 + r4: .cfa -4 + ^
STACK CFI INIT 45e2c 11c .cfa: sp 0 + .ra: lr
STACK CFI 45e34 .cfa: sp 20 + r4: .cfa -20 + ^ r5: .cfa -16 + ^ r6: .cfa -12 + ^ r7: .cfa -8 + ^ r8: .cfa -4 + ^
STACK CFI 45e38 .cfa: sp 36 + s16: .cfa -36 + ^ s18: .cfa -28 + ^
STACK CFI INIT 45f48 8cc .cfa: sp 0 + .ra: lr
STACK CFI 45f50 .cfa: sp 32 + r10: .cfa -8 + ^ r11: .cfa -4 + ^ r4: .cfa -32 + ^ r5: .cfa -28 + ^ r6: .cfa -24 + ^ r7: .cfa -20 + ^ r8: .cfa -16 + ^ r9: .cfa -12 + ^
STACK CFI 45f54 .cfa: sp 96 + s16: .cfa -96 + ^ s18: .cfa -88 + ^ s20: .cfa -80 + ^ s22: .cfa -72 + ^ s24: .cfa -64 + ^ s26: .cfa -56 + ^ s28: .cfa -48 + ^ s30: .cfa -40 + ^
STACK CFI 45f58 .cfa: sp 200 +
STACK CFI INIT 46814 504 .cfa: sp 0 + .ra: lr
STACK CFI 4681c .cfa: sp 32 + r10: .cfa -8 + ^ r11: .cfa -4 + ^ r4: .cfa -32 + ^ r5: .cfa -28 + ^ r6: .cfa -24 + ^ r7: .cfa -20 + ^ r8: .cfa -16 + ^ r9: .cfa -12 + ^
STACK CFI 46820 .cfa: sp 96 + s16: .cfa -96 + ^ s18: .cfa -88 + ^ s20: .cfa -80 + ^ s22: .cfa -72 + ^ s24: .cfa -64 + ^ s26: .cfa -56 + ^ s28: .cfa -48 + ^ s30: .cfa -40 + ^
STACK CFI 46824 .cfa: sp 216 +
STACK CFI INIT 46d18 8ec .cfa: sp 0 + .ra: lr
STACK CFI 46d20 .cfa: sp 32 + r10: .cfa -8 + ^ r11: .cfa -4 + ^ r4: .cfa -32 + ^ r5: .cfa -28 + ^ r6: .cfa -24 + ^ r7: .cfa -20 + ^ r8: .cfa -16 + ^ r9: .cfa -12 + ^
STACK CFI 46d24 .cfa: sp 96 + s16: .cfa -96 + ^ s18: .cfa -88 + ^ s20: .cfa -80 + ^ s22: .cfa -72 + ^ s24: .cfa -64 + ^ s26: .cfa -56 + ^ s28: .cfa -48 + ^ s30: .cfa -40 + ^
STACK CFI 46d28 .cfa: sp 232 +
STACK CFI INIT 47604 53c .cfa: sp 0 + .ra: lr
STACK CFI 4760c .cfa: sp 32 + r10: .cfa -8 + ^ r11: .cfa -4 + ^ r4: .cfa -32 + ^ r5: .cfa -28 + ^ r6: .cfa -24 + ^ r7: .cfa -20 + ^ r8: .cfa -16 + ^ r9: .cfa -12 + ^
STACK CFI 47610 .cfa: sp 96 + s16: .cfa -96 + ^ s18: .cfa -88 + ^ s20: .cfa -80 + ^ s22: .cfa -72 + ^ s24: .cfa -64 + ^ s26: .cfa -56 + ^ s28: .cfa -48 + ^ s30: .cfa -40 + ^
STACK CFI 47614 .cfa: sp 232 +
STACK CFI INIT 47b40 914 .cfa: sp 0 + .ra: lr
STACK CFI 47b48 .cfa: sp 32 + r10: .cfa -8 + ^ r11: .cfa -4 + ^ r4: .cfa -32 + ^ r5: .cfa -28 + ^ r6: .cfa -24 + ^ r7: .cfa -20 + ^ r8: .cfa -16 + ^ r9: .cfa -12 + ^
STACK CFI 47b4c .cfa: sp 96 + s16: .cfa -96 + ^ s18: .cfa -88 + ^ s20: .cfa -80 + ^ s22: .cfa -72 + ^ s24: .cfa -64 + ^ s26: .cfa -56 + ^ s28: .cfa -48 + ^ s30: .cfa -40 + ^
STACK CFI 47b50 .cfa: sp 192 +
STACK CFI INIT 48454 924 .cfa: sp 0 + .ra: lr
STACK CFI 4845c .cfa: sp 32 + r10: .cfa -8 + ^ r11: .cfa -4 + ^ r4: .cfa -32 + ^ r5: .cfa -28 + ^ r6: .cfa -24 + ^ r7: .cfa -20 + ^ r8: .cfa -16 + ^ r9: .cfa -12 + ^
STACK CFI 48460 .cfa: sp 96 + s16: .cfa -96 + ^ s18: .cfa -88 + ^ s20: .cfa -80 + ^ s22: .cfa -72 + ^ s24: .cfa -64 + ^ s26: .cfa -56 + ^ s28: .cfa -48 + ^ s30: .cfa -40 + ^
STACK CFI 48464 .cfa: sp 192 +
STACK CFI INIT 48d78 430 .cfa: sp 0 + .ra: lr
STACK CFI 48d80 .cfa: sp 32 + r10: .cfa -8 + ^ r11: .cfa -4 + ^ r4: .cfa -32 + ^ r5: .cfa -28 + ^ r6: .cfa -24 + ^ r7: .cfa -20 + ^ r8: .cfa -16 + ^ r9: .cfa -12 + ^
STACK CFI 48d84 .cfa: sp 96 + s16: .cfa -96 + ^ s18: .cfa -88 + ^ s20: .cfa -80 + ^ s22: .cfa -72 + ^ s24: .cfa -64 + ^ s26: .cfa -56 + ^ s28: .cfa -48 + ^ s30: .cfa -40 + ^
STACK CFI 48d88 .cfa: sp 112 +
STACK CFI INIT 491a8 4a0 .cfa: sp 0 + .ra: lr
STACK CFI 491b0 .cfa: sp 32 + r10: .cfa -8 + ^ r11: .cfa -4 + ^ r4: .cfa -32 + ^ r5: .cfa -28 + ^ r6: .cfa -24 + ^ r7: .cfa -20 + ^ r8: .cfa -16 + ^ r9: .cfa -12 + ^
STACK CFI 491b4 .cfa: sp 96 + s16: .cfa -96 + ^ s18: .cfa -88 + ^ s20: .cfa -80 + ^ s22: .cfa -72 + ^ s24: .cfa -64 + ^ s26: .cfa -56 + ^ s28: .cfa -48 + ^ s30: .cfa -40 + ^
STACK CFI 491b8 .cfa: sp 120 +
STACK CFI INIT 49648 124 .cfa: sp 0 + .ra: lr
STACK CFI 49650 .cfa: sp 20 + r4: .cfa -20 + ^ r5: .cfa -16 + ^ r6: .cfa -12 + ^ r7: .cfa -8 + ^ r8: .cfa -4 + ^
STACK CFI INIT 4976c 12c .cfa: sp 0 + .ra: lr
STACK CFI 49774 .cfa: sp 20 + r4: .cfa -20 + ^ r5: .cfa -16 + ^ r6: .cfa -12 + ^ r7: .cfa -8 + ^ r8: .cfa -4 + ^
STACK CFI INIT 49898 12c .cfa: sp 0 + .ra: lr
STACK CFI 498a0 .cfa: sp 20 + r4: .cfa -20 + ^ r5: .cfa -16 + ^ r6: .cfa -12 + ^ r7: .cfa -8 + ^ r8: .cfa -4 + ^
STACK CFI INIT 499c4 f0 .cfa: sp 0 + .ra: lr
STACK CFI 499cc .cfa: sp 16 + r4: .cfa -16 + ^ r5: .cfa -12 + ^ r6: .cfa -8 + ^ r7: .cfa -4 + ^
STACK CFI INIT 49ab4 118 .cfa: sp 0 + .ra: lr
STACK CFI 49abc .cfa: sp 20 + r4: .cfa -20 + ^ r5: .cfa -16 + ^ r6: .cfa -12 + ^ r7: .cfa -8 + ^ r8: .cfa -4 + ^
STACK CFI INIT 49bcc 128 .cfa: sp 0 + .ra: lr
STACK CFI 49bd4 .cfa: sp 36 + .ra: .cfa -4 + ^ r10: .cfa -12 + ^ r11: .cfa -8 + ^ r4: .cfa -36 + ^ r5: .cfa -32 + ^ r6: .cfa -28 + ^ r7: .cfa -24 + ^ r8: .cfa -20 + ^ r9: .cfa -16 + ^
STACK CFI 49bd8 .cfa: sp 48 +
STACK CFI INIT 49cf4 12c .cfa: sp 0 + .ra: lr
STACK CFI 49cfc .cfa: sp 20 + r4: .cfa -20 + ^ r5: .cfa -16 + ^ r6: .cfa -12 + ^ r7: .cfa -8 + ^ r8: .cfa -4 + ^
STACK CFI INIT 49e20 260 .cfa: sp 0 + .ra: lr
STACK CFI 49e28 .cfa: sp 32 + r10: .cfa -8 + ^ r11: .cfa -4 + ^ r4: .cfa -32 + ^ r5: .cfa -28 + ^ r6: .cfa -24 + ^ r7: .cfa -20 + ^ r8: .cfa -16 + ^ r9: .cfa -12 + ^
STACK CFI 49e2c .cfa: sp 80 +
STACK CFI INIT 4a080 188 .cfa: sp 0 + .ra: lr
STACK CFI 4a088 .cfa: sp 32 + r10: .cfa -8 + ^ r11: .cfa -4 + ^ r4: .cfa -32 + ^ r5: .cfa -28 + ^ r6: .cfa -24 + ^ r7: .cfa -20 + ^ r8: .cfa -16 + ^ r9: .cfa -12 + ^
STACK CFI 4a08c .cfa: sp 40 +
STACK CFI INIT 4a208 10c .cfa: sp 0 + .ra: lr
STACK CFI 4a210 .cfa: sp 20 + r4: .cfa -20 + ^ r5: .cfa -16 + ^ r6: .cfa -12 + ^ r7: .cfa -8 + ^ r8: .cfa -4 + ^
STACK CFI INIT 4a314 10c .cfa: sp 0 + .ra: lr
STACK CFI 4a31c .cfa: sp 20 + r4: .cfa -20 + ^ r5: .cfa -16 + ^ r6: .cfa -12 + ^ r7: .cfa -8 + ^ r8: .cfa -4 + ^
STACK CFI INIT 4a420 114 .cfa: sp 0 + .ra: lr
STACK CFI 4a428 .cfa: sp 20 + r4: .cfa -20 + ^ r5: .cfa -16 + ^ r6: .cfa -12 + ^ r7: .cfa -8 + ^ r8: .cfa -4 + ^
STACK CFI INIT 4a534 170 .cfa: sp 0 + .ra: lr
STACK CFI 4a53c .cfa: sp 12 + r4: .cfa -12 + ^ r5: .cfa -8 + ^ r6: .cfa -4 + ^
STACK CFI INIT 4a6a4 148 .cfa: sp 0 + .ra: lr
STACK CFI 4a6ac .cfa: sp 20 + r4: .cfa -20 + ^ r5: .cfa -16 + ^ r6: .cfa -12 + ^ r7: .cfa -8 + ^ r8: .cfa -4 + ^
STACK CFI 4a6b0 .cfa: sp 36 + s16: .cfa -36 + ^ s18: .cfa -28 + ^
STACK CFI INIT 4a7ec 240 .cfa: sp 0 + .ra: lr
STACK CFI 4a7f4 .cfa: sp 12 + r4: .cfa -12 + ^ r5: .cfa -8 + ^ r6: .cfa -4 + ^
STACK CFI INIT 4aa2c 15c .cfa: sp 0 + .ra: lr
STACK CFI 4aa34 .cfa: sp 12 + r4: .cfa -12 + ^ r5: .cfa -8 + ^ r6: .cfa -4 + ^
STACK CFI INIT 4ab88 70 .cfa: sp 0 + .ra: lr
STACK CFI 4ab90 .cfa: sp 4 + r4: .cfa -4 + ^
STACK CFI INIT 4abf8 26c .cfa: sp 0 + .ra: lr
STACK CFI 4ac00 .cfa: sp 24 + r4: .cfa -24 + ^ r5: .cfa -20 + ^ r6: .cfa -16 + ^ r7: .cfa -12 + ^ r8: .cfa -8 + ^ r9: .cfa -4 + ^
STACK CFI INIT 4ae64 26c .cfa: sp 0 + .ra: lr
STACK CFI 4ae6c .cfa: sp 24 + r4: .cfa -24 + ^ r5: .cfa -20 + ^ r6: .cfa -16 + ^ r7: .cfa -12 + ^ r8: .cfa -8 + ^ r9: .cfa -4 + ^
STACK CFI INIT 4b0d0 40 .cfa: sp 0 + .ra: lr
STACK CFI 4b0d8 .cfa: sp 8 +
STACK CFI INIT 4b110 40 .cfa: sp 0 + .ra: lr
STACK CFI 4b118 .cfa: sp 8 +
STACK CFI INIT 4b150 40 .cfa: sp 0 + .ra: lr
STACK CFI 4b158 .cfa: sp 8 +
STACK CFI INIT 4b190 40 .cfa: sp 0 + .ra: lr
STACK CFI 4b198 .cfa: sp 8 +
STACK CFI INIT 4b1d0 40 .cfa: sp 0 + .ra: lr
STACK CFI 4b1d8 .cfa: sp 8 +
STACK CFI INIT 4b210 40 .cfa: sp 0 + .ra: lr
STACK CFI 4b218 .cfa: sp 8 +
STACK CFI INIT 4b250 58 .cfa: sp 0 + .ra: lr
STACK CFI 4b258 .cfa: sp 8 + r4: .cfa -8 + ^ r5: .cfa -4 + ^
STACK CFI 4b25c .cfa: sp 16 +
STACK CFI INIT 4b2a8 58 .cfa: sp 0 + .ra: lr
STACK CFI 4b2b0 .cfa: sp 8 + r4: .cfa -8 + ^ r5: .cfa -4 + ^
STACK CFI 4b2b4 .cfa: sp 16 +
STACK CFI INIT 4b300 58 .cfa: sp 0 + .ra: lr
STACK CFI 4b308 .cfa: sp 8 + r4: .cfa -8 + ^ r5: .cfa -4 + ^
STACK CFI 4b30c .cfa: sp 16 +
STACK CFI INIT 4b358 58 .cfa: sp 0 + .ra: lr
STACK CFI 4b360 .cfa: sp 8 + r4: .cfa -8 + ^ r5: .cfa -4 + ^
STACK CFI 4b364 .cfa: sp 16 +
STACK CFI INIT 4b3b0 58 .cfa: sp 0 + .ra: lr
STACK CFI 4b3b8 .cfa: sp 8 + r4: .cfa -8 + ^ r5: .cfa -4 + ^
STACK CFI 4b3bc .cfa: sp 16 +
STACK CFI INIT 4b408 58 .cfa: sp 0 + .ra: lr
STACK CFI 4b410 .cfa: sp 8 + r4: .cfa -8 + ^ r5: .cfa -4 + ^
STACK CFI 4b414 .cfa: sp 16 +
STACK CFI INIT 4b460 378 .cfa: sp 0 + .ra: lr
STACK CFI 4b468 .cfa: sp 24 + r4: .cfa -24 + ^ r5: .cfa -20 + ^ r6: .cfa -16 + ^ r7: .cfa -12 + ^ r8: .cfa -8 + ^ r9: .cfa -4 + ^
STACK CFI INIT 4b7d8 378 .cfa: sp 0 + .ra: lr
STACK CFI 4b7e0 .cfa: sp 24 + r4: .cfa -24 + ^ r5: .cfa -20 + ^ r6: .cfa -16 + ^ r7: .cfa -12 + ^ r8: .cfa -8 + ^ r9: .cfa -4 + ^
STACK CFI INIT 4bb50 44 .cfa: sp 0 + .ra: lr
STACK CFI 4bb58 .cfa: sp 8 +
STACK CFI INIT 4bb94 44 .cfa: sp 0 + .ra: lr
STACK CFI 4bb9c .cfa: sp 8 +
STACK CFI INIT 4bbd8 44 .cfa: sp 0 + .ra: lr
STACK CFI 4bbe0 .cfa: sp 8 +
STACK CFI INIT 4bc1c 44 .cfa: sp 0 + .ra: lr
STACK CFI 4bc24 .cfa: sp 8 +
STACK CFI INIT 4bc60 44 .cfa: sp 0 + .ra: lr
STACK CFI 4bc68 .cfa: sp 8 +
STACK CFI INIT 4bca4 44 .cfa: sp 0 + .ra: lr
STACK CFI 4bcac .cfa: sp 8 +
STACK CFI INIT 4bce8 58 .cfa: sp 0 + .ra: lr
STACK CFI 4bcf0 .cfa: sp 8 + r4: .cfa -8 + ^ r5: .cfa -4 + ^
STACK CFI 4bcf4 .cfa: sp 16 +
STACK CFI INIT 4bd40 58 .cfa: sp 0 + .ra: lr
STACK CFI 4bd48 .cfa: sp 8 + r4: .cfa -8 + ^ r5: .cfa -4 + ^
STACK CFI 4bd4c .cfa: sp 16 +
STACK CFI INIT 4bd98 58 .cfa: sp 0 + .ra: lr
STACK CFI 4bda0 .cfa: sp 8 + r4: .cfa -8 + ^ r5: .cfa -4 + ^
STACK CFI 4bda4 .cfa: sp 16 +
STACK CFI INIT 4bdf0 58 .cfa: sp 0 + .ra: lr
STACK CFI 4bdf8 .cfa: sp 8 + r4: .cfa -8 + ^ r5: .cfa -4 + ^
STACK CFI 4bdfc .cfa: sp 16 +
STACK CFI INIT 4be48 58 .cfa: sp 0 + .ra: lr
STACK CFI 4be50 .cfa: sp 8 + r4: .cfa -8 + ^ r5: .cfa -4 + ^
STACK CFI 4be54 .cfa: sp 16 +
STACK CFI INIT 4bea0 58 .cfa: sp 0 + .ra: lr
STACK CFI 4bea8 .cfa: sp 8 + r4: .cfa -8 + ^ r5: .cfa -4 + ^
STACK CFI 4beac .cfa: sp 16 +
STACK CFI INIT 4bef8 54 .cfa: sp 0 + .ra: lr
STACK CFI 4bf00 .cfa: sp 8 + r4: .cfa -8 + ^ r5: .cfa -4 + ^
STACK CFI 4bf04 .cfa: sp 16 +
STACK CFI INIT 4bf4c 54 .cfa: sp 0 + .ra: lr
STACK CFI 4bf54 .cfa: sp 8 + r4: .cfa -8 + ^ r5: .cfa -4 + ^
STACK CFI 4bf58 .cfa: sp 16 +
STACK CFI INIT 4bfa0 54 .cfa: sp 0 + .ra: lr
STACK CFI 4bfa8 .cfa: sp 8 + r4: .cfa -8 + ^ r5: .cfa -4 + ^
STACK CFI 4bfac .cfa: sp 16 +
STACK CFI INIT 4bff4 34 .cfa: sp 0 + .ra: lr
STACK CFI 4bffc .cfa: sp 8 +
STACK CFI INIT 4c028 78 .cfa: sp 0 + .ra: lr
STACK CFI 4c030 .cfa: sp 24 + r4: .cfa -24 + ^ r5: .cfa -20 + ^ r6: .cfa -16 + ^ r7: .cfa -12 + ^ r8: .cfa -8 + ^ r9: .cfa -4 + ^
STACK CFI 4c034 .cfa: sp 32 +
STACK CFI INIT 4c0a0 34 .cfa: sp 0 + .ra: lr
STACK CFI 4c0a8 .cfa: sp 8 +
STACK CFI INIT 4c0d4 b8 .cfa: sp 0 + .ra: lr
STACK CFI 4c0dc .cfa: sp 16 + r4: .cfa -16 + ^ r5: .cfa -12 + ^ r6: .cfa -8 + ^ r7: .cfa -4 + ^
STACK CFI INIT 4c18c b4 .cfa: sp 0 + .ra: lr
STACK CFI 4c194 .cfa: sp 16 + r4: .cfa -16 + ^ r5: .cfa -12 + ^ r6: .cfa -8 + ^ r7: .cfa -4 + ^
STACK CFI INIT 4c240 b4 .cfa: sp 0 + .ra: lr
STACK CFI 4c248 .cfa: sp 16 + r4: .cfa -16 + ^ r5: .cfa -12 + ^ r6: .cfa -8 + ^ r7: .cfa -4 + ^
STACK CFI INIT 4c2f4 b4 .cfa: sp 0 + .ra: lr
STACK CFI 4c2fc .cfa: sp 16 + r4: .cfa -16 + ^ r5: .cfa -12 + ^ r6: .cfa -8 + ^ r7: .cfa -4 + ^
STACK CFI INIT 4c3a8 dc .cfa: sp 0 + .ra: lr
STACK CFI 4c3b0 .cfa: sp 16 + r4: .cfa -16 + ^ r5: .cfa -12 + ^ r6: .cfa -8 + ^ r7: .cfa -4 + ^
STACK CFI INIT 4c484 d8 .cfa: sp 0 + .ra: lr
STACK CFI 4c48c .cfa: sp 16 + r4: .cfa -16 + ^ r5: .cfa -12 + ^ r6: .cfa -8 + ^ r7: .cfa -4 + ^
STACK CFI INIT 4c55c d8 .cfa: sp 0 + .ra: lr
STACK CFI 4c564 .cfa: sp 16 + r4: .cfa -16 + ^ r5: .cfa -12 + ^ r6: .cfa -8 + ^ r7: .cfa -4 + ^
STACK CFI INIT 4c634 d8 .cfa: sp 0 + .ra: lr
STACK CFI 4c63c .cfa: sp 16 + r4: .cfa -16 + ^ r5: .cfa -12 + ^ r6: .cfa -8 + ^ r7: .cfa -4 + ^
STACK CFI INIT 4c70c 8 .cfa: sp 0 + .ra: lr
STACK CFI INIT 4c714 8 .cfa: sp 0 + .ra: lr
STACK CFI INIT 4c71c 4 .cfa: sp 0 + .ra: lr
STACK CFI INIT 4c720 b8 .cfa: sp 0 + .ra: lr
STACK CFI 4c724 .cfa: sp 32 + .ra: .cfa -4 + ^ r3: .cfa -32 + ^ r4: .cfa -28 + ^ r5: .cfa -24 + ^ r6: .cfa -20 + ^ r7: .cfa -16 + ^ r8: .cfa -12 + ^ r9: .cfa -8 + ^
STACK CFI INIT 4c7d8 ec .cfa: sp 0 + .ra: lr
STACK CFI 4c7e0 .cfa: sp 24 + r4: .cfa -24 + ^ r5: .cfa -20 + ^ r6: .cfa -16 + ^ r7: .cfa -12 + ^ r8: .cfa -8 + ^ r9: .cfa -4 + ^
STACK CFI INIT 4c8c4 130 .cfa: sp 0 + .ra: lr
STACK CFI 4c8c8 .cfa: sp 40 + .ra: .cfa -4 + ^ r10: .cfa -12 + ^ r11: .cfa -8 + ^ r3: .cfa -40 + ^ r4: .cfa -36 + ^ r5: .cfa -32 + ^ r6: .cfa -28 + ^ r7: .cfa -24 + ^ r8: .cfa -20 + ^ r9: .cfa -16 + ^
STACK CFI INIT 4c9f4 268 .cfa: sp 0 + .ra: lr
STACK CFI 4c9f8 .cfa: sp 36 + .ra: .cfa -4 + ^ r10: .cfa -12 + ^ r11: .cfa -8 + ^ r4: .cfa -36 + ^ r5: .cfa -32 + ^ r6: .cfa -28 + ^ r7: .cfa -24 + ^ r8: .cfa -20 + ^ r9: .cfa -16 + ^
STACK CFI 4ca00 .cfa: sp 56 +
STACK CFI INIT 4cc5c 198 .cfa: sp 0 + .ra: lr
STACK CFI 4cc60 .cfa: sp 40 + .ra: .cfa -4 + ^ r10: .cfa -12 + ^ r11: .cfa -8 + ^ r3: .cfa -40 + ^ r4: .cfa -36 + ^ r5: .cfa -32 + ^ r6: .cfa -28 + ^ r7: .cfa -24 + ^ r8: .cfa -20 + ^ r9: .cfa -16 + ^
STACK CFI INIT 4cdf4 274 .cfa: sp 0 + .ra: lr
STACK CFI 4cdf8 .cfa: sp 36 + .ra: .cfa -4 + ^ r10: .cfa -12 + ^ r11: .cfa -8 + ^ r4: .cfa -36 + ^ r5: .cfa -32 + ^ r6: .cfa -28 + ^ r7: .cfa -24 + ^ r8: .cfa -20 + ^ r9: .cfa -16 + ^
STACK CFI 4ce04 .cfa: sp 56 +
STACK CFI INIT 4d068 768 .cfa: sp 0 + .ra: lr
STACK CFI 4d06c .cfa: sp 36 + .ra: .cfa -4 + ^ r10: .cfa -12 + ^ r11: .cfa -8 + ^ r4: .cfa -36 + ^ r5: .cfa -32 + ^ r6: .cfa -28 + ^ r7: .cfa -24 + ^ r8: .cfa -20 + ^ r9: .cfa -16 + ^
STACK CFI 4d078 .cfa: sp 96 +
STACK CFI INIT 4d7d0 7fc .cfa: sp 0 + .ra: lr
STACK CFI 4d7d4 .cfa: sp 36 + .ra: .cfa -4 + ^ r10: .cfa -12 + ^ r11: .cfa -8 + ^ r4: .cfa -36 + ^ r5: .cfa -32 + ^ r6: .cfa -28 + ^ r7: .cfa -24 + ^ r8: .cfa -20 + ^ r9: .cfa -16 + ^
STACK CFI 4d7d8 .cfa: sp 80 +
STACK CFI INIT 4dfcc 10 .cfa: sp 0 + .ra: lr
STACK CFI INIT 4dfdc 8 .cfa: sp 0 + .ra: lr
STACK CFI INIT 4dfe4 4 .cfa: sp 0 + .ra: lr
STACK CFI INIT 4dfe8 4 .cfa: sp 0 + .ra: lr
STACK CFI INIT 4dfec 5c .cfa: sp 0 + .ra: lr
STACK CFI 4dff0 .cfa: sp 24 + .ra: .cfa -4 + ^ r3: .cfa -24 + ^ r4: .cfa -20 + ^ r5: .cfa -16 + ^ r6: .cfa -12 + ^ r7: .cfa -8 + ^
STACK CFI INIT 4e048 c4 .cfa: sp 0 + .ra: lr
STACK CFI 4e04c .cfa: sp 24 + .ra: .cfa -4 + ^ r4: .cfa -24 + ^ r5: .cfa -20 + ^ r6: .cfa -16 + ^ r7: .cfa -12 + ^ r8: .cfa -8 + ^
STACK CFI INIT 4e10c 5c .cfa: sp 0 + .ra: lr
STACK CFI 4e110 .cfa: sp 16 + .ra: .cfa -4 + ^ r4: .cfa -16 + ^ r5: .cfa -12 + ^ r6: .cfa -8 + ^
STACK CFI INIT 4e168 10 .cfa: sp 0 + .ra: lr
STACK CFI 4e16c .cfa: sp 8 + .ra: .cfa -4 + ^ r3: .cfa -8 + ^
STACK CFI INIT 4e178 14 .cfa: sp 0 + .ra: lr
STACK CFI 4e17c .cfa: sp 8 + .ra: .cfa -4 + ^ r4: .cfa -8 + ^
STACK CFI INIT 4e18c 2c .cfa: sp 0 + .ra: lr
STACK CFI 4e190 .cfa: sp 16 + .ra: .cfa -4 + ^ r4: .cfa -16 + ^ r5: .cfa -12 + ^ r6: .cfa -8 + ^
STACK CFI INIT 4e1b8 28 .cfa: sp 0 + .ra: lr
STACK CFI INIT 4e1e0 220 .cfa: sp 0 + .ra: lr
STACK CFI 4e1e4 .cfa: sp 32 + .ra: .cfa -4 + ^ r10: .cfa -8 + ^ r4: .cfa -32 + ^ r5: .cfa -28 + ^ r6: .cfa -24 + ^ r7: .cfa -20 + ^ r8: .cfa -16 + ^ r9: .cfa -12 + ^
STACK CFI 4e1f8 .cfa: sp 56 +
STACK CFI INIT 4e400 11c .cfa: sp 0 + .ra: lr
STACK CFI 4e404 .cfa: sp 20 + .ra: .cfa -4 + ^ r4: .cfa -20 + ^ r5: .cfa -16 + ^ r6: .cfa -12 + ^ r7: .cfa -8 + ^
STACK CFI 4e414 .cfa: sp 48 +
STACK CFI INIT 4e51c 38 .cfa: sp 0 + .ra: lr
STACK CFI 4e520 .cfa: sp 12 + r1: .cfa -12 + ^ r2: .cfa -8 + ^ r3: .cfa -4 + ^
STACK CFI 4e524 .cfa: sp 16 + .ra: .cfa -16 + ^
STACK CFI 4e528 .cfa: sp 24 +
STACK CFI INIT 4e554 194 .cfa: sp 0 + .ra: lr
STACK CFI 4e558 .cfa: sp 40 + .ra: .cfa -4 + ^ r10: .cfa -12 + ^ r11: .cfa -8 + ^ r3: .cfa -40 + ^ r4: .cfa -36 + ^ r5: .cfa -32 + ^ r6: .cfa -28 + ^ r7: .cfa -24 + ^ r8: .cfa -20 + ^ r9: .cfa -16 + ^
STACK CFI INIT 4e6e8 23c .cfa: sp 0 + .ra: lr
STACK CFI 4e6ec .cfa: sp 40 + .ra: .cfa -4 + ^ r10: .cfa -12 + ^ r11: .cfa -8 + ^ r3: .cfa -40 + ^ r4: .cfa -36 + ^ r5: .cfa -32 + ^ r6: .cfa -28 + ^ r7: .cfa -24 + ^ r8: .cfa -20 + ^ r9: .cfa -16 + ^
STACK CFI INIT 4e924 c4 .cfa: sp 0 + .ra: lr
STACK CFI 4e928 .cfa: sp 24 + .ra: .cfa -4 + ^ r3: .cfa -24 + ^ r4: .cfa -20 + ^ r5: .cfa -16 + ^ r6: .cfa -12 + ^ r7: .cfa -8 + ^
STACK CFI INIT 4e9e8 15c .cfa: sp 0 + .ra: lr
STACK CFI 4e9ec .cfa: sp 32 + .ra: .cfa -4 + ^ r3: .cfa -32 + ^ r4: .cfa -28 + ^ r5: .cfa -24 + ^ r6: .cfa -20 + ^ r7: .cfa -16 + ^ r8: .cfa -12 + ^ r9: .cfa -8 + ^
STACK CFI INIT 4eb44 10 .cfa: sp 0 + .ra: lr
STACK CFI INIT 4eb54 13c .cfa: sp 0 + .ra: lr
STACK CFI 4eb58 .cfa: sp 36 + .ra: .cfa -4 + ^ r10: .cfa -12 + ^ r11: .cfa -8 + ^ r4: .cfa -36 + ^ r5: .cfa -32 + ^ r6: .cfa -28 + ^ r7: .cfa -24 + ^ r8: .cfa -20 + ^ r9: .cfa -16 + ^
STACK CFI 4eb64 .cfa: sp 48 +
STACK CFI INIT 4ec90 1e8 .cfa: sp 0 + .ra: lr
STACK CFI 4ec94 .cfa: sp 36 + .ra: .cfa -4 + ^ r10: .cfa -12 + ^ r11: .cfa -8 + ^ r4: .cfa -36 + ^ r5: .cfa -32 + ^ r6: .cfa -28 + ^ r7: .cfa -24 + ^ r8: .cfa -20 + ^ r9: .cfa -16 + ^
STACK CFI 4eca0 .cfa: sp 48 +
STACK CFI INIT 4ee78 cc .cfa: sp 0 + .ra: lr
STACK CFI 4ee7c .cfa: sp 16 + .ra: .cfa -4 + ^ r4: .cfa -16 + ^ r5: .cfa -12 + ^ r6: .cfa -8 + ^
STACK CFI INIT 4ef44 150 .cfa: sp 0 + .ra: lr
STACK CFI 4ef48 .cfa: sp 32 + .ra: .cfa -4 + ^ r10: .cfa -8 + ^ r4: .cfa -32 + ^ r5: .cfa -28 + ^ r6: .cfa -24 + ^ r7: .cfa -20 + ^ r8: .cfa -16 + ^ r9: .cfa -12 + ^
STACK CFI INIT 4f094 78 .cfa: sp 0 + .ra: lr
STACK CFI 4f098 .cfa: sp 8 + .ra: .cfa -4 + ^ r4: .cfa -8 + ^
STACK CFI INIT 4f10c 1400 .cfa: sp 0 + .ra: lr
STACK CFI 4f11c .cfa: sp 36 + .ra: .cfa -4 + ^ r10: .cfa -12 + ^ r11: .cfa -8 + ^ r4: .cfa -36 + ^ r5: .cfa -32 + ^ r6: .cfa -28 + ^ r7: .cfa -24 + ^ r8: .cfa -20 + ^ r9: .cfa -16 + ^
STACK CFI 4f124 .cfa: sp 52 + s16: .cfa -52 + ^ s18: .cfa -44 + ^
STACK CFI 4f128 .cfa: sp 232 +
STACK CFI INIT 5050c 1e0 .cfa: sp 0 + .ra: lr
STACK CFI 50510 .cfa: sp 32 + .ra: .cfa -4 + ^ r3: .cfa -32 + ^ r4: .cfa -28 + ^ r5: .cfa -24 + ^ r6: .cfa -20 + ^ r7: .cfa -16 + ^ r8: .cfa -12 + ^ r9: .cfa -8 + ^
STACK CFI INIT 506ec e0 .cfa: sp 0 + .ra: lr
STACK CFI 506f4 .cfa: sp 12 + .ra: .cfa -4 + ^ r4: .cfa -12 + ^ r5: .cfa -8 + ^
STACK CFI 506fc .cfa: sp 20 + s16: .cfa -20 + ^
STACK CFI 50704 .cfa: sp 32 +
STACK CFI INIT a677c a8 .cfa: sp 0 + .ra: lr
STACK CFI INIT a6844 dc .cfa: sp 0 + .ra: lr
STACK CFI INIT a6ba0 18 .cfa: sp 0 + .ra: lr
STACK CFI INIT a6bb8 ac .cfa: sp 0 + .ra: lr
STACK CFI a6bbc .cfa: sp 48 + .ra: .cfa -4 + ^ r0: .cfa -48 + ^ r1: .cfa -44 + ^ r10: .cfa -12 + ^ r11: .cfa -8 + ^ r2: .cfa -40 + ^ r4: .cfa -36 + ^ r5: .cfa -32 + ^ r6: .cfa -28 + ^ r7: .cfa -24 + ^ r8: .cfa -20 + ^ r9: .cfa -16 + ^
STACK CFI INIT a6c64 50 .cfa: sp 0 + .ra: lr
STACK CFI INIT a6cb4 110 .cfa: sp 0 + .ra: lr
STACK CFI a6cbc .cfa: sp 24 + .ra: .cfa -4 + ^ r0: .cfa -24 + ^ r1: .cfa -20 + ^ r2: .cfa -16 + ^ r4: .cfa -12 + ^ r5: .cfa -8 + ^
STACK CFI INIT a6dc4 6c .cfa: sp 0 + .ra: lr
STACK CFI a6dcc .cfa: sp 8 + .ra: .cfa -4 + ^ r4: .cfa -8 + ^
STACK CFI INIT a6e30 14 .cfa: sp 0 + .ra: lr
STACK CFI INIT a6e44 8 .cfa: sp 0 + .ra: lr
STACK CFI INIT a6e4c 4 .cfa: sp 0 + .ra: lr
STACK CFI INIT a6e50 64 .cfa: sp 0 + .ra: lr
STACK CFI a6e54 .cfa: sp 16 + .ra: .cfa -4 + ^ r4: .cfa -16 + ^ r5: .cfa -12 + ^ r6: .cfa -8 + ^
STACK CFI INIT a6eb4 124 .cfa: sp 0 + .ra: lr
STACK CFI a6eb8 .cfa: sp 36 + .ra: .cfa -4 + ^ r10: .cfa -12 + ^ r11: .cfa -8 + ^ r4: .cfa -36 + ^ r5: .cfa -32 + ^ r6: .cfa -28 + ^ r7: .cfa -24 + ^ r8: .cfa -20 + ^ r9: .cfa -16 + ^
STACK CFI a6ed4 .cfa: sp 1008 +
STACK CFI INIT a6fd8 8 .cfa: sp 0 + .ra: lr
STACK CFI INIT a6fe0 a4 .cfa: sp 0 + .ra: lr
STACK CFI a6fe4 .cfa: sp 20 + .ra: .cfa -4 + ^ r4: .cfa -20 + ^ r5: .cfa -16 + ^ r6: .cfa -12 + ^ r7: .cfa -8 + ^
STACK CFI a7000 .cfa: sp 504 +
STACK CFI INIT a7084 1c .cfa: sp 0 + .ra: lr
STACK CFI INIT a70a0 74 .cfa: sp 0 + .ra: lr
STACK CFI a70a4 .cfa: sp 16 + .ra: .cfa -4 + ^ r4: .cfa -16 + ^ r5: .cfa -12 + ^ r6: .cfa -8 + ^
STACK CFI INIT a7114 20 .cfa: sp 0 + .ra: lr
STACK CFI INIT a7134 4 .cfa: sp 0 + .ra: lr
STACK CFI INIT a7138 20 .cfa: sp 0 + .ra: lr
STACK CFI a713c .cfa: sp 8 + .ra: .cfa -4 + ^ r3: .cfa -8 + ^
STACK CFI INIT a7158 5c .cfa: sp 0 + .ra: lr
STACK CFI INIT a71b4 28 .cfa: sp 0 + .ra: lr
STACK CFI a71b8 .cfa: sp 24 + .ra: .cfa -4 + ^ r0: .cfa -24 + ^ r1: .cfa -20 + ^ r2: .cfa -16 + ^ r3: .cfa -12 + ^ r4: .cfa -8 + ^
STACK CFI INIT a71dc 5c .cfa: sp 0 + .ra: lr
STACK CFI INIT a7238 2c .cfa: sp 0 + .ra: lr
STACK CFI a723c .cfa: sp 24 + .ra: .cfa -4 + ^ r0: .cfa -24 + ^ r1: .cfa -20 + ^ r2: .cfa -16 + ^ r3: .cfa -12 + ^ r4: .cfa -8 + ^
STACK CFI INIT a7264 c4 .cfa: sp 0 + .ra: lr
STACK CFI a7268 .cfa: sp 24 + .ra: .cfa -4 + ^ r4: .cfa -24 + ^ r5: .cfa -20 + ^ r6: .cfa -16 + ^ r7: .cfa -12 + ^ r8: .cfa -8 + ^
STACK CFI a7284 .cfa: sp 592 +
STACK CFI INIT a7328 3f4 .cfa: sp 0 + .ra: lr
STACK CFI a732c .cfa: sp 36 + .ra: .cfa -4 + ^ r10: .cfa -12 + ^ r11: .cfa -8 + ^ r4: .cfa -36 + ^ r5: .cfa -32 + ^ r6: .cfa -28 + ^ r7: .cfa -24 + ^ r8: .cfa -20 + ^ r9: .cfa -16 + ^
STACK CFI a7338 .cfa: sp 72 +
STACK CFI INIT a771c 8 .cfa: sp 0 + .ra: lr
STACK CFI INIT a7724 8 .cfa: sp 0 + .ra: lr
STACK CFI INIT a772c 8 .cfa: sp 0 + .ra: lr
STACK CFI INIT a7734 358 .cfa: sp 0 + .ra: lr
STACK CFI a7738 .cfa: sp 28 + .ra: .cfa -4 + ^ r4: .cfa -28 + ^ r5: .cfa -24 + ^ r6: .cfa -20 + ^ r7: .cfa -16 + ^ r8: .cfa -12 + ^ r9: .cfa -8 + ^
STACK CFI a7740 .cfa: sp 296 +
STACK CFI INIT a7c34 60 .cfa: sp 0 + .ra: lr
STACK CFI INIT a7c94 28 .cfa: sp 0 + .ra: lr
STACK CFI a7c98 .cfa: sp 24 + .ra: .cfa -4 + ^ r0: .cfa -24 + ^ r1: .cfa -20 + ^ r2: .cfa -16 + ^ r3: .cfa -12 + ^ r4: .cfa -8 + ^
STACK CFI INIT a7cbc 4 .cfa: sp 0 + .ra: lr
STACK CFI INIT a7cc0 37c .cfa: sp 0 + .ra: lr
STACK CFI a7cc4 .cfa: sp 48 + .ra: .cfa -4 + ^ r0: .cfa -48 + ^ r1: .cfa -44 + ^ r10: .cfa -8 + ^ r2: .cfa -40 + ^ r3: .cfa -36 + ^ r4: .cfa -32 + ^ r5: .cfa -28 + ^ r6: .cfa -24 + ^ r7: .cfa -20 + ^ r8: .cfa -16 + ^ r9: .cfa -12 + ^
STACK CFI INIT a803c 40 .cfa: sp 0 + .ra: lr
STACK CFI a8040 .cfa: sp 24 + .ra: .cfa -4 + ^ r0: .cfa -24 + ^ r1: .cfa -20 + ^ r2: .cfa -16 + ^ r3: .cfa -12 + ^ r4: .cfa -8 + ^
STACK CFI INIT a807c 10 .cfa: sp 0 + .ra: lr
STACK CFI a8080 .cfa: sp 8 + .ra: .cfa -4 + ^ r3: .cfa -8 + ^
STACK CFI INIT a808c 1c .cfa: sp 0 + .ra: lr
STACK CFI a8090 .cfa: sp 8 + .ra: .cfa -4 + ^ r3: .cfa -8 + ^
STACK CFI INIT a80a8 8 .cfa: sp 0 + .ra: lr
STACK CFI a80ac .cfa: sp 8 + .ra: .cfa -4 + ^ r3: .cfa -8 + ^
STACK CFI INIT a80b0 8 .cfa: sp 0 + .ra: lr
STACK CFI a80b4 .cfa: sp 8 + .ra: .cfa -4 + ^ r3: .cfa -8 + ^
