MODULE Linux arm B2346BA6A84B8A2BA0B6137032F799E40 libxbogg.so
FUNC 36ec 18 0 selfrel_offset31
FUNC 3704 ac 0 search_EIT_table
FUNC 37b0 50 0 __gnu_unwind_get_pr_addr
FUNC 3800 10c 0 get_eit_entry
FUNC 390c 6c 0 restore_non_core_regs
FUNC 3978 14 0 _Unwind_decode_typeinfo_ptr
FUNC 398c 8 0 __gnu_unwind_24bit
FUNC 3994 4 0 _Unwind_DebugHook
FUNC 3998 64 0 unwind_phase2
FUNC 39fc 124 0 unwind_phase2_forced
FUNC 3b20 8 0 _Unwind_GetCFA
FUNC 3b28 a4 0 __gnu_Unwind_RaiseException
FUNC 3bcc 1c 0 __gnu_Unwind_ForcedUnwind
FUNC 3be8 74 0 __gnu_Unwind_Resume
FUNC 3c5c 20 0 __gnu_Unwind_Resume_or_Rethrow
FUNC 3c7c 4 0 _Unwind_Complete
FUNC 3c80 20 0 _Unwind_DeleteException
FUNC 3ca0 5c 0 _Unwind_VRS_Get
FUNC 3cfc 28 0 _Unwind_GetGR
FUNC 3d24 5c 0 _Unwind_VRS_Set
FUNC 3d80 2c 0 _Unwind_SetGR
FUNC 3dac c4 0 __gnu_Unwind_Backtrace
FUNC 3e70 3f0 0 __gnu_unwind_pr_common
FUNC 4260 8 0 __aeabi_unwind_cpp_pr0
FUNC 4268 8 0 __aeabi_unwind_cpp_pr1
FUNC 4270 8 0 __aeabi_unwind_cpp_pr2
FUNC 4278 34c 0 _Unwind_VRS_Pop
FUNC 476c 60 0 next_unwind_byte
FUNC 47cc 28 0 _Unwind_GetGR
FUNC 47f4 4 0 unwind_UCB_from_context
FUNC 47f8 37c 0 __gnu_unwind_execute
FUNC 4b74 40 0 __gnu_unwind_frame
FUNC 4bb4 10 0 _Unwind_GetRegionStart
FUNC 4bc4 1c 0 _Unwind_GetLanguageSpecificData
FUNC 4be0 8 0 _Unwind_GetDataRelBase
FUNC 4be8 8 0 _Unwind_GetTextRelBase
PUBLIC 1a5c 0 ogg_page_version
PUBLIC 1a68 0 ogg_page_continued
PUBLIC 1a78 0 ogg_page_bos
PUBLIC 1a88 0 ogg_page_eos
PUBLIC 1a98 0 ogg_page_granulepos
PUBLIC 1b3c 0 ogg_page_serialno
PUBLIC 1b64 0 ogg_page_pageno
PUBLIC 1b8c 0 ogg_page_packets
PUBLIC 1bc0 0 ogg_stream_check
PUBLIC 1be4 0 ogg_stream_clear
PUBLIC 1c38 0 ogg_stream_init
PUBLIC 1dac 0 ogg_stream_destroy
PUBLIC 1dcc 0 ogg_page_checksum_set
PUBLIC 1e9c 0 ogg_stream_iovecin
PUBLIC 2060 0 ogg_stream_packetin
PUBLIC 2098 0 ogg_stream_flush
PUBLIC 22d8 0 ogg_stream_pageout
PUBLIC 2354 0 ogg_stream_eos
PUBLIC 2370 0 ogg_sync_init
PUBLIC 2398 0 ogg_sync_clear
PUBLIC 23cc 0 ogg_sync_destroy
PUBLIC 23ec 0 ogg_sync_check
PUBLIC 23f8 0 ogg_sync_buffer
PUBLIC 24b4 0 ogg_sync_wrote
PUBLIC 24f0 0 ogg_sync_pageseek
PUBLIC 269c 0 ogg_sync_pageout
PUBLIC 26f8 0 ogg_stream_pagein
PUBLIC 2a28 0 ogg_sync_reset
PUBLIC 2a54 0 ogg_stream_reset
PUBLIC 2aa8 0 ogg_stream_reset_serialno
PUBLIC 2adc 0 ogg_stream_packetout
PUBLIC 2b10 0 ogg_stream_packetpeek
PUBLIC 2b40 0 ogg_packet_clear
PUBLIC 2b64 0 oggpack_writeinit
PUBLIC 2b9c 0 oggpackB_writeinit
PUBLIC 2ba0 0 oggpack_writecheck
PUBLIC 2bc8 0 oggpackB_writecheck
PUBLIC 2bcc 0 oggpack_writetrunc
PUBLIC 2c14 0 oggpackB_writetrunc
PUBLIC 2c60 0 oggpack_reset
PUBLIC 2c88 0 oggpackB_reset
PUBLIC 2c8c 0 oggpack_writeclear
PUBLIC 2cb8 0 oggpack_write
PUBLIC 2dfc 0 oggpack_writealign
PUBLIC 2e14 0 oggpackB_write
PUBLIC 2f60 0 oggpackB_writealign
PUBLIC 3088 0 oggpack_writecopy
PUBLIC 30ac 0 oggpackB_writecopy
PUBLIC 30d0 0 oggpackB_writeclear
PUBLIC 30d4 0 oggpack_readinit
PUBLIC 3100 0 oggpackB_readinit
PUBLIC 3104 0 oggpack_look
PUBLIC 31b0 0 oggpackB_look
PUBLIC 3260 0 oggpack_look1
PUBLIC 3288 0 oggpackB_look1
PUBLIC 32b4 0 oggpack_adv
PUBLIC 32f0 0 oggpackB_adv
PUBLIC 32f4 0 oggpack_adv1
PUBLIC 3328 0 oggpackB_adv1
PUBLIC 332c 0 oggpack_read
PUBLIC 3404 0 oggpackB_read
PUBLIC 34f4 0 oggpack_read1
PUBLIC 3548 0 oggpackB_read1
PUBLIC 35a0 0 oggpack_bytes
PUBLIC 35bc 0 oggpack_bits
PUBLIC 35cc 0 oggpackB_bytes
PUBLIC 35d0 0 oggpackB_bits
PUBLIC 35d4 0 oggpack_get_buffer
PUBLIC 35dc 0 oggpackB_get_buffer
PUBLIC 35e0 0 __aeabi_idiv
PUBLIC 36bc 0 __aeabi_idivmod
PUBLIC 36dc 0 __aeabi_idiv0
PUBLIC 3b20 0 _Unwind_GetCFA
PUBLIC 3b28 0 __gnu_Unwind_RaiseException
PUBLIC 3bcc 0 __gnu_Unwind_ForcedUnwind
PUBLIC 3be8 0 __gnu_Unwind_Resume
PUBLIC 3c5c 0 __gnu_Unwind_Resume_or_Rethrow
PUBLIC 3c7c 0 _Unwind_Complete
PUBLIC 3c80 0 _Unwind_DeleteException
PUBLIC 3ca0 0 _Unwind_VRS_Get
PUBLIC 3d24 0 _Unwind_VRS_Set
PUBLIC 3dac 0 __gnu_Unwind_Backtrace
PUBLIC 4260 0 __aeabi_unwind_cpp_pr0
PUBLIC 4268 0 __aeabi_unwind_cpp_pr1
PUBLIC 4270 0 __aeabi_unwind_cpp_pr2
PUBLIC 4278 0 _Unwind_VRS_Pop
PUBLIC 45c4 0 restore_core_regs
PUBLIC 45d8 0 __gnu_Unwind_Restore_VFP
PUBLIC 45e0 0 __gnu_Unwind_Save_VFP
PUBLIC 45e8 0 __gnu_Unwind_Restore_VFP_D
PUBLIC 45f0 0 __gnu_Unwind_Save_VFP_D
PUBLIC 45f8 0 __gnu_Unwind_Restore_VFP_D_16_to_31
PUBLIC 4600 0 __gnu_Unwind_Save_VFP_D_16_to_31
PUBLIC 4608 0 __gnu_Unwind_Restore_WMMXD
PUBLIC 464c 0 __gnu_Unwind_Save_WMMXD
PUBLIC 4690 0 __gnu_Unwind_Restore_WMMXC
PUBLIC 46a4 0 __gnu_Unwind_Save_WMMXC
PUBLIC 46b8 0 ___Unwind_RaiseException
PUBLIC 46dc 0 ___Unwind_Resume
PUBLIC 4700 0 ___Unwind_Resume_or_Rethrow
PUBLIC 4724 0 ___Unwind_ForcedUnwind
PUBLIC 4748 0 ___Unwind_Backtrace
PUBLIC 47f8 0 __gnu_unwind_execute
PUBLIC 4b74 0 __gnu_unwind_frame
PUBLIC 4bb4 0 _Unwind_GetRegionStart
PUBLIC 4bc4 0 _Unwind_GetLanguageSpecificData
PUBLIC 4be0 0 _Unwind_GetDataRelBase
PUBLIC 4be8 0 _Unwind_GetTextRelBase
STACK CFI INIT 35e0 dc .cfa: sp 0 + .ra: lr
STACK CFI INIT 36ec 18 .cfa: sp 0 + .ra: lr
STACK CFI INIT 3704 ac .cfa: sp 0 + .ra: lr
STACK CFI 3708 .cfa: sp 48 + .ra: .cfa -4 + ^ r0: .cfa -48 + ^ r1: .cfa -44 + ^ r10: .cfa -12 + ^ r11: .cfa -8 + ^ r2: .cfa -40 + ^ r4: .cfa -36 + ^ r5: .cfa -32 + ^ r6: .cfa -28 + ^ r7: .cfa -24 + ^ r8: .cfa -20 + ^ r9: .cfa -16 + ^
STACK CFI INIT 37b0 50 .cfa: sp 0 + .ra: lr
STACK CFI INIT 3800 10c .cfa: sp 0 + .ra: lr
STACK CFI 3808 .cfa: sp 24 + .ra: .cfa -4 + ^ r0: .cfa -24 + ^ r1: .cfa -20 + ^ r2: .cfa -16 + ^ r4: .cfa -12 + ^ r5: .cfa -8 + ^
STACK CFI INIT 390c 6c .cfa: sp 0 + .ra: lr
STACK CFI 3914 .cfa: sp 8 + .ra: .cfa -4 + ^ r4: .cfa -8 + ^
STACK CFI INIT 3978 14 .cfa: sp 0 + .ra: lr
STACK CFI INIT 398c 8 .cfa: sp 0 + .ra: lr
STACK CFI INIT 3994 4 .cfa: sp 0 + .ra: lr
STACK CFI INIT 3998 64 .cfa: sp 0 + .ra: lr
STACK CFI 399c .cfa: sp 16 + .ra: .cfa -4 + ^ r4: .cfa -16 + ^ r5: .cfa -12 + ^ r6: .cfa -8 + ^
STACK CFI INIT 39fc 124 .cfa: sp 0 + .ra: lr
STACK CFI 3a00 .cfa: sp 36 + .ra: .cfa -4 + ^ r10: .cfa -12 + ^ r11: .cfa -8 + ^ r4: .cfa -36 + ^ r5: .cfa -32 + ^ r6: .cfa -28 + ^ r7: .cfa -24 + ^ r8: .cfa -20 + ^ r9: .cfa -16 + ^
STACK CFI 3a1c .cfa: sp 1008 +
STACK CFI INIT 3b20 8 .cfa: sp 0 + .ra: lr
STACK CFI INIT 3b28 a4 .cfa: sp 0 + .ra: lr
STACK CFI 3b30 .cfa: sp 20 + .ra: .cfa -4 + ^ r4: .cfa -20 + ^ r5: .cfa -16 + ^ r6: .cfa -12 + ^ r7: .cfa -8 + ^
STACK CFI 3b44 .cfa: sp 504 +
STACK CFI INIT 3bcc 1c .cfa: sp 0 + .ra: lr
STACK CFI INIT 3be8 74 .cfa: sp 0 + .ra: lr
STACK CFI 3bec .cfa: sp 16 + .ra: .cfa -4 + ^ r4: .cfa -16 + ^ r5: .cfa -12 + ^ r6: .cfa -8 + ^
STACK CFI INIT 3c5c 20 .cfa: sp 0 + .ra: lr
STACK CFI INIT 3c7c 4 .cfa: sp 0 + .ra: lr
STACK CFI INIT 3c80 20 .cfa: sp 0 + .ra: lr
STACK CFI 3c84 .cfa: sp 8 + .ra: .cfa -4 + ^ r3: .cfa -8 + ^
STACK CFI INIT 3ca0 5c .cfa: sp 0 + .ra: lr
STACK CFI INIT 3cfc 28 .cfa: sp 0 + .ra: lr
STACK CFI 3d00 .cfa: sp 24 + .ra: .cfa -4 + ^ r0: .cfa -24 + ^ r1: .cfa -20 + ^ r2: .cfa -16 + ^ r3: .cfa -12 + ^ r4: .cfa -8 + ^
STACK CFI INIT 3d24 5c .cfa: sp 0 + .ra: lr
STACK CFI INIT 3d80 2c .cfa: sp 0 + .ra: lr
STACK CFI 3d84 .cfa: sp 24 + .ra: .cfa -4 + ^ r0: .cfa -24 + ^ r1: .cfa -20 + ^ r2: .cfa -16 + ^ r3: .cfa -12 + ^ r4: .cfa -8 + ^
STACK CFI INIT 3dac c4 .cfa: sp 0 + .ra: lr
STACK CFI 3db4 .cfa: sp 24 + .ra: .cfa -4 + ^ r4: .cfa -24 + ^ r5: .cfa -20 + ^ r6: .cfa -16 + ^ r7: .cfa -12 + ^ r8: .cfa -8 + ^
STACK CFI 3dc8 .cfa: sp 592 +
STACK CFI INIT 3e70 3f0 .cfa: sp 0 + .ra: lr
STACK CFI 3e74 .cfa: sp 36 + .ra: .cfa -4 + ^ r10: .cfa -12 + ^ r11: .cfa -8 + ^ r4: .cfa -36 + ^ r5: .cfa -32 + ^ r6: .cfa -28 + ^ r7: .cfa -24 + ^ r8: .cfa -20 + ^ r9: .cfa -16 + ^
STACK CFI 3e80 .cfa: sp 72 +
STACK CFI INIT 4260 8 .cfa: sp 0 + .ra: lr
STACK CFI INIT 4268 8 .cfa: sp 0 + .ra: lr
STACK CFI INIT 4270 8 .cfa: sp 0 + .ra: lr
STACK CFI INIT 4278 34c .cfa: sp 0 + .ra: lr
STACK CFI 427c .cfa: sp 28 + .ra: .cfa -4 + ^ r4: .cfa -28 + ^ r5: .cfa -24 + ^ r6: .cfa -20 + ^ r7: .cfa -16 + ^ r8: .cfa -12 + ^ r9: .cfa -8 + ^
STACK CFI 4284 .cfa: sp 296 +
STACK CFI INIT 476c 60 .cfa: sp 0 + .ra: lr
STACK CFI INIT 47cc 28 .cfa: sp 0 + .ra: lr
STACK CFI 47d0 .cfa: sp 24 + .ra: .cfa -4 + ^ r0: .cfa -24 + ^ r1: .cfa -20 + ^ r2: .cfa -16 + ^ r3: .cfa -12 + ^ r4: .cfa -8 + ^
STACK CFI INIT 47f4 4 .cfa: sp 0 + .ra: lr
STACK CFI INIT 47f8 37c .cfa: sp 0 + .ra: lr
STACK CFI 47fc .cfa: sp 48 + .ra: .cfa -4 + ^ r0: .cfa -48 + ^ r1: .cfa -44 + ^ r10: .cfa -8 + ^ r2: .cfa -40 + ^ r3: .cfa -36 + ^ r4: .cfa -32 + ^ r5: .cfa -28 + ^ r6: .cfa -24 + ^ r7: .cfa -20 + ^ r8: .cfa -16 + ^ r9: .cfa -12 + ^
STACK CFI INIT 4b74 40 .cfa: sp 0 + .ra: lr
STACK CFI 4b78 .cfa: sp 24 + .ra: .cfa -4 + ^ r0: .cfa -24 + ^ r1: .cfa -20 + ^ r2: .cfa -16 + ^ r3: .cfa -12 + ^ r4: .cfa -8 + ^
STACK CFI INIT 4bb4 10 .cfa: sp 0 + .ra: lr
STACK CFI 4bb8 .cfa: sp 8 + .ra: .cfa -4 + ^ r3: .cfa -8 + ^
STACK CFI INIT 4bc4 1c .cfa: sp 0 + .ra: lr
STACK CFI 4bc8 .cfa: sp 8 + .ra: .cfa -4 + ^ r3: .cfa -8 + ^
STACK CFI INIT 4be0 8 .cfa: sp 0 + .ra: lr
STACK CFI 4be4 .cfa: sp 8 + .ra: .cfa -4 + ^ r3: .cfa -8 + ^
STACK CFI INIT 4be8 8 .cfa: sp 0 + .ra: lr
STACK CFI 4bec .cfa: sp 8 + .ra: .cfa -4 + ^ r3: .cfa -8 + ^
