MODULE Linux arm FA7B047638853132E2377C08FA2D58BB0 lib_imagingft.so
FUNC 9870 c 0 font_getattr_glyphs
FUNC 987c 1c 0 font_getattr_descent
FUNC 9898 18 0 font_getattr_ascent
FUNC 98b0 2c 0 font_dealloc
FUNC 98dc 34 0 font_getattr_style
FUNC 9910 34 0 font_getattr_family
FUNC 9944 2a8 0 getfont
FUNC 9bec 1d4 0 font_getabc
FUNC 9dc0 2ec 0 font_getsize
FUNC a0ac 4e0 0 font_render
FUNC a58c b4 0 init_imagingft
FUNC 52038 18 0 selfrel_offset31
FUNC 52050 ac 0 search_EIT_table
FUNC 520fc 50 0 __gnu_unwind_get_pr_addr
FUNC 5214c 110 0 get_eit_entry
FUNC 5225c 6c 0 restore_non_core_regs
FUNC 522c8 14 0 _Unwind_decode_typeinfo_ptr
FUNC 522dc 8 0 __gnu_unwind_24bit
FUNC 522e4 4 0 _Unwind_DebugHook
FUNC 522e8 64 0 unwind_phase2
FUNC 5234c 124 0 unwind_phase2_forced
FUNC 52470 8 0 _Unwind_GetCFA
FUNC 52478 a4 0 __gnu_Unwind_RaiseException
FUNC 5251c 1c 0 __gnu_Unwind_ForcedUnwind
FUNC 52538 74 0 __gnu_Unwind_Resume
FUNC 525ac 20 0 __gnu_Unwind_Resume_or_Rethrow
FUNC 525cc 4 0 _Unwind_Complete
FUNC 525d0 20 0 _Unwind_DeleteException
FUNC 525f0 5c 0 _Unwind_VRS_Get
FUNC 5264c 28 0 _Unwind_GetGR
FUNC 52674 5c 0 _Unwind_VRS_Set
FUNC 526d0 2c 0 _Unwind_SetGR
FUNC 526fc c4 0 __gnu_Unwind_Backtrace
FUNC 527c0 3f4 0 __gnu_unwind_pr_common
FUNC 52bb4 8 0 __aeabi_unwind_cpp_pr0
FUNC 52bbc 8 0 __aeabi_unwind_cpp_pr1
FUNC 52bc4 8 0 __aeabi_unwind_cpp_pr2
FUNC 52bcc 358 0 _Unwind_VRS_Pop
FUNC 530cc 60 0 next_unwind_byte
FUNC 5312c 28 0 _Unwind_GetGR
FUNC 53154 4 0 unwind_UCB_from_context
FUNC 53158 37c 0 __gnu_unwind_execute
FUNC 534d4 40 0 __gnu_unwind_frame
FUNC 53514 10 0 _Unwind_GetRegionStart
FUNC 53524 1c 0 _Unwind_GetLanguageSpecificData
FUNC 53540 8 0 _Unwind_GetDataRelBase
FUNC 53548 8 0 _Unwind_GetTextRelBase
PUBLIC a58c 0 init_imagingft
PUBLIC a640 0 FT_Add_Default_Modules
PUBLIC a674 0 FT_Init_FreeType
PUBLIC a6bc 0 FT_Done_FreeType
PUBLIC ab24 0 FT_RoundFix
PUBLIC ab48 0 FT_CeilFix
PUBLIC ab74 0 FT_FloorFix
PUBLIC ab94 0 FT_Sqrt32
PUBLIC abc8 0 FT_MulDiv
PUBLIC acec 0 FT_MulDiv_No_Round
PUBLIC ad8c 0 FT_MulFix
PUBLIC ae18 0 FT_DivFix
PUBLIC ae88 0 FT_Matrix_Multiply
PUBLIC af34 0 FT_Matrix_Invert
PUBLIC afbc 0 FT_Matrix_Multiply_Scaled
PUBLIC b08c 0 FT_Vector_Transform_Scaled
PUBLIC b104 0 FT_SqrtFixed
PUBLIC b154 0 ft_corner_orientation
PUBLIC b21c 0 ft_corner_is_flat
PUBLIC b27c 0 FT_GlyphLoader_Rewind
PUBLIC b2b4 0 FT_GlyphLoader_Prepare
PUBLIC b2e4 0 FT_GlyphLoader_Add
PUBLIC b358 0 ft_service_list_lookup
PUBLIC b3a8 0 ft_validator_init
PUBLIC b3c0 0 ft_validator_run
PUBLIC b3c8 0 ft_validator_error
PUBLIC b3dc 0 FT_Set_Transform
PUBLIC b48c 0 FT_Reference_Face
PUBLIC b4a4 0 FT_Match_Size
PUBLIC b5c0 0 ft_synthesize_vertical_metrics
PUBLIC b630 0 FT_Select_Metrics
PUBLIC b6c8 0 FT_Request_Metrics
PUBLIC b8fc 0 FT_Select_Size
PUBLIC b964 0 FT_Request_Size
PUBLIC ba0c 0 FT_Set_Char_Size
PUBLIC ba80 0 FT_Set_Pixel_Sizes
PUBLIC baf8 0 FT_Get_Kerning
PUBLIC bbf4 0 FT_Get_Track_Kerning
PUBLIC bc74 0 FT_Select_Charmap
PUBLIC bd08 0 FT_Get_Charmap_Index
PUBLIC bd64 0 FT_Get_Char_Index
PUBLIC bd8c 0 FT_Get_Next_Char
PUBLIC be10 0 FT_Get_First_Char
PUBLIC be88 0 FT_Get_Name_Index
PUBLIC bf20 0 FT_Get_Glyph_Name
PUBLIC bfe8 0 FT_Get_Postscript_Name
PUBLIC c06c 0 FT_Get_Sfnt_Table
PUBLIC c0d0 0 FT_Load_Sfnt_Table
PUBLIC c158 0 FT_Sfnt_Table_Info
PUBLIC c1e0 0 FT_Get_CMap_Language_ID
PUBLIC c250 0 FT_Get_CMap_Format
PUBLIC c2c0 0 FT_Set_Charmap
PUBLIC c3a8 0 FT_Face_GetCharVariantIndex
PUBLIC c40c 0 FT_Face_GetCharVariantIsDefault
PUBLIC c44c 0 FT_Face_GetVariantSelectors
PUBLIC c480 0 FT_Face_GetVariantsOfChar
PUBLIC c4bc 0 FT_Face_GetCharsOfVariant
PUBLIC c4f8 0 FT_Activate_Size
PUBLIC c52c 0 FT_Lookup_Renderer
PUBLIC c588 0 FT_Get_Renderer
PUBLIC c590 0 FT_Get_Module
PUBLIC c5e4 0 FT_Get_Module_Interface
PUBLIC c5fc 0 ft_module_get_service
PUBLIC c684 0 FT_Reference_Library
PUBLIC c698 0 FT_Library_Version
PUBLIC c6d0 0 FT_Set_Debug_Hook
PUBLIC c6ec 0 FT_Get_TrueType_Engine_Type
PUBLIC c738 0 ft_stub_set_char_sizes
PUBLIC c7a8 0 ft_stub_set_pixel_sizes
PUBLIC c7f8 0 FT_Get_SubGlyph_Info
PUBLIC c874 0 FT_Outline_Decompose
PUBLIC cc48 0 FT_Outline_Check
PUBLIC cce0 0 FT_Outline_Copy
PUBLIC cd7c 0 FT_Outline_Get_CBox
PUBLIC ce08 0 FT_Outline_Translate
PUBLIC ce54 0 FT_Outline_Reverse
PUBLIC cefc 0 FT_Vector_Transform
PUBLIC cf60 0 FT_Outline_Transform
PUBLIC cfa0 0 FT_Outline_Get_Orientation
PUBLIC d2b0 0 FT_Get_Sfnt_Name_Count
PUBLIC d2d0 0 FT_Stream_OpenMemory
PUBLIC d2ec 0 FT_Stream_Close
PUBLIC d30c 0 FT_Stream_Seek
PUBLIC d35c 0 FT_Raccess_Guess
PUBLIC d3fc 0 FT_Stream_Skip
PUBLIC d418 0 FT_Stream_Pos
PUBLIC d420 0 FT_Stream_ReadAt
PUBLIC d498 0 FT_Stream_Read
PUBLIC d4ac 0 FT_Stream_TryRead
PUBLIC d520 0 FT_Stream_GetChar
PUBLIC d544 0 FT_Stream_GetUShort
PUBLIC d574 0 FT_Stream_GetUShortLE
PUBLIC d5a4 0 FT_Stream_GetUOffset
PUBLIC d5e0 0 FT_Stream_GetULong
PUBLIC d624 0 FT_Stream_GetULongLE
PUBLIC d668 0 FT_Stream_ReadChar
PUBLIC d6ec 0 FT_Stream_ReadUShort
PUBLIC d784 0 FT_Raccess_Get_HeaderInfo
PUBLIC d920 0 FT_Stream_ReadUShortLE
PUBLIC d9b8 0 FT_Stream_ReadUOffset
PUBLIC da5c 0 FT_Stream_ReadULong
PUBLIC dc74 0 FT_Stream_ReadULongLE
PUBLIC dd20 0 FT_Cos
PUBLIC dd5c 0 FT_Sin
PUBLIC dd64 0 FT_Tan
PUBLIC dd98 0 FT_Atan2
PUBLIC ddc8 0 FT_Vector_Unit
PUBLIC de00 0 FT_Vector_Rotate
PUBLIC deac 0 FT_Vector_Length
PUBLIC df24 0 FT_Vector_Polarize
PUBLIC df88 0 FT_Vector_From_Polar
PUBLIC df9c 0 FT_Angle_Diff
PUBLIC dfc0 0 FT_Outline_Embolden
PUBLIC e1c4 0 ft_mem_qalloc
PUBLIC e208 0 ft_mem_alloc
PUBLIC e250 0 FT_GlyphLoader_New
PUBLIC e4dc 0 ft_mem_free
PUBLIC e4f4 0 FT_GlyphLoader_Reset
PUBLIC e570 0 FT_GlyphLoader_Done
PUBLIC e594 0 FT_Stream_New
PUBLIC e680 0 FT_Stream_Free
PUBLIC e71c 0 FT_Attach_Stream
PUBLIC e79c 0 FT_Attach_File
PUBLIC e7d4 0 ft_glyphslot_free_bitmap
PUBLIC e82c 0 ft_glyphslot_set_bitmap
PUBLIC e844 0 ft_glyphslot_alloc_bitmap
PUBLIC e918 0 FT_New_GlyphSlot
PUBLIC ea3c 0 FT_Done_GlyphSlot
PUBLIC ee5c 0 FT_New_Library
PUBLIC eef8 0 FT_Outline_Done_Internal
PUBLIC ef6c 0 FT_Outline_Done
PUBLIC ef84 0 FT_Stream_ReleaseFrame
PUBLIC efb8 0 FT_Stream_EnterFrame
PUBLIC f0ac 0 FT_Stream_ExtractFrame
PUBLIC f0d4 0 FT_Stream_ExitFrame
PUBLIC f10c 0 FT_Stream_ReadFields
PUBLIC f330 0 ft_mem_qrealloc
PUBLIC f400 0 ft_mem_realloc
PUBLIC f470 0 FT_GlyphLoader_CreateExtra
PUBLIC f4d4 0 FT_GlyphLoader_CheckPoints
PUBLIC f668 0 FT_GlyphLoader_CopyPoints
PUBLIC f71c 0 FT_GlyphLoader_CheckSubGlyphs
PUBLIC f79c 0 FT_CMap_Done
PUBLIC f870 0 FT_CMap_New
PUBLIC f968 0 FT_Outline_New_Internal
PUBLIC fa5c 0 FT_Outline_New
PUBLIC fa74 0 FT_Raccess_Get_DataOffsets
PUBLIC fcb8 0 FT_Get_Sfnt_Name
PUBLIC fde0 0 ft_mem_dup
PUBLIC fe34 0 ft_mem_strdup
PUBLIC fe70 0 ft_mem_strcpyn
PUBLIC feb0 0 FT_List_Find
PUBLIC fed4 0 FT_List_Add
PUBLIC fef8 0 FT_New_Size
PUBLIC fff0 0 FT_List_Insert
PUBLIC 10014 0 FT_List_Remove
PUBLIC 10038 0 FT_Done_Size
PUBLIC 100e4 0 FT_List_Up
PUBLIC 10120 0 FT_Set_Renderer
PUBLIC 101c0 0 FT_Render_Glyph_Internal
PUBLIC 102ac 0 FT_Render_Glyph
PUBLIC 102dc 0 FT_Load_Glyph
PUBLIC 107b4 0 FT_Get_Advances
PUBLIC 108e0 0 FT_Get_Advance
PUBLIC 109a0 0 FT_Load_Char
PUBLIC 109e4 0 FT_Outline_Render
PUBLIC 10ab8 0 FT_Outline_Get_Bitmap
PUBLIC 10b00 0 FT_List_Iterate
PUBLIC 10b38 0 FT_List_Finalize
PUBLIC 10c68 0 FT_Done_Face
PUBLIC 10cec 0 FT_Open_Face
PUBLIC 11340 0 FT_New_Face
PUBLIC 11378 0 FT_New_Memory_Face
PUBLIC 11c94 0 FT_Remove_Module
PUBLIC 11e38 0 FT_Add_Module
PUBLIC 120f4 0 FT_Done_Library
PUBLIC 12208 0 ft_highpow2
PUBLIC 1221c 0 FT_Alloc
PUBLIC 1223c 0 FT_QAlloc
PUBLIC 1225c 0 FT_Realloc
PUBLIC 1229c 0 FT_QRealloc
PUBLIC 122dc 0 FT_Free
PUBLIC 12570 0 FT_Glyph_Transform
PUBLIC 125c8 0 FT_Glyph_Get_CBox
PUBLIC 12698 0 FT_Done_Glyph
PUBLIC 126d0 0 FT_Glyph_Copy
PUBLIC 1277c 0 FT_Get_Glyph
PUBLIC 12864 0 FT_Glyph_To_Bitmap
PUBLIC 17100 0 TT_RunIns
PUBLIC 1b9ec 0 TT_New_Context
PUBLIC 3d270 0 af_glyph_hints_dump_points
PUBLIC 3d274 0 af_glyph_hints_dump_segments
PUBLIC 3d278 0 af_glyph_hints_get_num_segments
PUBLIC 3d280 0 af_glyph_hints_get_segment_offset
PUBLIC 3d288 0 af_glyph_hints_dump_edges
PUBLIC 3ee6c 0 ps_hints_apply
PUBLIC 42cc8 0 FT_Stream_OpenGzip
PUBLIC 4316c 0 ft_lzwstate_reset
PUBLIC 43198 0 ft_lzwstate_init
PUBLIC 431e8 0 FT_Stream_OpenLZW
PUBLIC 43318 0 ft_lzwstate_done
PUBLIC 433b4 0 ft_lzwstate_io
PUBLIC 43c48 0 FT_Stream_OpenBzip2
PUBLIC 47d54 0 FT_Stream_Open
PUBLIC 47e10 0 FT_New_Memory
PUBLIC 47e60 0 FT_Done_Memory
PUBLIC 47e64 0 FT_Bitmap_New
PUBLIC 47e78 0 FT_Bitmap_Copy
PUBLIC 47f7c 0 FT_Bitmap_Convert
PUBLIC 48304 0 FT_GlyphSlot_Own_Bitmap
PUBLIC 4839c 0 FT_Bitmap_Done
PUBLIC 483f0 0 FT_Bitmap_Embolden
PUBLIC 48de4 0 BZ2_bzCompressInit
PUBLIC 48ffc 0 BZ2_bzCompress
PUBLIC 49194 0 BZ2_bzCompressEnd
PUBLIC 49224 0 BZ2_bzDecompressInit
PUBLIC 492f4 0 BZ2_indexIntoF
PUBLIC 4932c 0 BZ2_bzDecompress
PUBLIC 4a0d4 0 BZ2_bzDecompressEnd
PUBLIC 4a164 0 BZ2_bzWriteOpen
PUBLIC 4a2b0 0 BZ2_bzWrite
PUBLIC 4a410 0 BZ2_bzWriteClose64
PUBLIC 4a60c 0 BZ2_bzWriteClose
PUBLIC 4a630 0 BZ2_bzReadOpen
PUBLIC 4a9d0 0 BZ2_bzReadClose
PUBLIC 4aa58 0 BZ2_bzRead
PUBLIC 4ac70 0 BZ2_bzReadGetUnused
PUBLIC 4acfc 0 BZ2_bzBuffToBuffCompress
PUBLIC 4ae0c 0 BZ2_bzBuffToBuffDecompress
PUBLIC 4af10 0 BZ2_bzlibVersion
PUBLIC 4af20 0 BZ2_bz__AssertH__fail
PUBLIC 4af80 0 BZ2_bzopen
PUBLIC 4af90 0 BZ2_bzdopen
PUBLIC 4afa8 0 BZ2_bzread
PUBLIC 4aff0 0 BZ2_bzwrite
PUBLIC 4b02c 0 BZ2_bzflush
PUBLIC 4b034 0 BZ2_bzclose
PUBLIC 4b0d0 0 BZ2_bzerror
PUBLIC 4b1b8 0 BZ2_bsInitWrite
PUBLIC 4b1c8 0 BZ2_compressBlock
PUBLIC 4d3a8 0 BZ2_decompress
PUBLIC 516b8 0 BZ2_blockSort
PUBLIC 51824 0 BZ2_hbMakeCodeLengths
PUBLIC 51ce8 0 BZ2_hbAssignCodes
PUBLIC 51d2c 0 BZ2_hbCreateDecodeTables
PUBLIC 51e64 0 __aeabi_uidiv
PUBLIC 51f0c 0 __aeabi_uidivmod
PUBLIC 51f2c 0 __aeabi_idiv
PUBLIC 52008 0 __aeabi_idivmod
PUBLIC 52028 0 __aeabi_idiv0
PUBLIC 52470 0 _Unwind_GetCFA
PUBLIC 52478 0 __gnu_Unwind_RaiseException
PUBLIC 5251c 0 __gnu_Unwind_ForcedUnwind
PUBLIC 52538 0 __gnu_Unwind_Resume
PUBLIC 525ac 0 __gnu_Unwind_Resume_or_Rethrow
PUBLIC 525cc 0 _Unwind_Complete
PUBLIC 525d0 0 _Unwind_DeleteException
PUBLIC 525f0 0 _Unwind_VRS_Get
PUBLIC 52674 0 _Unwind_VRS_Set
PUBLIC 526fc 0 __gnu_Unwind_Backtrace
PUBLIC 52bb4 0 __aeabi_unwind_cpp_pr0
PUBLIC 52bbc 0 __aeabi_unwind_cpp_pr1
PUBLIC 52bc4 0 __aeabi_unwind_cpp_pr2
PUBLIC 52bcc 0 _Unwind_VRS_Pop
PUBLIC 52f24 0 restore_core_regs
PUBLIC 52f38 0 __gnu_Unwind_Restore_VFP
PUBLIC 52f40 0 __gnu_Unwind_Save_VFP
PUBLIC 52f48 0 __gnu_Unwind_Restore_VFP_D
PUBLIC 52f50 0 __gnu_Unwind_Save_VFP_D
PUBLIC 52f58 0 __gnu_Unwind_Restore_VFP_D_16_to_31
PUBLIC 52f60 0 __gnu_Unwind_Save_VFP_D_16_to_31
PUBLIC 52f68 0 __gnu_Unwind_Restore_WMMXD
PUBLIC 52fac 0 __gnu_Unwind_Save_WMMXD
PUBLIC 52ff0 0 __gnu_Unwind_Restore_WMMXC
PUBLIC 53004 0 __gnu_Unwind_Save_WMMXC
PUBLIC 53018 0 ___Unwind_RaiseException
PUBLIC 5303c 0 ___Unwind_Resume
PUBLIC 53060 0 ___Unwind_Resume_or_Rethrow
PUBLIC 53084 0 ___Unwind_ForcedUnwind
PUBLIC 530a8 0 ___Unwind_Backtrace
PUBLIC 53158 0 __gnu_unwind_execute
PUBLIC 534d4 0 __gnu_unwind_frame
PUBLIC 53514 0 _Unwind_GetRegionStart
PUBLIC 53524 0 _Unwind_GetLanguageSpecificData
PUBLIC 53540 0 _Unwind_GetDataRelBase
PUBLIC 53548 0 _Unwind_GetTextRelBase
STACK CFI INIT 9870 c .cfa: sp 0 + .ra: lr
STACK CFI INIT 987c 1c .cfa: sp 0 + .ra: lr
STACK CFI INIT 9898 18 .cfa: sp 0 + .ra: lr
STACK CFI INIT 98b0 2c .cfa: sp 0 + .ra: lr
STACK CFI 98b4 .cfa: sp 8 + .ra: .cfa -4 + ^ r4: .cfa -8 + ^
STACK CFI INIT 98dc 34 .cfa: sp 0 + .ra: lr
STACK CFI INIT 9910 34 .cfa: sp 0 + .ra: lr
STACK CFI INIT 9944 2a8 .cfa: sp 0 + .ra: lr
STACK CFI 9948 .cfa: sp 20 + .ra: .cfa -4 + ^ r4: .cfa -20 + ^ r5: .cfa -16 + ^ r6: .cfa -12 + ^ r7: .cfa -8 + ^
STACK CFI 9954 .cfa: sp 104 +
STACK CFI INIT 9bec 1d4 .cfa: sp 0 + .ra: lr
STACK CFI 9bf0 .cfa: sp 16 + .ra: .cfa -4 + ^ r4: .cfa -16 + ^ r5: .cfa -12 + ^ r6: .cfa -8 + ^
STACK CFI 9c00 .cfa: sp 40 +
STACK CFI INIT 9dc0 2ec .cfa: sp 0 + .ra: lr
STACK CFI 9dc4 .cfa: sp 36 + .ra: .cfa -4 + ^ r10: .cfa -12 + ^ r11: .cfa -8 + ^ r4: .cfa -36 + ^ r5: .cfa -32 + ^ r6: .cfa -28 + ^ r7: .cfa -24 + ^ r8: .cfa -20 + ^ r9: .cfa -16 + ^
STACK CFI 9dc8 .cfa: sp 96 +
STACK CFI INIT a0ac 4e0 .cfa: sp 0 + .ra: lr
STACK CFI a0b0 .cfa: sp 36 + .ra: .cfa -4 + ^ r10: .cfa -12 + ^ r11: .cfa -8 + ^ r4: .cfa -36 + ^ r5: .cfa -32 + ^ r6: .cfa -28 + ^ r7: .cfa -24 + ^ r8: .cfa -20 + ^ r9: .cfa -16 + ^
STACK CFI a0b4 .cfa: sp 112 +
STACK CFI INIT a58c b4 .cfa: sp 0 + .ra: lr
STACK CFI a590 .cfa: sp 16 + .ra: .cfa -4 + ^ r4: .cfa -16 + ^ r5: .cfa -12 + ^ r6: .cfa -8 + ^
STACK CFI a59c .cfa: sp 48 +
STACK CFI INIT 51e64 a8 .cfa: sp 0 + .ra: lr
STACK CFI INIT 51f2c dc .cfa: sp 0 + .ra: lr
STACK CFI INIT 52038 18 .cfa: sp 0 + .ra: lr
STACK CFI INIT 52050 ac .cfa: sp 0 + .ra: lr
STACK CFI 52054 .cfa: sp 48 + .ra: .cfa -4 + ^ r0: .cfa -48 + ^ r1: .cfa -44 + ^ r10: .cfa -12 + ^ r11: .cfa -8 + ^ r2: .cfa -40 + ^ r4: .cfa -36 + ^ r5: .cfa -32 + ^ r6: .cfa -28 + ^ r7: .cfa -24 + ^ r8: .cfa -20 + ^ r9: .cfa -16 + ^
STACK CFI INIT 520fc 50 .cfa: sp 0 + .ra: lr
STACK CFI INIT 5214c 110 .cfa: sp 0 + .ra: lr
STACK CFI 52154 .cfa: sp 24 + .ra: .cfa -4 + ^ r0: .cfa -24 + ^ r1: .cfa -20 + ^ r2: .cfa -16 + ^ r4: .cfa -12 + ^ r5: .cfa -8 + ^
STACK CFI INIT 5225c 6c .cfa: sp 0 + .ra: lr
STACK CFI 52264 .cfa: sp 8 + .ra: .cfa -4 + ^ r4: .cfa -8 + ^
STACK CFI INIT 522c8 14 .cfa: sp 0 + .ra: lr
STACK CFI INIT 522dc 8 .cfa: sp 0 + .ra: lr
STACK CFI INIT 522e4 4 .cfa: sp 0 + .ra: lr
STACK CFI INIT 522e8 64 .cfa: sp 0 + .ra: lr
STACK CFI 522ec .cfa: sp 16 + .ra: .cfa -4 + ^ r4: .cfa -16 + ^ r5: .cfa -12 + ^ r6: .cfa -8 + ^
STACK CFI INIT 5234c 124 .cfa: sp 0 + .ra: lr
STACK CFI 52350 .cfa: sp 36 + .ra: .cfa -4 + ^ r10: .cfa -12 + ^ r11: .cfa -8 + ^ r4: .cfa -36 + ^ r5: .cfa -32 + ^ r6: .cfa -28 + ^ r7: .cfa -24 + ^ r8: .cfa -20 + ^ r9: .cfa -16 + ^
STACK CFI 5236c .cfa: sp 1008 +
STACK CFI INIT 52470 8 .cfa: sp 0 + .ra: lr
STACK CFI INIT 52478 a4 .cfa: sp 0 + .ra: lr
STACK CFI 5247c .cfa: sp 20 + .ra: .cfa -4 + ^ r4: .cfa -20 + ^ r5: .cfa -16 + ^ r6: .cfa -12 + ^ r7: .cfa -8 + ^
STACK CFI 52498 .cfa: sp 504 +
STACK CFI INIT 5251c 1c .cfa: sp 0 + .ra: lr
STACK CFI INIT 52538 74 .cfa: sp 0 + .ra: lr
STACK CFI 5253c .cfa: sp 16 + .ra: .cfa -4 + ^ r4: .cfa -16 + ^ r5: .cfa -12 + ^ r6: .cfa -8 + ^
STACK CFI INIT 525ac 20 .cfa: sp 0 + .ra: lr
STACK CFI INIT 525cc 4 .cfa: sp 0 + .ra: lr
STACK CFI INIT 525d0 20 .cfa: sp 0 + .ra: lr
STACK CFI 525d4 .cfa: sp 8 + .ra: .cfa -4 + ^ r3: .cfa -8 + ^
STACK CFI INIT 525f0 5c .cfa: sp 0 + .ra: lr
STACK CFI INIT 5264c 28 .cfa: sp 0 + .ra: lr
STACK CFI 52650 .cfa: sp 24 + .ra: .cfa -4 + ^ r0: .cfa -24 + ^ r1: .cfa -20 + ^ r2: .cfa -16 + ^ r3: .cfa -12 + ^ r4: .cfa -8 + ^
STACK CFI INIT 52674 5c .cfa: sp 0 + .ra: lr
STACK CFI INIT 526d0 2c .cfa: sp 0 + .ra: lr
STACK CFI 526d4 .cfa: sp 24 + .ra: .cfa -4 + ^ r0: .cfa -24 + ^ r1: .cfa -20 + ^ r2: .cfa -16 + ^ r3: .cfa -12 + ^ r4: .cfa -8 + ^
STACK CFI INIT 526fc c4 .cfa: sp 0 + .ra: lr
STACK CFI 52700 .cfa: sp 24 + .ra: .cfa -4 + ^ r4: .cfa -24 + ^ r5: .cfa -20 + ^ r6: .cfa -16 + ^ r7: .cfa -12 + ^ r8: .cfa -8 + ^
STACK CFI 5271c .cfa: sp 592 +
STACK CFI INIT 527c0 3f4 .cfa: sp 0 + .ra: lr
STACK CFI 527c4 .cfa: sp 36 + .ra: .cfa -4 + ^ r10: .cfa -12 + ^ r11: .cfa -8 + ^ r4: .cfa -36 + ^ r5: .cfa -32 + ^ r6: .cfa -28 + ^ r7: .cfa -24 + ^ r8: .cfa -20 + ^ r9: .cfa -16 + ^
STACK CFI 527d0 .cfa: sp 72 +
STACK CFI INIT 52bb4 8 .cfa: sp 0 + .ra: lr
STACK CFI INIT 52bbc 8 .cfa: sp 0 + .ra: lr
STACK CFI INIT 52bc4 8 .cfa: sp 0 + .ra: lr
STACK CFI INIT 52bcc 358 .cfa: sp 0 + .ra: lr
STACK CFI 52bd0 .cfa: sp 28 + .ra: .cfa -4 + ^ r4: .cfa -28 + ^ r5: .cfa -24 + ^ r6: .cfa -20 + ^ r7: .cfa -16 + ^ r8: .cfa -12 + ^ r9: .cfa -8 + ^
STACK CFI 52bd8 .cfa: sp 296 +
STACK CFI INIT 530cc 60 .cfa: sp 0 + .ra: lr
STACK CFI INIT 5312c 28 .cfa: sp 0 + .ra: lr
STACK CFI 53130 .cfa: sp 24 + .ra: .cfa -4 + ^ r0: .cfa -24 + ^ r1: .cfa -20 + ^ r2: .cfa -16 + ^ r3: .cfa -12 + ^ r4: .cfa -8 + ^
STACK CFI INIT 53154 4 .cfa: sp 0 + .ra: lr
STACK CFI INIT 53158 37c .cfa: sp 0 + .ra: lr
STACK CFI 5315c .cfa: sp 48 + .ra: .cfa -4 + ^ r0: .cfa -48 + ^ r1: .cfa -44 + ^ r10: .cfa -8 + ^ r2: .cfa -40 + ^ r3: .cfa -36 + ^ r4: .cfa -32 + ^ r5: .cfa -28 + ^ r6: .cfa -24 + ^ r7: .cfa -20 + ^ r8: .cfa -16 + ^ r9: .cfa -12 + ^
STACK CFI INIT 534d4 40 .cfa: sp 0 + .ra: lr
STACK CFI 534d8 .cfa: sp 24 + .ra: .cfa -4 + ^ r0: .cfa -24 + ^ r1: .cfa -20 + ^ r2: .cfa -16 + ^ r3: .cfa -12 + ^ r4: .cfa -8 + ^
STACK CFI INIT 53514 10 .cfa: sp 0 + .ra: lr
STACK CFI 53518 .cfa: sp 8 + .ra: .cfa -4 + ^ r3: .cfa -8 + ^
STACK CFI INIT 53524 1c .cfa: sp 0 + .ra: lr
STACK CFI 53528 .cfa: sp 8 + .ra: .cfa -4 + ^ r3: .cfa -8 + ^
STACK CFI INIT 53540 8 .cfa: sp 0 + .ra: lr
STACK CFI 53544 .cfa: sp 8 + .ra: .cfa -4 + ^ r3: .cfa -8 + ^
STACK CFI INIT 53548 8 .cfa: sp 0 + .ra: lr
STACK CFI 5354c .cfa: sp 8 + .ra: .cfa -4 + ^ r3: .cfa -8 + ^
