MODULE Linux arm F6E5218499110010577FFAD5D3DDFA540 libnfs.so
FUNC 1d500 18 0 selfrel_offset31
FUNC 1d518 ac 0 search_EIT_table
FUNC 1d5c4 50 0 __gnu_unwind_get_pr_addr
FUNC 1d614 10c 0 get_eit_entry
FUNC 1d720 6c 0 restore_non_core_regs
FUNC 1d78c 14 0 _Unwind_decode_typeinfo_ptr
FUNC 1d7a0 8 0 __gnu_unwind_24bit
FUNC 1d7a8 4 0 _Unwind_DebugHook
FUNC 1d7ac 64 0 unwind_phase2
FUNC 1d810 124 0 unwind_phase2_forced
FUNC 1d934 8 0 _Unwind_GetCFA
FUNC 1d93c a4 0 __gnu_Unwind_RaiseException
FUNC 1d9e0 1c 0 __gnu_Unwind_ForcedUnwind
FUNC 1d9fc 74 0 __gnu_Unwind_Resume
FUNC 1da70 20 0 __gnu_Unwind_Resume_or_Rethrow
FUNC 1da90 4 0 _Unwind_Complete
FUNC 1da94 20 0 _Unwind_DeleteException
FUNC 1dab4 5c 0 _Unwind_VRS_Get
FUNC 1db10 28 0 _Unwind_GetGR
FUNC 1db38 5c 0 _Unwind_VRS_Set
FUNC 1db94 2c 0 _Unwind_SetGR
FUNC 1dbc0 c4 0 __gnu_Unwind_Backtrace
FUNC 1dc84 3f0 0 __gnu_unwind_pr_common
FUNC 1e074 8 0 __aeabi_unwind_cpp_pr0
FUNC 1e07c 8 0 __aeabi_unwind_cpp_pr1
FUNC 1e084 8 0 __aeabi_unwind_cpp_pr2
FUNC 1e08c 34c 0 _Unwind_VRS_Pop
FUNC 1e580 60 0 next_unwind_byte
FUNC 1e5e0 28 0 _Unwind_GetGR
FUNC 1e608 4 0 unwind_UCB_from_context
FUNC 1e60c 37c 0 __gnu_unwind_execute
FUNC 1e988 40 0 __gnu_unwind_frame
FUNC 1e9c8 10 0 _Unwind_GetRegionStart
FUNC 1e9d8 1c 0 _Unwind_GetLanguageSpecificData
FUNC 1e9f4 8 0 _Unwind_GetDataRelBase
FUNC 1e9fc 8 0 _Unwind_GetTextRelBase
PUBLIC 6ecc 0 rpc_init_context
PUBLIC 6fd0 0 rpc_set_readahead
PUBLIC 7028 0 rpc_init_udp_context
PUBLIC 7044 0 rpc_set_auth
PUBLIC 7124 0 rpc_set_uid
PUBLIC 7130 0 rpc_set_gid
PUBLIC 7140 0 rpc_set_error
PUBLIC 71d8 0 rpc_get_error
PUBLIC 722c 0 rpc_error_all_pdus
PUBLIC 7314 0 rpc_free_all_fragments
PUBLIC 7398 0 rpc_add_fragment
PUBLIC 748c 0 rpc_destroy_context
PUBLIC c408 0 nfs_free_nfsdir
PUBLIC d0fc 0 nfs_set_auth
PUBLIC d104 0 nfs_get_fd
PUBLIC d10c 0 nfs_queue_length
PUBLIC d114 0 nfs_which_events
PUBLIC d11c 0 nfs_service
PUBLIC d124 0 nfs_get_error
PUBLIC d12c 0 nfs_destroy_url
PUBLIC d15c 0 nfs_init_context
PUBLIC d1bc 0 nfs_destroy_context
PUBLIC d258 0 free_rpc_cb_data
PUBLIC d828 0 rpc_connect_program_async
PUBLIC dab8 0 nfs_mount_async
PUBLIC dba8 0 nfs_stat_async
PUBLIC dc0c 0 nfs_stat64_async_internal
PUBLIC dc6c 0 nfs_stat64_async
PUBLIC dc8c 0 nfs_lstat64_async
PUBLIC dcac 0 nfs_open_async
PUBLIC dd10 0 nfs_chdir_async
PUBLIC dd74 0 nfs_close_async
PUBLIC dda8 0 nfs_fstat_async
PUBLIC de74 0 nfs_fstat64_async
PUBLIC df40 0 nfs_fsync_async
PUBLIC e020 0 nfs_ftruncate_async
PUBLIC e1bc 0 nfs_truncate_async
PUBLIC e224 0 nfs_mkdir_async
PUBLIC e2f8 0 nfs_rmdir_async
PUBLIC e3cc 0 nfs_create_async
PUBLIC e4e0 0 nfs_creat_async
PUBLIC e508 0 nfs_unlink_async
PUBLIC e5dc 0 nfs_mknod_async
PUBLIC e714 0 nfs_opendir_async
PUBLIC e7bc 0 nfs_readdir
PUBLIC e7d0 0 nfs_closedir
PUBLIC e83c 0 nfs_getcwd
PUBLIC e84c 0 nfs_lseek_async
PUBLIC e988 0 nfs_statvfs_async
PUBLIC e9ec 0 nfs_readlink_async
PUBLIC ea54 0 nfs_chmod_async_internal
PUBLIC eab8 0 nfs_chmod_async
PUBLIC eae0 0 nfs_lchmod_async
PUBLIC eb08 0 nfs_fchmod_async
PUBLIC ebcc 0 nfs_chown_async_internal
PUBLIC ec80 0 nfs_chown_async
PUBLIC ecb0 0 nfs_lchown_async
PUBLIC ece0 0 nfs_fchown_async
PUBLIC edec 0 nfs_utimes_async_internal
PUBLIC eec8 0 nfs_utimes_async
PUBLIC eef0 0 nfs_lutimes_async
PUBLIC ef18 0 nfs_utime_async
PUBLIC efe4 0 nfs_access_async
PUBLIC f04c 0 nfs_access2_async
PUBLIC f0b0 0 nfs_symlink_async
PUBLIC f208 0 nfs_rename_async
PUBLIC f374 0 nfs_link_async
PUBLIC f4ac 0 nfs_get_current_offset
PUBLIC f4b4 0 nfs_get_readmax
PUBLIC f94c 0 nfs_pread_async
PUBLIC f980 0 nfs_read_async
PUBLIC f9bc 0 nfs_get_writemax
PUBLIC fbfc 0 nfs_pwrite_async
PUBLIC fc38 0 nfs_write_async
PUBLIC fee8 0 nfs_set_tcp_syncnt
PUBLIC fef0 0 nfs_set_uid
PUBLIC fef8 0 nfs_set_gid
PUBLIC ff00 0 nfs_set_readahead
PUBLIC ff08 0 nfs_set_error
PUBLIC ff64 0 mount_getexports_async
PUBLIC 10050 0 nfs_get_rpc_context
PUBLIC 10480 0 nfs_parse_url_full
PUBLIC 1048c 0 nfs_parse_url_dir
PUBLIC 10498 0 nfs_parse_url_incomplete
PUBLIC 104a4 0 nfs_get_server
PUBLIC 104ac 0 nfs_get_export
PUBLIC 104b4 0 nfs_get_rootfh
PUBLIC 104bc 0 nfs_get_fh
PUBLIC 10ae8 0 mount_getexports_cb
PUBLIC 10bb8 0 callit_cb
PUBLIC 10d9c 0 nfs_mount
PUBLIC 10e64 0 nfs_stat
PUBLIC 10ec8 0 nfs_stat64
PUBLIC 10f2c 0 nfs_lstat64
PUBLIC 10f90 0 nfs_open
PUBLIC 10ff8 0 nfs_chdir
PUBLIC 11068 0 nfs_pread
PUBLIC 110f0 0 nfs_read
PUBLIC 11170 0 nfs_close
PUBLIC 111d4 0 nfs_fstat
PUBLIC 11238 0 nfs_fstat64
PUBLIC 1129c 0 nfs_pwrite
PUBLIC 11324 0 nfs_write
PUBLIC 113a4 0 nfs_fsync
PUBLIC 11408 0 nfs_ftruncate
PUBLIC 11470 0 nfs_truncate
PUBLIC 114d8 0 nfs_mkdir
PUBLIC 1153c 0 nfs_rmdir
PUBLIC 115a0 0 nfs_create
PUBLIC 11610 0 nfs_creat
PUBLIC 11630 0 nfs_mknod
PUBLIC 11698 0 nfs_unlink
PUBLIC 116fc 0 nfs_opendir
PUBLIC 11760 0 nfs_lseek
PUBLIC 117d8 0 nfs_statvfs
PUBLIC 1183c 0 nfs_readlink
PUBLIC 118a4 0 nfs_chmod
PUBLIC 11908 0 nfs_lchmod
PUBLIC 1196c 0 nfs_fchmod
PUBLIC 119d0 0 nfs_chown
PUBLIC 11a38 0 nfs_lchown
PUBLIC 11aa0 0 nfs_fchown
PUBLIC 11b08 0 nfs_utimes
PUBLIC 11b6c 0 nfs_lutimes
PUBLIC 11bd0 0 nfs_utime
PUBLIC 11c34 0 nfs_access
PUBLIC 11c98 0 nfs_access2
PUBLIC 11cfc 0 nfs_symlink
PUBLIC 11d60 0 nfs_rename
PUBLIC 11dc4 0 nfs_link
PUBLIC 11e28 0 mount_getexports
PUBLIC 11f6c 0 mount_free_export_list
PUBLIC 11f9c 0 free_nfs_srvr_list
PUBLIC 11fcc 0 nfs_find_local_servers
PUBLIC 12324 0 libnfs_zdr_setpos
PUBLIC 12330 0 libnfs_zdr_getpos
PUBLIC 12338 0 libnfs_zdrmem_create
PUBLIC 12350 0 libnfs_zdr_destroy
PUBLIC 12384 0 libnfs_zdr_u_int
PUBLIC 123f8 0 libnfs_zdr_int
PUBLIC 123fc 0 libnfs_zdr_uint64_t
PUBLIC 124ac 0 libnfs_zdr_int64_t
PUBLIC 124b0 0 libnfs_zdr_bytes
PUBLIC 128bc 0 libnfs_zdr_enum
PUBLIC 128e4 0 libnfs_zdr_bool
PUBLIC 128e8 0 libnfs_zdr_void
PUBLIC 128f0 0 libnfs_zdr_pointer
PUBLIC 12984 0 libnfs_zdr_opaque
PUBLIC 12a28 0 libnfs_zdr_string
PUBLIC 12ae0 0 libnfs_zdr_array
PUBLIC 12b9c 0 libnfs_zdr_free
PUBLIC 12ba0 0 libnfs_zdr_callmsg
PUBLIC 12ba4 0 libnfs_zdr_replymsg
PUBLIC 12ba8 0 libnfs_authnone_create
PUBLIC 12bd8 0 libnfs_authunix_create
PUBLIC 12d10 0 libnfs_authunix_create_default
PUBLIC 12d48 0 libnfs_auth_destroy
PUBLIC 12d7c 0 rpc_reset_queue
PUBLIC 12d8c 0 rpc_enqueue
PUBLIC 12db0 0 rpc_return_to_queue
PUBLIC 12dcc 0 rpc_hash_xid
PUBLIC 12ddc 0 rpc_allocate_pdu
PUBLIC 12f74 0 rpc_free_pdu
PUBLIC 13010 0 rpc_set_next_xid
PUBLIC 13018 0 rpc_queue_pdu
PUBLIC 13188 0 rpc_get_pdu_size
PUBLIC 1319c 0 rpc_process_pdu
PUBLIC 1377c 0 set_tcp_sockopt
PUBLIC 13a8c 0 rpc_get_fd
PUBLIC 13ae0 0 rpc_which_events
PUBLIC 13b64 0 rpc_service
PUBLIC 14350 0 rpc_set_autoreconnect
PUBLIC 143ac 0 rpc_unset_autoreconnect
PUBLIC 14408 0 rpc_set_tcp_syncnt
PUBLIC 14464 0 rpc_connect_async
PUBLIC 145f0 0 rpc_disconnect
PUBLIC 14678 0 rpc_bind_udp
PUBLIC 14820 0 rpc_set_udp_destination
PUBLIC 149a0 0 rpc_get_recv_sockaddr
PUBLIC 149f8 0 rpc_queue_length
PUBLIC 14a84 0 rpc_set_fd
PUBLIC 14ae0 0 rpc_mount3_null_async
PUBLIC 14b74 0 rpc_mount_null_async
PUBLIC 14b78 0 rpc_mount3_mnt_async
PUBLIC 14c38 0 rpc_mount_mnt_async
PUBLIC 14c3c 0 rpc_mount3_dump_async
PUBLIC 14cd4 0 rpc_mount_dump_async
PUBLIC 14cd8 0 rpc_mount3_umnt_async
PUBLIC 14d98 0 rpc_mount_umnt_async
PUBLIC 14d9c 0 rpc_mount3_umntall_async
PUBLIC 14e34 0 rpc_mount_umntall_async
PUBLIC 14e38 0 rpc_mount3_export_async
PUBLIC 14ed0 0 rpc_mount_export_async
PUBLIC 14ed4 0 mountstat3_to_str
PUBLIC 14fe8 0 mountstat3_to_errno
PUBLIC 1507c 0 rpc_mount1_null_async
PUBLIC 15110 0 rpc_mount1_mnt_async
PUBLIC 151d0 0 rpc_mount1_dump_async
PUBLIC 15268 0 rpc_mount1_umnt_async
PUBLIC 15328 0 rpc_mount1_umntall_async
PUBLIC 153c0 0 rpc_mount1_export_async
PUBLIC 15458 0 zdr_fhandle3
PUBLIC 15478 0 zdr_dirpath
PUBLIC 15490 0 zdr_name
PUBLIC 154a8 0 zdr_mountstat3
PUBLIC 154bc 0 zdr_mountlist
PUBLIC 154e0 0 zdr_mountbody
PUBLIC 1552c 0 zdr_groups
PUBLIC 15550 0 zdr_groupnode
PUBLIC 15580 0 zdr_exports
PUBLIC 155a4 0 zdr_exportnode
PUBLIC 155f0 0 zdr_mountres3_ok
PUBLIC 15644 0 zdr_mountres3
PUBLIC 15688 0 zdr_mountstat1
PUBLIC 1569c 0 zdr_fhandle1
PUBLIC 156b4 0 zdr_mountres1_ok
PUBLIC 156c8 0 zdr_mountres1
PUBLIC 1570c 0 nfsstat3_to_str
PUBLIC 159ec 0 nfsstat3_to_errno
PUBLIC 15b88 0 rpc_nfs3_null_async
PUBLIC 15c20 0 rpc_nfs_null_async
PUBLIC 15c24 0 rpc_nfs3_getattr_async
PUBLIC 15cfc 0 rpc_nfs_getattr_async
PUBLIC 15d20 0 rpc_nfs3_pathconf_async
PUBLIC 15df8 0 rpc_nfs_pathconf_async
PUBLIC 15e1c 0 rpc_nfs3_lookup_async
PUBLIC 15ef4 0 rpc_nfs_lookup_async
PUBLIC 15f4c 0 rpc_nfs3_access_async
PUBLIC 16024 0 rpc_nfs_access_async
PUBLIC 1607c 0 rpc_nfs3_read_async
PUBLIC 16154 0 rpc_nfs_read_async
PUBLIC 161b4 0 rpc_nfs3_write_async
PUBLIC 1628c 0 rpc_nfs_write_async
PUBLIC 16300 0 rpc_nfs3_commit_async
PUBLIC 163d8 0 rpc_nfs_commit_async
PUBLIC 1642c 0 rpc_nfs3_setattr_async
PUBLIC 16504 0 rpc_nfs_setattr_async
PUBLIC 16508 0 rpc_nfs3_mkdir_async
PUBLIC 165e0 0 rpc_nfs_mkdir_async
PUBLIC 165e4 0 rpc_nfs3_rmdir_async
PUBLIC 166bc 0 rpc_nfs_rmdir_async
PUBLIC 16714 0 rpc_nfs3_create_async
PUBLIC 167ec 0 rpc_nfs_create_async
PUBLIC 167f0 0 rpc_nfs3_mknod_async
PUBLIC 168c8 0 rpc_nfs_mknod_async
PUBLIC 169c0 0 rpc_nfs3_remove_async
PUBLIC 16a98 0 rpc_nfs_remove_async
PUBLIC 16af0 0 rpc_nfs3_readdir_async
PUBLIC 16bc8 0 rpc_nfs_readdir_async
PUBLIC 16c3c 0 rpc_nfs3_readdirplus_async
PUBLIC 16d14 0 rpc_nfs_readdirplus_async
PUBLIC 16d90 0 rpc_nfs3_fsstat_async
PUBLIC 16e68 0 rpc_nfs_fsstat_async
PUBLIC 16e8c 0 rpc_nfs3_fsinfo_async
PUBLIC 16f64 0 rpc_nfs_fsinfo_async
PUBLIC 16f88 0 rpc_nfs3_readlink_async
PUBLIC 17060 0 rpc_nfs_readlink_async
PUBLIC 17064 0 rpc_nfs3_symlink_async
PUBLIC 1713c 0 rpc_nfs_symlink_async
PUBLIC 17140 0 rpc_nfs3_rename_async
PUBLIC 17218 0 rpc_nfs_rename_async
PUBLIC 17288 0 rpc_nfs3_link_async
PUBLIC 17360 0 rpc_nfs_link_async
PUBLIC 173d0 0 rpc_nfs2_null_async
PUBLIC 17468 0 rpc_nfs2_getattr_async
PUBLIC 17540 0 rpc_nfs2_setattr_async
PUBLIC 17618 0 rpc_nfs2_lookup_async
PUBLIC 176f0 0 rpc_nfs2_readlink_async
PUBLIC 177c8 0 rpc_nfs2_read_async
PUBLIC 178a0 0 rpc_nfs2_write_async
PUBLIC 17978 0 rpc_nfs2_create_async
PUBLIC 17a50 0 rpc_nfs2_remove_async
PUBLIC 17b28 0 rpc_nfs2_rename_async
PUBLIC 17c00 0 rpc_nfs2_link_async
PUBLIC 17cd8 0 rpc_nfs2_symlink_async
PUBLIC 17db0 0 rpc_nfs2_mkdir_async
PUBLIC 17e88 0 rpc_nfs2_rmdir_async
PUBLIC 17f60 0 rpc_nfs2_readdir_async
PUBLIC 18038 0 rpc_nfs2_statfs_async
PUBLIC 18110 0 rpc_nfsacl_null_async
PUBLIC 181a8 0 rpc_nfsacl_getacl_async
PUBLIC 18268 0 rpc_nfsacl_setacl_async
PUBLIC 18328 0 zdr_cookieverf3
PUBLIC 18340 0 zdr_cookie3
PUBLIC 18354 0 zdr_nfs_fh3
PUBLIC 18374 0 zdr_filename3
PUBLIC 1838c 0 zdr_diropargs3
PUBLIC 183bc 0 zdr_ftype3
PUBLIC 183d0 0 zdr_mode3
PUBLIC 183e4 0 zdr_uid3
PUBLIC 183f8 0 zdr_gid3
PUBLIC 1840c 0 zdr_size3
PUBLIC 18420 0 zdr_fileid3
PUBLIC 18434 0 zdr_entry3
PUBLIC 184a4 0 zdr_specdata3
PUBLIC 184d4 0 zdr_nfstime3
PUBLIC 18504 0 zdr_fattr3
PUBLIC 18618 0 zdr_post_op_attr
PUBLIC 1866c 0 zdr_nfsstat3
PUBLIC 18680 0 zdr_stable_how
PUBLIC 18694 0 zdr_offset3
PUBLIC 186a8 0 zdr_count3
PUBLIC 186bc 0 zdr_wcc_attr
PUBLIC 18708 0 zdr_pre_op_attr
PUBLIC 1875c 0 zdr_wcc_data
PUBLIC 1878c 0 zdr_WRITE3args
PUBLIC 18808 0 zdr_writeverf3
PUBLIC 18820 0 zdr_WRITE3resok
PUBLIC 18880 0 zdr_WRITE3resfail
PUBLIC 18894 0 zdr_WRITE3res
PUBLIC 188d8 0 zdr_LOOKUP3args
PUBLIC 188ec 0 zdr_LOOKUP3resok
PUBLIC 18938 0 zdr_LOOKUP3resfail
PUBLIC 1894c 0 zdr_LOOKUP3res
PUBLIC 18990 0 zdr_COMMIT3args
PUBLIC 189dc 0 zdr_COMMIT3resok
PUBLIC 18a0c 0 zdr_COMMIT3resfail
PUBLIC 18a20 0 zdr_COMMIT3res
PUBLIC 18a64 0 zdr_ACCESS3args
PUBLIC 18a94 0 zdr_ACCESS3resok
PUBLIC 18ac4 0 zdr_ACCESS3resfail
PUBLIC 18ad8 0 zdr_ACCESS3res
PUBLIC 18b1c 0 zdr_GETATTR3args
PUBLIC 18b30 0 zdr_GETATTR3resok
PUBLIC 18b44 0 zdr_GETATTR3res
PUBLIC 18b88 0 zdr_time_how
PUBLIC 18b9c 0 zdr_set_mode3
PUBLIC 18be0 0 zdr_set_uid3
PUBLIC 18c24 0 zdr_set_gid3
PUBLIC 18c68 0 zdr_set_size3
PUBLIC 18cac 0 zdr_set_atime
PUBLIC 18cf0 0 zdr_set_mtime
PUBLIC 18d34 0 zdr_sattr3
PUBLIC 18dbc 0 zdr_createmode3
PUBLIC 18dd0 0 zdr_createverf3
PUBLIC 18de8 0 zdr_createhow3
PUBLIC 18e48 0 zdr_CREATE3args
PUBLIC 18e78 0 zdr_post_op_fh3
PUBLIC 18ecc 0 zdr_entryplus3
PUBLIC 18f64 0 zdr_CREATE3resok
PUBLIC 18fb0 0 zdr_CREATE3resfail
PUBLIC 18fc4 0 zdr_CREATE3res
PUBLIC 19008 0 zdr_REMOVE3args
PUBLIC 1901c 0 zdr_REMOVE3resok
PUBLIC 19030 0 zdr_REMOVE3resfail
PUBLIC 19044 0 zdr_REMOVE3res
PUBLIC 19088 0 zdr_READ3args
PUBLIC 190d4 0 zdr_READ3resok
PUBLIC 1913c 0 zdr_READ3resfail
PUBLIC 19150 0 zdr_READ3res
PUBLIC 19194 0 zdr_FSINFO3args
PUBLIC 191a8 0 zdr_FSINFO3resok
PUBLIC 19294 0 zdr_FSINFO3resfail
PUBLIC 192a8 0 zdr_FSINFO3res
PUBLIC 192ec 0 zdr_FSSTAT3args
PUBLIC 19300 0 zdr_FSSTAT3resok
PUBLIC 193b0 0 zdr_FSSTAT3resfail
PUBLIC 193c4 0 zdr_FSSTAT3res
PUBLIC 19408 0 zdr_PATHCONF3args
PUBLIC 1941c 0 zdr_PATHCONF3resok
PUBLIC 194b8 0 zdr_PATHCONF3resfail
PUBLIC 194cc 0 zdr_PATHCONF3res
PUBLIC 19510 0 zdr_nfspath3
PUBLIC 19528 0 zdr_symlinkdata3
PUBLIC 19558 0 zdr_SYMLINK3args
PUBLIC 19588 0 zdr_SYMLINK3resok
PUBLIC 195d4 0 zdr_SYMLINK3resfail
PUBLIC 195e8 0 zdr_SYMLINK3res
PUBLIC 1962c 0 zdr_READLINK3args
PUBLIC 19640 0 zdr_READLINK3resok
PUBLIC 19670 0 zdr_READLINK3resfail
PUBLIC 19684 0 zdr_READLINK3res
PUBLIC 196c8 0 zdr_devicedata3
PUBLIC 196f8 0 zdr_mknoddata3
PUBLIC 19768 0 zdr_MKNOD3args
PUBLIC 19798 0 zdr_MKNOD3resok
PUBLIC 197e4 0 zdr_MKNOD3resfail
PUBLIC 197f8 0 zdr_MKNOD3res
PUBLIC 1983c 0 zdr_MKDIR3args
PUBLIC 1986c 0 zdr_MKDIR3resok
PUBLIC 198b8 0 zdr_MKDIR3resfail
PUBLIC 198cc 0 zdr_MKDIR3res
PUBLIC 19910 0 zdr_RMDIR3args
PUBLIC 19924 0 zdr_RMDIR3resok
PUBLIC 19938 0 zdr_RMDIR3resfail
PUBLIC 1994c 0 zdr_RMDIR3res
PUBLIC 19990 0 zdr_RENAME3args
PUBLIC 199c0 0 zdr_RENAME3resok
PUBLIC 199f0 0 zdr_RENAME3resfail
PUBLIC 19a20 0 zdr_RENAME3res
PUBLIC 19a64 0 zdr_READDIRPLUS3args
PUBLIC 19ad8 0 zdr_dirlistplus3
PUBLIC 19b18 0 zdr_READDIRPLUS3resok
PUBLIC 19b64 0 zdr_READDIRPLUS3resfail
PUBLIC 19b78 0 zdr_READDIRPLUS3res
PUBLIC 19bbc 0 zdr_READDIR3args
PUBLIC 19c1c 0 zdr_dirlist3
PUBLIC 19c5c 0 zdr_READDIR3resok
PUBLIC 19ca8 0 zdr_READDIR3resfail
PUBLIC 19cbc 0 zdr_READDIR3res
PUBLIC 19d00 0 zdr_LINK3args
PUBLIC 19d30 0 zdr_LINK3resok
PUBLIC 19d60 0 zdr_LINK3resfail
PUBLIC 19d90 0 zdr_LINK3res
PUBLIC 19dd4 0 zdr_sattrguard3
PUBLIC 19e28 0 zdr_SETATTR3args
PUBLIC 19e74 0 zdr_SETATTR3resok
PUBLIC 19e88 0 zdr_SETATTR3resfail
PUBLIC 19e9c 0 zdr_SETATTR3res
PUBLIC 19ee0 0 zdr_fhandle2
PUBLIC 19ef8 0 zdr_ftype2
PUBLIC 19f0c 0 zdr_fattr2
PUBLIC 1a034 0 zdr_sattr2
PUBLIC 1a0bc 0 zdr_filename2
PUBLIC 1a0d4 0 zdr_path2
PUBLIC 1a0ec 0 zdr_nfsdata2
PUBLIC 1a10c 0 zdr_nfscookie2
PUBLIC 1a124 0 zdr_entry2
PUBLIC 1a194 0 zdr_diropargs2
PUBLIC 1a1c4 0 zdr_GETATTR2args
PUBLIC 1a1d8 0 zdr_GETATTR2resok
PUBLIC 1a1ec 0 zdr_GETATTR2res
PUBLIC 1a230 0 zdr_SETATTR2args
PUBLIC 1a260 0 zdr_SETATTR2resok
PUBLIC 1a274 0 zdr_SETATTR2res
PUBLIC 1a2b8 0 zdr_LOOKUP2args
PUBLIC 1a2cc 0 zdr_LOOKUP2resok
PUBLIC 1a2fc 0 zdr_LOOKUP2res
PUBLIC 1a340 0 zdr_READLINK2args
PUBLIC 1a354 0 zdr_READLINK2resok
PUBLIC 1a368 0 zdr_READLINK2res
PUBLIC 1a3ac 0 zdr_READ2args
PUBLIC 1a40c 0 zdr_READ2resok
PUBLIC 1a43c 0 zdr_READ2res
PUBLIC 1a480 0 zdr_WRITE2args
PUBLIC 1a4f4 0 zdr_WRITE2resok
PUBLIC 1a508 0 zdr_WRITE2res
PUBLIC 1a54c 0 zdr_CREATE2args
PUBLIC 1a57c 0 zdr_CREATE2resok
PUBLIC 1a5ac 0 zdr_CREATE2res
PUBLIC 1a5f0 0 zdr_REMOVE2args
PUBLIC 1a604 0 zdr_REMOVE2res
PUBLIC 1a618 0 zdr_RENAME2args
PUBLIC 1a648 0 zdr_RENAME2res
PUBLIC 1a65c 0 zdr_LINK2args
PUBLIC 1a68c 0 zdr_LINK2res
PUBLIC 1a6a0 0 zdr_SYMLINK2args
PUBLIC 1a6ec 0 zdr_SYMLINK2res
PUBLIC 1a700 0 zdr_MKDIR2args
PUBLIC 1a730 0 zdr_MKDIR2resok
PUBLIC 1a760 0 zdr_MKDIR2res
PUBLIC 1a7a4 0 zdr_RMDIR2args
PUBLIC 1a7b8 0 zdr_RMDIR2res
PUBLIC 1a7cc 0 zdr_READDIR2args
PUBLIC 1a818 0 zdr_READDIR2resok
PUBLIC 1a858 0 zdr_READDIR2res
PUBLIC 1a89c 0 zdr_STATFS2args
PUBLIC 1a8b0 0 zdr_STATFS2resok
PUBLIC 1a924 0 zdr_STATFS2res
PUBLIC 1a968 0 zdr_nfsacl_type
PUBLIC 1a97c 0 zdr_nfsacl_ace
PUBLIC 1a9c8 0 zdr_GETACL3args
PUBLIC 1a9f8 0 zdr_GETACL3resok
PUBLIC 1aab4 0 zdr_GETACL3res
PUBLIC 1aaf8 0 zdr_SETACL3args
PUBLIC 1abb4 0 zdr_SETACL3resok
PUBLIC 1abc8 0 zdr_SETACL3res
PUBLIC 1ac0c 0 rpc_nlm4_null_async
PUBLIC 1aca0 0 rpc_nlm4_test_async
PUBLIC 1ad74 0 rpc_nlm4_lock_async
PUBLIC 1ae48 0 rpc_nlm4_cancel_async
PUBLIC 1af1c 0 rpc_nlm4_unlock_async
PUBLIC 1aff0 0 nlmstat4_to_str
PUBLIC 1b0d4 0 zdr_nlm_fh4
PUBLIC 1b0f4 0 zdr_nlm4_oh
PUBLIC 1b10c 0 zdr_nlm_cookie
PUBLIC 1b12c 0 zdr_nlmstat4
PUBLIC 1b140 0 zdr_nlm4_holder
PUBLIC 1b1b4 0 zdr_nlm4_lock
PUBLIC 1b240 0 zdr_nlm4_share
PUBLIC 1b2b8 0 zdr_nlm4_testres_denied
PUBLIC 1b2cc 0 zdr_nlm4_testreply
PUBLIC 1b310 0 zdr_NLM4_TESTres
PUBLIC 1b340 0 zdr_NLM4_TESTargs
PUBLIC 1b38c 0 zdr_NLM4_CANCres
PUBLIC 1b3bc 0 zdr_NLM4_CANCargs
PUBLIC 1b41c 0 zdr_NLM4_UNLOCKres
PUBLIC 1b44c 0 zdr_NLM4_UNLOCKargs
PUBLIC 1b47c 0 zdr_NLM4_LOCKres
PUBLIC 1b4ac 0 zdr_NLM4_LOCKargs
PUBLIC 1b534 0 zdr_NLM4_GRANTEDargs
PUBLIC 1b580 0 zdr_NLM4_GRANTEDres
PUBLIC 1b5b0 0 rpc_nsm1_null_async
PUBLIC 1b644 0 rpc_nsm1_stat_async
PUBLIC 1b718 0 rpc_nsm1_mon_async
PUBLIC 1b7ec 0 rpc_nsm1_unmon_async
PUBLIC 1b8c0 0 rpc_nsm1_unmonall_async
PUBLIC 1b990 0 rpc_nsm1_simucrash_async
PUBLIC 1ba28 0 rpc_nsm1_notify_async
PUBLIC 1bafc 0 nsmstat1_to_str
PUBLIC 1bb3c 0 zdr_nsmstat1
PUBLIC 1bb50 0 zdr_nsm_my_id
PUBLIC 1bbb4 0 zdr_nsm_mon_id
PUBLIC 1bbe8 0 zdr_NSM1_STATres
PUBLIC 1bc18 0 zdr_NSM1_STATargs
PUBLIC 1bc30 0 zdr_NSM1_MONres
PUBLIC 1bc60 0 zdr_NSM1_MONargs
PUBLIC 1bc94 0 zdr_NSM1_UNMONres
PUBLIC 1bca8 0 zdr_NSM1_UNMONargs
PUBLIC 1bcbc 0 zdr_NSM1_UNMONALLres
PUBLIC 1bcd0 0 zdr_NSM1_UNMONALLargs
PUBLIC 1bce4 0 zdr_NSM1_NOTIFYargs
PUBLIC 1bd18 0 rpc_pmap2_null_async
PUBLIC 1bdac 0 rpc_pmap2_getport_async
PUBLIC 1be94 0 rpc_pmap2_set_async
PUBLIC 1bf7c 0 rpc_pmap2_unset_async
PUBLIC 1c064 0 rpc_pmap2_dump_async
PUBLIC 1c0f8 0 rpc_pmap2_callit_async
PUBLIC 1c1fc 0 rpc_pmap3_null_async
PUBLIC 1c290 0 rpc_pmap3_set_async
PUBLIC 1c34c 0 rpc_pmap3_unset_async
PUBLIC 1c408 0 rpc_pmap3_getaddr_async
PUBLIC 1c4c4 0 rpc_pmap3_dump_async
PUBLIC 1c558 0 rpc_pmap3_gettime_async
PUBLIC 1c5f0 0 rpc_pmap3_callit_async
PUBLIC 1c6f4 0 rpc_pmap3_uaddr2taddr_async
PUBLIC 1c7cc 0 rpc_pmap3_taddr2uaddr_async
PUBLIC 1c89c 0 zdr_pmap2_mapping
PUBLIC 1c8fc 0 zdr_pmap2_mapping_list
PUBLIC 1c93c 0 zdr_pmap2_call_args
PUBLIC 1c9a4 0 zdr_pmap2_call_result
PUBLIC 1c9dc 0 zdr_pmap2_dump_result
PUBLIC 1ca00 0 zdr_pmap3_string_result
PUBLIC 1ca18 0 zdr_pmap3_mapping
PUBLIC 1ca98 0 zdr_pmap3_mapping_list
PUBLIC 1cad8 0 zdr_pmap3_dump_result
PUBLIC 1cafc 0 zdr_pmap3_call_args
PUBLIC 1cb64 0 zdr_pmap3_call_result
PUBLIC 1cb9c 0 zdr_pmap3_netbuf
PUBLIC 1cbd4 0 rquotastat_to_str
PUBLIC 1cc2c 0 rquotastat_to_errno
PUBLIC 1cc54 0 rpc_rquota1_null_async
PUBLIC 1ccec 0 rpc_rquota1_getquota_async
PUBLIC 1cddc 0 rpc_rquota1_getactivequota_async
PUBLIC 1cecc 0 rpc_rquota2_null_async
PUBLIC 1cf64 0 rpc_rquota2_getquota_async
PUBLIC 1d05c 0 rpc_rquota2_getactivequota_async
PUBLIC 1d154 0 zdr_rquotastat
PUBLIC 1d168 0 zdr_exportpath
PUBLIC 1d180 0 zdr_GETQUOTA1args
PUBLIC 1d1b0 0 zdr_quotatype
PUBLIC 1d1c4 0 zdr_GETQUOTA2args
PUBLIC 1d210 0 zdr_GETQUOTA1res_ok
PUBLIC 1d2e8 0 zdr_GETQUOTA1res
PUBLIC 1d32c 0 __aeabi_uidiv
PUBLIC 1d3d4 0 __aeabi_uidivmod
PUBLIC 1d3f4 0 __aeabi_idiv
PUBLIC 1d4d0 0 __aeabi_idivmod
PUBLIC 1d4f0 0 __aeabi_idiv0
PUBLIC 1d934 0 _Unwind_GetCFA
PUBLIC 1d93c 0 __gnu_Unwind_RaiseException
PUBLIC 1d9e0 0 __gnu_Unwind_ForcedUnwind
PUBLIC 1d9fc 0 __gnu_Unwind_Resume
PUBLIC 1da70 0 __gnu_Unwind_Resume_or_Rethrow
PUBLIC 1da90 0 _Unwind_Complete
PUBLIC 1da94 0 _Unwind_DeleteException
PUBLIC 1dab4 0 _Unwind_VRS_Get
PUBLIC 1db38 0 _Unwind_VRS_Set
PUBLIC 1dbc0 0 __gnu_Unwind_Backtrace
PUBLIC 1e074 0 __aeabi_unwind_cpp_pr0
PUBLIC 1e07c 0 __aeabi_unwind_cpp_pr1
PUBLIC 1e084 0 __aeabi_unwind_cpp_pr2
PUBLIC 1e08c 0 _Unwind_VRS_Pop
PUBLIC 1e3d8 0 restore_core_regs
PUBLIC 1e3ec 0 __gnu_Unwind_Restore_VFP
PUBLIC 1e3f4 0 __gnu_Unwind_Save_VFP
PUBLIC 1e3fc 0 __gnu_Unwind_Restore_VFP_D
PUBLIC 1e404 0 __gnu_Unwind_Save_VFP_D
PUBLIC 1e40c 0 __gnu_Unwind_Restore_VFP_D_16_to_31
PUBLIC 1e414 0 __gnu_Unwind_Save_VFP_D_16_to_31
PUBLIC 1e41c 0 __gnu_Unwind_Restore_WMMXD
PUBLIC 1e460 0 __gnu_Unwind_Save_WMMXD
PUBLIC 1e4a4 0 __gnu_Unwind_Restore_WMMXC
PUBLIC 1e4b8 0 __gnu_Unwind_Save_WMMXC
PUBLIC 1e4cc 0 ___Unwind_RaiseException
PUBLIC 1e4f0 0 ___Unwind_Resume
PUBLIC 1e514 0 ___Unwind_Resume_or_Rethrow
PUBLIC 1e538 0 ___Unwind_ForcedUnwind
PUBLIC 1e55c 0 ___Unwind_Backtrace
PUBLIC 1e60c 0 __gnu_unwind_execute
PUBLIC 1e988 0 __gnu_unwind_frame
PUBLIC 1e9c8 0 _Unwind_GetRegionStart
PUBLIC 1e9d8 0 _Unwind_GetLanguageSpecificData
PUBLIC 1e9f4 0 _Unwind_GetDataRelBase
PUBLIC 1e9fc 0 _Unwind_GetTextRelBase
STACK CFI INIT 1d32c a8 .cfa: sp 0 + .ra: lr
STACK CFI INIT 1d3f4 dc .cfa: sp 0 + .ra: lr
STACK CFI INIT 1d500 18 .cfa: sp 0 + .ra: lr
STACK CFI INIT 1d518 ac .cfa: sp 0 + .ra: lr
STACK CFI 1d51c .cfa: sp 48 + .ra: .cfa -4 + ^ r0: .cfa -48 + ^ r1: .cfa -44 + ^ r10: .cfa -12 + ^ r11: .cfa -8 + ^ r2: .cfa -40 + ^ r4: .cfa -36 + ^ r5: .cfa -32 + ^ r6: .cfa -28 + ^ r7: .cfa -24 + ^ r8: .cfa -20 + ^ r9: .cfa -16 + ^
STACK CFI INIT 1d5c4 50 .cfa: sp 0 + .ra: lr
STACK CFI INIT 1d614 10c .cfa: sp 0 + .ra: lr
STACK CFI 1d61c .cfa: sp 24 + .ra: .cfa -4 + ^ r0: .cfa -24 + ^ r1: .cfa -20 + ^ r2: .cfa -16 + ^ r4: .cfa -12 + ^ r5: .cfa -8 + ^
STACK CFI INIT 1d720 6c .cfa: sp 0 + .ra: lr
STACK CFI 1d728 .cfa: sp 8 + .ra: .cfa -4 + ^ r4: .cfa -8 + ^
STACK CFI INIT 1d78c 14 .cfa: sp 0 + .ra: lr
STACK CFI INIT 1d7a0 8 .cfa: sp 0 + .ra: lr
STACK CFI INIT 1d7a8 4 .cfa: sp 0 + .ra: lr
STACK CFI INIT 1d7ac 64 .cfa: sp 0 + .ra: lr
STACK CFI 1d7b0 .cfa: sp 16 + .ra: .cfa -4 + ^ r4: .cfa -16 + ^ r5: .cfa -12 + ^ r6: .cfa -8 + ^
STACK CFI INIT 1d810 124 .cfa: sp 0 + .ra: lr
STACK CFI 1d814 .cfa: sp 36 + .ra: .cfa -4 + ^ r10: .cfa -12 + ^ r11: .cfa -8 + ^ r4: .cfa -36 + ^ r5: .cfa -32 + ^ r6: .cfa -28 + ^ r7: .cfa -24 + ^ r8: .cfa -20 + ^ r9: .cfa -16 + ^
STACK CFI 1d830 .cfa: sp 1008 +
STACK CFI INIT 1d934 8 .cfa: sp 0 + .ra: lr
STACK CFI INIT 1d93c a4 .cfa: sp 0 + .ra: lr
STACK CFI 1d944 .cfa: sp 20 + .ra: .cfa -4 + ^ r4: .cfa -20 + ^ r5: .cfa -16 + ^ r6: .cfa -12 + ^ r7: .cfa -8 + ^
STACK CFI 1d958 .cfa: sp 504 +
STACK CFI INIT 1d9e0 1c .cfa: sp 0 + .ra: lr
STACK CFI INIT 1d9fc 74 .cfa: sp 0 + .ra: lr
STACK CFI 1da00 .cfa: sp 16 + .ra: .cfa -4 + ^ r4: .cfa -16 + ^ r5: .cfa -12 + ^ r6: .cfa -8 + ^
STACK CFI INIT 1da70 20 .cfa: sp 0 + .ra: lr
STACK CFI INIT 1da90 4 .cfa: sp 0 + .ra: lr
STACK CFI INIT 1da94 20 .cfa: sp 0 + .ra: lr
STACK CFI 1da98 .cfa: sp 8 + .ra: .cfa -4 + ^ r3: .cfa -8 + ^
STACK CFI INIT 1dab4 5c .cfa: sp 0 + .ra: lr
STACK CFI INIT 1db10 28 .cfa: sp 0 + .ra: lr
STACK CFI 1db14 .cfa: sp 24 + .ra: .cfa -4 + ^ r0: .cfa -24 + ^ r1: .cfa -20 + ^ r2: .cfa -16 + ^ r3: .cfa -12 + ^ r4: .cfa -8 + ^
STACK CFI INIT 1db38 5c .cfa: sp 0 + .ra: lr
STACK CFI INIT 1db94 2c .cfa: sp 0 + .ra: lr
STACK CFI 1db98 .cfa: sp 24 + .ra: .cfa -4 + ^ r0: .cfa -24 + ^ r1: .cfa -20 + ^ r2: .cfa -16 + ^ r3: .cfa -12 + ^ r4: .cfa -8 + ^
STACK CFI INIT 1dbc0 c4 .cfa: sp 0 + .ra: lr
STACK CFI 1dbc8 .cfa: sp 24 + .ra: .cfa -4 + ^ r4: .cfa -24 + ^ r5: .cfa -20 + ^ r6: .cfa -16 + ^ r7: .cfa -12 + ^ r8: .cfa -8 + ^
STACK CFI 1dbdc .cfa: sp 592 +
STACK CFI INIT 1dc84 3f0 .cfa: sp 0 + .ra: lr
STACK CFI 1dc88 .cfa: sp 36 + .ra: .cfa -4 + ^ r10: .cfa -12 + ^ r11: .cfa -8 + ^ r4: .cfa -36 + ^ r5: .cfa -32 + ^ r6: .cfa -28 + ^ r7: .cfa -24 + ^ r8: .cfa -20 + ^ r9: .cfa -16 + ^
STACK CFI 1dc94 .cfa: sp 72 +
STACK CFI INIT 1e074 8 .cfa: sp 0 + .ra: lr
STACK CFI INIT 1e07c 8 .cfa: sp 0 + .ra: lr
STACK CFI INIT 1e084 8 .cfa: sp 0 + .ra: lr
STACK CFI INIT 1e08c 34c .cfa: sp 0 + .ra: lr
STACK CFI 1e090 .cfa: sp 28 + .ra: .cfa -4 + ^ r4: .cfa -28 + ^ r5: .cfa -24 + ^ r6: .cfa -20 + ^ r7: .cfa -16 + ^ r8: .cfa -12 + ^ r9: .cfa -8 + ^
STACK CFI 1e098 .cfa: sp 296 +
STACK CFI INIT 1e580 60 .cfa: sp 0 + .ra: lr
STACK CFI INIT 1e5e0 28 .cfa: sp 0 + .ra: lr
STACK CFI 1e5e4 .cfa: sp 24 + .ra: .cfa -4 + ^ r0: .cfa -24 + ^ r1: .cfa -20 + ^ r2: .cfa -16 + ^ r3: .cfa -12 + ^ r4: .cfa -8 + ^
STACK CFI INIT 1e608 4 .cfa: sp 0 + .ra: lr
STACK CFI INIT 1e60c 37c .cfa: sp 0 + .ra: lr
STACK CFI 1e610 .cfa: sp 48 + .ra: .cfa -4 + ^ r0: .cfa -48 + ^ r1: .cfa -44 + ^ r10: .cfa -8 + ^ r2: .cfa -40 + ^ r3: .cfa -36 + ^ r4: .cfa -32 + ^ r5: .cfa -28 + ^ r6: .cfa -24 + ^ r7: .cfa -20 + ^ r8: .cfa -16 + ^ r9: .cfa -12 + ^
STACK CFI INIT 1e988 40 .cfa: sp 0 + .ra: lr
STACK CFI 1e98c .cfa: sp 24 + .ra: .cfa -4 + ^ r0: .cfa -24 + ^ r1: .cfa -20 + ^ r2: .cfa -16 + ^ r3: .cfa -12 + ^ r4: .cfa -8 + ^
STACK CFI INIT 1e9c8 10 .cfa: sp 0 + .ra: lr
STACK CFI 1e9cc .cfa: sp 8 + .ra: .cfa -4 + ^ r3: .cfa -8 + ^
STACK CFI INIT 1e9d8 1c .cfa: sp 0 + .ra: lr
STACK CFI 1e9dc .cfa: sp 8 + .ra: .cfa -4 + ^ r3: .cfa -8 + ^
STACK CFI INIT 1e9f4 8 .cfa: sp 0 + .ra: lr
STACK CFI 1e9f8 .cfa: sp 8 + .ra: .cfa -4 + ^ r3: .cfa -8 + ^
STACK CFI INIT 1e9fc 8 .cfa: sp 0 + .ra: lr
STACK CFI 1ea00 .cfa: sp 8 + .ra: .cfa -4 + ^ r3: .cfa -8 + ^
