MODULE Linux arm 63855E2D59C25C632A868BF92C66A11F0 libshairplay.so
FUNC 11d78 3c 0 __gnu_ldivmod_helper
FUNC 11db4 3c 0 __gnu_uldivmod_helper
FUNC 11df0 18 0 selfrel_offset31
FUNC 11e08 ac 0 search_EIT_table
FUNC 11eb4 50 0 __gnu_unwind_get_pr_addr
FUNC 11f04 10c 0 get_eit_entry
FUNC 12010 6c 0 restore_non_core_regs
FUNC 1207c 14 0 _Unwind_decode_typeinfo_ptr
FUNC 12090 8 0 __gnu_unwind_24bit
FUNC 12098 4 0 _Unwind_DebugHook
FUNC 1209c 64 0 unwind_phase2
FUNC 12100 124 0 unwind_phase2_forced
FUNC 12224 8 0 _Unwind_GetCFA
FUNC 1222c a4 0 __gnu_Unwind_RaiseException
FUNC 122d0 1c 0 __gnu_Unwind_ForcedUnwind
FUNC 122ec 74 0 __gnu_Unwind_Resume
FUNC 12360 20 0 __gnu_Unwind_Resume_or_Rethrow
FUNC 12380 4 0 _Unwind_Complete
FUNC 12384 20 0 _Unwind_DeleteException
FUNC 123a4 5c 0 _Unwind_VRS_Get
FUNC 12400 28 0 _Unwind_GetGR
FUNC 12428 5c 0 _Unwind_VRS_Set
FUNC 12484 2c 0 _Unwind_SetGR
FUNC 124b0 c4 0 __gnu_Unwind_Backtrace
FUNC 12574 3f0 0 __gnu_unwind_pr_common
FUNC 12964 8 0 __aeabi_unwind_cpp_pr0
FUNC 1296c 8 0 __aeabi_unwind_cpp_pr1
FUNC 12974 8 0 __aeabi_unwind_cpp_pr2
FUNC 1297c 34c 0 _Unwind_VRS_Pop
FUNC 12e70 60 0 next_unwind_byte
FUNC 12ed0 28 0 _Unwind_GetGR
FUNC 12ef8 4 0 unwind_UCB_from_context
FUNC 12efc 37c 0 __gnu_unwind_execute
FUNC 13278 40 0 __gnu_unwind_frame
FUNC 132b8 10 0 _Unwind_GetRegionStart
FUNC 132c8 1c 0 _Unwind_GetLanguageSpecificData
FUNC 132e4 8 0 _Unwind_GetDataRelBase
FUNC 132ec 8 0 _Unwind_GetTextRelBase
FUNC 132f4 478 0 __divdi3
FUNC 1376c 3e4 0 __udivdi3
PUBLIC 34ac 0 base64_init
PUBLIC 3540 0 base64_destroy
PUBLIC 3544 0 base64_encoded_length
PUBLIC 35b8 0 base64_encode
PUBLIC 3704 0 base64_decode
PUBLIC 39fc 0 digest_md5_to_hex
PUBLIC 3a30 0 digest_get_response
PUBLIC 3bcc 0 digest_generate_nonce
PUBLIC 3c6c 0 digest_is_valid
PUBLIC 3edc 0 dnssd_init
PUBLIC 4064 0 dnssd_destroy
PUBLIC 4084 0 dnssd_register_raop
PUBLIC 44c4 0 dnssd_register_airplay
PUBLIC 46e0 0 dnssd_unregister_raop
PUBLIC 473c 0 dnssd_unregister_airplay
PUBLIC 49f8 0 http_message_needs_eof
PUBLIC 4a60 0 http_parser_execute
PUBLIC 6dd4 0 http_should_keep_alive
PUBLIC 6e30 0 http_method_str
PUBLIC 6e5c 0 http_parser_init
PUBLIC 6eb4 0 http_errno_name
PUBLIC 6f0c 0 http_errno_description
PUBLIC 6f64 0 http_parser_parse_url
PUBLIC 738c 0 http_parser_pause
PUBLIC 73ec 0 http_body_is_final
PUBLIC 775c 0 http_request_init
PUBLIC 77d8 0 http_request_destroy
PUBLIC 782c 0 http_request_add_data
PUBLIC 7888 0 http_request_is_complete
PUBLIC 78cc 0 http_request_has_error
PUBLIC 7918 0 http_request_get_error_name
PUBLIC 7964 0 http_request_get_error_description
PUBLIC 79b0 0 http_request_get_method
PUBLIC 79f4 0 http_request_get_url
PUBLIC 7a38 0 http_request_get_header
PUBLIC 7abc 0 http_request_get_data
PUBLIC 7c44 0 http_response_init
PUBLIC 7d90 0 http_response_destroy
PUBLIC 7db0 0 http_response_add_header
PUBLIC 7ec8 0 http_response_finish
PUBLIC 8030 0 http_response_set_disconnect
PUBLIC 8080 0 http_response_get_disconnect
PUBLIC 80c4 0 http_response_get_data
PUBLIC 88ec 0 httpd_init
PUBLIC 8a2c 0 httpd_start
PUBLIC 8c64 0 httpd_is_running
PUBLIC 8cd8 0 httpd_stop
PUBLIC 8d6c 0 httpd_destroy
PUBLIC 8d90 0 logger_init
PUBLIC 8e04 0 logger_destroy
PUBLIC 8e24 0 logger_set_level
PUBLIC 8e7c 0 logger_set_callback
PUBLIC 8ee0 0 logger_log
PUBLIC 8fc0 0 netutils_init
PUBLIC 8fc8 0 netutils_cleanup
PUBLIC 8fcc 0 netutils_init_socket
PUBLIC 9158 0 netutils_get_address
PUBLIC 925c 0 netutils_parse_address
PUBLIC a534 0 raop_init
PUBLIC a73c 0 raop_init_from_keyfile
PUBLIC a794 0 raop_is_running
PUBLIC a7dc 0 raop_set_log_level
PUBLIC a82c 0 raop_set_log_callback
PUBLIC a884 0 raop_start
PUBLIC a9b0 0 raop_stop
PUBLIC a9f8 0 raop_destroy
PUBLIC aa30 0 raop_buffer_init
PUBLIC adc8 0 raop_buffer_destroy
PUBLIC adf0 0 raop_buffer_get_config
PUBLIC ae34 0 raop_buffer_dequeue
PUBLIC aee8 0 raop_buffer_handle_resends
PUBLIC afcc 0 raop_buffer_flush
PUBLIC b04c 0 raop_buffer_queue
PUBLIC bd7c 0 raop_rtp_init
PUBLIC c05c 0 raop_rtp_start
PUBLIC c290 0 raop_rtp_set_volume
PUBLIC c328 0 raop_rtp_set_metadata
PUBLIC c3e4 0 raop_rtp_set_coverart
PUBLIC c4a0 0 raop_rtp_remote_control_id
PUBLIC c520 0 raop_rtp_set_progress
PUBLIC c594 0 raop_rtp_flush
PUBLIC c5f0 0 raop_rtp_stop
PUBLIC c6c0 0 raop_rtp_destroy
PUBLIC c82c 0 rsakey_init
PUBLIC c9f4 0 rsakey_init_pem
PUBLIC cb8c 0 rsakey_destroy
PUBLIC cc48 0 rsakey_sign
PUBLIC cde0 0 rsakey_decrypt
PUBLIC d008 0 rsakey_parseiv
PUBLIC d0c8 0 rsapem_destroy
PUBLIC d0e8 0 rsapem_read_vector
PUBLIC d1d4 0 rsapem_init
PUBLIC d310 0 sdp_init
PUBLIC d5b8 0 sdp_destroy
PUBLIC d5d8 0 sdp_get_version
PUBLIC d618 0 sdp_get_origin
PUBLIC d65c 0 sdp_get_session
PUBLIC d6a0 0 sdp_get_connection
PUBLIC d6e4 0 sdp_get_time
PUBLIC d728 0 sdp_get_media
PUBLIC d76c 0 sdp_get_rtpmap
PUBLIC d7b0 0 sdp_get_fmtp
PUBLIC d7f4 0 sdp_get_rsaaeskey
PUBLIC d838 0 sdp_get_aesiv
PUBLIC d87c 0 sdp_get_min_latency
PUBLIC d8c0 0 utils_strsep
PUBLIC d90c 0 utils_read_file
PUBLIC d9e0 0 utils_hwaddr_raop
PUBLIC da64 0 utils_hwaddr_airplay
PUBLIC dcb8 0 bi_clear_cache
PUBLIC dcf8 0 bi_copy
PUBLIC dd14 0 bi_permanent
PUBLIC dd34 0 bi_initialize
PUBLIC dd70 0 bi_depermanent
PUBLIC dd94 0 bi_free
PUBLIC ddec 0 bi_terminate
PUBLIC e030 0 int_to_bi
PUBLIC e04c 0 bi_clone
PUBLIC e07c 0 bi_add
PUBLIC e114 0 bi_subtract
PUBLIC e1a0 0 bi_import
PUBLIC e224 0 bi_export
PUBLIC e2b8 0 bi_free_mod
PUBLIC e304 0 bi_multiply
PUBLIC e31c 0 bi_square
PUBLIC e4b4 0 bi_compare
PUBLIC e530 0 bi_divide
PUBLIC e994 0 bi_set_mod
PUBLIC ea8c 0 bi_barrett
PUBLIC eb80 0 bi_mod_power
PUBLIC ed54 0 bi_crt
PUBLIC ee3c 0 AES_set_key
PUBLIC effc 0 AES_convert_key
PUBLIC f0c0 0 AES_cbc_encrypt
PUBLIC f444 0 AES_cbc_decrypt
PUBLIC f884 0 hmac_md5
PUBLIC f984 0 hmac_sha1
PUBLIC 10510 0 MD5_Init
PUBLIC 10544 0 MD5_Update
PUBLIC 105fc 0 MD5_Final
PUBLIC 10668 0 RC4_setup
PUBLIC 106d4 0 RC4_crypt
PUBLIC 1099c 0 SHA1_Init
PUBLIC 109e0 0 SHA1_Update
PUBLIC 10a48 0 SHA1_Final
PUBLIC 11078 0 alac_free
PUBLIC 110ec 0 alac_allocate_buffers
PUBLIC 11148 0 alac_set_info
PUBLIC 111b8 0 alac_decode_frame
PUBLIC 11be4 0 alac_create
PUBLIC 11c30 0 __aeabi_idiv
PUBLIC 11d0c 0 __aeabi_idivmod
PUBLIC 11d2c 0 __aeabi_uldivmod
PUBLIC 11d68 0 __aeabi_idiv0
PUBLIC 11d78 0 __gnu_ldivmod_helper
PUBLIC 11db4 0 __gnu_uldivmod_helper
PUBLIC 12224 0 _Unwind_GetCFA
PUBLIC 1222c 0 __gnu_Unwind_RaiseException
PUBLIC 122d0 0 __gnu_Unwind_ForcedUnwind
PUBLIC 122ec 0 __gnu_Unwind_Resume
PUBLIC 12360 0 __gnu_Unwind_Resume_or_Rethrow
PUBLIC 12380 0 _Unwind_Complete
PUBLIC 12384 0 _Unwind_DeleteException
PUBLIC 123a4 0 _Unwind_VRS_Get
PUBLIC 12428 0 _Unwind_VRS_Set
PUBLIC 124b0 0 __gnu_Unwind_Backtrace
PUBLIC 12964 0 __aeabi_unwind_cpp_pr0
PUBLIC 1296c 0 __aeabi_unwind_cpp_pr1
PUBLIC 12974 0 __aeabi_unwind_cpp_pr2
PUBLIC 1297c 0 _Unwind_VRS_Pop
PUBLIC 12cc8 0 restore_core_regs
PUBLIC 12cdc 0 __gnu_Unwind_Restore_VFP
PUBLIC 12ce4 0 __gnu_Unwind_Save_VFP
PUBLIC 12cec 0 __gnu_Unwind_Restore_VFP_D
PUBLIC 12cf4 0 __gnu_Unwind_Save_VFP_D
PUBLIC 12cfc 0 __gnu_Unwind_Restore_VFP_D_16_to_31
PUBLIC 12d04 0 __gnu_Unwind_Save_VFP_D_16_to_31
PUBLIC 12d0c 0 __gnu_Unwind_Restore_WMMXD
PUBLIC 12d50 0 __gnu_Unwind_Save_WMMXD
PUBLIC 12d94 0 __gnu_Unwind_Restore_WMMXC
PUBLIC 12da8 0 __gnu_Unwind_Save_WMMXC
PUBLIC 12dbc 0 ___Unwind_RaiseException
PUBLIC 12de0 0 ___Unwind_Resume
PUBLIC 12e04 0 ___Unwind_Resume_or_Rethrow
PUBLIC 12e28 0 ___Unwind_ForcedUnwind
PUBLIC 12e4c 0 ___Unwind_Backtrace
PUBLIC 12efc 0 __gnu_unwind_execute
PUBLIC 13278 0 __gnu_unwind_frame
PUBLIC 132b8 0 _Unwind_GetRegionStart
PUBLIC 132c8 0 _Unwind_GetLanguageSpecificData
PUBLIC 132e4 0 _Unwind_GetDataRelBase
PUBLIC 132ec 0 _Unwind_GetTextRelBase
PUBLIC 132f4 0 __divdi3
PUBLIC 1376c 0 __udivdi3
PUBLIC 13b50 0 __aeabi_uidiv
PUBLIC 13bf8 0 __aeabi_uidivmod
STACK CFI INIT 11c30 dc .cfa: sp 0 + .ra: lr
STACK CFI INIT 11d78 3c .cfa: sp 0 + .ra: lr
STACK CFI 11d7c .cfa: sp 24 + .ra: .cfa -4 + ^ r3: .cfa -24 + ^ r4: .cfa -20 + ^ r5: .cfa -16 + ^ r6: .cfa -12 + ^ r7: .cfa -8 + ^
STACK CFI INIT 11db4 3c .cfa: sp 0 + .ra: lr
STACK CFI 11db8 .cfa: sp 24 + .ra: .cfa -4 + ^ r3: .cfa -24 + ^ r4: .cfa -20 + ^ r5: .cfa -16 + ^ r6: .cfa -12 + ^ r7: .cfa -8 + ^
STACK CFI INIT 11df0 18 .cfa: sp 0 + .ra: lr
STACK CFI INIT 11e08 ac .cfa: sp 0 + .ra: lr
STACK CFI 11e0c .cfa: sp 48 + .ra: .cfa -4 + ^ r0: .cfa -48 + ^ r1: .cfa -44 + ^ r10: .cfa -12 + ^ r11: .cfa -8 + ^ r2: .cfa -40 + ^ r4: .cfa -36 + ^ r5: .cfa -32 + ^ r6: .cfa -28 + ^ r7: .cfa -24 + ^ r8: .cfa -20 + ^ r9: .cfa -16 + ^
STACK CFI INIT 11eb4 50 .cfa: sp 0 + .ra: lr
STACK CFI INIT 11f04 10c .cfa: sp 0 + .ra: lr
STACK CFI 11f0c .cfa: sp 24 + .ra: .cfa -4 + ^ r0: .cfa -24 + ^ r1: .cfa -20 + ^ r2: .cfa -16 + ^ r4: .cfa -12 + ^ r5: .cfa -8 + ^
STACK CFI INIT 12010 6c .cfa: sp 0 + .ra: lr
STACK CFI 12018 .cfa: sp 8 + .ra: .cfa -4 + ^ r4: .cfa -8 + ^
STACK CFI INIT 1207c 14 .cfa: sp 0 + .ra: lr
STACK CFI INIT 12090 8 .cfa: sp 0 + .ra: lr
STACK CFI INIT 12098 4 .cfa: sp 0 + .ra: lr
STACK CFI INIT 1209c 64 .cfa: sp 0 + .ra: lr
STACK CFI 120a0 .cfa: sp 16 + .ra: .cfa -4 + ^ r4: .cfa -16 + ^ r5: .cfa -12 + ^ r6: .cfa -8 + ^
STACK CFI INIT 12100 124 .cfa: sp 0 + .ra: lr
STACK CFI 12104 .cfa: sp 36 + .ra: .cfa -4 + ^ r10: .cfa -12 + ^ r11: .cfa -8 + ^ r4: .cfa -36 + ^ r5: .cfa -32 + ^ r6: .cfa -28 + ^ r7: .cfa -24 + ^ r8: .cfa -20 + ^ r9: .cfa -16 + ^
STACK CFI 12120 .cfa: sp 1008 +
STACK CFI INIT 12224 8 .cfa: sp 0 + .ra: lr
STACK CFI INIT 1222c a4 .cfa: sp 0 + .ra: lr
STACK CFI 12234 .cfa: sp 20 + .ra: .cfa -4 + ^ r4: .cfa -20 + ^ r5: .cfa -16 + ^ r6: .cfa -12 + ^ r7: .cfa -8 + ^
STACK CFI 12248 .cfa: sp 504 +
STACK CFI INIT 122d0 1c .cfa: sp 0 + .ra: lr
STACK CFI INIT 122ec 74 .cfa: sp 0 + .ra: lr
STACK CFI 122f0 .cfa: sp 16 + .ra: .cfa -4 + ^ r4: .cfa -16 + ^ r5: .cfa -12 + ^ r6: .cfa -8 + ^
STACK CFI INIT 12360 20 .cfa: sp 0 + .ra: lr
STACK CFI INIT 12380 4 .cfa: sp 0 + .ra: lr
STACK CFI INIT 12384 20 .cfa: sp 0 + .ra: lr
STACK CFI 12388 .cfa: sp 8 + .ra: .cfa -4 + ^ r3: .cfa -8 + ^
STACK CFI INIT 123a4 5c .cfa: sp 0 + .ra: lr
STACK CFI INIT 12400 28 .cfa: sp 0 + .ra: lr
STACK CFI 12404 .cfa: sp 24 + .ra: .cfa -4 + ^ r0: .cfa -24 + ^ r1: .cfa -20 + ^ r2: .cfa -16 + ^ r3: .cfa -12 + ^ r4: .cfa -8 + ^
STACK CFI INIT 12428 5c .cfa: sp 0 + .ra: lr
STACK CFI INIT 12484 2c .cfa: sp 0 + .ra: lr
STACK CFI 12488 .cfa: sp 24 + .ra: .cfa -4 + ^ r0: .cfa -24 + ^ r1: .cfa -20 + ^ r2: .cfa -16 + ^ r3: .cfa -12 + ^ r4: .cfa -8 + ^
STACK CFI INIT 124b0 c4 .cfa: sp 0 + .ra: lr
STACK CFI 124b8 .cfa: sp 24 + .ra: .cfa -4 + ^ r4: .cfa -24 + ^ r5: .cfa -20 + ^ r6: .cfa -16 + ^ r7: .cfa -12 + ^ r8: .cfa -8 + ^
STACK CFI 124cc .cfa: sp 592 +
STACK CFI INIT 12574 3f0 .cfa: sp 0 + .ra: lr
STACK CFI 12578 .cfa: sp 36 + .ra: .cfa -4 + ^ r10: .cfa -12 + ^ r11: .cfa -8 + ^ r4: .cfa -36 + ^ r5: .cfa -32 + ^ r6: .cfa -28 + ^ r7: .cfa -24 + ^ r8: .cfa -20 + ^ r9: .cfa -16 + ^
STACK CFI 12584 .cfa: sp 72 +
STACK CFI INIT 12964 8 .cfa: sp 0 + .ra: lr
STACK CFI INIT 1296c 8 .cfa: sp 0 + .ra: lr
STACK CFI INIT 12974 8 .cfa: sp 0 + .ra: lr
STACK CFI INIT 1297c 34c .cfa: sp 0 + .ra: lr
STACK CFI 12980 .cfa: sp 28 + .ra: .cfa -4 + ^ r4: .cfa -28 + ^ r5: .cfa -24 + ^ r6: .cfa -20 + ^ r7: .cfa -16 + ^ r8: .cfa -12 + ^ r9: .cfa -8 + ^
STACK CFI 12988 .cfa: sp 296 +
STACK CFI INIT 12e70 60 .cfa: sp 0 + .ra: lr
STACK CFI INIT 12ed0 28 .cfa: sp 0 + .ra: lr
STACK CFI 12ed4 .cfa: sp 24 + .ra: .cfa -4 + ^ r0: .cfa -24 + ^ r1: .cfa -20 + ^ r2: .cfa -16 + ^ r3: .cfa -12 + ^ r4: .cfa -8 + ^
STACK CFI INIT 12ef8 4 .cfa: sp 0 + .ra: lr
STACK CFI INIT 12efc 37c .cfa: sp 0 + .ra: lr
STACK CFI 12f00 .cfa: sp 48 + .ra: .cfa -4 + ^ r0: .cfa -48 + ^ r1: .cfa -44 + ^ r10: .cfa -8 + ^ r2: .cfa -40 + ^ r3: .cfa -36 + ^ r4: .cfa -32 + ^ r5: .cfa -28 + ^ r6: .cfa -24 + ^ r7: .cfa -20 + ^ r8: .cfa -16 + ^ r9: .cfa -12 + ^
STACK CFI INIT 13278 40 .cfa: sp 0 + .ra: lr
STACK CFI 1327c .cfa: sp 24 + .ra: .cfa -4 + ^ r0: .cfa -24 + ^ r1: .cfa -20 + ^ r2: .cfa -16 + ^ r3: .cfa -12 + ^ r4: .cfa -8 + ^
STACK CFI INIT 132b8 10 .cfa: sp 0 + .ra: lr
STACK CFI 132bc .cfa: sp 8 + .ra: .cfa -4 + ^ r3: .cfa -8 + ^
STACK CFI INIT 132c8 1c .cfa: sp 0 + .ra: lr
STACK CFI 132cc .cfa: sp 8 + .ra: .cfa -4 + ^ r3: .cfa -8 + ^
STACK CFI INIT 132e4 8 .cfa: sp 0 + .ra: lr
STACK CFI 132e8 .cfa: sp 8 + .ra: .cfa -4 + ^ r3: .cfa -8 + ^
STACK CFI INIT 132ec 8 .cfa: sp 0 + .ra: lr
STACK CFI 132f0 .cfa: sp 8 + .ra: .cfa -4 + ^ r3: .cfa -8 + ^
STACK CFI INIT 132f4 478 .cfa: sp 0 + .ra: lr
STACK CFI 13300 .cfa: sp 36 + .ra: .cfa -4 + ^ r10: .cfa -12 + ^ r11: .cfa -8 + ^ r4: .cfa -36 + ^ r5: .cfa -32 + ^ r6: .cfa -28 + ^ r7: .cfa -24 + ^ r8: .cfa -20 + ^ r9: .cfa -16 + ^
STACK CFI 13308 .cfa: sp 56 +
STACK CFI INIT 1376c 3e4 .cfa: sp 0 + .ra: lr
STACK CFI 13774 .cfa: sp 48 + .ra: .cfa -4 + ^ r0: .cfa -48 + ^ r1: .cfa -44 + ^ r10: .cfa -12 + ^ r11: .cfa -8 + ^ r2: .cfa -40 + ^ r4: .cfa -36 + ^ r5: .cfa -32 + ^ r6: .cfa -28 + ^ r7: .cfa -24 + ^ r8: .cfa -20 + ^ r9: .cfa -16 + ^
STACK CFI INIT 13b50 a8 .cfa: sp 0 + .ra: lr
