MODULE Linux arm FC1167268969F701956FB61FE8F7B6ED0 libKODI_guilib-arm.so
FUNC 7100 3c 0 std::basic_string<char, std::char_traits<char>, std::allocator<char> >::_Rep::_M_dispose
FUNC 714c 5c 0 _GLOBAL__sub_I_eh_globals.cc
FUNC 71a8 18 0 _GLOBAL__sub_I_eh_alloc.cc
FUNC 71c0 84 0 _GLOBAL__sub_I_system_error.cc
FUNC 7278 14 0 GUI_Window_OnClick
FUNC 728c 14 0 GUI_Window_OnFocus
FUNC 72a0 14 0 GUI_Window_OnInit
FUNC 72b4 14 0 GUI_Window_OnAction
FUNC 72c8 5c 0 CAddonGUIWindow::~CAddonGUIWindow
FUNC 7324 1c 0 CAddonGUIWindow::Show
FUNC 7340 1c 0 CAddonGUIWindow::Close
FUNC 735c 1c 0 CAddonGUIWindow::DoModal
FUNC 7378 24 0 CAddonGUIWindow::OnInit
FUNC 739c 24 0 CAddonGUIWindow::OnClick
FUNC 73c0 24 0 CAddonGUIWindow::OnFocus
FUNC 73e4 24 0 CAddonGUIWindow::OnAction
FUNC 7408 24 0 CAddonGUIWindow::SetFocusId
FUNC 742c 1c 0 CAddonGUIWindow::GetFocusId
FUNC 7448 24 0 CAddonGUIWindow::SetCoordinateResolution
FUNC 746c 28 0 CAddonGUIWindow::SetProperty
FUNC 7494 28 0 CAddonGUIWindow::SetPropertyInt
FUNC 74bc 28 0 CAddonGUIWindow::SetPropertyBool
FUNC 74e4 30 0 CAddonGUIWindow::SetPropertyDouble
FUNC 7514 24 0 CAddonGUIWindow::GetProperty
FUNC 7538 24 0 CAddonGUIWindow::GetPropertyInt
FUNC 755c 24 0 CAddonGUIWindow::GetPropertyBool
FUNC 7580 24 0 CAddonGUIWindow::GetPropertyDouble
FUNC 75a4 1c 0 CAddonGUIWindow::ClearProperties
FUNC 75c0 1c 0 CAddonGUIWindow::GetListSize
FUNC 75dc 1c 0 CAddonGUIWindow::ClearList
FUNC 75f8 28 0 CAddonGUIWindow::AddStringItem
FUNC 7620 28 0 CAddonGUIWindow::AddItem
FUNC 7648 2c 0 CAddonGUIWindow::AddItem
FUNC 7674 24 0 CAddonGUIWindow::RemoveItem
FUNC 7698 24 0 CAddonGUIWindow::GetListItem
FUNC 76bc 24 0 CAddonGUIWindow::SetCurrentListPosition
FUNC 76e0 1c 0 CAddonGUIWindow::GetCurrentListPosition
FUNC 76fc 28 0 CAddonGUIWindow::SetControlLabel
FUNC 7724 1c 0 CAddonGUIWindow::MarkDirtyRegion
FUNC 7740 2c 0 CAddonGUISpinControl::SetVisible
FUNC 776c 2c 0 CAddonGUISpinControl::SetText
FUNC 7798 28 0 CAddonGUISpinControl::Clear
FUNC 77c0 34 0 CAddonGUISpinControl::AddLabel
FUNC 77f4 30 0 CAddonGUISpinControl::GetValue
FUNC 7824 2c 0 CAddonGUISpinControl::SetValue
FUNC 7850 2c 0 CAddonGUIRadioButton::SetVisible
FUNC 787c 2c 0 CAddonGUIRadioButton::SetText
FUNC 78a8 2c 0 CAddonGUIRadioButton::SetSelected
FUNC 78d4 30 0 CAddonGUIRadioButton::IsSelected
FUNC 7904 2c 0 CAddonGUIProgressControl::SetPercentage
FUNC 7930 30 0 CAddonGUIProgressControl::GetPercentage
FUNC 7960 2c 0 CAddonGUIProgressControl::SetInfo
FUNC 798c 30 0 CAddonGUIProgressControl::GetInfo
FUNC 79bc 2c 0 CAddonGUISliderControl::SetVisible
FUNC 79e8 34 0 CAddonGUISliderControl::SetIntRange
FUNC 7a1c 2c 0 CAddonGUISliderControl::SetIntValue
FUNC 7a48 30 0 CAddonGUISliderControl::GetIntValue
FUNC 7a78 2c 0 CAddonGUISliderControl::SetIntInterval
FUNC 7aa4 2c 0 CAddonGUISliderControl::SetPercentage
FUNC 7ad0 30 0 CAddonGUISliderControl::GetPercentage
FUNC 7b00 34 0 CAddonGUISliderControl::SetFloatRange
FUNC 7b34 2c 0 CAddonGUISliderControl::SetFloatValue
FUNC 7b60 30 0 CAddonGUISliderControl::GetFloatValue
FUNC 7b90 2c 0 CAddonGUISliderControl::SetFloatInterval
FUNC 7bbc 2c 0 CAddonGUISettingsSliderControl::SetVisible
FUNC 7be8 2c 0 CAddonGUISettingsSliderControl::SetText
FUNC 7c14 34 0 CAddonGUISettingsSliderControl::SetIntRange
FUNC 7c48 2c 0 CAddonGUISettingsSliderControl::SetIntValue
FUNC 7c74 30 0 CAddonGUISettingsSliderControl::GetIntValue
FUNC 7ca4 2c 0 CAddonGUISettingsSliderControl::SetIntInterval
FUNC 7cd0 2c 0 CAddonGUISettingsSliderControl::SetPercentage
FUNC 7cfc 30 0 CAddonGUISettingsSliderControl::GetPercentage
FUNC 7d2c 34 0 CAddonGUISettingsSliderControl::SetFloatRange
FUNC 7d60 2c 0 CAddonGUISettingsSliderControl::SetFloatValue
FUNC 7d8c 30 0 CAddonGUISettingsSliderControl::GetFloatValue
FUNC 7dbc 2c 0 CAddonGUISettingsSliderControl::SetFloatInterval
FUNC 7de8 38 0 CAddonListItem::GetLabel
FUNC 7e20 2c 0 CAddonListItem::SetLabel
FUNC 7e4c 38 0 CAddonListItem::GetLabel2
FUNC 7e84 2c 0 CAddonListItem::SetLabel2
FUNC 7eb0 2c 0 CAddonListItem::SetIconImage
FUNC 7edc 2c 0 CAddonListItem::SetThumbnailImage
FUNC 7f08 2c 0 CAddonListItem::SetInfo
FUNC 7f34 34 0 CAddonListItem::SetProperty
FUNC 7f68 3c 0 CAddonListItem::GetProperty
FUNC 7fa4 2c 0 CAddonListItem::SetPath
FUNC 7fd0 28 0 GUI_control_rendering_create
FUNC 7ff8 14 0 GUI_control_rendering_render
FUNC 800c 14 0 GUI_control_rendering_stop
FUNC 8020 14 0 GUI_control_rendering_dirty
FUNC 8034 3c 0 CAddonGUIRenderingControl::~CAddonGUIRenderingControl
FUNC 8070 78 0 CAddonGUIRenderingControl::Init
FUNC 80e8 38 0 CAddonGUIRenderingControl::Create
FUNC 8120 1c 0 CAddonGUIRenderingControl::Render
FUNC 813c 1c 0 CAddonGUIRenderingControl::Stop
FUNC 8158 24 0 CAddonGUIRenderingControl::Dirty
FUNC 817c 1c 0 CAddonGUIWindow::~CAddonGUIWindow
FUNC 8198 1c 0 CAddonGUIRenderingControl::~CAddonGUIRenderingControl
FUNC 81b4 6c 0 CAddonGUIProgressControl::GetDescription
FUNC 8220 6c 0 CAddonGUISliderControl::GetDescription
FUNC 828c 6c 0 CAddonGUISettingsSliderControl::GetDescription
FUNC 82f8 84 0 GUI_register_me
FUNC 837c 20 0 GUI_unregister_me
FUNC 839c 10 0 GUI_lock
FUNC 83ac 10 0 GUI_unlock
FUNC 83bc 10 0 GUI_get_screen_height
FUNC 83cc 10 0 GUI_get_screen_width
FUNC 83dc 10 0 GUI_get_video_resolution
FUNC 83ec 3c 0 GUI_dialog_keyboard_show_and_get_input_with_head
FUNC 8428 20 0 GUI_dialog_keyboard_show_and_get_input
FUNC 8448 34 0 GUI_dialog_keyboard_show_and_get_new_password_with_head
FUNC 847c 1c 0 GUI_dialog_keyboard_show_and_get_new_password
FUNC 8498 34 0 GUI_dialog_keyboard_show_and_verify_new_password_with_head
FUNC 84cc 1c 0 GUI_dialog_keyboard_show_and_verify_new_password
FUNC 84e8 30 0 GUI_dialog_keyboard_show_and_verify_password
FUNC 8518 20 0 GUI_dialog_keyboard_show_and_get_filter
FUNC 8538 18 0 GUI_dialog_keyboard_send_text_to_active_keyboard
FUNC 8550 10 0 GUI_dialog_keyboard_is_activated
FUNC 8560 18 0 GUI_dialog_numeric_show_and_verify_new_password
FUNC 8578 20 0 GUI_dialog_numeric_show_and_verify_password
FUNC 8598 20 0 GUI_dialog_numeric_show_and_verify_input
FUNC 85b8 18 0 GUI_dialog_numeric_show_and_get_time
FUNC 85d0 18 0 GUI_dialog_numeric_show_and_get_date
FUNC 85e8 1c 0 GUI_dialog_numeric_show_and_get_ipaddress
FUNC 8604 20 0 GUI_dialog_numeric_show_and_get_number
FUNC 8624 1c 0 GUI_dialog_numeric_show_and_get_seconds
FUNC 8640 44 0 GUI_dialog_filebrowser_show_and_get_file
FUNC 8684 18 0 GUI_dialog_ok_show_and_get_input_single_text
FUNC 869c 20 0 GUI_dialog_ok_show_and_get_input_line_text
FUNC 86bc 38 0 GUI_dialog_yesno_show_and_get_input_linetext
FUNC 86f4 30 0 GUI_dialog_yesno_show_and_get_input_singletext
FUNC 8724 3c 0 GUI_dialog_yesno_show_and_get_input_linebuttontext
FUNC 8760 18 0 GUI_dialog_text_viewer
FUNC 8778 20 0 GUI_dialog_select
FUNC 8798 1c 0 GUI_Window_destroy
FUNC 87b4 120 0 CAddonGUIWindow::CAddonGUIWindow
FUNC 88d4 60 0 GUI_Window_create
FUNC 8934 1c 0 GUI_control_release_spin
FUNC 8950 54 0 CAddonGUISpinControl::CAddonGUISpinControl
FUNC 89a4 50 0 GUI_control_get_spin
FUNC 89f4 1c 0 GUI_control_release_radiobutton
FUNC 8a10 54 0 CAddonGUIRadioButton::CAddonGUIRadioButton
FUNC 8a64 50 0 GUI_control_get_radiobutton
FUNC 8ab4 1c 0 GUI_control_release_progress
FUNC 8ad0 54 0 CAddonGUIProgressControl::CAddonGUIProgressControl
FUNC 8b24 50 0 GUI_control_get_progress
FUNC 8b74 1c 0 GUI_control_release_slider
FUNC 8b90 54 0 CAddonGUISliderControl::CAddonGUISliderControl
FUNC 8be4 50 0 GUI_control_get_slider
FUNC 8c34 1c 0 GUI_control_release_settings_slider
FUNC 8c50 54 0 CAddonGUISettingsSliderControl::CAddonGUISettingsSliderControl
FUNC 8ca4 50 0 GUI_control_get_settings_slider
FUNC 8cf4 1c 0 GUI_ListItem_destroy
FUNC 8d10 64 0 CAddonListItem::CAddonListItem
FUNC 8d74 68 0 GUI_ListItem_create
FUNC 8ddc 1c 0 GUI_control_release_rendering
FUNC 8df8 54 0 CAddonGUIRenderingControl::CAddonGUIRenderingControl
FUNC 8e4c 50 0 GUI_control_get_rendering
FUNC 8e9c 18 0 CAddonGUISpinControl::~CAddonGUISpinControl
FUNC 8eb4 18 0 CAddonGUIRadioButton::~CAddonGUIRadioButton
FUNC 8ecc 18 0 CAddonGUIProgressControl::~CAddonGUIProgressControl
FUNC 8ee4 18 0 CAddonGUISliderControl::~CAddonGUISliderControl
FUNC 8efc 18 0 CAddonGUISettingsSliderControl::~CAddonGUISettingsSliderControl
FUNC 8f14 18 0 CAddonListItem::~CAddonListItem
FUNC 8f2c 28 0 CAddonGUISpinControl::~CAddonGUISpinControl
FUNC 8f54 28 0 CAddonGUIRadioButton::~CAddonGUIRadioButton
FUNC 8f7c 28 0 CAddonGUIProgressControl::~CAddonGUIProgressControl
FUNC 8fa4 28 0 CAddonGUISliderControl::~CAddonGUISliderControl
FUNC 8fcc 28 0 CAddonGUISettingsSliderControl::~CAddonGUISettingsSliderControl
FUNC 8ff4 28 0 CAddonListItem::~CAddonListItem
FUNC 901c 44 0 read_sleb128
FUNC 9060 11c 0 read_encoded_value_with_base
FUNC 917c 74 0 base_of_encoded_value
FUNC 91f0 e0 0 parse_lsda_header
FUNC 92d0 668 0 __cxxabiv1::__gxx_personality_v0
FUNC 9938 8 0 __cxxabiv1::__cxa_get_exception_ptr
FUNC 9940 e0 0 __cxxabiv1::__cxa_begin_catch
FUNC 9a20 d8 0 __cxxabiv1::__cxa_end_catch
FUNC 9af8 18 0 std::uncaught_exception
FUNC 9b10 a4 0 operator new
FUNC 9bb4 70 0 __cxxabiv1::__is_gxx_exception_class
FUNC 9c24 2c 0 __cxa_call_terminate
FUNC 9c50 168 0 __cxa_call_unexpected
FUNC 9db8 34 0 __eh_globals_init::~__eh_globals_init
FUNC 9dec 3c 0 eh_globals_dtor
FUNC 9e28 48 0 __cxxabiv1::__cxa_get_globals_fast
FUNC 9e70 90 0 __cxxabiv1::__cxa_get_globals
FUNC 9f00 5c 0 __cxxabiv1::__class_type_info::__do_upcast
FUNC 9f5c 14 0 __cxxabiv1::__class_type_info::__do_find_public_src
FUNC 9f70 28 0 __cxxabiv1::__class_type_info::~__class_type_info
FUNC 9f98 1c 0 __cxxabiv1::__class_type_info::~__class_type_info
FUNC 9fb4 2c 0 __cxxabiv1::__class_type_info::__do_upcast
FUNC 9fe0 44 0 __cxxabiv1::__class_type_info::__do_catch
FUNC a024 78 0 __cxxabiv1::__class_type_info::__do_dyncast
FUNC a09c 60 0 __gxx_exception_cleanup
FUNC a0fc b8 0 __cxxabiv1::__cxa_throw
FUNC a1b4 b0 0 __cxxabiv1::__cxa_rethrow
FUNC a264 18 0 std::exception::~exception
FUNC a27c 28 0 std::bad_exception::~bad_exception
FUNC a2a4 18 0 __cxxabiv1::__forced_unwind::~__forced_unwind
FUNC a2bc 18 0 __cxxabiv1::__foreign_exception::~__foreign_exception
FUNC a2d4 10 0 std::exception::what
FUNC a2e4 10 0 std::bad_exception::what
FUNC a2f4 1c 0 std::exception::~exception
FUNC a310 1c 0 std::bad_exception::~bad_exception
FUNC a32c 1c 0 __cxxabiv1::__forced_unwind::~__forced_unwind
FUNC a348 1c 0 __cxxabiv1::__foreign_exception::~__foreign_exception
FUNC a364 c 0 operator delete
FUNC a380 144 0 __cxa_type_match
FUNC a4c4 b4 0 __cxa_begin_cleanup
FUNC a578 b4 0 __gnu_end_cleanup
FUNC a62c 34 0 __cxxabiv1::__terminate
FUNC a660 18 0 std::terminate
FUNC a678 c 0 __cxxabiv1::__unexpected
FUNC a684 18 0 std::unexpected
FUNC a69c 1c 0 std::set_terminate
FUNC a6b8 1c 0 std::set_unexpected
FUNC a6d4 10 0 __gnu_cxx::__concurrence_lock_error::what
FUNC a6e4 10 0 __gnu_cxx::__concurrence_unlock_error::what
FUNC a6f4 28 0 __gnu_cxx::__concurrence_unlock_error::~__concurrence_unlock_error
FUNC a71c 28 0 __gnu_cxx::__concurrence_lock_error::~__concurrence_lock_error
FUNC a744 30 0 __gnu_cxx::__concurrence_unlock_error::~__concurrence_unlock_error
FUNC a774 30 0 __gnu_cxx::__concurrence_lock_error::~__concurrence_lock_error
FUNC a7a4 3c 0 __gnu_cxx::__throw_concurrence_lock_error
FUNC a7e0 3c 0 __gnu_cxx::__throw_concurrence_unlock_error
FUNC a81c e0 0 __cxxabiv1::__cxa_allocate_exception
FUNC a8fc a0 0 __cxxabiv1::__cxa_free_exception
FUNC a99c dc 0 __cxxabiv1::__cxa_allocate_dependent_exception
FUNC aa78 a8 0 __cxxabiv1::__cxa_free_dependent_exception
FUNC ab20 10 0 __aeabiv1::__aeabi_atexit
FUNC ab30 1c 0 std::set_new_handler
FUNC ab4c 20 0 __cxxabiv1::__cxa_pure_virtual
FUNC ab6c 20 0 __cxxabiv1::__cxa_deleted_virtual
FUNC ab8c 10 0 std::bad_alloc::what
FUNC ab9c 28 0 std::bad_alloc::~bad_alloc
FUNC abc4 1c 0 std::bad_alloc::~bad_alloc
FUNC abe0 8 0 std::basic_string<char, std::char_traits<char>, std::allocator<char> >::data
FUNC abe8 c 0 std::basic_string<char, std::char_traits<char>, std::allocator<char> >::length
FUNC abf4 8 0 std::basic_string<char, std::char_traits<char>, std::allocator<char> >::_M_data
FUNC abfc c 0 std::basic_string<char, std::char_traits<char>, std::allocator<char> >::_M_data
FUNC ac08 c 0 std::basic_string<char, std::char_traits<char>, std::allocator<char> >::_M_rep
FUNC ac14 8 0 std::basic_string<char, std::char_traits<char>, std::allocator<char> >::_M_ibegin
FUNC ac1c 10 0 std::basic_string<char, std::char_traits<char>, std::allocator<char> >::_M_iend
FUNC ac2c 24 0 std::basic_string<char, std::char_traits<char>, std::allocator<char> >::_M_check
FUNC ac50 2c 0 std::basic_string<char, std::char_traits<char>, std::allocator<char> >::_M_check_length
FUNC ac7c 18 0 std::basic_string<char, std::char_traits<char>, std::allocator<char> >::_M_limit
FUNC ac94 2c 0 std::basic_string<char, std::char_traits<char>, std::allocator<char> >::_M_disjunct
FUNC acc0 18 0 std::basic_string<char, std::char_traits<char>, std::allocator<char> >::_M_copy
FUNC acd8 18 0 std::basic_string<char, std::char_traits<char>, std::allocator<char> >::_M_move
FUNC acf0 1c 0 std::basic_string<char, std::char_traits<char>, std::allocator<char> >::_M_assign
FUNC ad0c 1c 0 std::basic_string<char, std::char_traits<char>, std::allocator<char> >::_S_copy_chars
FUNC ad28 1c 0 std::basic_string<char, std::char_traits<char>, std::allocator<char> >::_S_copy_chars
FUNC ad44 1c 0 std::basic_string<char, std::char_traits<char>, std::allocator<char> >::_S_copy_chars
FUNC ad60 1c 0 std::basic_string<char, std::char_traits<char>, std::allocator<char> >::_S_copy_chars
FUNC ad7c 8 0 std::basic_string<char, std::char_traits<char>, std::allocator<char> >::_S_compare
FUNC ad84 10 0 std::basic_string<char, std::char_traits<char>, std::allocator<char> >::_S_empty_rep
FUNC ad94 18 0 std::basic_string<char, std::char_traits<char>, std::allocator<char> >::basic_string
FUNC adac 20 0 std::basic_string<char, std::char_traits<char>, std::allocator<char> >::basic_string
FUNC adcc 8 0 std::basic_string<char, std::char_traits<char>, std::allocator<char> >::begin
FUNC add4 10 0 std::basic_string<char, std::char_traits<char>, std::allocator<char> >::end
FUNC ade4 14 0 std::basic_string<char, std::char_traits<char>, std::allocator<char> >::rbegin
FUNC adf8 c 0 std::basic_string<char, std::char_traits<char>, std::allocator<char> >::rend
FUNC ae04 8 0 std::basic_string<char, std::char_traits<char>, std::allocator<char> >::cbegin
FUNC ae0c 10 0 std::basic_string<char, std::char_traits<char>, std::allocator<char> >::cend
FUNC ae1c 14 0 std::basic_string<char, std::char_traits<char>, std::allocator<char> >::crbegin
FUNC ae30 c 0 std::basic_string<char, std::char_traits<char>, std::allocator<char> >::crend
FUNC ae3c c 0 std::basic_string<char, std::char_traits<char>, std::allocator<char> >::size
FUNC ae48 8 0 std::basic_string<char, std::char_traits<char>, std::allocator<char> >::max_size
FUNC ae50 c 0 std::basic_string<char, std::char_traits<char>, std::allocator<char> >::capacity
FUNC ae5c 14 0 std::basic_string<char, std::char_traits<char>, std::allocator<char> >::empty
FUNC ae70 c 0 std::basic_string<char, std::char_traits<char>, std::allocator<char> >::operator[]
FUNC ae7c 2c 0 std::basic_string<char, std::char_traits<char>, std::allocator<char> >::at
FUNC aea8 8 0 std::basic_string<char, std::char_traits<char>, std::allocator<char> >::front
FUNC aeb0 14 0 std::basic_string<char, std::char_traits<char>, std::allocator<char> >::back
FUNC aec4 6c 0 std::basic_string<char, std::char_traits<char>, std::allocator<char> >::copy
FUNC af30 34 0 std::basic_string<char, std::char_traits<char>, std::allocator<char> >::swap
FUNC af64 14 0 std::basic_string<char, std::char_traits<char>, std::allocator<char> >::operator=
FUNC af78 14 0 std::basic_string<char, std::char_traits<char>, std::allocator<char> >::assign
FUNC af8c 8 0 std::basic_string<char, std::char_traits<char>, std::allocator<char> >::c_str
FUNC af94 4 0 std::basic_string<char, std::char_traits<char>, std::allocator<char> >::get_allocator
FUNC af98 9c 0 std::basic_string<char, std::char_traits<char>, std::allocator<char> >::find
FUNC b034 c 0 std::basic_string<char, std::char_traits<char>, std::allocator<char> >::find
FUNC b040 30 0 std::basic_string<char, std::char_traits<char>, std::allocator<char> >::find
FUNC b070 3c 0 std::basic_string<char, std::char_traits<char>, std::allocator<char> >::find
FUNC b0ac 64 0 std::basic_string<char, std::char_traits<char>, std::allocator<char> >::rfind
FUNC b110 c 0 std::basic_string<char, std::char_traits<char>, std::allocator<char> >::rfind
FUNC b11c 30 0 std::basic_string<char, std::char_traits<char>, std::allocator<char> >::rfind
FUNC b14c 44 0 std::basic_string<char, std::char_traits<char>, std::allocator<char> >::rfind
FUNC b190 58 0 std::basic_string<char, std::char_traits<char>, std::allocator<char> >::find_first_of
FUNC b1e8 c 0 std::basic_string<char, std::char_traits<char>, std::allocator<char> >::find_first_of
FUNC b1f4 30 0 std::basic_string<char, std::char_traits<char>, std::allocator<char> >::find_first_of
FUNC b224 4 0 std::basic_string<char, std::char_traits<char>, std::allocator<char> >::find_first_of
FUNC b228 68 0 std::basic_string<char, std::char_traits<char>, std::allocator<char> >::find_last_of
FUNC b290 c 0 std::basic_string<char, std::char_traits<char>, std::allocator<char> >::find_last_of
FUNC b29c 30 0 std::basic_string<char, std::char_traits<char>, std::allocator<char> >::find_last_of
FUNC b2cc 4 0 std::basic_string<char, std::char_traits<char>, std::allocator<char> >::find_last_of
FUNC b2d0 58 0 std::basic_string<char, std::char_traits<char>, std::allocator<char> >::find_first_not_of
FUNC b328 c 0 std::basic_string<char, std::char_traits<char>, std::allocator<char> >::find_first_not_of
FUNC b334 30 0 std::basic_string<char, std::char_traits<char>, std::allocator<char> >::find_first_not_of
FUNC b364 4c 0 std::basic_string<char, std::char_traits<char>, std::allocator<char> >::find_first_not_of
FUNC b3b0 64 0 std::basic_string<char, std::char_traits<char>, std::allocator<char> >::find_last_not_of
FUNC b414 c 0 std::basic_string<char, std::char_traits<char>, std::allocator<char> >::find_last_not_of
FUNC b420 30 0 std::basic_string<char, std::char_traits<char>, std::allocator<char> >::find_last_not_of
FUNC b450 44 0 std::basic_string<char, std::char_traits<char>, std::allocator<char> >::find_last_not_of
FUNC b494 30 0 std::basic_string<char, std::char_traits<char>, std::allocator<char> >::compare
FUNC b4c4 60 0 std::basic_string<char, std::char_traits<char>, std::allocator<char> >::compare
FUNC b524 7c 0 std::basic_string<char, std::char_traits<char>, std::allocator<char> >::compare
FUNC b5a0 40 0 std::basic_string<char, std::char_traits<char>, std::allocator<char> >::compare
FUNC b5e0 6c 0 std::basic_string<char, std::char_traits<char>, std::allocator<char> >::compare
FUNC b64c 5c 0 std::basic_string<char, std::char_traits<char>, std::allocator<char> >::compare
FUNC b6a8 8 0 std::basic_string<char, std::char_traits<char>, std::allocator<char> >::_Alloc_hider::_Alloc_hider
FUNC b6b0 10 0 std::basic_string<char, std::char_traits<char>, std::allocator<char> >::_Rep::_S_empty_rep
FUNC b6c0 c 0 std::basic_string<char, std::char_traits<char>, std::allocator<char> >::_Rep::_M_is_leaked
FUNC b6cc 14 0 std::basic_string<char, std::char_traits<char>, std::allocator<char> >::_Rep::_M_is_shared
FUNC b6e0 c 0 std::basic_string<char, std::char_traits<char>, std::allocator<char> >::_Rep::_M_set_leaked
FUNC b6ec c 0 std::basic_string<char, std::char_traits<char>, std::allocator<char> >::_Rep::_M_set_sharable
FUNC b6f8 28 0 std::basic_string<char, std::char_traits<char>, std::allocator<char> >::_Rep::_M_set_length_and_sharable
FUNC b720 8 0 std::basic_string<char, std::char_traits<char>, std::allocator<char> >::_Rep::_M_refdata
FUNC b728 84 0 std::basic_string<char, std::char_traits<char>, std::allocator<char> >::_Rep::_S_create
FUNC b7ac 84 0 std::basic_string<char, std::char_traits<char>, std::allocator<char> >::_S_construct
FUNC b830 24 0 std::basic_string<char, std::char_traits<char>, std::allocator<char> >::basic_string
FUNC b854 24 0 std::basic_string<char, std::char_traits<char>, std::allocator<char> >::basic_string
FUNC b878 4 0 std::basic_string<char, std::char_traits<char>, std::allocator<char> >::_S_construct_aux_2
FUNC b87c 4 0 std::basic_string<char, std::char_traits<char>, std::allocator<char> >::_Rep::_M_destroy
FUNC b880 18 0 std::basic_string<char, std::char_traits<char>, std::allocator<char> >::_Rep::_M_dispose
FUNC b898 40 0 std::basic_string<char, std::char_traits<char>, std::allocator<char> >::~basic_string
FUNC b8d8 164 0 std::basic_string<char, std::char_traits<char>, std::allocator<char> >::_M_mutate
FUNC ba3c 50 0 std::basic_string<char, std::char_traits<char>, std::allocator<char> >::_M_leak_hard
FUNC ba8c 14 0 std::basic_string<char, std::char_traits<char>, std::allocator<char> >::_M_leak
FUNC baa0 28 0 std::basic_string<char, std::char_traits<char>, std::allocator<char> >::begin
FUNC bac8 34 0 std::basic_string<char, std::char_traits<char>, std::allocator<char> >::rend
FUNC bafc 2c 0 std::basic_string<char, std::char_traits<char>, std::allocator<char> >::end
FUNC bb28 2c 0 std::basic_string<char, std::char_traits<char>, std::allocator<char> >::operator[]
FUNC bb54 28 0 std::basic_string<char, std::char_traits<char>, std::allocator<char> >::front
FUNC bb7c 30 0 std::basic_string<char, std::char_traits<char>, std::allocator<char> >::back
FUNC bbac 48 0 std::basic_string<char, std::char_traits<char>, std::allocator<char> >::at
FUNC bbf4 3c 0 std::basic_string<char, std::char_traits<char>, std::allocator<char> >::rbegin
FUNC bc30 14 0 std::basic_string<char, std::char_traits<char>, std::allocator<char> >::clear
FUNC bc44 44 0 std::basic_string<char, std::char_traits<char>, std::allocator<char> >::erase
FUNC bc88 34 0 std::basic_string<char, std::char_traits<char>, std::allocator<char> >::erase
FUNC bcbc 40 0 std::basic_string<char, std::char_traits<char>, std::allocator<char> >::erase
FUNC bcfc 78 0 std::basic_string<char, std::char_traits<char>, std::allocator<char> >::_M_replace_aux
FUNC bd74 2c 0 std::basic_string<char, std::char_traits<char>, std::allocator<char> >::assign
FUNC bda0 30 0 std::basic_string<char, std::char_traits<char>, std::allocator<char> >::operator=
FUNC bdd0 40 0 std::basic_string<char, std::char_traits<char>, std::allocator<char> >::insert
FUNC be10 40 0 std::basic_string<char, std::char_traits<char>, std::allocator<char> >::insert
FUNC be50 40 0 std::basic_string<char, std::char_traits<char>, std::allocator<char> >::replace
FUNC be90 20 0 std::basic_string<char, std::char_traits<char>, std::allocator<char> >::replace
FUNC beb0 2c 0 std::basic_string<char, std::char_traits<char>, std::allocator<char> >::insert
FUNC bedc 58 0 std::basic_string<char, std::char_traits<char>, std::allocator<char> >::_M_replace_safe
FUNC bf34 f4 0 std::basic_string<char, std::char_traits<char>, std::allocator<char> >::assign
FUNC c028 28 0 std::basic_string<char, std::char_traits<char>, std::allocator<char> >::operator=
FUNC c050 40 0 std::basic_string<char, std::char_traits<char>, std::allocator<char> >::assign
FUNC c090 28 0 std::basic_string<char, std::char_traits<char>, std::allocator<char> >::assign
FUNC c0b8 18 0 std::basic_string<char, std::char_traits<char>, std::allocator<char> >::assign
FUNC c0d0 28 0 std::basic_string<char, std::char_traits<char>, std::allocator<char> >::operator=
FUNC c0f8 184 0 std::basic_string<char, std::char_traits<char>, std::allocator<char> >::insert
FUNC c27c 28 0 std::basic_string<char, std::char_traits<char>, std::allocator<char> >::insert
FUNC c2a4 44 0 std::basic_string<char, std::char_traits<char>, std::allocator<char> >::insert
FUNC c2e8 30 0 std::basic_string<char, std::char_traits<char>, std::allocator<char> >::insert
FUNC c318 c 0 std::basic_string<char, std::char_traits<char>, std::allocator<char> >::insert
FUNC c324 38 0 std::basic_string<char, std::char_traits<char>, std::allocator<char> >::pop_back
FUNC c35c 40 0 std::basic_string<char, std::char_traits<char>, std::allocator<char> >::_Rep::_M_refcopy
FUNC c39c 84 0 std::basic_string<char, std::char_traits<char>, std::allocator<char> >::_Rep::_M_clone
FUNC c420 88 0 std::basic_string<char, std::char_traits<char>, std::allocator<char> >::reserve
FUNC c4a8 30 0 std::basic_string<char, std::char_traits<char>, std::allocator<char> >::shrink_to_fit
FUNC c4d8 ac 0 std::basic_string<char, std::char_traits<char>, std::allocator<char> >::append
FUNC c584 4 0 std::basic_string<char, std::char_traits<char>, std::allocator<char> >::operator+=
FUNC c588 d8 0 std::basic_string<char, std::char_traits<char>, std::allocator<char> >::append
FUNC c660 104 0 std::basic_string<char, std::char_traits<char>, std::allocator<char> >::append
FUNC c764 18 0 std::basic_string<char, std::char_traits<char>, std::allocator<char> >::operator+=
FUNC c77c 28 0 std::basic_string<char, std::char_traits<char>, std::allocator<char> >::append
FUNC c7a4 18 0 std::basic_string<char, std::char_traits<char>, std::allocator<char> >::append
FUNC c7bc 28 0 std::basic_string<char, std::char_traits<char>, std::allocator<char> >::operator+=
FUNC c7e4 c0 0 std::basic_string<char, std::char_traits<char>, std::allocator<char> >::append
FUNC c8a4 4c 0 std::basic_string<char, std::char_traits<char>, std::allocator<char> >::resize
FUNC c8f0 8 0 std::basic_string<char, std::char_traits<char>, std::allocator<char> >::resize
FUNC c8f8 74 0 std::basic_string<char, std::char_traits<char>, std::allocator<char> >::push_back
FUNC c96c 78 0 std::basic_string<char, std::char_traits<char>, std::allocator<char> >::operator+=
FUNC c9e4 58 0 std::basic_string<char, std::char_traits<char>, std::allocator<char> >::_Rep::_M_grab
FUNC ca3c 88 0 std::basic_string<char, std::char_traits<char>, std::allocator<char> >::basic_string
FUNC cac4 c4 0 std::basic_string<char, std::char_traits<char>, std::allocator<char> >::assign
FUNC cb88 4 0 std::basic_string<char, std::char_traits<char>, std::allocator<char> >::operator=
FUNC cb8c 98 0 std::operator+<char, std::char_traits<char>, std::allocator<char> >
FUNC cc24 88 0 std::operator+<char, std::char_traits<char>, std::allocator<char> >
FUNC ccac 54 0 std::operator+<char, std::char_traits<char>, std::allocator<char> >
FUNC cd00 90 0 std::basic_string<char, std::char_traits<char>, std::allocator<char> >::_S_construct<__gnu_cxx::__normal_iterator<char*, std::basic_string<char> > >
FUNC cd90 28 0 std::basic_string<char, std::char_traits<char>, std::allocator<char> >::basic_string<__gnu_cxx::__normal_iterator<char*, std::basic_string<char> > >
FUNC cdb8 c4 0 std::basic_string<char, std::char_traits<char>, std::allocator<char> >::_S_construct<char*>
FUNC ce7c 60 0 std::basic_string<char, std::char_traits<char>, std::allocator<char> >::basic_string
FUNC cedc 34 0 std::basic_string<char, std::char_traits<char>, std::allocator<char> >::substr
FUNC cf10 58 0 std::basic_string<char, std::char_traits<char>, std::allocator<char> >::basic_string
FUNC cf68 28 0 std::basic_string<char, std::char_traits<char>, std::allocator<char> >::basic_string<char*>
FUNC cf90 c4 0 std::basic_string<char, std::char_traits<char>, std::allocator<char> >::_S_construct<char const*>
FUNC d054 28 0 std::basic_string<char, std::char_traits<char>, std::allocator<char> >::basic_string
FUNC d07c 1b4 0 std::basic_string<char, std::char_traits<char>, std::allocator<char> >::replace
FUNC d230 20 0 std::basic_string<char, std::char_traits<char>, std::allocator<char> >::replace
FUNC d250 48 0 std::basic_string<char, std::char_traits<char>, std::allocator<char> >::replace
FUNC d298 40 0 std::basic_string<char, std::char_traits<char>, std::allocator<char> >::replace
FUNC d2d8 10 0 std::basic_string<char, std::char_traits<char>, std::allocator<char> >::replace
FUNC d2e8 2c 0 std::basic_string<char, std::char_traits<char>, std::allocator<char> >::replace
FUNC d314 44 0 std::basic_string<char, std::char_traits<char>, std::allocator<char> >::replace
FUNC d358 24 0 std::basic_string<char, std::char_traits<char>, std::allocator<char> >::replace
FUNC d37c 24 0 std::basic_string<char, std::char_traits<char>, std::allocator<char> >::replace
FUNC d3a0 1c 0 std::basic_string<char, std::char_traits<char>, std::allocator<char> >::replace
FUNC d3bc 24 0 std::basic_string<char, std::char_traits<char>, std::allocator<char> >::replace
FUNC d3e0 24 0 std::basic_string<char, std::char_traits<char>, std::allocator<char> >::replace
FUNC d404 40 0 std::basic_string<char, std::char_traits<char>, std::allocator<char> >::basic_string
FUNC d444 3c 0 std::basic_string<char, std::char_traits<char>, std::allocator<char> >::basic_string
FUNC d480 28 0 std::basic_string<char, std::char_traits<char>, std::allocator<char> >::basic_string<char const*>
FUNC d4a8 18 0 __gnu_cxx::operator==<char*, std::basic_string<char> >
FUNC d4c0 18 0 __gnu_cxx::operator==<char const*, std::basic_string<char> >
FUNC d4d8 18 0 std::type_info::~type_info
FUNC d4f0 8 0 std::type_info::__is_pointer_p
FUNC d4f8 8 0 std::type_info::__is_function_p
FUNC d500 8 0 std::type_info::__do_upcast
FUNC d508 28 0 std::type_info::~type_info
FUNC d530 4c 0 std::type_info::operator==
FUNC d57c 4 0 std::type_info::__do_catch
FUNC d580 28 0 __cxxabiv1::__si_class_type_info::~__si_class_type_info
FUNC d5a8 1c 0 __cxxabiv1::__si_class_type_info::~__si_class_type_info
FUNC d5c4 64 0 __cxxabiv1::__si_class_type_info::__do_find_public_src
FUNC d628 e0 0 __cxxabiv1::__si_class_type_info::__do_dyncast
FUNC d708 40 0 __cxxabiv1::__si_class_type_info::__do_upcast
FUNC d748 4c 0 std::__throw_bad_exception
FUNC d794 4c 0 std::__throw_bad_alloc
FUNC d7e0 4c 0 std::__throw_bad_cast
FUNC d82c 4c 0 std::__throw_bad_typeid
FUNC d878 88 0 std::__throw_logic_error
FUNC d900 88 0 std::__throw_domain_error
FUNC d988 88 0 std::__throw_invalid_argument
FUNC da10 88 0 std::__throw_length_error
FUNC da98 88 0 std::__throw_out_of_range
FUNC db20 88 0 std::__throw_runtime_error
FUNC dba8 88 0 std::__throw_range_error
FUNC dc30 88 0 std::__throw_overflow_error
FUNC dcb8 88 0 std::__throw_underflow_error
FUNC dd40 74 0 std::__throw_ios_failure
FUNC ddb4 b4 0 std::__throw_system_error
FUNC de68 b4 0 std::__throw_future_error
FUNC df1c 4c 0 std::__throw_bad_function_call
FUNC df68 48 0 std::__throw_regex_error
FUNC dfb0 10 0 std::bad_function_call::what
FUNC dfc0 28 0 std::bad_function_call::~bad_function_call
FUNC dfe8 30 0 std::bad_function_call::~bad_function_call
FUNC e018 4 0 std::__future_base::_State_base::_M_run_deferred
FUNC e01c 10 0 future_error_category::name
FUNC e02c 28 0 future_error_category::~future_error_category
FUNC e054 30 0 future_error_category::~future_error_category
FUNC e084 28 0 std::future_error::~future_error
FUNC e0ac 30 0 std::future_error::~future_error
FUNC e0dc 28 0 std::__future_base::_Result_base::~_Result_base
FUNC e104 30 0 std::__future_base::_Result_base::~_Result_base
FUNC e134 48 0 std::__future_base::_State_base::~_State_base
FUNC e17c 1c 0 std::__future_base::_State_base::~_State_base
FUNC e198 80 0 std::future_error::what
FUNC e218 f4 0 future_error_category::message
FUNC e30c 94 0 std::future_category
FUNC e3a0 28 0 std::__future_base::_Result_base::_Result_base
FUNC e3c8 e0 0 __cxxabiv1::__cxa_guard_acquire
FUNC e4a8 58 0 __cxxabiv1::__cxa_guard_abort
FUNC e500 54 0 __cxxabiv1::__cxa_guard_release
FUNC e554 10 0 std::bad_typeid::what
FUNC e564 28 0 std::bad_typeid::~bad_typeid
FUNC e58c 1c 0 std::bad_typeid::~bad_typeid
FUNC e5a8 1b4 0 __gnu_cxx::__verbose_terminate_handler
FUNC e75c 1d0 0 d_make_comp
FUNC e92c 6c 0 d_make_name
FUNC e998 13c 0 d_cv_qualifiers
FUNC ead4 58 0 d_ref_qualifier
FUNC eb2c f4 0 d_clone_suffix
FUNC ec20 244 0 d_substitution
FUNC ee64 5c 0 d_append_char
FUNC eec0 7c 0 d_number
FUNC ef3c 60 0 d_number_component
FUNC ef9c 54 0 d_compact_number
FUNC eff0 80 0 d_template_param
FUNC f070 34 0 d_discriminator
FUNC f0a4 f8 0 d_source_name
FUNC f19c 9c 0 d_call_offset
FUNC f238 88 0 d_lookup_template_argument
FUNC f2c0 19c 0 d_find_pack
FUNC f45c cc 0 d_growable_string_callback_adapter
FUNC f528 158 0 d_expr_primary
FUNC f680 170 0 d_template_args
FUNC f7f0 4b0 0 d_name
FUNC fca0 b88 0 d_type
FUNC 10828 108 0 d_parmlist
FUNC 10930 68 0 d_bare_function_type
FUNC 10998 874 0 d_encoding
FUNC 1120c 194 0 d_operator_name
FUNC 113a0 468 0 d_unqualified_name
FUNC 11808 61c 0 d_expression
FUNC 11e24 ac 0 d_exprlist
FUNC 11ed0 84 0 d_append_string
FUNC 11f54 3554 0 d_print_comp
FUNC 154a8 20 0 d_print_comp
FUNC 154c8 778 0 d_print_mod
FUNC 15c40 398 0 d_print_mod_list
FUNC 15fd8 264 0 d_print_array_type
FUNC 1623c 2d8 0 d_print_function_type
FUNC 16514 238 0 d_print_cast
FUNC 1674c a4 0 d_print_expr_op
FUNC 167f0 110 0 d_print_subexpr
FUNC 16900 31c 0 d_demangle_callback
FUNC 16c1c 14c 0 __cxa_demangle
FUNC 16d68 2c 0 __gcclibcxx_demangle_callback
FUNC 16d94 4 0 std::__exception_ptr::exception_ptr::_M_safe_bool_dummy
FUNC 16d98 68 0 __gxx_dependent_exception_cleanup
FUNC 16e00 c 0 std::__exception_ptr::exception_ptr::exception_ptr
FUNC 16e0c 1c 0 std::__exception_ptr::exception_ptr::exception_ptr
FUNC 16e28 30 0 std::__exception_ptr::exception_ptr::_M_addref
FUNC 16e58 18 0 std::__exception_ptr::exception_ptr::exception_ptr
FUNC 16e70 1c 0 std::__exception_ptr::exception_ptr::exception_ptr
FUNC 16e8c 64 0 std::__exception_ptr::exception_ptr::_M_release
FUNC 16ef0 14 0 std::__exception_ptr::exception_ptr::~exception_ptr
FUNC 16f04 8 0 std::__exception_ptr::exception_ptr::_M_get
FUNC 16f0c 14 0 std::__exception_ptr::exception_ptr::swap
FUNC 16f20 38 0 std::__exception_ptr::exception_ptr::operator=
FUNC 16f58 10 0 std::__exception_ptr::exception_ptr::operator!
FUNC 16f68 34 0 std::__exception_ptr::exception_ptr::operator std::__exception_ptr::exception_ptr::__safe_bool
FUNC 16f9c c 0 std::__exception_ptr::exception_ptr::__cxa_exception_type
FUNC 16fa8 18 0 std::__exception_ptr::operator==
FUNC 16fc0 14 0 std::__exception_ptr::operator!=
FUNC 16fd4 a0 0 std::current_exception
FUNC 17074 c0 0 std::rethrow_exception
FUNC 17134 10 0 std::bad_cast::what
FUNC 17144 28 0 std::bad_cast::~bad_cast
FUNC 1716c 1c 0 std::bad_cast::~bad_cast
FUNC 17188 8 0 std::logic_error::what
FUNC 17190 8 0 std::runtime_error::what
FUNC 17198 84 0 std::logic_error::~logic_error
FUNC 1721c 1c 0 std::logic_error::~logic_error
FUNC 17238 28 0 std::domain_error::~domain_error
FUNC 17260 30 0 std::domain_error::~domain_error
FUNC 17290 28 0 std::invalid_argument::~invalid_argument
FUNC 172b8 30 0 std::invalid_argument::~invalid_argument
FUNC 172e8 28 0 std::length_error::~length_error
FUNC 17310 30 0 std::length_error::~length_error
FUNC 17340 28 0 std::out_of_range::~out_of_range
FUNC 17368 30 0 std::out_of_range::~out_of_range
FUNC 17398 84 0 std::runtime_error::~runtime_error
FUNC 1741c 1c 0 std::runtime_error::~runtime_error
FUNC 17438 28 0 std::range_error::~range_error
FUNC 17460 30 0 std::range_error::~range_error
FUNC 17490 28 0 std::overflow_error::~overflow_error
FUNC 174b8 30 0 std::overflow_error::~overflow_error
FUNC 174e8 28 0 std::underflow_error::~underflow_error
FUNC 17510 30 0 std::underflow_error::~underflow_error
FUNC 17540 34 0 std::logic_error::logic_error
FUNC 17574 28 0 std::domain_error::domain_error
FUNC 1759c 28 0 std::invalid_argument::invalid_argument
FUNC 175c4 28 0 std::length_error::length_error
FUNC 175ec 28 0 std::out_of_range::out_of_range
FUNC 17614 34 0 std::runtime_error::runtime_error
FUNC 17648 28 0 std::range_error::range_error
FUNC 17670 28 0 std::overflow_error::overflow_error
FUNC 17698 28 0 std::underflow_error::underflow_error
FUNC 176c0 8 0 std::ios_base::failure::what
FUNC 176c8 84 0 std::ios_base::failure::~failure
FUNC 1774c 1c 0 std::ios_base::failure::~failure
FUNC 17768 4c 0 std::ios_base::failure::failure
FUNC 177b4 c 0 std::condition_variable::condition_variable
FUNC 177c0 14 0 std::condition_variable::~condition_variable
FUNC 177d4 18 0 std::condition_variable::wait
FUNC 177ec 14 0 std::condition_variable::notify_one
FUNC 17800 14 0 std::condition_variable::notify_all
FUNC 17814 10 0 std::condition_variable_any::condition_variable_any
FUNC 17824 14 0 std::condition_variable_any::~condition_variable_any
FUNC 17838 28 0 std::regex_error::~regex_error
FUNC 17860 30 0 std::regex_error::~regex_error
FUNC 17890 c0 0 std::regex_error::regex_error
FUNC 17950 10 0 generic_error_category::name
FUNC 17960 10 0 system_error_category::name
FUNC 17970 18 0 std::error_category::~error_category
FUNC 17988 c 0 std::error_category::default_error_condition
FUNC 17994 60 0 std::error_category::equivalent
FUNC 179f4 28 0 std::error_category::equivalent
FUNC 17a1c 18 0 system_error_category::~system_error_category
FUNC 17a34 18 0 generic_error_category::~generic_error_category
FUNC 17a4c 28 0 std::error_category::~error_category
FUNC 17a74 28 0 system_error_category::~system_error_category
FUNC 17a9c 28 0 generic_error_category::~generic_error_category
FUNC 17ac4 28 0 std::system_error::~system_error
FUNC 17aec 30 0 std::system_error::~system_error
FUNC 17b1c 30 0 system_error_category::message
FUNC 17b4c 30 0 generic_error_category::message
FUNC 17b7c 18 0 std::error_category::error_category
FUNC 17b94 10 0 std::system_category
FUNC 17ba4 10 0 std::generic_category
FUNC 17bb4 24 0 std::error_code::default_error_condition
FUNC 17bd8 2c 0 __cxxabiv1::__cxa_current_exception_type
FUNC 17c04 18 0 selfrel_offset31
FUNC 17c1c ac 0 search_EIT_table
FUNC 17cc8 50 0 __gnu_unwind_get_pr_addr
FUNC 17d18 10c 0 get_eit_entry
FUNC 17e24 6c 0 restore_non_core_regs
FUNC 17e90 14 0 _Unwind_decode_typeinfo_ptr
FUNC 17ea4 8 0 __gnu_unwind_24bit
FUNC 17eac 4 0 _Unwind_DebugHook
FUNC 17eb0 64 0 unwind_phase2
FUNC 17f14 124 0 unwind_phase2_forced
FUNC 18038 8 0 _Unwind_GetCFA
FUNC 18040 a4 0 __gnu_Unwind_RaiseException
FUNC 180e4 1c 0 __gnu_Unwind_ForcedUnwind
FUNC 18100 74 0 __gnu_Unwind_Resume
FUNC 18174 20 0 __gnu_Unwind_Resume_or_Rethrow
FUNC 18194 4 0 _Unwind_Complete
FUNC 18198 20 0 _Unwind_DeleteException
FUNC 181b8 5c 0 _Unwind_VRS_Get
FUNC 18214 28 0 _Unwind_GetGR
FUNC 1823c 5c 0 _Unwind_VRS_Set
FUNC 18298 2c 0 _Unwind_SetGR
FUNC 182c4 c4 0 __gnu_Unwind_Backtrace
FUNC 18388 3f0 0 __gnu_unwind_pr_common
FUNC 18778 8 0 __aeabi_unwind_cpp_pr0
FUNC 18780 8 0 __aeabi_unwind_cpp_pr1
FUNC 18788 8 0 __aeabi_unwind_cpp_pr2
FUNC 18790 34c 0 _Unwind_VRS_Pop
FUNC 18c84 60 0 next_unwind_byte
FUNC 18ce4 28 0 _Unwind_GetGR
FUNC 18d0c 4 0 unwind_UCB_from_context
FUNC 18d10 37c 0 __gnu_unwind_execute
FUNC 1908c 40 0 __gnu_unwind_frame
FUNC 190cc 10 0 _Unwind_GetRegionStart
FUNC 190dc 1c 0 _Unwind_GetLanguageSpecificData
FUNC 190f8 8 0 _Unwind_GetDataRelBase
FUNC 19100 8 0 _Unwind_GetTextRelBase
PUBLIC 7278 0 GUI_Window_OnClick
PUBLIC 728c 0 GUI_Window_OnFocus
PUBLIC 72a0 0 GUI_Window_OnInit
PUBLIC 72b4 0 GUI_Window_OnAction
PUBLIC 72c8 0 CAddonGUIWindow::~CAddonGUIWindow()
PUBLIC 7324 0 CAddonGUIWindow::Show()
PUBLIC 7340 0 CAddonGUIWindow::Close()
PUBLIC 735c 0 CAddonGUIWindow::DoModal()
PUBLIC 7378 0 CAddonGUIWindow::OnInit()
PUBLIC 739c 0 CAddonGUIWindow::OnClick(int)
PUBLIC 73c0 0 CAddonGUIWindow::OnFocus(int)
PUBLIC 73e4 0 CAddonGUIWindow::OnAction(int)
PUBLIC 7408 0 CAddonGUIWindow::SetFocusId(int)
PUBLIC 742c 0 CAddonGUIWindow::GetFocusId()
PUBLIC 7448 0 CAddonGUIWindow::SetCoordinateResolution(int)
PUBLIC 746c 0 CAddonGUIWindow::SetProperty(char const*, char const*)
PUBLIC 7494 0 CAddonGUIWindow::SetPropertyInt(char const*, int)
PUBLIC 74bc 0 CAddonGUIWindow::SetPropertyBool(char const*, bool)
PUBLIC 74e4 0 CAddonGUIWindow::SetPropertyDouble(char const*, double)
PUBLIC 7514 0 CAddonGUIWindow::GetProperty(char const*) const
PUBLIC 7538 0 CAddonGUIWindow::GetPropertyInt(char const*) const
PUBLIC 755c 0 CAddonGUIWindow::GetPropertyBool(char const*) const
PUBLIC 7580 0 CAddonGUIWindow::GetPropertyDouble(char const*) const
PUBLIC 75a4 0 CAddonGUIWindow::ClearProperties()
PUBLIC 75c0 0 CAddonGUIWindow::GetListSize()
PUBLIC 75dc 0 CAddonGUIWindow::ClearList()
PUBLIC 75f8 0 CAddonGUIWindow::AddStringItem(char const*, int)
PUBLIC 7620 0 CAddonGUIWindow::AddItem(void*, int)
PUBLIC 7648 0 CAddonGUIWindow::AddItem(CAddonListItem*, int)
PUBLIC 7674 0 CAddonGUIWindow::RemoveItem(int)
PUBLIC 7698 0 CAddonGUIWindow::GetListItem(int)
PUBLIC 76bc 0 CAddonGUIWindow::SetCurrentListPosition(int)
PUBLIC 76e0 0 CAddonGUIWindow::GetCurrentListPosition()
PUBLIC 76fc 0 CAddonGUIWindow::SetControlLabel(int, char const*)
PUBLIC 7724 0 CAddonGUIWindow::MarkDirtyRegion()
PUBLIC 7740 0 CAddonGUISpinControl::SetVisible(bool)
PUBLIC 776c 0 CAddonGUISpinControl::SetText(char const*)
PUBLIC 7798 0 CAddonGUISpinControl::Clear()
PUBLIC 77c0 0 CAddonGUISpinControl::AddLabel(char const*, int)
PUBLIC 77f4 0 CAddonGUISpinControl::GetValue()
PUBLIC 7824 0 CAddonGUISpinControl::SetValue(int)
PUBLIC 7850 0 CAddonGUIRadioButton::SetVisible(bool)
PUBLIC 787c 0 CAddonGUIRadioButton::SetText(char const*)
PUBLIC 78a8 0 CAddonGUIRadioButton::SetSelected(bool)
PUBLIC 78d4 0 CAddonGUIRadioButton::IsSelected()
PUBLIC 7904 0 CAddonGUIProgressControl::SetPercentage(float)
PUBLIC 7930 0 CAddonGUIProgressControl::GetPercentage() const
PUBLIC 7960 0 CAddonGUIProgressControl::SetInfo(int)
PUBLIC 798c 0 CAddonGUIProgressControl::GetInfo() const
PUBLIC 79bc 0 CAddonGUISliderControl::SetVisible(bool)
PUBLIC 79e8 0 CAddonGUISliderControl::SetIntRange(int, int)
PUBLIC 7a1c 0 CAddonGUISliderControl::SetIntValue(int)
PUBLIC 7a48 0 CAddonGUISliderControl::GetIntValue() const
PUBLIC 7a78 0 CAddonGUISliderControl::SetIntInterval(int)
PUBLIC 7aa4 0 CAddonGUISliderControl::SetPercentage(float)
PUBLIC 7ad0 0 CAddonGUISliderControl::GetPercentage() const
PUBLIC 7b00 0 CAddonGUISliderControl::SetFloatRange(float, float)
PUBLIC 7b34 0 CAddonGUISliderControl::SetFloatValue(float)
PUBLIC 7b60 0 CAddonGUISliderControl::GetFloatValue() const
PUBLIC 7b90 0 CAddonGUISliderControl::SetFloatInterval(float)
PUBLIC 7bbc 0 CAddonGUISettingsSliderControl::SetVisible(bool)
PUBLIC 7be8 0 CAddonGUISettingsSliderControl::SetText(char const*)
PUBLIC 7c14 0 CAddonGUISettingsSliderControl::SetIntRange(int, int)
PUBLIC 7c48 0 CAddonGUISettingsSliderControl::SetIntValue(int)
PUBLIC 7c74 0 CAddonGUISettingsSliderControl::GetIntValue() const
PUBLIC 7ca4 0 CAddonGUISettingsSliderControl::SetIntInterval(int)
PUBLIC 7cd0 0 CAddonGUISettingsSliderControl::SetPercentage(float)
PUBLIC 7cfc 0 CAddonGUISettingsSliderControl::GetPercentage() const
PUBLIC 7d2c 0 CAddonGUISettingsSliderControl::SetFloatRange(float, float)
PUBLIC 7d60 0 CAddonGUISettingsSliderControl::SetFloatValue(float)
PUBLIC 7d8c 0 CAddonGUISettingsSliderControl::GetFloatValue() const
PUBLIC 7dbc 0 CAddonGUISettingsSliderControl::SetFloatInterval(float)
PUBLIC 7de8 0 CAddonListItem::GetLabel()
PUBLIC 7e20 0 CAddonListItem::SetLabel(char const*)
PUBLIC 7e4c 0 CAddonListItem::GetLabel2()
PUBLIC 7e84 0 CAddonListItem::SetLabel2(char const*)
PUBLIC 7eb0 0 CAddonListItem::SetIconImage(char const*)
PUBLIC 7edc 0 CAddonListItem::SetThumbnailImage(char const*)
PUBLIC 7f08 0 CAddonListItem::SetInfo(char const*)
PUBLIC 7f34 0 CAddonListItem::SetProperty(char const*, char const*)
PUBLIC 7f68 0 CAddonListItem::GetProperty(char const*) const
PUBLIC 7fa4 0 CAddonListItem::SetPath(char const*)
PUBLIC 7fd0 0 GUI_control_rendering_create
PUBLIC 7ff8 0 GUI_control_rendering_render
PUBLIC 800c 0 GUI_control_rendering_stop
PUBLIC 8020 0 GUI_control_rendering_dirty
PUBLIC 8034 0 CAddonGUIRenderingControl::~CAddonGUIRenderingControl()
PUBLIC 8070 0 CAddonGUIRenderingControl::Init()
PUBLIC 80e8 0 CAddonGUIRenderingControl::Create(int, int, int, int, void*)
PUBLIC 8120 0 CAddonGUIRenderingControl::Render()
PUBLIC 813c 0 CAddonGUIRenderingControl::Stop()
PUBLIC 8158 0 CAddonGUIRenderingControl::Dirty()
PUBLIC 817c 0 CAddonGUIWindow::~CAddonGUIWindow()
PUBLIC 8198 0 CAddonGUIRenderingControl::~CAddonGUIRenderingControl()
PUBLIC 81b4 0 CAddonGUIProgressControl::GetDescription() const
PUBLIC 8220 0 CAddonGUISliderControl::GetDescription() const
PUBLIC 828c 0 CAddonGUISettingsSliderControl::GetDescription() const
PUBLIC 82f8 0 GUI_register_me
PUBLIC 837c 0 GUI_unregister_me
PUBLIC 839c 0 GUI_lock
PUBLIC 83ac 0 GUI_unlock
PUBLIC 83bc 0 GUI_get_screen_height
PUBLIC 83cc 0 GUI_get_screen_width
PUBLIC 83dc 0 GUI_get_video_resolution
PUBLIC 83ec 0 GUI_dialog_keyboard_show_and_get_input_with_head
PUBLIC 8428 0 GUI_dialog_keyboard_show_and_get_input
PUBLIC 8448 0 GUI_dialog_keyboard_show_and_get_new_password_with_head
PUBLIC 847c 0 GUI_dialog_keyboard_show_and_get_new_password
PUBLIC 8498 0 GUI_dialog_keyboard_show_and_verify_new_password_with_head
PUBLIC 84cc 0 GUI_dialog_keyboard_show_and_verify_new_password
PUBLIC 84e8 0 GUI_dialog_keyboard_show_and_verify_password
PUBLIC 8518 0 GUI_dialog_keyboard_show_and_get_filter
PUBLIC 8538 0 GUI_dialog_keyboard_send_text_to_active_keyboard
PUBLIC 8550 0 GUI_dialog_keyboard_is_activated
PUBLIC 8560 0 GUI_dialog_numeric_show_and_verify_new_password
PUBLIC 8578 0 GUI_dialog_numeric_show_and_verify_password
PUBLIC 8598 0 GUI_dialog_numeric_show_and_verify_input
PUBLIC 85b8 0 GUI_dialog_numeric_show_and_get_time
PUBLIC 85d0 0 GUI_dialog_numeric_show_and_get_date
PUBLIC 85e8 0 GUI_dialog_numeric_show_and_get_ipaddress
PUBLIC 8604 0 GUI_dialog_numeric_show_and_get_number
PUBLIC 8624 0 GUI_dialog_numeric_show_and_get_seconds
PUBLIC 8640 0 GUI_dialog_filebrowser_show_and_get_file
PUBLIC 8684 0 GUI_dialog_ok_show_and_get_input_single_text
PUBLIC 869c 0 GUI_dialog_ok_show_and_get_input_line_text
PUBLIC 86bc 0 GUI_dialog_yesno_show_and_get_input_linetext
PUBLIC 86f4 0 GUI_dialog_yesno_show_and_get_input_singletext
PUBLIC 8724 0 GUI_dialog_yesno_show_and_get_input_linebuttontext
PUBLIC 8760 0 GUI_dialog_text_viewer
PUBLIC 8778 0 GUI_dialog_select
PUBLIC 8798 0 GUI_Window_destroy
PUBLIC 87b4 0 CAddonGUIWindow::CAddonGUIWindow(void*, void*, char const*, char const*, bool, bool)
PUBLIC 88d4 0 GUI_Window_create
PUBLIC 8934 0 GUI_control_release_spin
PUBLIC 8950 0 CAddonGUISpinControl::CAddonGUISpinControl(void*, void*, CAddonGUIWindow*, int)
PUBLIC 89a4 0 GUI_control_get_spin
PUBLIC 89f4 0 GUI_control_release_radiobutton
PUBLIC 8a10 0 CAddonGUIRadioButton::CAddonGUIRadioButton(void*, void*, CAddonGUIWindow*, int)
PUBLIC 8a64 0 GUI_control_get_radiobutton
PUBLIC 8ab4 0 GUI_control_release_progress
PUBLIC 8ad0 0 CAddonGUIProgressControl::CAddonGUIProgressControl(void*, void*, CAddonGUIWindow*, int)
PUBLIC 8b24 0 GUI_control_get_progress
PUBLIC 8b74 0 GUI_control_release_slider
PUBLIC 8b90 0 CAddonGUISliderControl::CAddonGUISliderControl(void*, void*, CAddonGUIWindow*, int)
PUBLIC 8be4 0 GUI_control_get_slider
PUBLIC 8c34 0 GUI_control_release_settings_slider
PUBLIC 8c50 0 CAddonGUISettingsSliderControl::CAddonGUISettingsSliderControl(void*, void*, CAddonGUIWindow*, int)
PUBLIC 8ca4 0 GUI_control_get_settings_slider
PUBLIC 8cf4 0 GUI_ListItem_destroy
PUBLIC 8d10 0 CAddonListItem::CAddonListItem(void*, void*, char const*, char const*, char const*, char const*, char const*)
PUBLIC 8d74 0 GUI_ListItem_create
PUBLIC 8ddc 0 GUI_control_release_rendering
PUBLIC 8df8 0 CAddonGUIRenderingControl::CAddonGUIRenderingControl(void*, void*, CAddonGUIWindow*, int)
PUBLIC 8e4c 0 GUI_control_get_rendering
PUBLIC 8e9c 0 CAddonGUISpinControl::~CAddonGUISpinControl()
PUBLIC 8eb4 0 CAddonGUIRadioButton::~CAddonGUIRadioButton()
PUBLIC 8ecc 0 CAddonGUIProgressControl::~CAddonGUIProgressControl()
PUBLIC 8ee4 0 CAddonGUISliderControl::~CAddonGUISliderControl()
PUBLIC 8efc 0 CAddonGUISettingsSliderControl::~CAddonGUISettingsSliderControl()
PUBLIC 8f14 0 CAddonListItem::~CAddonListItem()
PUBLIC 8f2c 0 CAddonGUISpinControl::~CAddonGUISpinControl()
PUBLIC 8f54 0 CAddonGUIRadioButton::~CAddonGUIRadioButton()
PUBLIC 8f7c 0 CAddonGUIProgressControl::~CAddonGUIProgressControl()
PUBLIC 8fa4 0 CAddonGUISliderControl::~CAddonGUISliderControl()
PUBLIC 8fcc 0 CAddonGUISettingsSliderControl::~CAddonGUISettingsSliderControl()
PUBLIC 8ff4 0 CAddonListItem::~CAddonListItem()
PUBLIC 9938 0 __cxa_get_exception_ptr
PUBLIC 9940 0 __cxa_begin_catch
PUBLIC 9a20 0 __cxa_end_catch
PUBLIC 9af8 0 std::uncaught_exception()
PUBLIC 9b10 0 operator new(unsigned int)
PUBLIC 9c50 0 __cxa_call_unexpected
PUBLIC 9e28 0 __cxa_get_globals_fast
PUBLIC 9e70 0 __cxa_get_globals
PUBLIC 9f00 0 __cxxabiv1::__class_type_info::__do_upcast(__cxxabiv1::__class_type_info const*, void**) const
PUBLIC 9f5c 0 __cxxabiv1::__class_type_info::__do_find_public_src(int, void const*, __cxxabiv1::__class_type_info const*, void const*) const
PUBLIC 9f70 0 __cxxabiv1::__class_type_info::~__class_type_info()
PUBLIC 9f98 0 __cxxabiv1::__class_type_info::~__class_type_info()
PUBLIC 9fb4 0 __cxxabiv1::__class_type_info::__do_upcast(__cxxabiv1::__class_type_info const*, void const*, __cxxabiv1::__class_type_info::__upcast_result&) const
PUBLIC 9fe0 0 __cxxabiv1::__class_type_info::__do_catch(std::type_info const*, void**, unsigned int) const
PUBLIC a024 0 __cxxabiv1::__class_type_info::__do_dyncast(int, __cxxabiv1::__class_type_info::__sub_kind, __cxxabiv1::__class_type_info const*, void const*, __cxxabiv1::__class_type_info const*, void const*, __cxxabiv1::__class_type_info::__dyncast_result&) const
PUBLIC a0fc 0 __cxa_throw
PUBLIC a1b4 0 __cxa_rethrow
PUBLIC a264 0 std::exception::~exception()
PUBLIC a27c 0 std::bad_exception::~bad_exception()
PUBLIC a2a4 0 __cxxabiv1::__forced_unwind::~__forced_unwind()
PUBLIC a2bc 0 __cxxabiv1::__foreign_exception::~__foreign_exception()
PUBLIC a2d4 0 std::exception::what() const
PUBLIC a2e4 0 std::bad_exception::what() const
PUBLIC a2f4 0 std::exception::~exception()
PUBLIC a310 0 std::bad_exception::~bad_exception()
PUBLIC a32c 0 __cxxabiv1::__forced_unwind::~__forced_unwind()
PUBLIC a348 0 __cxxabiv1::__foreign_exception::~__foreign_exception()
PUBLIC a364 0 operator delete(void*)
PUBLIC a370 0 __cxa_end_cleanup
PUBLIC a380 0 __cxa_type_match
PUBLIC a4c4 0 __cxa_begin_cleanup
PUBLIC a578 0 __gnu_end_cleanup
PUBLIC a62c 0 __cxxabiv1::__terminate(void (*)())
PUBLIC a660 0 std::terminate()
PUBLIC a678 0 __cxxabiv1::__unexpected(void (*)())
PUBLIC a684 0 std::unexpected()
PUBLIC a69c 0 std::set_terminate(void (*)())
PUBLIC a6b8 0 std::set_unexpected(void (*)())
PUBLIC a81c 0 __cxa_allocate_exception
PUBLIC a8fc 0 __cxa_free_exception
PUBLIC a99c 0 __cxa_allocate_dependent_exception
PUBLIC aa78 0 __cxa_free_dependent_exception
PUBLIC ab30 0 std::set_new_handler(void (*)())
PUBLIC ab4c 0 __cxa_pure_virtual
PUBLIC ab6c 0 __cxa_deleted_virtual
PUBLIC ab8c 0 std::bad_alloc::what() const
PUBLIC ab9c 0 std::bad_alloc::~bad_alloc()
PUBLIC abc4 0 std::bad_alloc::~bad_alloc()
PUBLIC d580 0 __cxxabiv1::__si_class_type_info::~__si_class_type_info()
PUBLIC d5a8 0 __cxxabiv1::__si_class_type_info::~__si_class_type_info()
PUBLIC d5c4 0 __cxxabiv1::__si_class_type_info::__do_find_public_src(int, void const*, __cxxabiv1::__class_type_info const*, void const*) const
PUBLIC d628 0 __cxxabiv1::__si_class_type_info::__do_dyncast(int, __cxxabiv1::__class_type_info::__sub_kind, __cxxabiv1::__class_type_info const*, void const*, __cxxabiv1::__class_type_info const*, void const*, __cxxabiv1::__class_type_info::__dyncast_result&) const
PUBLIC d708 0 __cxxabiv1::__si_class_type_info::__do_upcast(__cxxabiv1::__class_type_info const*, void const*, __cxxabiv1::__class_type_info::__upcast_result&) const
PUBLIC e3c8 0 __cxa_guard_acquire
PUBLIC e4a8 0 __cxa_guard_abort
PUBLIC e500 0 __cxa_guard_release
PUBLIC e554 0 std::bad_typeid::what() const
PUBLIC e564 0 std::bad_typeid::~bad_typeid()
PUBLIC e58c 0 std::bad_typeid::~bad_typeid()
PUBLIC e5a8 0 __gnu_cxx::__verbose_terminate_handler()
PUBLIC 16c1c 0 __cxa_demangle
PUBLIC 16d68 0 __gcclibcxx_demangle_callback
PUBLIC 16d94 0 std::__exception_ptr::exception_ptr::_M_safe_bool_dummy()
PUBLIC 16e00 0 std::__exception_ptr::exception_ptr::exception_ptr()
PUBLIC 16e0c 0 std::__exception_ptr::exception_ptr::exception_ptr(void (std::__exception_ptr::exception_ptr::*)())
PUBLIC 16e28 0 std::__exception_ptr::exception_ptr::_M_addref()
PUBLIC 16e58 0 std::__exception_ptr::exception_ptr::exception_ptr(void*)
PUBLIC 16e70 0 std::__exception_ptr::exception_ptr::exception_ptr(std::__exception_ptr::exception_ptr const&)
PUBLIC 16e8c 0 std::__exception_ptr::exception_ptr::_M_release()
PUBLIC 16ef0 0 std::__exception_ptr::exception_ptr::~exception_ptr()
PUBLIC 16f04 0 std::__exception_ptr::exception_ptr::_M_get() const
PUBLIC 16f0c 0 std::__exception_ptr::exception_ptr::swap(std::__exception_ptr::exception_ptr&)
PUBLIC 16f20 0 std::__exception_ptr::exception_ptr::operator=(std::__exception_ptr::exception_ptr const&)
PUBLIC 16f58 0 std::__exception_ptr::exception_ptr::operator!() const
PUBLIC 16f68 0 std::__exception_ptr::exception_ptr::operator void (std::__exception_ptr::exception_ptr::*)()() const
PUBLIC 16f9c 0 std::__exception_ptr::exception_ptr::__cxa_exception_type() const
PUBLIC 16fa8 0 std::__exception_ptr::operator==(std::__exception_ptr::exception_ptr const&, std::__exception_ptr::exception_ptr const&)
PUBLIC 16fc0 0 std::__exception_ptr::operator!=(std::__exception_ptr::exception_ptr const&, std::__exception_ptr::exception_ptr const&)
PUBLIC 16fd4 0 std::current_exception()
PUBLIC 17074 0 std::rethrow_exception(std::__exception_ptr::exception_ptr)
PUBLIC 17134 0 std::bad_cast::what() const
PUBLIC 17144 0 std::bad_cast::~bad_cast()
PUBLIC 1716c 0 std::bad_cast::~bad_cast()
PUBLIC 17bd8 0 __cxa_current_exception_type
PUBLIC 18038 0 _Unwind_GetCFA
PUBLIC 18040 0 __gnu_Unwind_RaiseException
PUBLIC 180e4 0 __gnu_Unwind_ForcedUnwind
PUBLIC 18100 0 __gnu_Unwind_Resume
PUBLIC 18174 0 __gnu_Unwind_Resume_or_Rethrow
PUBLIC 18194 0 _Unwind_Complete
PUBLIC 18198 0 _Unwind_DeleteException
PUBLIC 181b8 0 _Unwind_VRS_Get
PUBLIC 1823c 0 _Unwind_VRS_Set
PUBLIC 182c4 0 __gnu_Unwind_Backtrace
PUBLIC 18778 0 __aeabi_unwind_cpp_pr0
PUBLIC 18780 0 __aeabi_unwind_cpp_pr1
PUBLIC 18788 0 __aeabi_unwind_cpp_pr2
PUBLIC 18790 0 _Unwind_VRS_Pop
PUBLIC 18adc 0 restore_core_regs
PUBLIC 18af0 0 __gnu_Unwind_Restore_VFP
PUBLIC 18af8 0 __gnu_Unwind_Save_VFP
PUBLIC 18b00 0 __gnu_Unwind_Restore_VFP_D
PUBLIC 18b08 0 __gnu_Unwind_Save_VFP_D
PUBLIC 18b10 0 __gnu_Unwind_Restore_VFP_D_16_to_31
PUBLIC 18b18 0 __gnu_Unwind_Save_VFP_D_16_to_31
PUBLIC 18b20 0 __gnu_Unwind_Restore_WMMXD
PUBLIC 18b64 0 __gnu_Unwind_Save_WMMXD
PUBLIC 18ba8 0 __gnu_Unwind_Restore_WMMXC
PUBLIC 18bbc 0 __gnu_Unwind_Save_WMMXC
PUBLIC 18bd0 0 _Unwind_RaiseException
PUBLIC 18bf4 0 _Unwind_Resume
PUBLIC 18c18 0 _Unwind_Resume_or_Rethrow
PUBLIC 18c3c 0 ___Unwind_ForcedUnwind
PUBLIC 18c60 0 ___Unwind_Backtrace
PUBLIC 18d10 0 __gnu_unwind_execute
PUBLIC 1908c 0 __gnu_unwind_frame
PUBLIC 190cc 0 _Unwind_GetRegionStart
PUBLIC 190dc 0 _Unwind_GetLanguageSpecificData
PUBLIC 190f8 0 _Unwind_GetDataRelBase
PUBLIC 19100 0 _Unwind_GetTextRelBase
STACK CFI INIT 8e9c 18 .cfa: sp 0 + .ra: lr
STACK CFI INIT 8eb4 18 .cfa: sp 0 + .ra: lr
STACK CFI INIT 8ecc 18 .cfa: sp 0 + .ra: lr
STACK CFI INIT 8ee4 18 .cfa: sp 0 + .ra: lr
STACK CFI INIT 8efc 18 .cfa: sp 0 + .ra: lr
STACK CFI INIT 8f14 18 .cfa: sp 0 + .ra: lr
STACK CFI INIT 7278 14 .cfa: sp 0 + .ra: lr
STACK CFI 727c .cfa: sp 8 + .ra: .cfa -4 + ^ r3: .cfa -8 + ^
STACK CFI INIT 728c 14 .cfa: sp 0 + .ra: lr
STACK CFI 7290 .cfa: sp 8 + .ra: .cfa -4 + ^ r3: .cfa -8 + ^
STACK CFI INIT 72a0 14 .cfa: sp 0 + .ra: lr
STACK CFI 72a4 .cfa: sp 8 + .ra: .cfa -4 + ^ r3: .cfa -8 + ^
STACK CFI INIT 72b4 14 .cfa: sp 0 + .ra: lr
STACK CFI 72b8 .cfa: sp 8 + .ra: .cfa -4 + ^ r3: .cfa -8 + ^
STACK CFI INIT 72c8 5c .cfa: sp 0 + .ra: lr
STACK CFI 72d4 .cfa: sp 8 + .ra: .cfa -4 + ^ r4: .cfa -8 + ^
STACK CFI INIT 7324 1c .cfa: sp 0 + .ra: lr
STACK CFI 732c .cfa: sp 8 + .ra: .cfa -4 + ^ r3: .cfa -8 + ^
STACK CFI INIT 7340 1c .cfa: sp 0 + .ra: lr
STACK CFI 7348 .cfa: sp 8 + .ra: .cfa -4 + ^ r3: .cfa -8 + ^
STACK CFI INIT 735c 1c .cfa: sp 0 + .ra: lr
STACK CFI 7364 .cfa: sp 8 + .ra: .cfa -4 + ^ r3: .cfa -8 + ^
STACK CFI INIT 7378 24 .cfa: sp 0 + .ra: lr
STACK CFI 737c .cfa: sp 8 + .ra: .cfa -4 + ^ r3: .cfa -8 + ^
STACK CFI INIT 739c 24 .cfa: sp 0 + .ra: lr
STACK CFI 73a0 .cfa: sp 8 + .ra: .cfa -4 + ^ r3: .cfa -8 + ^
STACK CFI INIT 73c0 24 .cfa: sp 0 + .ra: lr
STACK CFI 73c4 .cfa: sp 8 + .ra: .cfa -4 + ^ r3: .cfa -8 + ^
STACK CFI INIT 73e4 24 .cfa: sp 0 + .ra: lr
STACK CFI 73e8 .cfa: sp 8 + .ra: .cfa -4 + ^ r3: .cfa -8 + ^
STACK CFI INIT 7408 24 .cfa: sp 0 + .ra: lr
STACK CFI 740c .cfa: sp 8 + .ra: .cfa -4 + ^ r3: .cfa -8 + ^
STACK CFI INIT 742c 1c .cfa: sp 0 + .ra: lr
STACK CFI 7434 .cfa: sp 8 + .ra: .cfa -4 + ^ r3: .cfa -8 + ^
STACK CFI INIT 7448 24 .cfa: sp 0 + .ra: lr
STACK CFI 744c .cfa: sp 8 + .ra: .cfa -4 + ^ r3: .cfa -8 + ^
STACK CFI INIT 746c 28 .cfa: sp 0 + .ra: lr
STACK CFI 7470 .cfa: sp 8 + .ra: .cfa -4 + ^ r3: .cfa -8 + ^
STACK CFI INIT 7494 28 .cfa: sp 0 + .ra: lr
STACK CFI 7498 .cfa: sp 8 + .ra: .cfa -4 + ^ r3: .cfa -8 + ^
STACK CFI INIT 74bc 28 .cfa: sp 0 + .ra: lr
STACK CFI 74c0 .cfa: sp 8 + .ra: .cfa -4 + ^ r3: .cfa -8 + ^
STACK CFI INIT 74e4 30 .cfa: sp 0 + .ra: lr
STACK CFI 74e8 .cfa: sp 8 + .ra: .cfa -4 + ^ r4: .cfa -8 + ^
STACK CFI 74f4 .cfa: sp 16 +
STACK CFI INIT 7514 24 .cfa: sp 0 + .ra: lr
STACK CFI 7518 .cfa: sp 8 + .ra: .cfa -4 + ^ r3: .cfa -8 + ^
STACK CFI INIT 7538 24 .cfa: sp 0 + .ra: lr
STACK CFI 753c .cfa: sp 8 + .ra: .cfa -4 + ^ r3: .cfa -8 + ^
STACK CFI INIT 755c 24 .cfa: sp 0 + .ra: lr
STACK CFI 7560 .cfa: sp 8 + .ra: .cfa -4 + ^ r3: .cfa -8 + ^
STACK CFI INIT 7580 24 .cfa: sp 0 + .ra: lr
STACK CFI 7584 .cfa: sp 8 + .ra: .cfa -4 + ^ r3: .cfa -8 + ^
STACK CFI INIT 75a4 1c .cfa: sp 0 + .ra: lr
STACK CFI 75ac .cfa: sp 8 + .ra: .cfa -4 + ^ r3: .cfa -8 + ^
STACK CFI INIT 75c0 1c .cfa: sp 0 + .ra: lr
STACK CFI 75c8 .cfa: sp 8 + .ra: .cfa -4 + ^ r3: .cfa -8 + ^
STACK CFI INIT 75dc 1c .cfa: sp 0 + .ra: lr
STACK CFI 75e4 .cfa: sp 8 + .ra: .cfa -4 + ^ r3: .cfa -8 + ^
STACK CFI INIT 75f8 28 .cfa: sp 0 + .ra: lr
STACK CFI 75fc .cfa: sp 8 + .ra: .cfa -4 + ^ r3: .cfa -8 + ^
STACK CFI INIT 7620 28 .cfa: sp 0 + .ra: lr
STACK CFI 7624 .cfa: sp 8 + .ra: .cfa -4 + ^ r3: .cfa -8 + ^
STACK CFI INIT 7648 2c .cfa: sp 0 + .ra: lr
STACK CFI 764c .cfa: sp 8 + .ra: .cfa -4 + ^ r3: .cfa -8 + ^
STACK CFI INIT 7674 24 .cfa: sp 0 + .ra: lr
STACK CFI 7678 .cfa: sp 8 + .ra: .cfa -4 + ^ r3: .cfa -8 + ^
STACK CFI INIT 7698 24 .cfa: sp 0 + .ra: lr
STACK CFI 769c .cfa: sp 8 + .ra: .cfa -4 + ^ r3: .cfa -8 + ^
STACK CFI INIT 76bc 24 .cfa: sp 0 + .ra: lr
STACK CFI 76c0 .cfa: sp 8 + .ra: .cfa -4 + ^ r3: .cfa -8 + ^
STACK CFI INIT 76e0 1c .cfa: sp 0 + .ra: lr
STACK CFI 76e8 .cfa: sp 8 + .ra: .cfa -4 + ^ r3: .cfa -8 + ^
STACK CFI INIT 76fc 28 .cfa: sp 0 + .ra: lr
STACK CFI 7700 .cfa: sp 8 + .ra: .cfa -4 + ^ r3: .cfa -8 + ^
STACK CFI INIT 7724 1c .cfa: sp 0 + .ra: lr
STACK CFI 772c .cfa: sp 8 + .ra: .cfa -4 + ^ r3: .cfa -8 + ^
STACK CFI INIT 7740 2c .cfa: sp 0 + .ra: lr
STACK CFI 774c .cfa: sp 8 + .ra: .cfa -4 + ^ r3: .cfa -8 + ^
STACK CFI INIT 776c 2c .cfa: sp 0 + .ra: lr
STACK CFI 7778 .cfa: sp 8 + .ra: .cfa -4 + ^ r3: .cfa -8 + ^
STACK CFI INIT 7798 28 .cfa: sp 0 + .ra: lr
STACK CFI 77a0 .cfa: sp 8 + .ra: .cfa -4 + ^ r3: .cfa -8 + ^
STACK CFI INIT 77c0 34 .cfa: sp 0 + .ra: lr
STACK CFI 77c4 .cfa: sp 8 + .ra: .cfa -4 + ^ r4: .cfa -8 + ^
STACK CFI INIT 77f4 30 .cfa: sp 0 + .ra: lr
STACK CFI 77fc .cfa: sp 8 + .ra: .cfa -4 + ^ r3: .cfa -8 + ^
STACK CFI INIT 7824 2c .cfa: sp 0 + .ra: lr
STACK CFI 7830 .cfa: sp 8 + .ra: .cfa -4 + ^ r3: .cfa -8 + ^
STACK CFI INIT 7850 2c .cfa: sp 0 + .ra: lr
STACK CFI 785c .cfa: sp 8 + .ra: .cfa -4 + ^ r3: .cfa -8 + ^
STACK CFI INIT 787c 2c .cfa: sp 0 + .ra: lr
STACK CFI 7888 .cfa: sp 8 + .ra: .cfa -4 + ^ r3: .cfa -8 + ^
STACK CFI INIT 78a8 2c .cfa: sp 0 + .ra: lr
STACK CFI 78b4 .cfa: sp 8 + .ra: .cfa -4 + ^ r3: .cfa -8 + ^
STACK CFI INIT 78d4 30 .cfa: sp 0 + .ra: lr
STACK CFI 78dc .cfa: sp 8 + .ra: .cfa -4 + ^ r3: .cfa -8 + ^
STACK CFI INIT 7904 2c .cfa: sp 0 + .ra: lr
STACK CFI 7910 .cfa: sp 8 + .ra: .cfa -4 + ^ r3: .cfa -8 + ^
STACK CFI INIT 7930 30 .cfa: sp 0 + .ra: lr
STACK CFI 7938 .cfa: sp 8 + .ra: .cfa -4 + ^ r3: .cfa -8 + ^
STACK CFI INIT 7960 2c .cfa: sp 0 + .ra: lr
STACK CFI 796c .cfa: sp 8 + .ra: .cfa -4 + ^ r3: .cfa -8 + ^
STACK CFI INIT 798c 30 .cfa: sp 0 + .ra: lr
STACK CFI 7994 .cfa: sp 8 + .ra: .cfa -4 + ^ r3: .cfa -8 + ^
STACK CFI INIT 79bc 2c .cfa: sp 0 + .ra: lr
STACK CFI 79c8 .cfa: sp 8 + .ra: .cfa -4 + ^ r3: .cfa -8 + ^
STACK CFI INIT 79e8 34 .cfa: sp 0 + .ra: lr
STACK CFI 79ec .cfa: sp 8 + .ra: .cfa -4 + ^ r4: .cfa -8 + ^
STACK CFI INIT 7a1c 2c .cfa: sp 0 + .ra: lr
STACK CFI 7a28 .cfa: sp 8 + .ra: .cfa -4 + ^ r3: .cfa -8 + ^
STACK CFI INIT 7a48 30 .cfa: sp 0 + .ra: lr
STACK CFI 7a50 .cfa: sp 8 + .ra: .cfa -4 + ^ r3: .cfa -8 + ^
STACK CFI INIT 7a78 2c .cfa: sp 0 + .ra: lr
STACK CFI 7a84 .cfa: sp 8 + .ra: .cfa -4 + ^ r3: .cfa -8 + ^
STACK CFI INIT 7aa4 2c .cfa: sp 0 + .ra: lr
STACK CFI 7ab0 .cfa: sp 8 + .ra: .cfa -4 + ^ r3: .cfa -8 + ^
STACK CFI INIT 7ad0 30 .cfa: sp 0 + .ra: lr
STACK CFI 7ad8 .cfa: sp 8 + .ra: .cfa -4 + ^ r3: .cfa -8 + ^
STACK CFI INIT 7b00 34 .cfa: sp 0 + .ra: lr
STACK CFI 7b04 .cfa: sp 8 + .ra: .cfa -4 + ^ r4: .cfa -8 + ^
STACK CFI INIT 7b34 2c .cfa: sp 0 + .ra: lr
STACK CFI 7b40 .cfa: sp 8 + .ra: .cfa -4 + ^ r3: .cfa -8 + ^
STACK CFI INIT 7b60 30 .cfa: sp 0 + .ra: lr
STACK CFI 7b68 .cfa: sp 8 + .ra: .cfa -4 + ^ r3: .cfa -8 + ^
STACK CFI INIT 7b90 2c .cfa: sp 0 + .ra: lr
STACK CFI 7b9c .cfa: sp 8 + .ra: .cfa -4 + ^ r3: .cfa -8 + ^
STACK CFI INIT 7bbc 2c .cfa: sp 0 + .ra: lr
STACK CFI 7bc8 .cfa: sp 8 + .ra: .cfa -4 + ^ r3: .cfa -8 + ^
STACK CFI INIT 7be8 2c .cfa: sp 0 + .ra: lr
STACK CFI 7bf4 .cfa: sp 8 + .ra: .cfa -4 + ^ r3: .cfa -8 + ^
STACK CFI INIT 7c14 34 .cfa: sp 0 + .ra: lr
STACK CFI 7c18 .cfa: sp 8 + .ra: .cfa -4 + ^ r4: .cfa -8 + ^
STACK CFI INIT 7c48 2c .cfa: sp 0 + .ra: lr
STACK CFI 7c54 .cfa: sp 8 + .ra: .cfa -4 + ^ r3: .cfa -8 + ^
STACK CFI INIT 7c74 30 .cfa: sp 0 + .ra: lr
STACK CFI 7c7c .cfa: sp 8 + .ra: .cfa -4 + ^ r3: .cfa -8 + ^
STACK CFI INIT 7ca4 2c .cfa: sp 0 + .ra: lr
STACK CFI 7cb0 .cfa: sp 8 + .ra: .cfa -4 + ^ r3: .cfa -8 + ^
STACK CFI INIT 7cd0 2c .cfa: sp 0 + .ra: lr
STACK CFI 7cdc .cfa: sp 8 + .ra: .cfa -4 + ^ r3: .cfa -8 + ^
STACK CFI INIT 7cfc 30 .cfa: sp 0 + .ra: lr
STACK CFI 7d04 .cfa: sp 8 + .ra: .cfa -4 + ^ r3: .cfa -8 + ^
STACK CFI INIT 7d2c 34 .cfa: sp 0 + .ra: lr
STACK CFI 7d30 .cfa: sp 8 + .ra: .cfa -4 + ^ r4: .cfa -8 + ^
STACK CFI INIT 7d60 2c .cfa: sp 0 + .ra: lr
STACK CFI 7d6c .cfa: sp 8 + .ra: .cfa -4 + ^ r3: .cfa -8 + ^
STACK CFI INIT 7d8c 30 .cfa: sp 0 + .ra: lr
STACK CFI 7d94 .cfa: sp 8 + .ra: .cfa -4 + ^ r3: .cfa -8 + ^
STACK CFI INIT 7dbc 2c .cfa: sp 0 + .ra: lr
STACK CFI 7dc8 .cfa: sp 8 + .ra: .cfa -4 + ^ r3: .cfa -8 + ^
STACK CFI INIT 7de8 38 .cfa: sp 0 + .ra: lr
STACK CFI 7df0 .cfa: sp 8 + .ra: .cfa -4 + ^ r3: .cfa -8 + ^
STACK CFI INIT 7e20 2c .cfa: sp 0 + .ra: lr
STACK CFI 7e2c .cfa: sp 8 + .ra: .cfa -4 + ^ r3: .cfa -8 + ^
STACK CFI INIT 7e4c 38 .cfa: sp 0 + .ra: lr
STACK CFI 7e54 .cfa: sp 8 + .ra: .cfa -4 + ^ r3: .cfa -8 + ^
STACK CFI INIT 7e84 2c .cfa: sp 0 + .ra: lr
STACK CFI 7e90 .cfa: sp 8 + .ra: .cfa -4 + ^ r3: .cfa -8 + ^
STACK CFI INIT 7eb0 2c .cfa: sp 0 + .ra: lr
STACK CFI 7ebc .cfa: sp 8 + .ra: .cfa -4 + ^ r3: .cfa -8 + ^
STACK CFI INIT 7edc 2c .cfa: sp 0 + .ra: lr
STACK CFI 7ee8 .cfa: sp 8 + .ra: .cfa -4 + ^ r3: .cfa -8 + ^
STACK CFI INIT 7f08 2c .cfa: sp 0 + .ra: lr
STACK CFI 7f14 .cfa: sp 8 + .ra: .cfa -4 + ^ r3: .cfa -8 + ^
STACK CFI INIT 7f34 34 .cfa: sp 0 + .ra: lr
STACK CFI 7f38 .cfa: sp 8 + .ra: .cfa -4 + ^ r4: .cfa -8 + ^
STACK CFI INIT 7f68 3c .cfa: sp 0 + .ra: lr
STACK CFI 7f74 .cfa: sp 8 + .ra: .cfa -4 + ^ r3: .cfa -8 + ^
STACK CFI INIT 7fa4 2c .cfa: sp 0 + .ra: lr
STACK CFI 7fb0 .cfa: sp 8 + .ra: .cfa -4 + ^ r3: .cfa -8 + ^
STACK CFI INIT 7fd0 28 .cfa: sp 0 + .ra: lr
STACK CFI 7fd4 .cfa: sp 8 + .ra: .cfa -4 + ^ r4: .cfa -8 + ^
STACK CFI 7fd8 .cfa: sp 16 +
STACK CFI INIT 7ff8 14 .cfa: sp 0 + .ra: lr
STACK CFI 7ffc .cfa: sp 8 + .ra: .cfa -4 + ^ r3: .cfa -8 + ^
STACK CFI INIT 800c 14 .cfa: sp 0 + .ra: lr
STACK CFI 8010 .cfa: sp 8 + .ra: .cfa -4 + ^ r3: .cfa -8 + ^
STACK CFI INIT 8020 14 .cfa: sp 0 + .ra: lr
STACK CFI 8024 .cfa: sp 8 + .ra: .cfa -4 + ^ r3: .cfa -8 + ^
STACK CFI INIT 8034 3c .cfa: sp 0 + .ra: lr
STACK CFI 803c .cfa: sp 8 + .ra: .cfa -4 + ^ r4: .cfa -8 + ^
STACK CFI INIT 8070 78 .cfa: sp 0 + .ra: lr
STACK CFI 807c .cfa: sp 12 + .ra: .cfa -4 + ^ r4: .cfa -12 + ^ r5: .cfa -8 + ^
STACK CFI 8088 .cfa: sp 32 +
STACK CFI INIT 80e8 38 .cfa: sp 0 + .ra: lr
STACK CFI 80f0 .cfa: sp 8 + .ra: .cfa -4 + ^ r4: .cfa -8 + ^
STACK CFI 80f4 .cfa: sp 16 +
STACK CFI INIT 8120 1c .cfa: sp 0 + .ra: lr
STACK CFI 8124 .cfa: sp 8 + .ra: .cfa -4 + ^ r3: .cfa -8 + ^
STACK CFI INIT 813c 1c .cfa: sp 0 + .ra: lr
STACK CFI 8140 .cfa: sp 8 + .ra: .cfa -4 + ^ r3: .cfa -8 + ^
STACK CFI INIT 8158 24 .cfa: sp 0 + .ra: lr
STACK CFI 815c .cfa: sp 8 + .ra: .cfa -4 + ^ r3: .cfa -8 + ^
STACK CFI INIT 8f2c 28 .cfa: sp 0 + .ra: lr
STACK CFI 8f34 .cfa: sp 8 + .ra: .cfa -4 + ^ r4: .cfa -8 + ^
STACK CFI INIT 8f54 28 .cfa: sp 0 + .ra: lr
STACK CFI 8f5c .cfa: sp 8 + .ra: .cfa -4 + ^ r4: .cfa -8 + ^
STACK CFI INIT 8f7c 28 .cfa: sp 0 + .ra: lr
STACK CFI 8f84 .cfa: sp 8 + .ra: .cfa -4 + ^ r4: .cfa -8 + ^
STACK CFI INIT 8fa4 28 .cfa: sp 0 + .ra: lr
STACK CFI 8fac .cfa: sp 8 + .ra: .cfa -4 + ^ r4: .cfa -8 + ^
STACK CFI INIT 8fcc 28 .cfa: sp 0 + .ra: lr
STACK CFI 8fd4 .cfa: sp 8 + .ra: .cfa -4 + ^ r4: .cfa -8 + ^
STACK CFI INIT 8ff4 28 .cfa: sp 0 + .ra: lr
STACK CFI 8ffc .cfa: sp 8 + .ra: .cfa -4 + ^ r4: .cfa -8 + ^
STACK CFI INIT 817c 1c .cfa: sp 0 + .ra: lr
STACK CFI 8180 .cfa: sp 8 + .ra: .cfa -4 + ^ r4: .cfa -8 + ^
STACK CFI INIT 8198 1c .cfa: sp 0 + .ra: lr
STACK CFI 819c .cfa: sp 8 + .ra: .cfa -4 + ^ r4: .cfa -8 + ^
STACK CFI INIT 81b4 6c .cfa: sp 0 + .ra: lr
STACK CFI 81c0 .cfa: sp 8 + .ra: .cfa -4 + ^ r4: .cfa -8 + ^
STACK CFI 81c8 .cfa: sp 16 +
STACK CFI INIT 8220 6c .cfa: sp 0 + .ra: lr
STACK CFI 822c .cfa: sp 8 + .ra: .cfa -4 + ^ r4: .cfa -8 + ^
STACK CFI 8234 .cfa: sp 16 +
STACK CFI INIT 828c 6c .cfa: sp 0 + .ra: lr
STACK CFI 8298 .cfa: sp 8 + .ra: .cfa -4 + ^ r4: .cfa -8 + ^
STACK CFI 82a0 .cfa: sp 16 +
STACK CFI INIT 82f8 84 .cfa: sp 0 + .ra: lr
STACK CFI 8300 .cfa: sp 8 + .ra: .cfa -4 + ^ r4: .cfa -8 + ^
STACK CFI INIT 837c 20 .cfa: sp 0 + .ra: lr
STACK CFI 8388 .cfa: sp 8 + .ra: .cfa -4 + ^ r3: .cfa -8 + ^
STACK CFI INIT 839c 10 .cfa: sp 0 + .ra: lr
STACK CFI 83a0 .cfa: sp 8 + .ra: .cfa -4 + ^ r3: .cfa -8 + ^
STACK CFI INIT 83ac 10 .cfa: sp 0 + .ra: lr
STACK CFI 83b0 .cfa: sp 8 + .ra: .cfa -4 + ^ r3: .cfa -8 + ^
STACK CFI INIT 83bc 10 .cfa: sp 0 + .ra: lr
STACK CFI 83c0 .cfa: sp 8 + .ra: .cfa -4 + ^ r3: .cfa -8 + ^
STACK CFI INIT 83cc 10 .cfa: sp 0 + .ra: lr
STACK CFI 83d0 .cfa: sp 8 + .ra: .cfa -4 + ^ r3: .cfa -8 + ^
STACK CFI INIT 83dc 10 .cfa: sp 0 + .ra: lr
STACK CFI 83e0 .cfa: sp 8 + .ra: .cfa -4 + ^ r3: .cfa -8 + ^
STACK CFI INIT 83ec 3c .cfa: sp 0 + .ra: lr
STACK CFI 83f0 .cfa: sp 4 + .ra: .cfa -4 + ^
STACK CFI 83f4 .cfa: sp 16 +
STACK CFI INIT 8428 20 .cfa: sp 0 + .ra: lr
STACK CFI 842c .cfa: sp 8 + .ra: .cfa -4 + ^ r3: .cfa -8 + ^
STACK CFI INIT 8448 34 .cfa: sp 0 + .ra: lr
STACK CFI 844c .cfa: sp 4 + .ra: .cfa -4 + ^
STACK CFI 8450 .cfa: sp 16 +
STACK CFI INIT 847c 1c .cfa: sp 0 + .ra: lr
STACK CFI 8480 .cfa: sp 8 + .ra: .cfa -4 + ^ r3: .cfa -8 + ^
STACK CFI INIT 8498 34 .cfa: sp 0 + .ra: lr
STACK CFI 849c .cfa: sp 4 + .ra: .cfa -4 + ^
STACK CFI 84a0 .cfa: sp 16 +
STACK CFI INIT 84cc 1c .cfa: sp 0 + .ra: lr
STACK CFI 84d0 .cfa: sp 8 + .ra: .cfa -4 + ^ r3: .cfa -8 + ^
STACK CFI INIT 84e8 30 .cfa: sp 0 + .ra: lr
STACK CFI 84ec .cfa: sp 4 + .ra: .cfa -4 + ^
STACK CFI 84f0 .cfa: sp 16 +
STACK CFI INIT 8518 20 .cfa: sp 0 + .ra: lr
STACK CFI 851c .cfa: sp 8 + .ra: .cfa -4 + ^ r3: .cfa -8 + ^
STACK CFI INIT 8538 18 .cfa: sp 0 + .ra: lr
STACK CFI 8544 .cfa: sp 8 + .ra: .cfa -4 + ^ r3: .cfa -8 + ^
STACK CFI INIT 8550 10 .cfa: sp 0 + .ra: lr
STACK CFI 8554 .cfa: sp 8 + .ra: .cfa -4 + ^ r3: .cfa -8 + ^
STACK CFI INIT 8560 18 .cfa: sp 0 + .ra: lr
STACK CFI 856c .cfa: sp 8 + .ra: .cfa -4 + ^ r3: .cfa -8 + ^
STACK CFI INIT 8578 20 .cfa: sp 0 + .ra: lr
STACK CFI 857c .cfa: sp 8 + .ra: .cfa -4 + ^ r3: .cfa -8 + ^
STACK CFI INIT 8598 20 .cfa: sp 0 + .ra: lr
STACK CFI 859c .cfa: sp 8 + .ra: .cfa -4 + ^ r3: .cfa -8 + ^
STACK CFI INIT 85b8 18 .cfa: sp 0 + .ra: lr
STACK CFI 85c4 .cfa: sp 8 + .ra: .cfa -4 + ^ r3: .cfa -8 + ^
STACK CFI INIT 85d0 18 .cfa: sp 0 + .ra: lr
STACK CFI 85dc .cfa: sp 8 + .ra: .cfa -4 + ^ r3: .cfa -8 + ^
STACK CFI INIT 85e8 1c .cfa: sp 0 + .ra: lr
STACK CFI 85ec .cfa: sp 8 + .ra: .cfa -4 + ^ r3: .cfa -8 + ^
STACK CFI INIT 8604 20 .cfa: sp 0 + .ra: lr
STACK CFI 8608 .cfa: sp 8 + .ra: .cfa -4 + ^ r3: .cfa -8 + ^
STACK CFI INIT 8624 1c .cfa: sp 0 + .ra: lr
STACK CFI 8628 .cfa: sp 8 + .ra: .cfa -4 + ^ r3: .cfa -8 + ^
STACK CFI INIT 8640 44 .cfa: sp 0 + .ra: lr
STACK CFI 8644 .cfa: sp 8 + .ra: .cfa -4 + ^ r4: .cfa -8 + ^
STACK CFI 8648 .cfa: sp 24 +
STACK CFI INIT 8684 18 .cfa: sp 0 + .ra: lr
STACK CFI 8690 .cfa: sp 8 + .ra: .cfa -4 + ^ r3: .cfa -8 + ^
STACK CFI INIT 869c 20 .cfa: sp 0 + .ra: lr
STACK CFI 86a0 .cfa: sp 8 + .ra: .cfa -4 + ^ r3: .cfa -8 + ^
STACK CFI INIT 86bc 38 .cfa: sp 0 + .ra: lr
STACK CFI 86c0 .cfa: sp 4 + .ra: .cfa -4 + ^
STACK CFI 86c4 .cfa: sp 16 +
STACK CFI INIT 86f4 30 .cfa: sp 0 + .ra: lr
STACK CFI 86f8 .cfa: sp 4 + .ra: .cfa -4 + ^
STACK CFI 86fc .cfa: sp 16 +
STACK CFI INIT 8724 3c .cfa: sp 0 + .ra: lr
STACK CFI 8728 .cfa: sp 4 + .ra: .cfa -4 + ^
STACK CFI 872c .cfa: sp 24 +
STACK CFI INIT 8760 18 .cfa: sp 0 + .ra: lr
STACK CFI 876c .cfa: sp 8 + .ra: .cfa -4 + ^ r3: .cfa -8 + ^
STACK CFI INIT 8778 20 .cfa: sp 0 + .ra: lr
STACK CFI 877c .cfa: sp 8 + .ra: .cfa -4 + ^ r3: .cfa -8 + ^
STACK CFI INIT 8798 1c .cfa: sp 0 + .ra: lr
STACK CFI 879c .cfa: sp 8 + .ra: .cfa -4 + ^ r3: .cfa -8 + ^
STACK CFI INIT 87b4 120 .cfa: sp 0 + .ra: lr
STACK CFI 87b8 .cfa: sp 16 + .ra: .cfa -4 + ^ r4: .cfa -16 + ^ r5: .cfa -12 + ^ r6: .cfa -8 + ^
STACK CFI 87cc .cfa: sp 32 +
STACK CFI INIT 88d4 60 .cfa: sp 0 + .ra: lr
STACK CFI 88d8 .cfa: sp 32 + .ra: .cfa -4 + ^ r10: .cfa -8 + ^ r4: .cfa -32 + ^ r5: .cfa -28 + ^ r6: .cfa -24 + ^ r7: .cfa -20 + ^ r8: .cfa -16 + ^ r9: .cfa -12 + ^
STACK CFI 88dc .cfa: sp 48 +
STACK CFI INIT 8934 1c .cfa: sp 0 + .ra: lr
STACK CFI 8938 .cfa: sp 8 + .ra: .cfa -4 + ^ r3: .cfa -8 + ^
STACK CFI INIT 8950 54 .cfa: sp 0 + .ra: lr
STACK CFI 8958 .cfa: sp 16 + .ra: .cfa -4 + ^ r3: .cfa -16 + ^ r4: .cfa -12 + ^ r5: .cfa -8 + ^
STACK CFI INIT 89a4 50 .cfa: sp 0 + .ra: lr
STACK CFI 89a8 .cfa: sp 24 + .ra: .cfa -4 + ^ r4: .cfa -24 + ^ r5: .cfa -20 + ^ r6: .cfa -16 + ^ r7: .cfa -12 + ^ r8: .cfa -8 + ^
STACK CFI 89b8 .cfa: sp 32 +
STACK CFI INIT 89f4 1c .cfa: sp 0 + .ra: lr
STACK CFI 89f8 .cfa: sp 8 + .ra: .cfa -4 + ^ r3: .cfa -8 + ^
STACK CFI INIT 8a10 54 .cfa: sp 0 + .ra: lr
STACK CFI 8a18 .cfa: sp 16 + .ra: .cfa -4 + ^ r3: .cfa -16 + ^ r4: .cfa -12 + ^ r5: .cfa -8 + ^
STACK CFI INIT 8a64 50 .cfa: sp 0 + .ra: lr
STACK CFI 8a68 .cfa: sp 24 + .ra: .cfa -4 + ^ r4: .cfa -24 + ^ r5: .cfa -20 + ^ r6: .cfa -16 + ^ r7: .cfa -12 + ^ r8: .cfa -8 + ^
STACK CFI 8a78 .cfa: sp 32 +
STACK CFI INIT 8ab4 1c .cfa: sp 0 + .ra: lr
STACK CFI 8ab8 .cfa: sp 8 + .ra: .cfa -4 + ^ r3: .cfa -8 + ^
STACK CFI INIT 8ad0 54 .cfa: sp 0 + .ra: lr
STACK CFI 8ad8 .cfa: sp 16 + .ra: .cfa -4 + ^ r3: .cfa -16 + ^ r4: .cfa -12 + ^ r5: .cfa -8 + ^
STACK CFI INIT 8b24 50 .cfa: sp 0 + .ra: lr
STACK CFI 8b28 .cfa: sp 24 + .ra: .cfa -4 + ^ r4: .cfa -24 + ^ r5: .cfa -20 + ^ r6: .cfa -16 + ^ r7: .cfa -12 + ^ r8: .cfa -8 + ^
STACK CFI 8b38 .cfa: sp 32 +
STACK CFI INIT 8b74 1c .cfa: sp 0 + .ra: lr
STACK CFI 8b78 .cfa: sp 8 + .ra: .cfa -4 + ^ r3: .cfa -8 + ^
STACK CFI INIT 8b90 54 .cfa: sp 0 + .ra: lr
STACK CFI 8b98 .cfa: sp 16 + .ra: .cfa -4 + ^ r3: .cfa -16 + ^ r4: .cfa -12 + ^ r5: .cfa -8 + ^
STACK CFI INIT 8be4 50 .cfa: sp 0 + .ra: lr
STACK CFI 8be8 .cfa: sp 24 + .ra: .cfa -4 + ^ r4: .cfa -24 + ^ r5: .cfa -20 + ^ r6: .cfa -16 + ^ r7: .cfa -12 + ^ r8: .cfa -8 + ^
STACK CFI 8bf8 .cfa: sp 32 +
STACK CFI INIT 8c34 1c .cfa: sp 0 + .ra: lr
STACK CFI 8c38 .cfa: sp 8 + .ra: .cfa -4 + ^ r3: .cfa -8 + ^
STACK CFI INIT 8c50 54 .cfa: sp 0 + .ra: lr
STACK CFI 8c58 .cfa: sp 16 + .ra: .cfa -4 + ^ r3: .cfa -16 + ^ r4: .cfa -12 + ^ r5: .cfa -8 + ^
STACK CFI INIT 8ca4 50 .cfa: sp 0 + .ra: lr
STACK CFI 8ca8 .cfa: sp 24 + .ra: .cfa -4 + ^ r4: .cfa -24 + ^ r5: .cfa -20 + ^ r6: .cfa -16 + ^ r7: .cfa -12 + ^ r8: .cfa -8 + ^
STACK CFI 8cb8 .cfa: sp 32 +
STACK CFI INIT 8cf4 1c .cfa: sp 0 + .ra: lr
STACK CFI 8cf8 .cfa: sp 8 + .ra: .cfa -4 + ^ r3: .cfa -8 + ^
STACK CFI INIT 8d10 64 .cfa: sp 0 + .ra: lr
STACK CFI 8d18 .cfa: sp 16 + .ra: .cfa -4 + ^ r4: .cfa -16 + ^ r5: .cfa -12 + ^ r6: .cfa -8 + ^
STACK CFI 8d1c .cfa: sp 24 +
STACK CFI INIT 8d74 68 .cfa: sp 0 + .ra: lr
STACK CFI 8d78 .cfa: sp 36 + .ra: .cfa -4 + ^ r10: .cfa -12 + ^ r11: .cfa -8 + ^ r4: .cfa -36 + ^ r5: .cfa -32 + ^ r6: .cfa -28 + ^ r7: .cfa -24 + ^ r8: .cfa -20 + ^ r9: .cfa -16 + ^
STACK CFI 8d7c .cfa: sp 56 +
STACK CFI INIT 8ddc 1c .cfa: sp 0 + .ra: lr
STACK CFI 8de0 .cfa: sp 8 + .ra: .cfa -4 + ^ r3: .cfa -8 + ^
STACK CFI INIT 8df8 54 .cfa: sp 0 + .ra: lr
STACK CFI 8e00 .cfa: sp 16 + .ra: .cfa -4 + ^ r3: .cfa -16 + ^ r4: .cfa -12 + ^ r5: .cfa -8 + ^
STACK CFI INIT 8e4c 50 .cfa: sp 0 + .ra: lr
STACK CFI 8e50 .cfa: sp 24 + .ra: .cfa -4 + ^ r4: .cfa -24 + ^ r5: .cfa -20 + ^ r6: .cfa -16 + ^ r7: .cfa -12 + ^ r8: .cfa -8 + ^
STACK CFI 8e60 .cfa: sp 32 +
STACK CFI INIT 901c 44 .cfa: sp 0 + .ra: lr
STACK CFI 9028 .cfa: sp 4 + r4: .cfa -4 + ^
STACK CFI INIT 9060 11c .cfa: sp 0 + .ra: lr
STACK CFI 9068 .cfa: sp 24 + .ra: .cfa -4 + ^ r4: .cfa -24 + ^ r5: .cfa -20 + ^ r6: .cfa -16 + ^ r7: .cfa -12 + ^ r8: .cfa -8 + ^
STACK CFI 9070 .cfa: sp 40 +
STACK CFI INIT 917c 74 .cfa: sp 0 + .ra: lr
STACK CFI 9184 .cfa: sp 8 + .ra: .cfa -4 + ^ r3: .cfa -8 + ^
STACK CFI INIT 91f0 e0 .cfa: sp 0 + .ra: lr
STACK CFI 91f4 .cfa: sp 24 + .ra: .cfa -4 + ^ r3: .cfa -24 + ^ r4: .cfa -20 + ^ r5: .cfa -16 + ^ r6: .cfa -12 + ^ r7: .cfa -8 + ^
STACK CFI INIT 92d0 668 .cfa: sp 0 + .ra: lr
STACK CFI 92d8 .cfa: sp 36 + .ra: .cfa -4 + ^ r10: .cfa -12 + ^ r11: .cfa -8 + ^ r4: .cfa -36 + ^ r5: .cfa -32 + ^ r6: .cfa -28 + ^ r7: .cfa -24 + ^ r8: .cfa -20 + ^ r9: .cfa -16 + ^
STACK CFI 92e0 .cfa: sp 128 +
STACK CFI INIT 9938 8 .cfa: sp 0 + .ra: lr
STACK CFI INIT 9940 e0 .cfa: sp 0 + .ra: lr
STACK CFI 9944 .cfa: sp 8 + .ra: .cfa -4 + ^ r4: .cfa -8 + ^
STACK CFI INIT 9a20 d8 .cfa: sp 0 + .ra: lr
STACK CFI 9a24 .cfa: sp 8 + .ra: .cfa -4 + ^ r3: .cfa -8 + ^
STACK CFI INIT 9af8 18 .cfa: sp 0 + .ra: lr
STACK CFI 9afc .cfa: sp 8 + .ra: .cfa -4 + ^ r3: .cfa -8 + ^
STACK CFI INIT 9b10 a4 .cfa: sp 0 + .ra: lr
STACK CFI 9b18 .cfa: sp 16 + .ra: .cfa -4 + ^ r4: .cfa -16 + ^ r5: .cfa -12 + ^ r6: .cfa -8 + ^
STACK CFI INIT 9bb4 70 .cfa: sp 0 + .ra: lr
STACK CFI INIT 9c24 2c .cfa: sp 0 + .ra: lr
STACK CFI 9c28 .cfa: sp 8 + .ra: .cfa -4 + ^ r4: .cfa -8 + ^
STACK CFI INIT 9c50 168 .cfa: sp 0 + .ra: lr
STACK CFI 9c54 .cfa: sp 36 + .ra: .cfa -4 + ^ r10: .cfa -12 + ^ r11: .cfa -8 + ^ r4: .cfa -36 + ^ r5: .cfa -32 + ^ r6: .cfa -28 + ^ r7: .cfa -24 + ^ r8: .cfa -20 + ^ r9: .cfa -16 + ^
STACK CFI 9c58 .cfa: sp 64 +
STACK CFI INIT 9db8 34 .cfa: sp 0 + .ra: lr
STACK CFI 9dbc .cfa: sp 8 + .ra: .cfa -4 + ^ r4: .cfa -8 + ^
STACK CFI INIT 9dec 3c .cfa: sp 0 + .ra: lr
STACK CFI 9df0 .cfa: sp 16 + .ra: .cfa -4 + ^ r3: .cfa -16 + ^ r4: .cfa -12 + ^ r5: .cfa -8 + ^
STACK CFI INIT 9e28 48 .cfa: sp 0 + .ra: lr
STACK CFI 9e2c .cfa: sp 8 + .ra: .cfa -4 + ^ r3: .cfa -8 + ^
STACK CFI INIT 9e70 90 .cfa: sp 0 + .ra: lr
STACK CFI 9e78 .cfa: sp 8 + .ra: .cfa -4 + ^ r4: .cfa -8 + ^
STACK CFI INIT 714c 5c .cfa: sp 0 + .ra: lr
STACK CFI 7150 .cfa: sp 8 + .ra: .cfa -4 + ^ r4: .cfa -8 + ^
STACK CFI INIT 9f00 5c .cfa: sp 0 + .ra: lr
STACK CFI 9f08 .cfa: sp 12 + .ra: .cfa -4 + ^ r4: .cfa -12 + ^ r5: .cfa -8 + ^
STACK CFI 9f0c .cfa: sp 32 +
STACK CFI INIT 9f5c 14 .cfa: sp 0 + .ra: lr
STACK CFI INIT 9f70 28 .cfa: sp 0 + .ra: lr
STACK CFI 9f78 .cfa: sp 8 + .ra: .cfa -4 + ^ r4: .cfa -8 + ^
STACK CFI INIT 9f98 1c .cfa: sp 0 + .ra: lr
STACK CFI 9f9c .cfa: sp 8 + .ra: .cfa -4 + ^ r4: .cfa -8 + ^
STACK CFI INIT 9fb4 2c .cfa: sp 0 + .ra: lr
STACK CFI 9fb8 .cfa: sp 16 + .ra: .cfa -4 + ^ r3: .cfa -16 + ^ r4: .cfa -12 + ^ r5: .cfa -8 + ^
STACK CFI INIT 9fe0 44 .cfa: sp 0 + .ra: lr
STACK CFI 9fe4 .cfa: sp 24 + .ra: .cfa -4 + ^ r3: .cfa -24 + ^ r4: .cfa -20 + ^ r5: .cfa -16 + ^ r6: .cfa -12 + ^ r7: .cfa -8 + ^
STACK CFI INIT a024 78 .cfa: sp 0 + .ra: lr
STACK CFI a028 .cfa: sp 16 + .ra: .cfa -4 + ^ r4: .cfa -16 + ^ r5: .cfa -12 + ^ r6: .cfa -8 + ^
STACK CFI a02c .cfa: sp 24 +
STACK CFI INIT a09c 60 .cfa: sp 0 + .ra: lr
STACK CFI a0a4 .cfa: sp 8 + .ra: .cfa -4 + ^ r4: .cfa -8 + ^
STACK CFI INIT a0fc b8 .cfa: sp 0 + .ra: lr
STACK CFI a100 .cfa: sp 32 + .ra: .cfa -4 + ^ r3: .cfa -32 + ^ r4: .cfa -28 + ^ r5: .cfa -24 + ^ r6: .cfa -20 + ^ r7: .cfa -16 + ^ r8: .cfa -12 + ^ r9: .cfa -8 + ^
STACK CFI INIT a1b4 b0 .cfa: sp 0 + .ra: lr
STACK CFI a1b8 .cfa: sp 8 + .ra: .cfa -4 + ^ r4: .cfa -8 + ^
STACK CFI INIT a264 18 .cfa: sp 0 + .ra: lr
STACK CFI INIT a27c 28 .cfa: sp 0 + .ra: lr
STACK CFI a284 .cfa: sp 8 + .ra: .cfa -4 + ^ r4: .cfa -8 + ^
STACK CFI INIT a2a4 18 .cfa: sp 0 + .ra: lr
STACK CFI INIT a2bc 18 .cfa: sp 0 + .ra: lr
STACK CFI INIT a2d4 10 .cfa: sp 0 + .ra: lr
STACK CFI INIT a2e4 10 .cfa: sp 0 + .ra: lr
STACK CFI INIT a2f4 1c .cfa: sp 0 + .ra: lr
STACK CFI a2f8 .cfa: sp 8 + .ra: .cfa -4 + ^ r4: .cfa -8 + ^
STACK CFI INIT a310 1c .cfa: sp 0 + .ra: lr
STACK CFI a314 .cfa: sp 8 + .ra: .cfa -4 + ^ r4: .cfa -8 + ^
STACK CFI INIT a32c 1c .cfa: sp 0 + .ra: lr
STACK CFI a330 .cfa: sp 8 + .ra: .cfa -4 + ^ r4: .cfa -8 + ^
STACK CFI INIT a348 1c .cfa: sp 0 + .ra: lr
STACK CFI a34c .cfa: sp 8 + .ra: .cfa -4 + ^ r4: .cfa -8 + ^
STACK CFI INIT a364 c .cfa: sp 0 + .ra: lr
STACK CFI INIT a380 144 .cfa: sp 0 + .ra: lr
STACK CFI a384 .cfa: sp 20 + .ra: .cfa -4 + ^ r4: .cfa -20 + ^ r5: .cfa -16 + ^ r6: .cfa -12 + ^ r7: .cfa -8 + ^
STACK CFI a390 .cfa: sp 32 +
STACK CFI INIT a4c4 b4 .cfa: sp 0 + .ra: lr
STACK CFI a4c8 .cfa: sp 8 + .ra: .cfa -4 + ^ r4: .cfa -8 + ^
STACK CFI INIT a578 b4 .cfa: sp 0 + .ra: lr
STACK CFI a57c .cfa: sp 8 + .ra: .cfa -4 + ^ r3: .cfa -8 + ^
STACK CFI INIT a62c 34 .cfa: sp 0 + .ra: lr
STACK CFI a630 .cfa: sp 8 + .ra: .cfa -4 + ^ r3: .cfa -8 + ^
STACK CFI INIT a660 18 .cfa: sp 0 + .ra: lr
STACK CFI a664 .cfa: sp 8 + .ra: .cfa -4 + ^ r3: .cfa -8 + ^
STACK CFI INIT a678 c .cfa: sp 0 + .ra: lr
STACK CFI a67c .cfa: sp 8 + .ra: .cfa -4 + ^ r3: .cfa -8 + ^
STACK CFI INIT a684 18 .cfa: sp 0 + .ra: lr
STACK CFI a688 .cfa: sp 8 + .ra: .cfa -4 + ^ r3: .cfa -8 + ^
STACK CFI INIT a69c 1c .cfa: sp 0 + .ra: lr
STACK CFI INIT a6b8 1c .cfa: sp 0 + .ra: lr
STACK CFI INIT a6d4 10 .cfa: sp 0 + .ra: lr
STACK CFI INIT a6e4 10 .cfa: sp 0 + .ra: lr
STACK CFI INIT a6f4 28 .cfa: sp 0 + .ra: lr
STACK CFI a6fc .cfa: sp 8 + .ra: .cfa -4 + ^ r4: .cfa -8 + ^
STACK CFI INIT a71c 28 .cfa: sp 0 + .ra: lr
STACK CFI a724 .cfa: sp 8 + .ra: .cfa -4 + ^ r4: .cfa -8 + ^
STACK CFI INIT a744 30 .cfa: sp 0 + .ra: lr
STACK CFI a74c .cfa: sp 8 + .ra: .cfa -4 + ^ r4: .cfa -8 + ^
STACK CFI INIT a774 30 .cfa: sp 0 + .ra: lr
STACK CFI a77c .cfa: sp 8 + .ra: .cfa -4 + ^ r4: .cfa -8 + ^
STACK CFI INIT a7a4 3c .cfa: sp 0 + .ra: lr
STACK CFI a7a8 .cfa: sp 8 + .ra: .cfa -4 + ^ r3: .cfa -8 + ^
STACK CFI INIT a7e0 3c .cfa: sp 0 + .ra: lr
STACK CFI a7e4 .cfa: sp 8 + .ra: .cfa -4 + ^ r3: .cfa -8 + ^
STACK CFI INIT a81c e0 .cfa: sp 0 + .ra: lr
STACK CFI a820 .cfa: sp 16 + .ra: .cfa -4 + ^ r3: .cfa -16 + ^ r4: .cfa -12 + ^ r5: .cfa -8 + ^
STACK CFI INIT a8fc a0 .cfa: sp 0 + .ra: lr
STACK CFI a904 .cfa: sp 8 + .ra: .cfa -4 + ^ r4: .cfa -8 + ^
STACK CFI INIT a99c dc .cfa: sp 0 + .ra: lr
STACK CFI a9a0 .cfa: sp 8 + .ra: .cfa -4 + ^ r4: .cfa -8 + ^
STACK CFI INIT aa78 a8 .cfa: sp 0 + .ra: lr
STACK CFI aa80 .cfa: sp 8 + .ra: .cfa -4 + ^ r4: .cfa -8 + ^
STACK CFI INIT 71a8 18 .cfa: sp 0 + .ra: lr
STACK CFI INIT ab20 10 .cfa: sp 0 + .ra: lr
STACK CFI INIT ab30 1c .cfa: sp 0 + .ra: lr
STACK CFI INIT ab4c 20 .cfa: sp 0 + .ra: lr
STACK CFI ab58 .cfa: sp 8 + .ra: .cfa -4 + ^ r3: .cfa -8 + ^
STACK CFI INIT ab6c 20 .cfa: sp 0 + .ra: lr
STACK CFI ab78 .cfa: sp 8 + .ra: .cfa -4 + ^ r3: .cfa -8 + ^
STACK CFI INIT ab8c 10 .cfa: sp 0 + .ra: lr
STACK CFI INIT ab9c 28 .cfa: sp 0 + .ra: lr
STACK CFI aba4 .cfa: sp 8 + .ra: .cfa -4 + ^ r4: .cfa -8 + ^
STACK CFI INIT abc4 1c .cfa: sp 0 + .ra: lr
STACK CFI abc8 .cfa: sp 8 + .ra: .cfa -4 + ^ r4: .cfa -8 + ^
STACK CFI INIT abe0 8 .cfa: sp 0 + .ra: lr
STACK CFI INIT abe8 c .cfa: sp 0 + .ra: lr
STACK CFI INIT abf4 8 .cfa: sp 0 + .ra: lr
STACK CFI INIT abfc c .cfa: sp 0 + .ra: lr
STACK CFI INIT ac08 c .cfa: sp 0 + .ra: lr
STACK CFI INIT ac14 8 .cfa: sp 0 + .ra: lr
STACK CFI INIT ac1c 10 .cfa: sp 0 + .ra: lr
STACK CFI INIT ac2c 24 .cfa: sp 0 + .ra: lr
STACK CFI ac30 .cfa: sp 8 + .ra: .cfa -4 + ^ r3: .cfa -8 + ^
STACK CFI INIT ac50 2c .cfa: sp 0 + .ra: lr
STACK CFI ac54 .cfa: sp 8 + .ra: .cfa -4 + ^ r4: .cfa -8 + ^
STACK CFI INIT ac7c 18 .cfa: sp 0 + .ra: lr
STACK CFI INIT ac94 2c .cfa: sp 0 + .ra: lr
STACK CFI INIT acc0 18 .cfa: sp 0 + .ra: lr
STACK CFI INIT acd8 18 .cfa: sp 0 + .ra: lr
STACK CFI INIT acf0 1c .cfa: sp 0 + .ra: lr
STACK CFI INIT ad0c 1c .cfa: sp 0 + .ra: lr
STACK CFI INIT ad28 1c .cfa: sp 0 + .ra: lr
STACK CFI INIT ad44 1c .cfa: sp 0 + .ra: lr
STACK CFI INIT ad60 1c .cfa: sp 0 + .ra: lr
STACK CFI INIT ad7c 8 .cfa: sp 0 + .ra: lr
STACK CFI INIT ad84 10 .cfa: sp 0 + .ra: lr
STACK CFI INIT ad94 18 .cfa: sp 0 + .ra: lr
STACK CFI INIT adac 20 .cfa: sp 0 + .ra: lr
STACK CFI INIT adcc 8 .cfa: sp 0 + .ra: lr
STACK CFI INIT add4 10 .cfa: sp 0 + .ra: lr
STACK CFI INIT ade4 14 .cfa: sp 0 + .ra: lr
STACK CFI INIT adf8 c .cfa: sp 0 + .ra: lr
STACK CFI INIT ae04 8 .cfa: sp 0 + .ra: lr
STACK CFI INIT ae0c 10 .cfa: sp 0 + .ra: lr
STACK CFI INIT ae1c 14 .cfa: sp 0 + .ra: lr
STACK CFI INIT ae30 c .cfa: sp 0 + .ra: lr
STACK CFI INIT ae3c c .cfa: sp 0 + .ra: lr
STACK CFI INIT ae48 8 .cfa: sp 0 + .ra: lr
STACK CFI INIT ae50 c .cfa: sp 0 + .ra: lr
STACK CFI INIT ae5c 14 .cfa: sp 0 + .ra: lr
STACK CFI INIT ae70 c .cfa: sp 0 + .ra: lr
STACK CFI INIT ae7c 2c .cfa: sp 0 + .ra: lr
STACK CFI ae84 .cfa: sp 8 + .ra: .cfa -4 + ^ r3: .cfa -8 + ^
STACK CFI INIT aea8 8 .cfa: sp 0 + .ra: lr
STACK CFI INIT aeb0 14 .cfa: sp 0 + .ra: lr
STACK CFI INIT aec4 6c .cfa: sp 0 + .ra: lr
STACK CFI aec8 .cfa: sp 16 + .ra: .cfa -4 + ^ r3: .cfa -16 + ^ r4: .cfa -12 + ^ r5: .cfa -8 + ^
STACK CFI INIT af30 34 .cfa: sp 0 + .ra: lr
STACK CFI INIT af64 14 .cfa: sp 0 + .ra: lr
STACK CFI af68 .cfa: sp 8 + .ra: .cfa -4 + ^ r4: .cfa -8 + ^
STACK CFI INIT af78 14 .cfa: sp 0 + .ra: lr
STACK CFI af7c .cfa: sp 8 + .ra: .cfa -4 + ^ r4: .cfa -8 + ^
STACK CFI INIT af8c 8 .cfa: sp 0 + .ra: lr
STACK CFI INIT af94 4 .cfa: sp 0 + .ra: lr
STACK CFI INIT af98 9c .cfa: sp 0 + .ra: lr
STACK CFI af9c .cfa: sp 40 + .ra: .cfa -4 + ^ r10: .cfa -12 + ^ r11: .cfa -8 + ^ r3: .cfa -40 + ^ r4: .cfa -36 + ^ r5: .cfa -32 + ^ r6: .cfa -28 + ^ r7: .cfa -24 + ^ r8: .cfa -20 + ^ r9: .cfa -16 + ^
STACK CFI INIT b034 c .cfa: sp 0 + .ra: lr
STACK CFI INIT b040 30 .cfa: sp 0 + .ra: lr
STACK CFI b044 .cfa: sp 16 + .ra: .cfa -4 + ^ r4: .cfa -16 + ^ r5: .cfa -12 + ^ r6: .cfa -8 + ^
STACK CFI INIT b070 3c .cfa: sp 0 + .ra: lr
STACK CFI b074 .cfa: sp 8 + .ra: .cfa -4 + ^ r4: .cfa -8 + ^
STACK CFI INIT b0ac 64 .cfa: sp 0 + .ra: lr
STACK CFI b0b0 .cfa: sp 24 + .ra: .cfa -4 + ^ r3: .cfa -24 + ^ r4: .cfa -20 + ^ r5: .cfa -16 + ^ r6: .cfa -12 + ^ r7: .cfa -8 + ^
STACK CFI INIT b110 c .cfa: sp 0 + .ra: lr
STACK CFI INIT b11c 30 .cfa: sp 0 + .ra: lr
STACK CFI b120 .cfa: sp 16 + .ra: .cfa -4 + ^ r4: .cfa -16 + ^ r5: .cfa -12 + ^ r6: .cfa -8 + ^
STACK CFI INIT b14c 44 .cfa: sp 0 + .ra: lr
STACK CFI INIT b190 58 .cfa: sp 0 + .ra: lr
STACK CFI b194 .cfa: sp 24 + .ra: .cfa -4 + ^ r4: .cfa -24 + ^ r5: .cfa -20 + ^ r6: .cfa -16 + ^ r7: .cfa -12 + ^ r8: .cfa -8 + ^
STACK CFI INIT b1e8 c .cfa: sp 0 + .ra: lr
STACK CFI INIT b1f4 30 .cfa: sp 0 + .ra: lr
STACK CFI b1f8 .cfa: sp 16 + .ra: .cfa -4 + ^ r4: .cfa -16 + ^ r5: .cfa -12 + ^ r6: .cfa -8 + ^
STACK CFI INIT b224 4 .cfa: sp 0 + .ra: lr
STACK CFI INIT b228 68 .cfa: sp 0 + .ra: lr
STACK CFI b22c .cfa: sp 24 + .ra: .cfa -4 + ^ r3: .cfa -24 + ^ r4: .cfa -20 + ^ r5: .cfa -16 + ^ r6: .cfa -12 + ^ r7: .cfa -8 + ^
STACK CFI INIT b290 c .cfa: sp 0 + .ra: lr
STACK CFI INIT b29c 30 .cfa: sp 0 + .ra: lr
STACK CFI b2a0 .cfa: sp 16 + .ra: .cfa -4 + ^ r4: .cfa -16 + ^ r5: .cfa -12 + ^ r6: .cfa -8 + ^
STACK CFI INIT b2cc 4 .cfa: sp 0 + .ra: lr
STACK CFI INIT b2d0 58 .cfa: sp 0 + .ra: lr
STACK CFI b2d4 .cfa: sp 24 + .ra: .cfa -4 + ^ r4: .cfa -24 + ^ r5: .cfa -20 + ^ r6: .cfa -16 + ^ r7: .cfa -12 + ^ r8: .cfa -8 + ^
STACK CFI INIT b328 c .cfa: sp 0 + .ra: lr
STACK CFI INIT b334 30 .cfa: sp 0 + .ra: lr
STACK CFI b338 .cfa: sp 16 + .ra: .cfa -4 + ^ r4: .cfa -16 + ^ r5: .cfa -12 + ^ r6: .cfa -8 + ^
STACK CFI INIT b364 4c .cfa: sp 0 + .ra: lr
STACK CFI INIT b3b0 64 .cfa: sp 0 + .ra: lr
STACK CFI b3b4 .cfa: sp 24 + .ra: .cfa -4 + ^ r3: .cfa -24 + ^ r4: .cfa -20 + ^ r5: .cfa -16 + ^ r6: .cfa -12 + ^ r7: .cfa -8 + ^
STACK CFI INIT b414 c .cfa: sp 0 + .ra: lr
STACK CFI INIT b420 30 .cfa: sp 0 + .ra: lr
STACK CFI b424 .cfa: sp 16 + .ra: .cfa -4 + ^ r4: .cfa -16 + ^ r5: .cfa -12 + ^ r6: .cfa -8 + ^
STACK CFI INIT b450 44 .cfa: sp 0 + .ra: lr
STACK CFI INIT b494 30 .cfa: sp 0 + .ra: lr
STACK CFI b4a0 .cfa: sp 16 + .ra: .cfa -4 + ^ r3: .cfa -16 + ^ r4: .cfa -12 + ^ r5: .cfa -8 + ^
STACK CFI INIT b4c4 60 .cfa: sp 0 + .ra: lr
STACK CFI b4cc .cfa: sp 16 + .ra: .cfa -4 + ^ r3: .cfa -16 + ^ r4: .cfa -12 + ^ r5: .cfa -8 + ^
STACK CFI INIT b524 7c .cfa: sp 0 + .ra: lr
STACK CFI b52c .cfa: sp 16 + .ra: .cfa -4 + ^ r3: .cfa -16 + ^ r4: .cfa -12 + ^ r5: .cfa -8 + ^
STACK CFI INIT b5a0 40 .cfa: sp 0 + .ra: lr
STACK CFI b5a4 .cfa: sp 16 + .ra: .cfa -4 + ^ r4: .cfa -16 + ^ r5: .cfa -12 + ^ r6: .cfa -8 + ^
STACK CFI INIT b5e0 6c .cfa: sp 0 + .ra: lr
STACK CFI b5e4 .cfa: sp 24 + .ra: .cfa -4 + ^ r4: .cfa -24 + ^ r5: .cfa -20 + ^ r6: .cfa -16 + ^ r7: .cfa -12 + ^ r8: .cfa -8 + ^
STACK CFI INIT b64c 5c .cfa: sp 0 + .ra: lr
STACK CFI b654 .cfa: sp 16 + .ra: .cfa -4 + ^ r3: .cfa -16 + ^ r4: .cfa -12 + ^ r5: .cfa -8 + ^
STACK CFI INIT b6a8 8 .cfa: sp 0 + .ra: lr
STACK CFI INIT b6b0 10 .cfa: sp 0 + .ra: lr
STACK CFI INIT b6c0 c .cfa: sp 0 + .ra: lr
STACK CFI INIT b6cc 14 .cfa: sp 0 + .ra: lr
STACK CFI INIT b6e0 c .cfa: sp 0 + .ra: lr
STACK CFI INIT b6ec c .cfa: sp 0 + .ra: lr
STACK CFI INIT b6f8 28 .cfa: sp 0 + .ra: lr
STACK CFI INIT b720 8 .cfa: sp 0 + .ra: lr
STACK CFI INIT b728 84 .cfa: sp 0 + .ra: lr
STACK CFI b730 .cfa: sp 8 + .ra: .cfa -4 + ^ r4: .cfa -8 + ^
STACK CFI INIT b7ac 84 .cfa: sp 0 + .ra: lr
STACK CFI b7b0 .cfa: sp 16 + .ra: .cfa -4 + ^ r4: .cfa -16 + ^ r5: .cfa -12 + ^ r6: .cfa -8 + ^
STACK CFI INIT b830 24 .cfa: sp 0 + .ra: lr
STACK CFI b834 .cfa: sp 8 + .ra: .cfa -4 + ^ r4: .cfa -8 + ^
STACK CFI INIT b854 24 .cfa: sp 0 + .ra: lr
STACK CFI b858 .cfa: sp 8 + .ra: .cfa -4 + ^ r4: .cfa -8 + ^
STACK CFI INIT b878 4 .cfa: sp 0 + .ra: lr
STACK CFI INIT b87c 4 .cfa: sp 0 + .ra: lr
STACK CFI INIT 7100 3c .cfa: sp 0 + .ra: lr
STACK CFI 7104 .cfa: sp 4 + r4: .cfa -4 + ^
STACK CFI INIT b880 18 .cfa: sp 0 + .ra: lr
STACK CFI INIT b898 40 .cfa: sp 0 + .ra: lr
STACK CFI b89c .cfa: sp 8 + .ra: .cfa -4 + ^ r4: .cfa -8 + ^
STACK CFI b8a8 .cfa: sp 16 +
STACK CFI INIT b8d8 164 .cfa: sp 0 + .ra: lr
STACK CFI b8e0 .cfa: sp 36 + .ra: .cfa -4 + ^ r10: .cfa -12 + ^ r11: .cfa -8 + ^ r4: .cfa -36 + ^ r5: .cfa -32 + ^ r6: .cfa -28 + ^ r7: .cfa -24 + ^ r8: .cfa -20 + ^ r9: .cfa -16 + ^
STACK CFI b904 .cfa: sp 48 +
STACK CFI INIT ba3c 50 .cfa: sp 0 + .ra: lr
STACK CFI ba54 .cfa: sp 8 + .ra: .cfa -4 + ^ r4: .cfa -8 + ^
STACK CFI INIT ba8c 14 .cfa: sp 0 + .ra: lr
STACK CFI INIT baa0 28 .cfa: sp 0 + .ra: lr
STACK CFI baa8 .cfa: sp 8 + .ra: .cfa -4 + ^ r4: .cfa -8 + ^
STACK CFI INIT bac8 34 .cfa: sp 0 + .ra: lr
STACK CFI bacc .cfa: sp 16 + .ra: .cfa -4 + ^ r3: .cfa -16 + ^ r4: .cfa -12 + ^ r5: .cfa -8 + ^
STACK CFI INIT bafc 2c .cfa: sp 0 + .ra: lr
STACK CFI bb04 .cfa: sp 8 + .ra: .cfa -4 + ^ r4: .cfa -8 + ^
STACK CFI INIT bb28 2c .cfa: sp 0 + .ra: lr
STACK CFI bb2c .cfa: sp 16 + .ra: .cfa -4 + ^ r3: .cfa -16 + ^ r4: .cfa -12 + ^ r5: .cfa -8 + ^
STACK CFI INIT bb54 28 .cfa: sp 0 + .ra: lr
STACK CFI bb5c .cfa: sp 8 + .ra: .cfa -4 + ^ r4: .cfa -8 + ^
STACK CFI INIT bb7c 30 .cfa: sp 0 + .ra: lr
STACK CFI bb80 .cfa: sp 16 + .ra: .cfa -4 + ^ r3: .cfa -16 + ^ r4: .cfa -12 + ^ r5: .cfa -8 + ^
STACK CFI INIT bbac 48 .cfa: sp 0 + .ra: lr
STACK CFI bbb0 .cfa: sp 16 + .ra: .cfa -4 + ^ r3: .cfa -16 + ^ r4: .cfa -12 + ^ r5: .cfa -8 + ^
STACK CFI INIT bbf4 3c .cfa: sp 0 + .ra: lr
STACK CFI bbf8 .cfa: sp 16 + .ra: .cfa -4 + ^ r3: .cfa -16 + ^ r4: .cfa -12 + ^ r5: .cfa -8 + ^
STACK CFI INIT bc30 14 .cfa: sp 0 + .ra: lr
STACK CFI INIT bc44 44 .cfa: sp 0 + .ra: lr
STACK CFI bc4c .cfa: sp 8 + .ra: .cfa -4 + ^ r4: .cfa -8 + ^
STACK CFI INIT bc88 34 .cfa: sp 0 + .ra: lr
STACK CFI bc8c .cfa: sp 16 + .ra: .cfa -4 + ^ r3: .cfa -16 + ^ r4: .cfa -12 + ^ r5: .cfa -8 + ^
STACK CFI INIT bcbc 40 .cfa: sp 0 + .ra: lr
STACK CFI bcc4 .cfa: sp 16 + .ra: .cfa -4 + ^ r3: .cfa -16 + ^ r4: .cfa -12 + ^ r5: .cfa -8 + ^
STACK CFI INIT bcfc 78 .cfa: sp 0 + .ra: lr
STACK CFI bd00 .cfa: sp 24 + .ra: .cfa -4 + ^ r3: .cfa -24 + ^ r4: .cfa -20 + ^ r5: .cfa -16 + ^ r6: .cfa -12 + ^ r7: .cfa -8 + ^
STACK CFI INIT bd74 2c .cfa: sp 0 + .ra: lr
STACK CFI bd80 .cfa: sp 4 + .ra: .cfa -4 + ^
STACK CFI bd84 .cfa: sp 16 +
STACK CFI INIT bda0 30 .cfa: sp 0 + .ra: lr
STACK CFI bdac .cfa: sp 8 + .ra: .cfa -4 + ^ r4: .cfa -8 + ^
STACK CFI bdb0 .cfa: sp 16 +
STACK CFI INIT bdd0 40 .cfa: sp 0 + .ra: lr
STACK CFI bdd8 .cfa: sp 4 + .ra: .cfa -4 + ^
STACK CFI bddc .cfa: sp 16 +
STACK CFI INIT be10 40 .cfa: sp 0 + .ra: lr
STACK CFI be14 .cfa: sp 12 + .ra: .cfa -4 + ^ r4: .cfa -12 + ^ r5: .cfa -8 + ^
STACK CFI be18 .cfa: sp 24 +
STACK CFI INIT be50 40 .cfa: sp 0 + .ra: lr
STACK CFI be54 .cfa: sp 16 + .ra: .cfa -4 + ^ r4: .cfa -16 + ^ r5: .cfa -12 + ^ r6: .cfa -8 + ^
STACK CFI INIT be90 20 .cfa: sp 0 + .ra: lr
STACK CFI be94 .cfa: sp 4 + r4: .cfa -4 + ^
STACK CFI INIT beb0 2c .cfa: sp 0 + .ra: lr
STACK CFI beb4 .cfa: sp 4 + .ra: .cfa -4 + ^
STACK CFI beb8 .cfa: sp 16 +
STACK CFI INIT bedc 58 .cfa: sp 0 + .ra: lr
STACK CFI bee0 .cfa: sp 24 + .ra: .cfa -4 + ^ r3: .cfa -24 + ^ r4: .cfa -20 + ^ r5: .cfa -16 + ^ r6: .cfa -12 + ^ r7: .cfa -8 + ^
STACK CFI INIT bf34 f4 .cfa: sp 0 + .ra: lr
STACK CFI bf40 .cfa: sp 16 + .ra: .cfa -4 + ^ r4: .cfa -16 + ^ r5: .cfa -12 + ^ r6: .cfa -8 + ^
STACK CFI bf48 .cfa: sp 24 +
STACK CFI INIT c028 28 .cfa: sp 0 + .ra: lr
STACK CFI c02c .cfa: sp 8 + .ra: .cfa -4 + ^ r4: .cfa -8 + ^
STACK CFI c030 .cfa: sp 16 +
STACK CFI INIT c050 40 .cfa: sp 0 + .ra: lr
STACK CFI c058 .cfa: sp 8 + .ra: .cfa -4 + ^ r3: .cfa -8 + ^
STACK CFI INIT c090 28 .cfa: sp 0 + .ra: lr
STACK CFI c094 .cfa: sp 16 + .ra: .cfa -4 + ^ r3: .cfa -16 + ^ r4: .cfa -12 + ^ r5: .cfa -8 + ^
STACK CFI INIT c0b8 18 .cfa: sp 0 + .ra: lr
STACK CFI c0bc .cfa: sp 8 +
STACK CFI INIT c0d0 28 .cfa: sp 0 + .ra: lr
STACK CFI c0d4 .cfa: sp 16 + .ra: .cfa -4 + ^ r3: .cfa -16 + ^ r4: .cfa -12 + ^ r5: .cfa -8 + ^
STACK CFI INIT c0f8 184 .cfa: sp 0 + .ra: lr
STACK CFI c0fc .cfa: sp 24 + .ra: .cfa -4 + ^ r4: .cfa -24 + ^ r5: .cfa -20 + ^ r6: .cfa -16 + ^ r7: .cfa -12 + ^ r8: .cfa -8 + ^
STACK CFI c108 .cfa: sp 32 +
STACK CFI INIT c27c 28 .cfa: sp 0 + .ra: lr
STACK CFI c280 .cfa: sp 4 + r4: .cfa -4 + ^
STACK CFI c284 .cfa: sp 16 +
STACK CFI INIT c2a4 44 .cfa: sp 0 + .ra: lr
STACK CFI c2ac .cfa: sp 8 + .ra: .cfa -4 + ^ r4: .cfa -8 + ^
STACK CFI INIT c2e8 30 .cfa: sp 0 + .ra: lr
STACK CFI c2ec .cfa: sp 16 + .ra: .cfa -4 + ^ r4: .cfa -16 + ^ r5: .cfa -12 + ^ r6: .cfa -8 + ^
STACK CFI INIT c318 c .cfa: sp 0 + .ra: lr
STACK CFI INIT c324 38 .cfa: sp 0 + .ra: lr
STACK CFI c32c .cfa: sp 8 + .ra: .cfa -4 + ^ r4: .cfa -8 + ^
STACK CFI INIT c35c 40 .cfa: sp 0 + .ra: lr
STACK CFI INIT c39c 84 .cfa: sp 0 + .ra: lr
STACK CFI c3a0 .cfa: sp 16 + .ra: .cfa -4 + ^ r3: .cfa -16 + ^ r4: .cfa -12 + ^ r5: .cfa -8 + ^
STACK CFI INIT c420 88 .cfa: sp 0 + .ra: lr
STACK CFI c424 .cfa: sp 16 + .ra: .cfa -4 + ^ r4: .cfa -16 + ^ r5: .cfa -12 + ^ r6: .cfa -8 + ^
STACK CFI c430 .cfa: sp 24 +
STACK CFI INIT c4a8 30 .cfa: sp 0 + .ra: lr
STACK CFI c4ac .cfa: sp 8 + .ra: .cfa -4 + ^ r3: .cfa -8 + ^
STACK CFI INIT c4d8 ac .cfa: sp 0 + .ra: lr
STACK CFI c4dc .cfa: sp 24 + .ra: .cfa -4 + ^ r3: .cfa -24 + ^ r4: .cfa -20 + ^ r5: .cfa -16 + ^ r6: .cfa -12 + ^ r7: .cfa -8 + ^
STACK CFI INIT c584 4 .cfa: sp 0 + .ra: lr
STACK CFI INIT c588 d8 .cfa: sp 0 + .ra: lr
STACK CFI c58c .cfa: sp 24 + .ra: .cfa -4 + ^ r4: .cfa -24 + ^ r5: .cfa -20 + ^ r6: .cfa -16 + ^ r7: .cfa -12 + ^ r8: .cfa -8 + ^
STACK CFI INIT c660 104 .cfa: sp 0 + .ra: lr
STACK CFI c664 .cfa: sp 24 + .ra: .cfa -4 + ^ r3: .cfa -24 + ^ r4: .cfa -20 + ^ r5: .cfa -16 + ^ r6: .cfa -12 + ^ r7: .cfa -8 + ^
STACK CFI INIT c764 18 .cfa: sp 0 + .ra: lr
STACK CFI c768 .cfa: sp 8 +
STACK CFI INIT c77c 28 .cfa: sp 0 + .ra: lr
STACK CFI c780 .cfa: sp 16 + .ra: .cfa -4 + ^ r3: .cfa -16 + ^ r4: .cfa -12 + ^ r5: .cfa -8 + ^
STACK CFI INIT c7a4 18 .cfa: sp 0 + .ra: lr
STACK CFI c7a8 .cfa: sp 8 +
STACK CFI INIT c7bc 28 .cfa: sp 0 + .ra: lr
STACK CFI c7c0 .cfa: sp 16 + .ra: .cfa -4 + ^ r3: .cfa -16 + ^ r4: .cfa -12 + ^ r5: .cfa -8 + ^
STACK CFI INIT c7e4 c0 .cfa: sp 0 + .ra: lr
STACK CFI c7e8 .cfa: sp 24 + .ra: .cfa -4 + ^ r3: .cfa -24 + ^ r4: .cfa -20 + ^ r5: .cfa -16 + ^ r6: .cfa -12 + ^ r7: .cfa -8 + ^
STACK CFI INIT c8a4 4c .cfa: sp 0 + .ra: lr
STACK CFI c8b0 .cfa: sp 8 + .ra: .cfa -4 + ^ r4: .cfa -8 + ^
STACK CFI INIT c8f0 8 .cfa: sp 0 + .ra: lr
STACK CFI INIT c8f8 74 .cfa: sp 0 + .ra: lr
STACK CFI c900 .cfa: sp 16 + .ra: .cfa -4 + ^ r4: .cfa -16 + ^ r5: .cfa -12 + ^ r6: .cfa -8 + ^
STACK CFI INIT c96c 78 .cfa: sp 0 + .ra: lr
STACK CFI c974 .cfa: sp 16 + .ra: .cfa -4 + ^ r4: .cfa -16 + ^ r5: .cfa -12 + ^ r6: .cfa -8 + ^
STACK CFI INIT c9e4 58 .cfa: sp 0 + .ra: lr
STACK CFI INIT ca3c 88 .cfa: sp 0 + .ra: lr
STACK CFI ca44 .cfa: sp 8 + .ra: .cfa -4 + ^ r4: .cfa -8 + ^
STACK CFI ca50 .cfa: sp 16 +
STACK CFI INIT cac4 c4 .cfa: sp 0 + .ra: lr
STACK CFI cad0 .cfa: sp 12 + .ra: .cfa -4 + ^ r4: .cfa -12 + ^ r5: .cfa -8 + ^
STACK CFI cae4 .cfa: sp 24 +
STACK CFI INIT cb88 4 .cfa: sp 0 + .ra: lr
STACK CFI INIT cb8c 98 .cfa: sp 0 + .ra: lr
STACK CFI cb90 .cfa: sp 20 + .ra: .cfa -4 + ^ r4: .cfa -20 + ^ r5: .cfa -16 + ^ r6: .cfa -12 + ^ r7: .cfa -8 + ^
STACK CFI cb98 .cfa: sp 32 +
STACK CFI INIT cc24 88 .cfa: sp 0 + .ra: lr
STACK CFI cc2c .cfa: sp 16 + .ra: .cfa -4 + ^ r4: .cfa -16 + ^ r5: .cfa -12 + ^ r6: .cfa -8 + ^
STACK CFI cc44 .cfa: sp 24 +
STACK CFI INIT ccac 54 .cfa: sp 0 + .ra: lr
STACK CFI ccb0 .cfa: sp 12 + .ra: .cfa -4 + ^ r4: .cfa -12 + ^ r5: .cfa -8 + ^
STACK CFI ccbc .cfa: sp 24 +
STACK CFI INIT cd00 90 .cfa: sp 0 + .ra: lr
STACK CFI cd08 .cfa: sp 16 + .ra: .cfa -4 + ^ r4: .cfa -16 + ^ r5: .cfa -12 + ^ r6: .cfa -8 + ^
STACK CFI INIT cd90 28 .cfa: sp 0 + .ra: lr
STACK CFI cd94 .cfa: sp 8 + .ra: .cfa -4 + ^ r4: .cfa -8 + ^
STACK CFI INIT cdb8 c4 .cfa: sp 0 + .ra: lr
STACK CFI cdc4 .cfa: sp 16 + .ra: .cfa -4 + ^ r4: .cfa -16 + ^ r5: .cfa -12 + ^ r6: .cfa -8 + ^
STACK CFI INIT ce7c 60 .cfa: sp 0 + .ra: lr
STACK CFI ce84 .cfa: sp 8 + .ra: .cfa -4 + ^ r4: .cfa -8 + ^
STACK CFI ce90 .cfa: sp 16 +
STACK CFI INIT cedc 34 .cfa: sp 0 + .ra: lr
STACK CFI cee4 .cfa: sp 8 + .ra: .cfa -4 + ^ r4: .cfa -8 + ^
STACK CFI INIT cf10 58 .cfa: sp 0 + .ra: lr
STACK CFI cf18 .cfa: sp 8 + .ra: .cfa -4 + ^ r4: .cfa -8 + ^
STACK CFI INIT cf68 28 .cfa: sp 0 + .ra: lr
STACK CFI cf6c .cfa: sp 8 + .ra: .cfa -4 + ^ r4: .cfa -8 + ^
STACK CFI INIT cf90 c4 .cfa: sp 0 + .ra: lr
STACK CFI cf9c .cfa: sp 16 + .ra: .cfa -4 + ^ r4: .cfa -16 + ^ r5: .cfa -12 + ^ r6: .cfa -8 + ^
STACK CFI INIT d054 28 .cfa: sp 0 + .ra: lr
STACK CFI d058 .cfa: sp 8 + .ra: .cfa -4 + ^ r4: .cfa -8 + ^
STACK CFI INIT d07c 1b4 .cfa: sp 0 + .ra: lr
STACK CFI d080 .cfa: sp 24 + .ra: .cfa -4 + ^ r4: .cfa -24 + ^ r5: .cfa -20 + ^ r6: .cfa -16 + ^ r7: .cfa -12 + ^ r8: .cfa -8 + ^
STACK CFI d08c .cfa: sp 40 +
STACK CFI INIT d230 20 .cfa: sp 0 + .ra: lr
STACK CFI d238 .cfa: sp 4 + .ra: .cfa -4 + ^
STACK CFI d23c .cfa: sp 16 +
STACK CFI INIT d250 48 .cfa: sp 0 + .ra: lr
STACK CFI d258 .cfa: sp 16 + .ra: .cfa -4 + ^ r4: .cfa -16 + ^ r5: .cfa -12 + ^ r6: .cfa -8 + ^
STACK CFI INIT d298 40 .cfa: sp 0 + .ra: lr
STACK CFI d29c .cfa: sp 20 + .ra: .cfa -4 + ^ r4: .cfa -20 + ^ r5: .cfa -16 + ^ r6: .cfa -12 + ^ r7: .cfa -8 + ^
STACK CFI d2a4 .cfa: sp 32 +
STACK CFI INIT d2d8 10 .cfa: sp 0 + .ra: lr
STACK CFI INIT d2e8 2c .cfa: sp 0 + .ra: lr
STACK CFI d2f4 .cfa: sp 4 + .ra: .cfa -4 + ^
STACK CFI d2f8 .cfa: sp 16 +
STACK CFI INIT d314 44 .cfa: sp 0 + .ra: lr
STACK CFI d318 .cfa: sp 20 + .ra: .cfa -4 + ^ r4: .cfa -20 + ^ r5: .cfa -16 + ^ r6: .cfa -12 + ^ r7: .cfa -8 + ^
STACK CFI d320 .cfa: sp 32 +
STACK CFI INIT d358 24 .cfa: sp 0 + .ra: lr
STACK CFI d35c .cfa: sp 4 + r4: .cfa -4 + ^
STACK CFI INIT d37c 24 .cfa: sp 0 + .ra: lr
STACK CFI d380 .cfa: sp 4 + r4: .cfa -4 + ^
STACK CFI INIT d3a0 1c .cfa: sp 0 + .ra: lr
STACK CFI d3a4 .cfa: sp 8 +
STACK CFI INIT d3bc 24 .cfa: sp 0 + .ra: lr
STACK CFI d3c0 .cfa: sp 4 + r4: .cfa -4 + ^
STACK CFI INIT d3e0 24 .cfa: sp 0 + .ra: lr
STACK CFI d3e4 .cfa: sp 4 + r4: .cfa -4 + ^
STACK CFI INIT d404 40 .cfa: sp 0 + .ra: lr
STACK CFI d408 .cfa: sp 16 + .ra: .cfa -4 + ^ r4: .cfa -16 + ^ r5: .cfa -12 + ^ r6: .cfa -8 + ^
STACK CFI INIT d444 3c .cfa: sp 0 + .ra: lr
STACK CFI d448 .cfa: sp 8 + .ra: .cfa -4 + ^ r4: .cfa -8 + ^
STACK CFI d44c .cfa: sp 16 +
STACK CFI INIT d480 28 .cfa: sp 0 + .ra: lr
STACK CFI d484 .cfa: sp 8 + .ra: .cfa -4 + ^ r4: .cfa -8 + ^
STACK CFI INIT d4a8 18 .cfa: sp 0 + .ra: lr
STACK CFI INIT d4c0 18 .cfa: sp 0 + .ra: lr
STACK CFI INIT d4d8 18 .cfa: sp 0 + .ra: lr
STACK CFI INIT d4f0 8 .cfa: sp 0 + .ra: lr
STACK CFI INIT d4f8 8 .cfa: sp 0 + .ra: lr
STACK CFI INIT d500 8 .cfa: sp 0 + .ra: lr
STACK CFI INIT d508 28 .cfa: sp 0 + .ra: lr
STACK CFI d510 .cfa: sp 8 + .ra: .cfa -4 + ^ r4: .cfa -8 + ^
STACK CFI INIT d530 4c .cfa: sp 0 + .ra: lr
STACK CFI d538 .cfa: sp 8 + .ra: .cfa -4 + ^ r3: .cfa -8 + ^
STACK CFI INIT d57c 4 .cfa: sp 0 + .ra: lr
STACK CFI INIT d580 28 .cfa: sp 0 + .ra: lr
STACK CFI d588 .cfa: sp 8 + .ra: .cfa -4 + ^ r4: .cfa -8 + ^
STACK CFI INIT d5a8 1c .cfa: sp 0 + .ra: lr
STACK CFI d5ac .cfa: sp 8 + .ra: .cfa -4 + ^ r4: .cfa -8 + ^
STACK CFI INIT d5c4 64 .cfa: sp 0 + .ra: lr
STACK CFI d5c8 .cfa: sp 16 + .ra: .cfa -4 + ^ r4: .cfa -16 + ^ r5: .cfa -12 + ^ r6: .cfa -8 + ^
STACK CFI d5cc .cfa: sp 32 +
STACK CFI INIT d628 e0 .cfa: sp 0 + .ra: lr
STACK CFI d62c .cfa: sp 36 + .ra: .cfa -4 + ^ r10: .cfa -12 + ^ r11: .cfa -8 + ^ r4: .cfa -36 + ^ r5: .cfa -32 + ^ r6: .cfa -28 + ^ r7: .cfa -24 + ^ r8: .cfa -20 + ^ r9: .cfa -16 + ^
STACK CFI d630 .cfa: sp 56 +
STACK CFI INIT d708 40 .cfa: sp 0 + .ra: lr
STACK CFI d70c .cfa: sp 24 + .ra: .cfa -4 + ^ r3: .cfa -24 + ^ r4: .cfa -20 + ^ r5: .cfa -16 + ^ r6: .cfa -12 + ^ r7: .cfa -8 + ^
STACK CFI INIT d748 4c .cfa: sp 0 + .ra: lr
STACK CFI d74c .cfa: sp 8 + .ra: .cfa -4 + ^ r4: .cfa -8 + ^
STACK CFI INIT d794 4c .cfa: sp 0 + .ra: lr
STACK CFI d798 .cfa: sp 8 + .ra: .cfa -4 + ^ r4: .cfa -8 + ^
STACK CFI INIT d7e0 4c .cfa: sp 0 + .ra: lr
STACK CFI d7e4 .cfa: sp 8 + .ra: .cfa -4 + ^ r4: .cfa -8 + ^
STACK CFI INIT d82c 4c .cfa: sp 0 + .ra: lr
STACK CFI d830 .cfa: sp 8 + .ra: .cfa -4 + ^ r4: .cfa -8 + ^
STACK CFI INIT d878 88 .cfa: sp 0 + .ra: lr
STACK CFI d87c .cfa: sp 16 + .ra: .cfa -4 + ^ r4: .cfa -16 + ^ r5: .cfa -12 + ^ r6: .cfa -8 + ^
STACK CFI d884 .cfa: sp 32 +
STACK CFI INIT d900 88 .cfa: sp 0 + .ra: lr
STACK CFI d904 .cfa: sp 16 + .ra: .cfa -4 + ^ r4: .cfa -16 + ^ r5: .cfa -12 + ^ r6: .cfa -8 + ^
STACK CFI d90c .cfa: sp 32 +
STACK CFI INIT d988 88 .cfa: sp 0 + .ra: lr
STACK CFI d98c .cfa: sp 16 + .ra: .cfa -4 + ^ r4: .cfa -16 + ^ r5: .cfa -12 + ^ r6: .cfa -8 + ^
STACK CFI d994 .cfa: sp 32 +
STACK CFI INIT da10 88 .cfa: sp 0 + .ra: lr
STACK CFI da14 .cfa: sp 16 + .ra: .cfa -4 + ^ r4: .cfa -16 + ^ r5: .cfa -12 + ^ r6: .cfa -8 + ^
STACK CFI da1c .cfa: sp 32 +
STACK CFI INIT da98 88 .cfa: sp 0 + .ra: lr
STACK CFI da9c .cfa: sp 16 + .ra: .cfa -4 + ^ r4: .cfa -16 + ^ r5: .cfa -12 + ^ r6: .cfa -8 + ^
STACK CFI daa4 .cfa: sp 32 +
STACK CFI INIT db20 88 .cfa: sp 0 + .ra: lr
STACK CFI db24 .cfa: sp 16 + .ra: .cfa -4 + ^ r4: .cfa -16 + ^ r5: .cfa -12 + ^ r6: .cfa -8 + ^
STACK CFI db2c .cfa: sp 32 +
STACK CFI INIT dba8 88 .cfa: sp 0 + .ra: lr
STACK CFI dbac .cfa: sp 16 + .ra: .cfa -4 + ^ r4: .cfa -16 + ^ r5: .cfa -12 + ^ r6: .cfa -8 + ^
STACK CFI dbb4 .cfa: sp 32 +
STACK CFI INIT dc30 88 .cfa: sp 0 + .ra: lr
STACK CFI dc34 .cfa: sp 16 + .ra: .cfa -4 + ^ r4: .cfa -16 + ^ r5: .cfa -12 + ^ r6: .cfa -8 + ^
STACK CFI dc3c .cfa: sp 32 +
STACK CFI INIT dcb8 88 .cfa: sp 0 + .ra: lr
STACK CFI dcbc .cfa: sp 16 + .ra: .cfa -4 + ^ r4: .cfa -16 + ^ r5: .cfa -12 + ^ r6: .cfa -8 + ^
STACK CFI dcc4 .cfa: sp 32 +
STACK CFI INIT dd40 74 .cfa: sp 0 + .ra: lr
STACK CFI dd44 .cfa: sp 16 + .ra: .cfa -4 + ^ r4: .cfa -16 + ^ r5: .cfa -12 + ^ r6: .cfa -8 + ^
STACK CFI dd4c .cfa: sp 32 +
STACK CFI INIT ddb4 b4 .cfa: sp 0 + .ra: lr
STACK CFI ddb8 .cfa: sp 20 + .ra: .cfa -4 + ^ r4: .cfa -20 + ^ r5: .cfa -16 + ^ r6: .cfa -12 + ^ r7: .cfa -8 + ^
STACK CFI ddc0 .cfa: sp 32 +
STACK CFI INIT de68 b4 .cfa: sp 0 + .ra: lr
STACK CFI de6c .cfa: sp 20 + .ra: .cfa -4 + ^ r4: .cfa -20 + ^ r5: .cfa -16 + ^ r6: .cfa -12 + ^ r7: .cfa -8 + ^
STACK CFI de74 .cfa: sp 40 +
STACK CFI INIT df1c 4c .cfa: sp 0 + .ra: lr
STACK CFI df20 .cfa: sp 8 + .ra: .cfa -4 + ^ r4: .cfa -8 + ^
STACK CFI INIT df68 48 .cfa: sp 0 + .ra: lr
STACK CFI df6c .cfa: sp 16 + .ra: .cfa -4 + ^ r3: .cfa -16 + ^ r4: .cfa -12 + ^ r5: .cfa -8 + ^
STACK CFI INIT dfb0 10 .cfa: sp 0 + .ra: lr
STACK CFI INIT dfc0 28 .cfa: sp 0 + .ra: lr
STACK CFI dfc8 .cfa: sp 8 + .ra: .cfa -4 + ^ r4: .cfa -8 + ^
STACK CFI INIT dfe8 30 .cfa: sp 0 + .ra: lr
STACK CFI dff0 .cfa: sp 8 + .ra: .cfa -4 + ^ r4: .cfa -8 + ^
STACK CFI INIT e018 4 .cfa: sp 0 + .ra: lr
STACK CFI INIT e01c 10 .cfa: sp 0 + .ra: lr
STACK CFI INIT e02c 28 .cfa: sp 0 + .ra: lr
STACK CFI e034 .cfa: sp 8 + .ra: .cfa -4 + ^ r4: .cfa -8 + ^
STACK CFI INIT e054 30 .cfa: sp 0 + .ra: lr
STACK CFI e05c .cfa: sp 8 + .ra: .cfa -4 + ^ r4: .cfa -8 + ^
STACK CFI INIT e084 28 .cfa: sp 0 + .ra: lr
STACK CFI e08c .cfa: sp 8 + .ra: .cfa -4 + ^ r4: .cfa -8 + ^
STACK CFI INIT e0ac 30 .cfa: sp 0 + .ra: lr
STACK CFI e0b4 .cfa: sp 8 + .ra: .cfa -4 + ^ r4: .cfa -8 + ^
STACK CFI INIT e0dc 28 .cfa: sp 0 + .ra: lr
STACK CFI e0e4 .cfa: sp 8 + .ra: .cfa -4 + ^ r4: .cfa -8 + ^
STACK CFI INIT e104 30 .cfa: sp 0 + .ra: lr
STACK CFI e10c .cfa: sp 8 + .ra: .cfa -4 + ^ r4: .cfa -8 + ^
STACK CFI INIT e134 48 .cfa: sp 0 + .ra: lr
STACK CFI e13c .cfa: sp 8 + .ra: .cfa -4 + ^ r4: .cfa -8 + ^
STACK CFI INIT e17c 1c .cfa: sp 0 + .ra: lr
STACK CFI e180 .cfa: sp 8 + .ra: .cfa -4 + ^ r4: .cfa -8 + ^
STACK CFI INIT e198 80 .cfa: sp 0 + .ra: lr
STACK CFI e1a8 .cfa: sp 8 + .ra: .cfa -4 + ^ r4: .cfa -8 + ^
STACK CFI e1ac .cfa: sp 16 +
STACK CFI INIT e218 f4 .cfa: sp 0 + .ra: lr
STACK CFI e224 .cfa: sp 8 + .ra: .cfa -4 + ^ r4: .cfa -8 + ^
STACK CFI e230 .cfa: sp 16 +
STACK CFI INIT e30c 94 .cfa: sp 0 + .ra: lr
STACK CFI e310 .cfa: sp 16 + .ra: .cfa -4 + ^ r4: .cfa -16 + ^ r5: .cfa -12 + ^ r6: .cfa -8 + ^
STACK CFI INIT e3a0 28 .cfa: sp 0 + .ra: lr
STACK CFI e3a8 .cfa: sp 8 + .ra: .cfa -4 + ^ r4: .cfa -8 + ^
STACK CFI INIT e3c8 e0 .cfa: sp 0 + .ra: lr
STACK CFI e3cc .cfa: sp 28 + .ra: .cfa -4 + ^ r4: .cfa -28 + ^ r5: .cfa -24 + ^ r6: .cfa -20 + ^ r7: .cfa -16 + ^ r8: .cfa -12 + ^ r9: .cfa -8 + ^
STACK CFI e3d8 .cfa: sp 48 +
STACK CFI INIT e4a8 58 .cfa: sp 0 + .ra: lr
STACK CFI e4ac .cfa: sp 8 + .ra: .cfa -4 + ^ r4: .cfa -8 + ^
STACK CFI INIT e500 54 .cfa: sp 0 + .ra: lr
STACK CFI e504 .cfa: sp 8 + .ra: .cfa -4 + ^ r3: .cfa -8 + ^
STACK CFI INIT e554 10 .cfa: sp 0 + .ra: lr
STACK CFI INIT e564 28 .cfa: sp 0 + .ra: lr
STACK CFI e56c .cfa: sp 8 + .ra: .cfa -4 + ^ r4: .cfa -8 + ^
STACK CFI INIT e58c 1c .cfa: sp 0 + .ra: lr
STACK CFI e590 .cfa: sp 8 + .ra: .cfa -4 + ^ r4: .cfa -8 + ^
STACK CFI INIT e5a8 1b4 .cfa: sp 0 + .ra: lr
STACK CFI e5b0 .cfa: sp 20 + .ra: .cfa -4 + ^ r4: .cfa -20 + ^ r5: .cfa -16 + ^ r6: .cfa -12 + ^ r7: .cfa -8 + ^
STACK CFI e5bc .cfa: sp 32 +
STACK CFI INIT e75c 1d0 .cfa: sp 0 + .ra: lr
STACK CFI e764 .cfa: sp 12 + r4: .cfa -12 + ^ r5: .cfa -8 + ^ r6: .cfa -4 + ^
STACK CFI INIT e92c 6c .cfa: sp 0 + .ra: lr
STACK CFI e938 .cfa: sp 12 + r4: .cfa -12 + ^ r5: .cfa -8 + ^ r6: .cfa -4 + ^
STACK CFI INIT e998 13c .cfa: sp 0 + .ra: lr
STACK CFI e99c .cfa: sp 32 + .ra: .cfa -4 + ^ r3: .cfa -32 + ^ r4: .cfa -28 + ^ r5: .cfa -24 + ^ r6: .cfa -20 + ^ r7: .cfa -16 + ^ r8: .cfa -12 + ^ r9: .cfa -8 + ^
STACK CFI INIT ead4 58 .cfa: sp 0 + .ra: lr
STACK CFI INIT eb2c f4 .cfa: sp 0 + .ra: lr
STACK CFI eb30 .cfa: sp 24 + .ra: .cfa -4 + ^ r4: .cfa -24 + ^ r5: .cfa -20 + ^ r6: .cfa -16 + ^ r7: .cfa -12 + ^ r8: .cfa -8 + ^
STACK CFI INIT ec20 244 .cfa: sp 0 + .ra: lr
STACK CFI ec28 .cfa: sp 24 + r4: .cfa -24 + ^ r5: .cfa -20 + ^ r6: .cfa -16 + ^ r7: .cfa -12 + ^ r8: .cfa -8 + ^ r9: .cfa -4 + ^
STACK CFI INIT ee64 5c .cfa: sp 0 + .ra: lr
STACK CFI ee6c .cfa: sp 16 + .ra: .cfa -4 + ^ r4: .cfa -16 + ^ r5: .cfa -12 + ^ r6: .cfa -8 + ^
STACK CFI INIT eec0 7c .cfa: sp 0 + .ra: lr
STACK CFI eec8 .cfa: sp 8 + r4: .cfa -8 + ^ r5: .cfa -4 + ^
STACK CFI INIT ef3c 60 .cfa: sp 0 + .ra: lr
STACK CFI ef48 .cfa: sp 8 + .ra: .cfa -4 + ^ r4: .cfa -8 + ^
STACK CFI INIT ef9c 54 .cfa: sp 0 + .ra: lr
STACK CFI efa4 .cfa: sp 8 + .ra: .cfa -4 + ^ r4: .cfa -8 + ^
STACK CFI INIT eff0 80 .cfa: sp 0 + .ra: lr
STACK CFI eff4 .cfa: sp 16 + .ra: .cfa -4 + ^ r3: .cfa -16 + ^ r4: .cfa -12 + ^ r5: .cfa -8 + ^
STACK CFI INIT f070 34 .cfa: sp 0 + .ra: lr
STACK CFI f074 .cfa: sp 8 + .ra: .cfa -4 + ^ r3: .cfa -8 + ^
STACK CFI INIT f0a4 f8 .cfa: sp 0 + .ra: lr
STACK CFI f0a8 .cfa: sp 16 + .ra: .cfa -4 + ^ r4: .cfa -16 + ^ r5: .cfa -12 + ^ r6: .cfa -8 + ^
STACK CFI INIT f19c 9c .cfa: sp 0 + .ra: lr
STACK CFI f1a4 .cfa: sp 16 + .ra: .cfa -4 + ^ r3: .cfa -16 + ^ r4: .cfa -12 + ^ r5: .cfa -8 + ^
STACK CFI INIT f238 88 .cfa: sp 0 + .ra: lr
STACK CFI INIT f2c0 19c .cfa: sp 0 + .ra: lr
STACK CFI f2c4 .cfa: sp 16 + .ra: .cfa -4 + ^ r3: .cfa -16 + ^ r4: .cfa -12 + ^ r5: .cfa -8 + ^
STACK CFI INIT f45c cc .cfa: sp 0 + .ra: lr
STACK CFI f464 .cfa: sp 24 + .ra: .cfa -4 + ^ r4: .cfa -24 + ^ r5: .cfa -20 + ^ r6: .cfa -16 + ^ r7: .cfa -12 + ^ r8: .cfa -8 + ^
STACK CFI INIT f528 158 .cfa: sp 0 + .ra: lr
STACK CFI f52c .cfa: sp 24 + .ra: .cfa -4 + ^ r3: .cfa -24 + ^ r4: .cfa -20 + ^ r5: .cfa -16 + ^ r6: .cfa -12 + ^ r7: .cfa -8 + ^
STACK CFI INIT f680 170 .cfa: sp 0 + .ra: lr
STACK CFI f688 .cfa: sp 16 + .ra: .cfa -4 + ^ r4: .cfa -16 + ^ r5: .cfa -12 + ^ r6: .cfa -8 + ^
STACK CFI f690 .cfa: sp 24 +
STACK CFI INIT f7f0 4b0 .cfa: sp 0 + .ra: lr
STACK CFI f7f8 .cfa: sp 24 + .ra: .cfa -4 + ^ r4: .cfa -24 + ^ r5: .cfa -20 + ^ r6: .cfa -16 + ^ r7: .cfa -12 + ^ r8: .cfa -8 + ^
STACK CFI f800 .cfa: sp 32 +
STACK CFI INIT fca0 b88 .cfa: sp 0 + .ra: lr
STACK CFI fca8 .cfa: sp 20 + .ra: .cfa -4 + ^ r4: .cfa -20 + ^ r5: .cfa -16 + ^ r6: .cfa -12 + ^ r7: .cfa -8 + ^
STACK CFI fcb0 .cfa: sp 32 +
STACK CFI INIT 10828 108 .cfa: sp 0 + .ra: lr
STACK CFI 10830 .cfa: sp 12 + .ra: .cfa -4 + ^ r4: .cfa -12 + ^ r5: .cfa -8 + ^
STACK CFI 10838 .cfa: sp 24 +
STACK CFI INIT 10930 68 .cfa: sp 0 + .ra: lr
STACK CFI 10938 .cfa: sp 16 + .ra: .cfa -4 + ^ r4: .cfa -16 + ^ r5: .cfa -12 + ^ r6: .cfa -8 + ^
STACK CFI INIT 10998 874 .cfa: sp 0 + .ra: lr
STACK CFI 109a0 .cfa: sp 32 + .ra: .cfa -4 + ^ r10: .cfa -8 + ^ r4: .cfa -32 + ^ r5: .cfa -28 + ^ r6: .cfa -24 + ^ r7: .cfa -20 + ^ r8: .cfa -16 + ^ r9: .cfa -12 + ^
STACK CFI INIT 1120c 194 .cfa: sp 0 + .ra: lr
STACK CFI 11214 .cfa: sp 24 + .ra: .cfa -4 + ^ r4: .cfa -24 + ^ r5: .cfa -20 + ^ r6: .cfa -16 + ^ r7: .cfa -12 + ^ r8: .cfa -8 + ^
STACK CFI INIT 113a0 468 .cfa: sp 0 + .ra: lr
STACK CFI 113a8 .cfa: sp 24 + .ra: .cfa -4 + ^ r4: .cfa -24 + ^ r5: .cfa -20 + ^ r6: .cfa -16 + ^ r7: .cfa -12 + ^ r8: .cfa -8 + ^
STACK CFI INIT 11808 61c .cfa: sp 0 + .ra: lr
STACK CFI 11810 .cfa: sp 24 + .ra: .cfa -4 + ^ r4: .cfa -24 + ^ r5: .cfa -20 + ^ r6: .cfa -16 + ^ r7: .cfa -12 + ^ r8: .cfa -8 + ^
STACK CFI INIT 11e24 ac .cfa: sp 0 + .ra: lr
STACK CFI 11e2c .cfa: sp 16 + .ra: .cfa -4 + ^ r4: .cfa -16 + ^ r5: .cfa -12 + ^ r6: .cfa -8 + ^
STACK CFI 11e38 .cfa: sp 24 +
STACK CFI INIT 11ed0 84 .cfa: sp 0 + .ra: lr
STACK CFI 11ed4 .cfa: sp 24 + .ra: .cfa -4 + ^ r4: .cfa -24 + ^ r5: .cfa -20 + ^ r6: .cfa -16 + ^ r7: .cfa -12 + ^ r8: .cfa -8 + ^
STACK CFI INIT 11f54 3554 .cfa: sp 0 + .ra: lr
STACK CFI 11f5c .cfa: sp 36 + .ra: .cfa -4 + ^ r10: .cfa -12 + ^ r11: .cfa -8 + ^ r4: .cfa -36 + ^ r5: .cfa -32 + ^ r6: .cfa -28 + ^ r7: .cfa -24 + ^ r8: .cfa -20 + ^ r9: .cfa -16 + ^
STACK CFI 11f64 .cfa: sp 128 +
STACK CFI INIT 154a8 20 .cfa: sp 0 + .ra: lr
STACK CFI INIT 154c8 778 .cfa: sp 0 + .ra: lr
STACK CFI 154d0 .cfa: sp 32 + .ra: .cfa -4 + ^ r10: .cfa -8 + ^ r4: .cfa -32 + ^ r5: .cfa -28 + ^ r6: .cfa -24 + ^ r7: .cfa -20 + ^ r8: .cfa -16 + ^ r9: .cfa -12 + ^
STACK CFI INIT 15c40 398 .cfa: sp 0 + .ra: lr
STACK CFI 15c44 .cfa: sp 36 + .ra: .cfa -4 + ^ r10: .cfa -12 + ^ r11: .cfa -8 + ^ r4: .cfa -36 + ^ r5: .cfa -32 + ^ r6: .cfa -28 + ^ r7: .cfa -24 + ^ r8: .cfa -20 + ^ r9: .cfa -16 + ^
STACK CFI 15c4c .cfa: sp 72 +
STACK CFI INIT 15fd8 264 .cfa: sp 0 + .ra: lr
STACK CFI 15fdc .cfa: sp 40 + .ra: .cfa -4 + ^ r10: .cfa -12 + ^ r11: .cfa -8 + ^ r3: .cfa -40 + ^ r4: .cfa -36 + ^ r5: .cfa -32 + ^ r6: .cfa -28 + ^ r7: .cfa -24 + ^ r8: .cfa -20 + ^ r9: .cfa -16 + ^
STACK CFI INIT 1623c 2d8 .cfa: sp 0 + .ra: lr
STACK CFI 16240 .cfa: sp 32 + .ra: .cfa -4 + ^ r3: .cfa -32 + ^ r4: .cfa -28 + ^ r5: .cfa -24 + ^ r6: .cfa -20 + ^ r7: .cfa -16 + ^ r8: .cfa -12 + ^ r9: .cfa -8 + ^
STACK CFI INIT 16514 238 .cfa: sp 0 + .ra: lr
STACK CFI 16518 .cfa: sp 24 + .ra: .cfa -4 + ^ r4: .cfa -24 + ^ r5: .cfa -20 + ^ r6: .cfa -16 + ^ r7: .cfa -12 + ^ r8: .cfa -8 + ^
STACK CFI 16524 .cfa: sp 32 +
STACK CFI INIT 1674c a4 .cfa: sp 0 + .ra: lr
STACK CFI 16754 .cfa: sp 32 + .ra: .cfa -4 + ^ r3: .cfa -32 + ^ r4: .cfa -28 + ^ r5: .cfa -24 + ^ r6: .cfa -20 + ^ r7: .cfa -16 + ^ r8: .cfa -12 + ^ r9: .cfa -8 + ^
STACK CFI INIT 167f0 110 .cfa: sp 0 + .ra: lr
STACK CFI 167f4 .cfa: sp 24 + .ra: .cfa -4 + ^ r3: .cfa -24 + ^ r4: .cfa -20 + ^ r5: .cfa -16 + ^ r6: .cfa -12 + ^ r7: .cfa -8 + ^
STACK CFI INIT 16900 31c .cfa: sp 0 + .ra: lr
STACK CFI 16904 .cfa: sp 32 + .ra: .cfa -4 + ^ r11: .cfa -8 + ^ r4: .cfa -32 + ^ r5: .cfa -28 + ^ r6: .cfa -24 + ^ r7: .cfa -20 + ^ r8: .cfa -16 + ^ r9: .cfa -12 + ^
STACK CFI 16908 .cfa: r11 4 +
STACK CFI INIT 16c1c 14c .cfa: sp 0 + .ra: lr
STACK CFI 16c24 .cfa: sp 24 + .ra: .cfa -4 + ^ r4: .cfa -24 + ^ r5: .cfa -20 + ^ r6: .cfa -16 + ^ r7: .cfa -12 + ^ r8: .cfa -8 + ^
STACK CFI 16c2c .cfa: sp 40 +
STACK CFI INIT 16d68 2c .cfa: sp 0 + .ra: lr
STACK CFI 16d74 .cfa: sp 8 + .ra: .cfa -4 + ^ r3: .cfa -8 + ^
STACK CFI INIT 16d94 4 .cfa: sp 0 + .ra: lr
STACK CFI INIT 16d98 68 .cfa: sp 0 + .ra: lr
STACK CFI 16da4 .cfa: sp 8 + .ra: .cfa -4 + ^ r4: .cfa -8 + ^
STACK CFI INIT 16e00 c .cfa: sp 0 + .ra: lr
STACK CFI INIT 16e0c 1c .cfa: sp 0 + .ra: lr
STACK CFI 16e10 .cfa: sp 8 +
STACK CFI INIT 16e28 30 .cfa: sp 0 + .ra: lr
STACK CFI INIT 16e58 18 .cfa: sp 0 + .ra: lr
STACK CFI 16e5c .cfa: sp 8 + .ra: .cfa -4 + ^ r4: .cfa -8 + ^
STACK CFI INIT 16e70 1c .cfa: sp 0 + .ra: lr
STACK CFI 16e78 .cfa: sp 8 + .ra: .cfa -4 + ^ r4: .cfa -8 + ^
STACK CFI INIT 16e8c 64 .cfa: sp 0 + .ra: lr
STACK CFI 16e94 .cfa: sp 8 + .ra: .cfa -4 + ^ r4: .cfa -8 + ^
STACK CFI INIT 16ef0 14 .cfa: sp 0 + .ra: lr
STACK CFI 16ef4 .cfa: sp 8 + .ra: .cfa -4 + ^ r4: .cfa -8 + ^
STACK CFI INIT 16f04 8 .cfa: sp 0 + .ra: lr
STACK CFI INIT 16f0c 14 .cfa: sp 0 + .ra: lr
STACK CFI INIT 16f20 38 .cfa: sp 0 + .ra: lr
STACK CFI 16f24 .cfa: sp 12 + .ra: .cfa -4 + ^ r4: .cfa -12 + ^ r5: .cfa -8 + ^
STACK CFI 16f28 .cfa: sp 24 +
STACK CFI INIT 16f58 10 .cfa: sp 0 + .ra: lr
STACK CFI INIT 16f68 34 .cfa: sp 0 + .ra: lr
STACK CFI INIT 16f9c c .cfa: sp 0 + .ra: lr
STACK CFI INIT 16fa8 18 .cfa: sp 0 + .ra: lr
STACK CFI INIT 16fc0 14 .cfa: sp 0 + .ra: lr
STACK CFI 16fc4 .cfa: sp 8 + .ra: .cfa -4 + ^ r3: .cfa -8 + ^
STACK CFI INIT 16fd4 a0 .cfa: sp 0 + .ra: lr
STACK CFI 16fd8 .cfa: sp 8 + .ra: .cfa -4 + ^ r4: .cfa -8 + ^
STACK CFI INIT 17074 c0 .cfa: sp 0 + .ra: lr
STACK CFI 17078 .cfa: sp 16 + .ra: .cfa -4 + ^ r4: .cfa -16 + ^ r5: .cfa -12 + ^ r6: .cfa -8 + ^
STACK CFI INIT 17134 10 .cfa: sp 0 + .ra: lr
STACK CFI INIT 17144 28 .cfa: sp 0 + .ra: lr
STACK CFI 1714c .cfa: sp 8 + .ra: .cfa -4 + ^ r4: .cfa -8 + ^
STACK CFI INIT 1716c 1c .cfa: sp 0 + .ra: lr
STACK CFI 17170 .cfa: sp 8 + .ra: .cfa -4 + ^ r4: .cfa -8 + ^
STACK CFI INIT 17188 8 .cfa: sp 0 + .ra: lr
STACK CFI INIT 17190 8 .cfa: sp 0 + .ra: lr
STACK CFI INIT 17198 84 .cfa: sp 0 + .ra: lr
STACK CFI 171a4 .cfa: sp 8 + .ra: .cfa -4 + ^ r4: .cfa -8 + ^
STACK CFI 171b8 .cfa: sp 16 +
STACK CFI INIT 1721c 1c .cfa: sp 0 + .ra: lr
STACK CFI 17220 .cfa: sp 8 + .ra: .cfa -4 + ^ r4: .cfa -8 + ^
STACK CFI INIT 17238 28 .cfa: sp 0 + .ra: lr
STACK CFI 17240 .cfa: sp 8 + .ra: .cfa -4 + ^ r4: .cfa -8 + ^
STACK CFI INIT 17260 30 .cfa: sp 0 + .ra: lr
STACK CFI 17268 .cfa: sp 8 + .ra: .cfa -4 + ^ r4: .cfa -8 + ^
STACK CFI INIT 17290 28 .cfa: sp 0 + .ra: lr
STACK CFI 17298 .cfa: sp 8 + .ra: .cfa -4 + ^ r4: .cfa -8 + ^
STACK CFI INIT 172b8 30 .cfa: sp 0 + .ra: lr
STACK CFI 172c0 .cfa: sp 8 + .ra: .cfa -4 + ^ r4: .cfa -8 + ^
STACK CFI INIT 172e8 28 .cfa: sp 0 + .ra: lr
STACK CFI 172f0 .cfa: sp 8 + .ra: .cfa -4 + ^ r4: .cfa -8 + ^
STACK CFI INIT 17310 30 .cfa: sp 0 + .ra: lr
STACK CFI 17318 .cfa: sp 8 + .ra: .cfa -4 + ^ r4: .cfa -8 + ^
STACK CFI INIT 17340 28 .cfa: sp 0 + .ra: lr
STACK CFI 17348 .cfa: sp 8 + .ra: .cfa -4 + ^ r4: .cfa -8 + ^
STACK CFI INIT 17368 30 .cfa: sp 0 + .ra: lr
STACK CFI 17370 .cfa: sp 8 + .ra: .cfa -4 + ^ r4: .cfa -8 + ^
STACK CFI INIT 17398 84 .cfa: sp 0 + .ra: lr
STACK CFI 173a4 .cfa: sp 8 + .ra: .cfa -4 + ^ r4: .cfa -8 + ^
STACK CFI 173b8 .cfa: sp 16 +
STACK CFI INIT 1741c 1c .cfa: sp 0 + .ra: lr
STACK CFI 17420 .cfa: sp 8 + .ra: .cfa -4 + ^ r4: .cfa -8 + ^
STACK CFI INIT 17438 28 .cfa: sp 0 + .ra: lr
STACK CFI 17440 .cfa: sp 8 + .ra: .cfa -4 + ^ r4: .cfa -8 + ^
STACK CFI INIT 17460 30 .cfa: sp 0 + .ra: lr
STACK CFI 17468 .cfa: sp 8 + .ra: .cfa -4 + ^ r4: .cfa -8 + ^
STACK CFI INIT 17490 28 .cfa: sp 0 + .ra: lr
STACK CFI 17498 .cfa: sp 8 + .ra: .cfa -4 + ^ r4: .cfa -8 + ^
STACK CFI INIT 174b8 30 .cfa: sp 0 + .ra: lr
STACK CFI 174c0 .cfa: sp 8 + .ra: .cfa -4 + ^ r4: .cfa -8 + ^
STACK CFI INIT 174e8 28 .cfa: sp 0 + .ra: lr
STACK CFI 174f0 .cfa: sp 8 + .ra: .cfa -4 + ^ r4: .cfa -8 + ^
STACK CFI INIT 17510 30 .cfa: sp 0 + .ra: lr
STACK CFI 17518 .cfa: sp 8 + .ra: .cfa -4 + ^ r4: .cfa -8 + ^
STACK CFI INIT 17540 34 .cfa: sp 0 + .ra: lr
STACK CFI 17548 .cfa: sp 8 + .ra: .cfa -4 + ^ r4: .cfa -8 + ^
STACK CFI INIT 17574 28 .cfa: sp 0 + .ra: lr
STACK CFI 17578 .cfa: sp 8 + .ra: .cfa -4 + ^ r4: .cfa -8 + ^
STACK CFI INIT 1759c 28 .cfa: sp 0 + .ra: lr
STACK CFI 175a0 .cfa: sp 8 + .ra: .cfa -4 + ^ r4: .cfa -8 + ^
STACK CFI INIT 175c4 28 .cfa: sp 0 + .ra: lr
STACK CFI 175c8 .cfa: sp 8 + .ra: .cfa -4 + ^ r4: .cfa -8 + ^
STACK CFI INIT 175ec 28 .cfa: sp 0 + .ra: lr
STACK CFI 175f0 .cfa: sp 8 + .ra: .cfa -4 + ^ r4: .cfa -8 + ^
STACK CFI INIT 17614 34 .cfa: sp 0 + .ra: lr
STACK CFI 1761c .cfa: sp 8 + .ra: .cfa -4 + ^ r4: .cfa -8 + ^
STACK CFI INIT 17648 28 .cfa: sp 0 + .ra: lr
STACK CFI 1764c .cfa: sp 8 + .ra: .cfa -4 + ^ r4: .cfa -8 + ^
STACK CFI INIT 17670 28 .cfa: sp 0 + .ra: lr
STACK CFI 17674 .cfa: sp 8 + .ra: .cfa -4 + ^ r4: .cfa -8 + ^
STACK CFI INIT 17698 28 .cfa: sp 0 + .ra: lr
STACK CFI 1769c .cfa: sp 8 + .ra: .cfa -4 + ^ r4: .cfa -8 + ^
STACK CFI INIT 176c0 8 .cfa: sp 0 + .ra: lr
STACK CFI INIT 176c8 84 .cfa: sp 0 + .ra: lr
STACK CFI 176d4 .cfa: sp 8 + .ra: .cfa -4 + ^ r4: .cfa -8 + ^
STACK CFI 176e8 .cfa: sp 16 +
STACK CFI INIT 1774c 1c .cfa: sp 0 + .ra: lr
STACK CFI 17750 .cfa: sp 8 + .ra: .cfa -4 + ^ r4: .cfa -8 + ^
STACK CFI INIT 17768 4c .cfa: sp 0 + .ra: lr
STACK CFI 1776c .cfa: sp 16 + .ra: .cfa -4 + ^ r3: .cfa -16 + ^ r4: .cfa -12 + ^ r5: .cfa -8 + ^
STACK CFI INIT 177b4 c .cfa: sp 0 + .ra: lr
STACK CFI INIT 177c0 14 .cfa: sp 0 + .ra: lr
STACK CFI 177c4 .cfa: sp 8 + .ra: .cfa -4 + ^ r4: .cfa -8 + ^
STACK CFI INIT 177d4 18 .cfa: sp 0 + .ra: lr
STACK CFI 177d8 .cfa: sp 8 + .ra: .cfa -4 + ^ r3: .cfa -8 + ^
STACK CFI INIT 177ec 14 .cfa: sp 0 + .ra: lr
STACK CFI 177f0 .cfa: sp 8 + .ra: .cfa -4 + ^ r3: .cfa -8 + ^
STACK CFI INIT 17800 14 .cfa: sp 0 + .ra: lr
STACK CFI 17804 .cfa: sp 8 + .ra: .cfa -4 + ^ r3: .cfa -8 + ^
STACK CFI INIT 17814 10 .cfa: sp 0 + .ra: lr
STACK CFI INIT 17824 14 .cfa: sp 0 + .ra: lr
STACK CFI 17828 .cfa: sp 8 + .ra: .cfa -4 + ^ r4: .cfa -8 + ^
STACK CFI INIT 17838 28 .cfa: sp 0 + .ra: lr
STACK CFI 17840 .cfa: sp 8 + .ra: .cfa -4 + ^ r4: .cfa -8 + ^
STACK CFI INIT 17860 30 .cfa: sp 0 + .ra: lr
STACK CFI 17868 .cfa: sp 8 + .ra: .cfa -4 + ^ r4: .cfa -8 + ^
STACK CFI INIT 17890 c0 .cfa: sp 0 + .ra: lr
STACK CFI 17894 .cfa: sp 16 + .ra: .cfa -4 + ^ r4: .cfa -16 + ^ r5: .cfa -12 + ^ r6: .cfa -8 + ^
STACK CFI 17898 .cfa: sp 32 +
STACK CFI INIT 17950 10 .cfa: sp 0 + .ra: lr
STACK CFI INIT 17960 10 .cfa: sp 0 + .ra: lr
STACK CFI INIT 17970 18 .cfa: sp 0 + .ra: lr
STACK CFI INIT 17988 c .cfa: sp 0 + .ra: lr
STACK CFI INIT 17994 60 .cfa: sp 0 + .ra: lr
STACK CFI 179a0 .cfa: sp 8 + .ra: .cfa -4 + ^ r4: .cfa -8 + ^
STACK CFI 179a4 .cfa: sp 16 +
STACK CFI INIT 179f4 28 .cfa: sp 0 + .ra: lr
STACK CFI INIT 17a1c 18 .cfa: sp 0 + .ra: lr
STACK CFI INIT 17a34 18 .cfa: sp 0 + .ra: lr
STACK CFI INIT 17a4c 28 .cfa: sp 0 + .ra: lr
STACK CFI 17a54 .cfa: sp 8 + .ra: .cfa -4 + ^ r4: .cfa -8 + ^
STACK CFI INIT 17a74 28 .cfa: sp 0 + .ra: lr
STACK CFI 17a7c .cfa: sp 8 + .ra: .cfa -4 + ^ r4: .cfa -8 + ^
STACK CFI INIT 17a9c 28 .cfa: sp 0 + .ra: lr
STACK CFI 17aa4 .cfa: sp 8 + .ra: .cfa -4 + ^ r4: .cfa -8 + ^
STACK CFI INIT 17ac4 28 .cfa: sp 0 + .ra: lr
STACK CFI 17acc .cfa: sp 8 + .ra: .cfa -4 + ^ r4: .cfa -8 + ^
STACK CFI INIT 17aec 30 .cfa: sp 0 + .ra: lr
STACK CFI 17af4 .cfa: sp 8 + .ra: .cfa -4 + ^ r4: .cfa -8 + ^
STACK CFI INIT 17b1c 30 .cfa: sp 0 + .ra: lr
STACK CFI 17b20 .cfa: sp 8 + .ra: .cfa -4 + ^ r4: .cfa -8 + ^
STACK CFI 17b28 .cfa: sp 16 +
STACK CFI INIT 17b4c 30 .cfa: sp 0 + .ra: lr
STACK CFI 17b50 .cfa: sp 8 + .ra: .cfa -4 + ^ r4: .cfa -8 + ^
STACK CFI 17b58 .cfa: sp 16 +
STACK CFI INIT 17b7c 18 .cfa: sp 0 + .ra: lr
STACK CFI INIT 17b94 10 .cfa: sp 0 + .ra: lr
STACK CFI INIT 17ba4 10 .cfa: sp 0 + .ra: lr
STACK CFI INIT 17bb4 24 .cfa: sp 0 + .ra: lr
STACK CFI 17bbc .cfa: sp 8 + .ra: .cfa -4 + ^ r4: .cfa -8 + ^
STACK CFI INIT 71c0 84 .cfa: sp 0 + .ra: lr
STACK CFI 71c4 .cfa: sp 8 + .ra: .cfa -4 + ^ r4: .cfa -8 + ^
STACK CFI INIT 17bd8 2c .cfa: sp 0 + .ra: lr
STACK CFI 17bdc .cfa: sp 8 + .ra: .cfa -4 + ^ r3: .cfa -8 + ^
STACK CFI INIT 17c04 18 .cfa: sp 0 + .ra: lr
STACK CFI INIT 17c1c ac .cfa: sp 0 + .ra: lr
STACK CFI 17c20 .cfa: sp 48 + .ra: .cfa -4 + ^ r0: .cfa -48 + ^ r1: .cfa -44 + ^ r10: .cfa -12 + ^ r11: .cfa -8 + ^ r2: .cfa -40 + ^ r4: .cfa -36 + ^ r5: .cfa -32 + ^ r6: .cfa -28 + ^ r7: .cfa -24 + ^ r8: .cfa -20 + ^ r9: .cfa -16 + ^
STACK CFI INIT 17cc8 50 .cfa: sp 0 + .ra: lr
STACK CFI INIT 17d18 10c .cfa: sp 0 + .ra: lr
STACK CFI 17d20 .cfa: sp 24 + .ra: .cfa -4 + ^ r0: .cfa -24 + ^ r1: .cfa -20 + ^ r2: .cfa -16 + ^ r4: .cfa -12 + ^ r5: .cfa -8 + ^
STACK CFI INIT 17e24 6c .cfa: sp 0 + .ra: lr
STACK CFI 17e2c .cfa: sp 8 + .ra: .cfa -4 + ^ r4: .cfa -8 + ^
STACK CFI INIT 17e90 14 .cfa: sp 0 + .ra: lr
STACK CFI INIT 17ea4 8 .cfa: sp 0 + .ra: lr
STACK CFI INIT 17eac 4 .cfa: sp 0 + .ra: lr
STACK CFI INIT 17eb0 64 .cfa: sp 0 + .ra: lr
STACK CFI 17eb4 .cfa: sp 16 + .ra: .cfa -4 + ^ r4: .cfa -16 + ^ r5: .cfa -12 + ^ r6: .cfa -8 + ^
STACK CFI INIT 17f14 124 .cfa: sp 0 + .ra: lr
STACK CFI 17f18 .cfa: sp 36 + .ra: .cfa -4 + ^ r10: .cfa -12 + ^ r11: .cfa -8 + ^ r4: .cfa -36 + ^ r5: .cfa -32 + ^ r6: .cfa -28 + ^ r7: .cfa -24 + ^ r8: .cfa -20 + ^ r9: .cfa -16 + ^
STACK CFI 17f34 .cfa: sp 1008 +
STACK CFI INIT 18038 8 .cfa: sp 0 + .ra: lr
STACK CFI INIT 18040 a4 .cfa: sp 0 + .ra: lr
STACK CFI 18048 .cfa: sp 20 + .ra: .cfa -4 + ^ r4: .cfa -20 + ^ r5: .cfa -16 + ^ r6: .cfa -12 + ^ r7: .cfa -8 + ^
STACK CFI 1805c .cfa: sp 504 +
STACK CFI INIT 180e4 1c .cfa: sp 0 + .ra: lr
STACK CFI INIT 18100 74 .cfa: sp 0 + .ra: lr
STACK CFI 18104 .cfa: sp 16 + .ra: .cfa -4 + ^ r4: .cfa -16 + ^ r5: .cfa -12 + ^ r6: .cfa -8 + ^
STACK CFI INIT 18174 20 .cfa: sp 0 + .ra: lr
STACK CFI INIT 18194 4 .cfa: sp 0 + .ra: lr
STACK CFI INIT 18198 20 .cfa: sp 0 + .ra: lr
STACK CFI 1819c .cfa: sp 8 + .ra: .cfa -4 + ^ r3: .cfa -8 + ^
STACK CFI INIT 181b8 5c .cfa: sp 0 + .ra: lr
STACK CFI INIT 18214 28 .cfa: sp 0 + .ra: lr
STACK CFI 18218 .cfa: sp 24 + .ra: .cfa -4 + ^ r0: .cfa -24 + ^ r1: .cfa -20 + ^ r2: .cfa -16 + ^ r3: .cfa -12 + ^ r4: .cfa -8 + ^
STACK CFI INIT 1823c 5c .cfa: sp 0 + .ra: lr
STACK CFI INIT 18298 2c .cfa: sp 0 + .ra: lr
STACK CFI 1829c .cfa: sp 24 + .ra: .cfa -4 + ^ r0: .cfa -24 + ^ r1: .cfa -20 + ^ r2: .cfa -16 + ^ r3: .cfa -12 + ^ r4: .cfa -8 + ^
STACK CFI INIT 182c4 c4 .cfa: sp 0 + .ra: lr
STACK CFI 182cc .cfa: sp 24 + .ra: .cfa -4 + ^ r4: .cfa -24 + ^ r5: .cfa -20 + ^ r6: .cfa -16 + ^ r7: .cfa -12 + ^ r8: .cfa -8 + ^
STACK CFI 182e0 .cfa: sp 592 +
STACK CFI INIT 18388 3f0 .cfa: sp 0 + .ra: lr
STACK CFI 1838c .cfa: sp 36 + .ra: .cfa -4 + ^ r10: .cfa -12 + ^ r11: .cfa -8 + ^ r4: .cfa -36 + ^ r5: .cfa -32 + ^ r6: .cfa -28 + ^ r7: .cfa -24 + ^ r8: .cfa -20 + ^ r9: .cfa -16 + ^
STACK CFI 18398 .cfa: sp 72 +
STACK CFI INIT 18778 8 .cfa: sp 0 + .ra: lr
STACK CFI INIT 18780 8 .cfa: sp 0 + .ra: lr
STACK CFI INIT 18788 8 .cfa: sp 0 + .ra: lr
STACK CFI INIT 18790 34c .cfa: sp 0 + .ra: lr
STACK CFI 18794 .cfa: sp 28 + .ra: .cfa -4 + ^ r4: .cfa -28 + ^ r5: .cfa -24 + ^ r6: .cfa -20 + ^ r7: .cfa -16 + ^ r8: .cfa -12 + ^ r9: .cfa -8 + ^
STACK CFI 1879c .cfa: sp 296 +
STACK CFI INIT 18c84 60 .cfa: sp 0 + .ra: lr
STACK CFI INIT 18ce4 28 .cfa: sp 0 + .ra: lr
STACK CFI 18ce8 .cfa: sp 24 + .ra: .cfa -4 + ^ r0: .cfa -24 + ^ r1: .cfa -20 + ^ r2: .cfa -16 + ^ r3: .cfa -12 + ^ r4: .cfa -8 + ^
STACK CFI INIT 18d0c 4 .cfa: sp 0 + .ra: lr
STACK CFI INIT 18d10 37c .cfa: sp 0 + .ra: lr
STACK CFI 18d14 .cfa: sp 48 + .ra: .cfa -4 + ^ r0: .cfa -48 + ^ r1: .cfa -44 + ^ r10: .cfa -8 + ^ r2: .cfa -40 + ^ r3: .cfa -36 + ^ r4: .cfa -32 + ^ r5: .cfa -28 + ^ r6: .cfa -24 + ^ r7: .cfa -20 + ^ r8: .cfa -16 + ^ r9: .cfa -12 + ^
STACK CFI INIT 1908c 40 .cfa: sp 0 + .ra: lr
STACK CFI 19090 .cfa: sp 24 + .ra: .cfa -4 + ^ r0: .cfa -24 + ^ r1: .cfa -20 + ^ r2: .cfa -16 + ^ r3: .cfa -12 + ^ r4: .cfa -8 + ^
STACK CFI INIT 190cc 10 .cfa: sp 0 + .ra: lr
STACK CFI 190d0 .cfa: sp 8 + .ra: .cfa -4 + ^ r3: .cfa -8 + ^
STACK CFI INIT 190dc 1c .cfa: sp 0 + .ra: lr
STACK CFI 190e0 .cfa: sp 8 + .ra: .cfa -4 + ^ r3: .cfa -8 + ^
STACK CFI INIT 190f8 8 .cfa: sp 0 + .ra: lr
STACK CFI 190fc .cfa: sp 8 + .ra: .cfa -4 + ^ r3: .cfa -8 + ^
STACK CFI INIT 19100 8 .cfa: sp 0 + .ra: lr
STACK CFI 19104 .cfa: sp 8 + .ra: .cfa -4 + ^ r3: .cfa -8 + ^
