MODULE Linux arm 4B4D92F69A8B125E33C555D3489C22ED0 librtmp.so
FUNC 15481c 3c 0 __gnu_ldivmod_helper
FUNC 154858 3c 0 __gnu_uldivmod_helper
FUNC 154894 18 0 selfrel_offset31
FUNC 1548ac ac 0 search_EIT_table
FUNC 154958 50 0 __gnu_unwind_get_pr_addr
FUNC 1549a8 110 0 get_eit_entry
FUNC 154ab8 6c 0 restore_non_core_regs
FUNC 154b24 14 0 _Unwind_decode_typeinfo_ptr
FUNC 154b38 8 0 __gnu_unwind_24bit
FUNC 154b40 4 0 _Unwind_DebugHook
FUNC 154b44 64 0 unwind_phase2
FUNC 154ba8 124 0 unwind_phase2_forced
FUNC 154ccc 8 0 _Unwind_GetCFA
FUNC 154cd4 a4 0 __gnu_Unwind_RaiseException
FUNC 154d78 1c 0 __gnu_Unwind_ForcedUnwind
FUNC 154d94 74 0 __gnu_Unwind_Resume
FUNC 154e08 20 0 __gnu_Unwind_Resume_or_Rethrow
FUNC 154e28 4 0 _Unwind_Complete
FUNC 154e2c 20 0 _Unwind_DeleteException
FUNC 154e4c 5c 0 _Unwind_VRS_Get
FUNC 154ea8 28 0 _Unwind_GetGR
FUNC 154ed0 5c 0 _Unwind_VRS_Set
FUNC 154f2c 2c 0 _Unwind_SetGR
FUNC 154f58 c4 0 __gnu_Unwind_Backtrace
FUNC 15501c 3f4 0 __gnu_unwind_pr_common
FUNC 155410 8 0 __aeabi_unwind_cpp_pr0
FUNC 155418 8 0 __aeabi_unwind_cpp_pr1
FUNC 155420 8 0 __aeabi_unwind_cpp_pr2
FUNC 155428 358 0 _Unwind_VRS_Pop
FUNC 155928 60 0 next_unwind_byte
FUNC 155988 28 0 _Unwind_GetGR
FUNC 1559b0 4 0 unwind_UCB_from_context
FUNC 1559b4 37c 0 __gnu_unwind_execute
FUNC 155d30 40 0 __gnu_unwind_frame
FUNC 155d70 10 0 _Unwind_GetRegionStart
FUNC 155d80 1c 0 _Unwind_GetLanguageSpecificData
FUNC 155d9c 8 0 _Unwind_GetDataRelBase
FUNC 155da4 8 0 _Unwind_GetTextRelBase
FUNC 155dac 498 0 __divdi3
FUNC 156244 404 0 __udivdi3
PUBLIC 41958 0 RTMP_GetTime
PUBLIC 419b0 0 RTMP_UserInterrupt
PUBLIC 419c8 0 RTMPPacket_Reset
PUBLIC 419f0 0 RTMPPacket_Alloc
PUBLIC 41a20 0 RTMPPacket_Free
PUBLIC 41a48 0 RTMPPacket_Dump
PUBLIC 41a9c 0 RTMP_LibVersion
PUBLIC 41aa8 0 RTMP_TLS_Init
PUBLIC 41af0 0 RTMP_TLS_AllocServerContext
PUBLIC 41b74 0 RTMP_TLS_FreeServerContext
PUBLIC 41b78 0 RTMP_Alloc
PUBLIC 41b84 0 RTMP_Free
PUBLIC 41b88 0 RTMP_Init
PUBLIC 41c2c 0 RTMP_EnableWrite
PUBLIC 41c40 0 RTMP_GetDuration
PUBLIC 41c48 0 RTMP_IsConnected
PUBLIC 41c58 0 RTMP_Socket
PUBLIC 41c60 0 RTMP_IsTimedout
PUBLIC 41c6c 0 RTMP_SetBufferMS
PUBLIC 41c74 0 RTMP_SetupStream
PUBLIC 42200 0 RTMP_SetOpt
PUBLIC 42670 0 RTMP_SetupURL
PUBLIC 42a2c 0 RTMP_TLS_Accept
PUBLIC 42a94 0 RTMP_DropRequest
PUBLIC 42aac 0 RTMP_FindFirstMatchingProperty
PUBLIC 42b98 0 RTMP_FindPrefixProperty
PUBLIC 42dec 0 RTMPSockBuf_Fill
PUBLIC 43108 0 RTMPSockBuf_Send
PUBLIC 431fc 0 RTMPSockBuf_Close
PUBLIC 43548 0 RTMP_Close
PUBLIC 436d4 0 RTMP_SendChunk
PUBLIC 437c8 0 RTMP_SendPacket
PUBLIC 443e0 0 RTMP_DeleteStream
PUBLIC 445b4 0 RTMP_SendCreateStream
PUBLIC 4465c 0 RTMP_SendPause
PUBLIC 4475c 0 RTMP_ToggleStream
PUBLIC 447d8 0 RTMP_Pause
PUBLIC 44808 0 RTMP_SendSeek
PUBLIC 448dc 0 RTMP_SendServerBW
PUBLIC 44944 0 RTMP_SendClientBW
PUBLIC 449b8 0 RTMP_SendCtrl
PUBLIC 44b4c 0 RTMP_UpdateBufferMS
PUBLIC 459a8 0 RTMP_ReadPacket
PUBLIC 46b80 0 RTMP_Serve
PUBLIC 46b84 0 RTMP_Connect0
PUBLIC 46e44 0 RTMP_Connect1
PUBLIC 47014 0 RTMP_Connect
PUBLIC 49824 0 RTMP_ClientPacket
PUBLIC 4a134 0 RTMP_ConnectStream
PUBLIC 4a234 0 RTMP_ReconnectStream
PUBLIC 4a25c 0 RTMP_GetNextMediaPacket
PUBLIC 4ab40 0 RTMP_Read
PUBLIC 4ae00 0 RTMP_Write
PUBLIC 4b17c 0 RTMP_LogSetOutput
PUBLIC 4b190 0 RTMP_LogSetLevel
PUBLIC 4b1a4 0 RTMP_LogSetCallback
PUBLIC 4b1b8 0 RTMP_LogGetLevel
PUBLIC 4b1cc 0 RTMP_Log
PUBLIC 4b20c 0 RTMP_LogHex
PUBLIC 4b304 0 RTMP_LogHexString
PUBLIC 4b490 0 RTMP_LogPrintf
PUBLIC 4b5b0 0 RTMP_LogStatus
PUBLIC 4b680 0 AMF_DecodeInt16
PUBLIC 4b690 0 AMF_DecodeInt24
PUBLIC 4b6ac 0 AMF_DecodeInt32
PUBLIC 4b6d0 0 AMF_DecodeString
PUBLIC 4b6f4 0 AMF_DecodeLongString
PUBLIC 4b71c 0 AMF_DecodeNumber
PUBLIC 4b774 0 AMF_DecodeBoolean
PUBLIC 4b784 0 AMF_EncodeInt16
PUBLIC 4b7a4 0 AMF_EncodeInt24
PUBLIC 4b7cc 0 AMF_EncodeInt32
PUBLIC 4b804 0 AMF_EncodeString
PUBLIC 4b8a4 0 AMF_EncodeNumber
PUBLIC 4b924 0 AMF_EncodeBoolean
PUBLIC 4b954 0 AMF_EncodeNamedString
PUBLIC 4b9b8 0 AMF_EncodeNamedNumber
PUBLIC 4ba20 0 AMF_EncodeNamedBoolean
PUBLIC 4ba84 0 AMFProp_GetName
PUBLIC 4ba94 0 AMFProp_SetName
PUBLIC 4baa4 0 AMFProp_GetType
PUBLIC 4baac 0 AMFProp_GetNumber
PUBLIC 4bab4 0 AMFProp_GetBoolean
PUBLIC 4bacc 0 AMFProp_GetString
PUBLIC 4bae0 0 AMFProp_GetObject
PUBLIC 4baf4 0 AMFProp_IsValid
PUBLIC 4bb04 0 AMF3ReadInteger
PUBLIC 4bb64 0 AMF3ReadString
PUBLIC 4bc1c 0 AMF_EncodeArray
PUBLIC 4bcc0 0 AMFProp_Encode
PUBLIC 4be44 0 AMF_Encode
PUBLIC 4bef4 0 AMF_EncodeEcmaArray
PUBLIC 4bfac 0 AMF_AddProp
PUBLIC 4c038 0 AMF_CountProp
PUBLIC 4c040 0 AMF_GetProp
PUBLIC 4c0fc 0 AMF_Dump
PUBLIC 4c15c 0 AMFProp_Dump
PUBLIC 4c3dc 0 AMF_Reset
PUBLIC 4c428 0 AMFProp_Reset
PUBLIC 4c46c 0 AMF3CD_AddProp
PUBLIC 4c4c0 0 AMF3CD_GetProp
PUBLIC 4c4ec 0 AMF3_Decode
PUBLIC 4c848 0 AMF3Prop_Decode
PUBLIC 4ca94 0 AMFProp_Decode
PUBLIC 4ce78 0 AMF_DecodeArray
PUBLIC 4cf10 0 AMF_Decode
PUBLIC 4d124 0 HTTP_get
PUBLIC 4d764 0 RTMP_HashSWF
PUBLIC 4e340 0 RTMP_ParsePlaypath
PUBLIC 4e5a4 0 RTMP_ParseURL
PUBLIC 4ea78 0 SSLv23_method
PUBLIC 4eae4 0 SSLv23_server_method
PUBLIC 4eaf4 0 ssl23_get_client_hello
PUBLIC 4f40c 0 ssl23_accept
PUBLIC 4f698 0 SSLv23_client_method
PUBLIC 4f6a8 0 ssl_fill_hello_random
PUBLIC 4f724 0 ssl23_connect
PUBLIC 50608 0 ssl23_default_timeout
PUBLIC 50610 0 ssl23_num_ciphers
PUBLIC 50628 0 ssl23_get_cipher
PUBLIC 50654 0 ssl23_get_cipher_by_char
PUBLIC 50674 0 ssl23_put_cipher_by_char
PUBLIC 506d8 0 ssl23_read
PUBLIC 50788 0 ssl23_peek
PUBLIC 50838 0 ssl23_write
PUBLIC 508e8 0 ssl23_write_bytes
PUBLIC 50950 0 ssl23_read_bytes
PUBLIC 509b8 0 TLSv1_2_method
PUBLIC 509c8 0 TLSv1_1_method
PUBLIC 509dc 0 TLSv1_method
PUBLIC 50a34 0 TLSv1_2_server_method
PUBLIC 50a44 0 TLSv1_1_server_method
PUBLIC 50a58 0 TLSv1_server_method
PUBLIC 50ab0 0 TLSv1_2_client_method
PUBLIC 50ac0 0 TLSv1_1_client_method
PUBLIC 50ad4 0 TLSv1_client_method
PUBLIC 513d4 0 tls1_default_timeout
PUBLIC 513e0 0 tls1_new
PUBLIC 5140c 0 tls1_free
PUBLIC 51430 0 tls1_clear
PUBLIC 5144c 0 tls1_ec_curve_id2nid
PUBLIC 51478 0 tls1_ec_nid2curve_id
PUBLIC 51690 0 tls1_check_curve
PUBLIC 5185c 0 tls1_shared_curve
PUBLIC 51bb0 0 tls1_set_curves
PUBLIC 51c98 0 tls1_set_curves_list
PUBLIC 51d04 0 tls1_check_ec_tmp_key
PUBLIC 521cc 0 tls12_get_psigalgs
PUBLIC 522a4 0 ssl_set_client_disabled
PUBLIC 52438 0 ssl_add_clienthello_tlsext
PUBLIC 531f4 0 ssl_add_serverhello_tlsext
PUBLIC 53964 0 ssl_prepare_clienthello_tlsext
PUBLIC 5396c 0 ssl_prepare_serverhello_tlsext
PUBLIC 53974 0 ssl_check_clienthello_tlsext_late
PUBLIC 53a2c 0 ssl_check_serverhello_tlsext
PUBLIC 53c38 0 ssl_parse_serverhello_tlsext
PUBLIC 54278 0 tls1_process_ticket
PUBLIC 54400 0 tls12_get_sigid
PUBLIC 54454 0 tls12_get_sigandhash
PUBLIC 54520 0 tls12_get_hash
PUBLIC 54568 0 tls12_check_peer_sigalg
PUBLIC 548e0 0 tls1_save_sigalgs
PUBLIC 54968 0 ssl_parse_clienthello_tlsext
PUBLIC 55698 0 tls1_process_sigalgs
PUBLIC 55a90 0 tls1_set_server_sigalgs
PUBLIC 55bcc 0 SSL_get_sigalgs
PUBLIC 55dcc 0 SSL_get_shared_sigalgs
PUBLIC 55e58 0 tls1_process_heartbeat
PUBLIC 55fec 0 tls1_heartbeat
PUBLIC 561d4 0 tls1_set_sigalgs
PUBLIC 56394 0 tls1_set_sigalgs_list
PUBLIC 56400 0 tls1_check_chain
PUBLIC 56ea4 0 tls1_set_cert_validity
PUBLIC 56f5c 0 SSL_check_chain
PUBLIC 57618 0 tls1_change_cipher_state
PUBLIC 57dc0 0 tls1_setup_key_block
PUBLIC 58028 0 tls1_enc
PUBLIC 58564 0 tls1_cert_verify_mac
PUBLIC 58658 0 tls1_final_finish_mac
PUBLIC 58ab0 0 tls1_mac
PUBLIC 58de0 0 tls1_generate_master_secret
PUBLIC 590d4 0 tls1_export_keying_material
PUBLIC 59378 0 tls1_alert_code
PUBLIC 593a0 0 custom_ext_init
PUBLIC 593d4 0 custom_ext_parse
PUBLIC 594c0 0 custom_ext_add
PUBLIC 596a0 0 custom_exts_copy
PUBLIC 596e8 0 custom_exts_free
PUBLIC 596f8 0 SSL_extension_supported
PUBLIC 59764 0 SSL_CTX_add_client_custom_ext
PUBLIC 59884 0 SSL_CTX_add_server_custom_ext
PUBLIC 59b2c 0 SSL_CTX_set_tlsext_use_srtp
PUBLIC 59b3c 0 SSL_set_tlsext_use_srtp
PUBLIC 59b4c 0 SSL_get_srtp_profiles
PUBLIC 59b78 0 SSL_get_selected_srtp_profile
PUBLIC 59b80 0 ssl_add_clienthello_use_srtp_ext
PUBLIC 59cb0 0 ssl_parse_clienthello_use_srtp_ext
PUBLIC 59e34 0 ssl_add_serverhello_use_srtp_ext
PUBLIC 59f08 0 ssl_parse_serverhello_use_srtp_ext
PUBLIC 5a0f8 0 ssl_undefined_function
PUBLIC 5a168 0 SSL_CTX_set_ssl_version
PUBLIC 5a20c 0 SSL_CTX_set_session_id_context
PUBLIC 5a26c 0 SSL_set_session_id_context
PUBLIC 5a2cc 0 SSL_CTX_set_generate_session_id
PUBLIC 5a31c 0 SSL_set_generate_session_id
PUBLIC 5a36c 0 SSL_has_matching_session_id
PUBLIC 5a434 0 SSL_CTX_set_purpose
PUBLIC 5a43c 0 SSL_set_purpose
PUBLIC 5a444 0 SSL_CTX_set_trust
PUBLIC 5a44c 0 SSL_set_trust
PUBLIC 5a454 0 SSL_CTX_set1_param
PUBLIC 5a45c 0 SSL_set1_param
PUBLIC 5a464 0 SSL_CTX_get0_param
PUBLIC 5a46c 0 SSL_get0_param
PUBLIC 5a474 0 SSL_certs_clear
PUBLIC 5a47c 0 SSL_set_bio
PUBLIC 5a4f8 0 SSL_get_rbio
PUBLIC 5a500 0 SSL_get_wbio
PUBLIC 5a508 0 SSL_get_rfd
PUBLIC 5a548 0 SSL_get_fd
PUBLIC 5a54c 0 SSL_get_wfd
PUBLIC 5a58c 0 SSL_set_fd
PUBLIC 5a60c 0 SSL_set_wfd
PUBLIC 5a6fc 0 SSL_set_rfd
PUBLIC 5a7d0 0 SSL_get_finished
PUBLIC 5a80c 0 SSL_get_peer_finished
PUBLIC 5a848 0 SSL_get_verify_mode
PUBLIC 5a850 0 SSL_get_verify_depth
PUBLIC 5a858 0 SSL_get_verify_callback
PUBLIC 5a860 0 SSL_CTX_get_verify_mode
PUBLIC 5a868 0 SSL_CTX_get_verify_depth
PUBLIC 5a870 0 SSL_CTX_get_verify_callback
PUBLIC 5a878 0 SSL_set_verify
PUBLIC 5a888 0 SSL_set_verify_depth
PUBLIC 5a890 0 SSL_set_read_ahead
PUBLIC 5a898 0 SSL_get_read_ahead
PUBLIC 5a8a0 0 SSL_pending
PUBLIC 5a8b4 0 SSL_get_peer_certificate
PUBLIC 5a918 0 SSL_get_peer_cert_chain
PUBLIC 5a93c 0 SSL_copy_session_id
PUBLIC 5a9fc 0 SSL_CTX_check_private_key
PUBLIC 5aaa0 0 SSL_check_private_key
PUBLIC 5ab9c 0 SSL_get_default_timeout
PUBLIC 5abb0 0 SSL_read
PUBLIC 5ac28 0 SSL_peek
PUBLIC 5ac94 0 SSL_write
PUBLIC 5ad30 0 SSL_renegotiate
PUBLIC 5ad5c 0 SSL_renegotiate_abbreviated
PUBLIC 5ad88 0 SSL_renegotiate_pending
PUBLIC 5ad98 0 SSL_ctrl
PUBLIC 5b064 0 SSL_callback_ctrl
PUBLIC 5b090 0 SSL_CTX_sessions
PUBLIC 5b098 0 SSL_CTX_ctrl
PUBLIC 5b3a8 0 SSL_CTX_callback_ctrl
PUBLIC 5b3d4 0 ssl_cipher_id_cmp
PUBLIC 5b3f8 0 ssl_cipher_ptr_id_cmp
PUBLIC 5b420 0 SSL_get_ciphers
PUBLIC 5b44c 0 ssl_get_ciphers_by_id
PUBLIC 5b478 0 SSL_get_cipher_list
PUBLIC 5b4c4 0 SSL_CTX_set_cipher_list
PUBLIC 5b54c 0 SSL_set_cipher_list
PUBLIC 5b5d4 0 SSL_get_shared_ciphers
PUBLIC 5b6ac 0 ssl_cipher_list_to_bytes
PUBLIC 5b7bc 0 ssl_bytes_to_cipher_list
PUBLIC 5baec 0 SSL_get_servername
PUBLIC 5bb1c 0 SSL_get_servername_type
PUBLIC 5bb58 0 SSL_select_next_proto
PUBLIC 5bc40 0 SSL_get0_next_proto_negotiated
PUBLIC 5bc58 0 SSL_CTX_set_next_protos_advertised_cb
PUBLIC 5bc64 0 SSL_CTX_set_next_proto_select_cb
PUBLIC 5bc70 0 SSL_CTX_set_alpn_protos
PUBLIC 5bcd8 0 SSL_set_alpn_protos
PUBLIC 5bd40 0 SSL_CTX_set_alpn_select_cb
PUBLIC 5bd4c 0 SSL_get0_alpn_selected
PUBLIC 5bd8c 0 SSL_export_keying_material
PUBLIC 5bde0 0 SSL_CTX_free
PUBLIC 5bfd0 0 SSL_CTX_new
PUBLIC 5c488 0 SSL_CTX_set_default_passwd_cb
PUBLIC 5c490 0 SSL_CTX_set_default_passwd_cb_userdata
PUBLIC 5c498 0 SSL_CTX_set_cert_verify_callback
PUBLIC 5c4a4 0 SSL_CTX_set_verify
PUBLIC 5c4b0 0 SSL_CTX_set_verify_depth
PUBLIC 5c4b8 0 SSL_CTX_set_cert_cb
PUBLIC 5c4c0 0 SSL_set_cert_cb
PUBLIC 5c4c8 0 ssl_set_cert_masks
PUBLIC 5c918 0 ssl_check_srvr_ecc_cert_and_alg
PUBLIC 5cb38 0 ssl_get_server_send_pkey
PUBLIC 5cbec 0 ssl_get_sign_pkey
PUBLIC 5ccb0 0 ssl_get_server_cert_serverinfo
PUBLIC 5cd60 0 ssl_update_cache
PUBLIC 5ce84 0 SSL_CTX_get_ssl_method
PUBLIC 5ce8c 0 SSL_get_ssl_method
PUBLIC 5ce94 0 SSL_set_ssl_method
PUBLIC 5cf2c 0 ssl_undefined_void_function
PUBLIC 5cf68 0 ssl_undefined_const_function
PUBLIC 5cfa4 0 ssl_bad_method
PUBLIC 5cfe0 0 SSL_get_version
PUBLIC 5d0d0 0 ssl_clear_cipher_ctx
PUBLIC 5d14c 0 SSL_get_certificate
PUBLIC 5d160 0 SSL_get_privatekey
PUBLIC 5d174 0 SSL_CTX_get0_certificate
PUBLIC 5d188 0 SSL_CTX_get0_privatekey
PUBLIC 5d19c 0 SSL_get_current_cipher
PUBLIC 5d1ac 0 SSL_get_current_compression
PUBLIC 5d1bc 0 SSL_get_current_expansion
PUBLIC 5d1cc 0 ssl_init_wbio_buffer
PUBLIC 5d2e4 0 ssl_free_wbio_buffer
PUBLIC 5d32c 0 SSL_CTX_set_quiet_shutdown
PUBLIC 5d334 0 SSL_CTX_get_quiet_shutdown
PUBLIC 5d33c 0 SSL_set_quiet_shutdown
PUBLIC 5d344 0 SSL_get_quiet_shutdown
PUBLIC 5d34c 0 SSL_set_shutdown
PUBLIC 5d354 0 SSL_get_shutdown
PUBLIC 5d35c 0 SSL_version
PUBLIC 5d364 0 SSL_get_SSL_CTX
PUBLIC 5d36c 0 SSL_set_SSL_CTX
PUBLIC 5d4b8 0 SSL_CTX_set_default_verify_paths
PUBLIC 5d4c0 0 SSL_CTX_load_verify_locations
PUBLIC 5d4c8 0 SSL_set_info_callback
PUBLIC 5d4d0 0 SSL_get_info_callback
PUBLIC 5d4d8 0 SSL_state
PUBLIC 5d4e0 0 SSL_shutdown
PUBLIC 5d558 0 SSL_do_handshake
PUBLIC 5d5ec 0 SSL_set_state
PUBLIC 5d5f4 0 SSL_set_verify_result
PUBLIC 5d5fc 0 SSL_get_verify_result
PUBLIC 5d604 0 SSL_get_ex_new_index
PUBLIC 5d638 0 SSL_set_ex_data
PUBLIC 5d640 0 SSL_get_ex_data
PUBLIC 5d648 0 SSL_CTX_get_ex_new_index
PUBLIC 5d67c 0 SSL_CTX_set_ex_data
PUBLIC 5d684 0 SSL_CTX_get_ex_data
PUBLIC 5d68c 0 ssl_ok
PUBLIC 5d694 0 SSL_CTX_get_cert_store
PUBLIC 5d69c 0 SSL_CTX_set_cert_store
PUBLIC 5d6c0 0 SSL_want
PUBLIC 5d6c8 0 SSL_get_error
PUBLIC 5d848 0 SSL_CTX_set_tmp_rsa_callback
PUBLIC 5d854 0 SSL_set_tmp_rsa_callback
PUBLIC 5d860 0 SSL_CTX_set_tmp_dh_callback
PUBLIC 5d86c 0 SSL_set_tmp_dh_callback
PUBLIC 5d878 0 SSL_CTX_set_tmp_ecdh_callback
PUBLIC 5d884 0 SSL_set_tmp_ecdh_callback
PUBLIC 5d890 0 SSL_CTX_use_psk_identity_hint
PUBLIC 5d92c 0 SSL_use_psk_identity_hint
PUBLIC 5d9f0 0 SSL_get_psk_identity_hint
PUBLIC 5da08 0 SSL_get_psk_identity
PUBLIC 5da20 0 SSL_set_psk_client_callback
PUBLIC 5da28 0 SSL_CTX_set_psk_client_callback
PUBLIC 5da30 0 SSL_set_psk_server_callback
PUBLIC 5da38 0 SSL_CTX_set_psk_server_callback
PUBLIC 5da40 0 SSL_CTX_set_msg_callback
PUBLIC 5da4c 0 SSL_set_msg_callback
PUBLIC 5da58 0 ssl_clear_hash_ctx
PUBLIC 5da7c 0 SSL_clear
PUBLIC 5dc14 0 SSL_free
PUBLIC 5de70 0 SSL_new
PUBLIC 5e1cc 0 SSL_dup
PUBLIC 5e4c0 0 SSL_set_accept_state
PUBLIC 5e504 0 SSL_accept
PUBLIC 5e534 0 SSL_set_connect_state
PUBLIC 5e574 0 SSL_connect
PUBLIC 5e5a4 0 ssl_replace_hash
PUBLIC 5e5e0 0 SSL_set_debug
PUBLIC 5e5e8 0 SSL_cache_hit
PUBLIC 5e5f0 0 SSL_is_server
PUBLIC 5e5f8 0 OBJ_bsearch_ssl_cipher_id
PUBLIC 5e620 0 SSL_load_error_strings
PUBLIC 5e63c 0 SSL_get_ex_data_X509_STORE_CTX_idx
PUBLIC 5e6e4 0 ssl_cert_set_default_md
PUBLIC 5e710 0 ssl_cert_new
PUBLIC 5e78c 0 ssl_cert_clear_certs
PUBLIC 5e824 0 ssl_cert_dup
PUBLIC 5ede4 0 ssl_cert_free
PUBLIC 5ef04 0 ssl_cert_inst
PUBLIC 5ef9c 0 ssl_cert_set0_chain
PUBLIC 5efe0 0 ssl_cert_set1_chain
PUBLIC 5f048 0 ssl_cert_add0_chain_cert
PUBLIC 5f0a0 0 ssl_cert_add1_chain_cert
PUBLIC 5f0ec 0 ssl_cert_select_current
PUBLIC 5f2a0 0 ssl_cert_set_current
PUBLIC 5f338 0 ssl_cert_set_cert_cb
PUBLIC 5f344 0 ssl_sess_cert_new
PUBLIC 5f3bc 0 ssl_sess_cert_free
PUBLIC 5f488 0 ssl_set_peer_cert_type
PUBLIC 5f494 0 ssl_verify_cert_chain
PUBLIC 5f600 0 SSL_dup_CA_list
PUBLIC 5f678 0 SSL_set_client_CA_list
PUBLIC 5f6a8 0 SSL_CTX_set_client_CA_list
PUBLIC 5f6d8 0 SSL_CTX_get_client_CA_list
PUBLIC 5f6e0 0 SSL_get_client_CA_list
PUBLIC 5f72c 0 SSL_add_client_CA
PUBLIC 5f7a8 0 SSL_CTX_add_client_CA
PUBLIC 5f824 0 SSL_load_client_CA_file
PUBLIC 5f9cc 0 SSL_add_file_cert_subjects_to_stack
PUBLIC 5fafc 0 SSL_add_dir_cert_subjects_to_stack
PUBLIC 5fcc0 0 ssl_add_cert_chain
PUBLIC 60074 0 ssl_build_cert_chain
PUBLIC 60360 0 ssl_cert_set_cert_store
PUBLIC 60428 0 SSL_get_session
PUBLIC 60430 0 SSL_get1_session
PUBLIC 6048c 0 SSL_SESSION_get_ex_new_index
PUBLIC 604c0 0 SSL_SESSION_set_ex_data
PUBLIC 604c8 0 SSL_SESSION_get_ex_data
PUBLIC 604d0 0 SSL_SESSION_new
PUBLIC 60594 0 SSL_SESSION_get_id
PUBLIC 605a8 0 SSL_SESSION_get_compress_id
PUBLIC 605b0 0 SSL_SESSION_free
PUBLIC 606f8 0 ssl_session_dup
PUBLIC 6093c 0 ssl_get_new_session
PUBLIC 60ce4 0 SSL_CTX_remove_session
PUBLIC 60ef4 0 SSL_CTX_add_session
PUBLIC 611e0 0 ssl_get_prev_session
PUBLIC 615a8 0 SSL_set_session
PUBLIC 616cc 0 SSL_SESSION_set_timeout
PUBLIC 616dc 0 SSL_SESSION_get_timeout
PUBLIC 616e8 0 SSL_SESSION_get_time
PUBLIC 616f4 0 SSL_SESSION_set_time
PUBLIC 61704 0 SSL_SESSION_get0_peer
PUBLIC 6170c 0 SSL_SESSION_set1_id_context
PUBLIC 6176c 0 SSL_CTX_set_timeout
PUBLIC 61780 0 SSL_CTX_get_timeout
PUBLIC 6178c 0 SSL_set_session_secret_cb
PUBLIC 617a0 0 SSL_set_session_ticket_ext_cb
PUBLIC 617b4 0 SSL_set_session_ticket_ext
PUBLIC 61888 0 SSL_CTX_flush_sessions
PUBLIC 61920 0 ssl_clear_bad_session
PUBLIC 61978 0 SSL_CTX_sess_set_new_cb
PUBLIC 61980 0 SSL_CTX_sess_get_new_cb
PUBLIC 61988 0 SSL_CTX_sess_set_remove_cb
PUBLIC 61990 0 SSL_CTX_sess_get_remove_cb
PUBLIC 61998 0 SSL_CTX_sess_set_get_cb
PUBLIC 619a0 0 SSL_CTX_sess_get_get_cb
PUBLIC 619a8 0 SSL_CTX_set_info_callback
PUBLIC 619b0 0 SSL_CTX_get_info_callback
PUBLIC 619b8 0 SSL_CTX_set_client_cert_cb
PUBLIC 619c0 0 SSL_CTX_get_client_cert_cb
PUBLIC 619c8 0 SSL_CTX_set_client_cert_engine
PUBLIC 61a7c 0 SSL_CTX_set_cookie_generate_cb
PUBLIC 61a84 0 SSL_CTX_set_cookie_verify_cb
PUBLIC 61a8c 0 PEM_read_bio_SSL_SESSION
PUBLIC 61ac8 0 PEM_read_SSL_SESSION
PUBLIC 61b04 0 PEM_write_bio_SSL_SESSION
PUBLIC 61b54 0 PEM_write_SSL_SESSION
PUBLIC 62ac8 0 ssl_load_ciphers
PUBLIC 62dd0 0 ssl_cipher_get_evp
PUBLIC 6319c 0 ssl_get_handshake_digest
PUBLIC 631fc 0 ssl_create_cipher_list
PUBLIC 63dcc 0 SSL_CIPHER_description
PUBLIC 6453c 0 SSL_CIPHER_get_version
PUBLIC 64598 0 SSL_CIPHER_get_name
PUBLIC 645b8 0 SSL_CIPHER_get_bits
PUBLIC 645d4 0 SSL_CIPHER_get_id
PUBLIC 645dc 0 ssl3_comp_find
PUBLIC 64634 0 SSL_COMP_get_compression_methods
PUBLIC 647a4 0 SSL_COMP_set0_compression_methods
PUBLIC 647c0 0 SSL_COMP_free_compression_methods
PUBLIC 647e8 0 SSL_COMP_add_compression_method
PUBLIC 64964 0 SSL_COMP_get_name
PUBLIC 64970 0 ssl_cipher_get_cert_index
PUBLIC 649f8 0 ssl_get_cipher_by_char
PUBLIC 64a24 0 SSL_CIPHER_find
PUBLIC 64d04 0 SSL_use_certificate
PUBLIC 64f08 0 SSL_use_certificate_file
PUBLIC 6506c 0 SSL_use_certificate_ASN1
PUBLIC 650e8 0 SSL_use_RSAPrivateKey
PUBLIC 651e4 0 SSL_use_RSAPrivateKey_file
PUBLIC 65350 0 SSL_use_RSAPrivateKey_ASN1
PUBLIC 653cc 0 SSL_use_PrivateKey
PUBLIC 655ec 0 SSL_use_PrivateKey_file
PUBLIC 65764 0 SSL_use_PrivateKey_ASN1
PUBLIC 657e4 0 SSL_CTX_use_certificate
PUBLIC 659f0 0 SSL_CTX_use_certificate_file
PUBLIC 65b58 0 SSL_CTX_use_certificate_ASN1
PUBLIC 65bdc 0 SSL_CTX_use_RSAPrivateKey
PUBLIC 65ce4 0 SSL_CTX_use_RSAPrivateKey_file
PUBLIC 65e50 0 SSL_CTX_use_RSAPrivateKey_ASN1
PUBLIC 65ed0 0 SSL_CTX_use_PrivateKey
PUBLIC 660f0 0 SSL_CTX_use_PrivateKey_file
PUBLIC 66268 0 SSL_CTX_use_PrivateKey_ASN1
PUBLIC 662e8 0 SSL_CTX_use_certificate_chain_file
PUBLIC 66498 0 SSL_CTX_use_serverinfo
PUBLIC 66740 0 SSL_CTX_use_serverinfo_file
PUBLIC 66ac8 0 i2d_SSL_SESSION
PUBLIC 673fc 0 d2i_SSL_SESSION
PUBLIC 68970 0 SSL_library_init
PUBLIC 68b2c 0 ERR_load_SSL_strings
PUBLIC 68b64 0 ssl_add_clienthello_renegotiate_ext
PUBLIC 68bf8 0 ssl_parse_clienthello_renegotiate_ext
PUBLIC 68d30 0 ssl_add_serverhello_renegotiate_ext
PUBLIC 68df8 0 ssl_parse_serverhello_renegotiate_ext
PUBLIC 6901c 0 SSL_CTX_SRP_CTX_free
PUBLIC 690c8 0 SSL_SRP_CTX_free
PUBLIC 69174 0 SSL_SRP_CTX_init
PUBLIC 693a4 0 SSL_CTX_SRP_CTX_init
PUBLIC 693fc 0 SSL_srp_server_param_with_username
PUBLIC 694d4 0 SSL_set_srp_server_param_pw
PUBLIC 69584 0 SSL_set_srp_server_param
PUBLIC 696ec 0 SRP_generate_server_master_secret
PUBLIC 697f4 0 SRP_generate_client_master_secret
PUBLIC 69980 0 srp_verify_server_param
PUBLIC 69a40 0 SRP_Calc_A_param
PUBLIC 69ab0 0 SSL_get_srp_g
PUBLIC 69ac8 0 SSL_get_srp_N
PUBLIC 69ae0 0 SSL_get_srp_username
PUBLIC 69af8 0 SSL_get_srp_userinfo
PUBLIC 69b10 0 SSL_CTX_set_srp_username
PUBLIC 69b20 0 SSL_CTX_set_srp_password
PUBLIC 69b30 0 SSL_CTX_set_srp_strength
PUBLIC 69b40 0 SSL_CTX_set_srp_verify_param_callback
PUBLIC 69b4c 0 SSL_CTX_set_srp_cb_arg
PUBLIC 69b5c 0 SSL_CTX_set_srp_username_callback
PUBLIC 69b68 0 SSL_CTX_set_srp_client_pwd_callback
PUBLIC 69b74 0 SSLv2_method
PUBLIC 69b98 0 ssl2_accept
PUBLIC 6b728 0 SSLv2_server_method
PUBLIC 6b74c 0 SSLv2_client_method
PUBLIC 6b770 0 ssl2_set_certificate
PUBLIC 6b97c 0 ssl2_connect
PUBLIC 6d140 0 ssl2_default_timeout
PUBLIC 6d148 0 ssl2_num_ciphers
PUBLIC 6d150 0 ssl2_get_cipher
PUBLIC 6d17c 0 ssl2_pending
PUBLIC 6d19c 0 ssl2_free
PUBLIC 6d1ec 0 ssl2_clear
PUBLIC 6d238 0 ssl2_new
PUBLIC 6d2fc 0 ssl2_ctrl
PUBLIC 6d330 0 ssl2_callback_ctrl
PUBLIC 6d338 0 ssl2_ctx_ctrl
PUBLIC 6d340 0 ssl2_ctx_callback_ctrl
PUBLIC 6d348 0 ssl2_get_cipher_by_char
PUBLIC 6d38c 0 ssl2_put_cipher_by_char
PUBLIC 6d3e0 0 ssl2_generate_key_material
PUBLIC 6d5c0 0 ssl2_write_error
PUBLIC 6d688 0 ssl2_return_error
PUBLIC 6d6a4 0 ssl2_shutdown
PUBLIC 6d6b4 0 ssl2_enc_init
PUBLIC 6d940 0 ssl2_enc
PUBLIC 6d99c 0 ssl2_mac
PUBLIC 6e274 0 ssl2_read
PUBLIC 6e27c 0 ssl2_peek
PUBLIC 6e284 0 ssl2_write
PUBLIC 6e6b4 0 ssl2_part_read
PUBLIC 6e770 0 ssl2_do_write
PUBLIC 6e810 0 SSLv3_method
PUBLIC 6e834 0 SSLv3_server_method
PUBLIC 6e858 0 ssl3_send_hello_request
PUBLIC 6e8b4 0 ssl3_get_client_hello
PUBLIC 6f6a0 0 ssl3_send_server_hello
PUBLIC 6f8bc 0 ssl3_send_server_done
PUBLIC 6f918 0 ssl3_send_server_key_exchange
PUBLIC 70818 0 ssl3_send_certificate_request
PUBLIC 70ba0 0 ssl3_get_client_key_exchange
PUBLIC 71c90 0 ssl3_get_cert_verify
PUBLIC 7226c 0 ssl3_get_client_certificate
PUBLIC 727d0 0 ssl3_send_server_certificate
PUBLIC 728bc 0 ssl3_send_newsession_ticket
PUBLIC 72d3c 0 ssl3_send_cert_status
PUBLIC 72e2c 0 ssl3_get_next_proto
PUBLIC 72fcc 0 ssl3_accept
PUBLIC 73ef0 0 SSLv3_client_method
PUBLIC 73f14 0 ssl3_client_hello
PUBLIC 743bc 0 ssl3_get_server_hello
PUBLIC 74b98 0 ssl3_get_server_certificate
PUBLIC 7518c 0 ssl3_get_certificate_request
PUBLIC 75844 0 ssl3_get_new_session_ticket
PUBLIC 75ac0 0 ssl3_get_cert_status
PUBLIC 75ce8 0 ssl3_get_server_done
PUBLIC 75d88 0 ssl3_send_client_key_exchange
PUBLIC 76d44 0 ssl3_send_client_verify
PUBLIC 7720c 0 ssl3_check_cert_and_algorithm
PUBLIC 77888 0 ssl3_get_key_exchange
PUBLIC 78e48 0 ssl3_send_next_proto
PUBLIC 78f08 0 ssl_do_client_cert_cb
PUBLIC 78f8c 0 ssl3_send_client_certificate
PUBLIC 791e8 0 ssl3_connect
PUBLIC 79d0c 0 ssl3_set_handshake_header
PUBLIC 79d48 0 ssl3_handshake_write
PUBLIC 79d58 0 ssl3_default_timeout
PUBLIC 79d64 0 ssl3_num_ciphers
PUBLIC 79d6c 0 ssl3_get_cipher
PUBLIC 79d98 0 ssl3_pending
PUBLIC 79dc4 0 ssl3_new
PUBLIC 79e80 0 ssl3_free
PUBLIC 79f88 0 ssl3_clear
PUBLIC 7a100 0 ssl3_ctrl
PUBLIC 7addc 0 ssl3_callback_ctrl
PUBLIC 7aeac 0 ssl3_ctx_ctrl
PUBLIC 7b784 0 ssl3_ctx_callback_ctrl
PUBLIC 7b954 0 ssl3_get_cipher_by_char
PUBLIC 7b990 0 ssl3_put_cipher_by_char
PUBLIC 7b9cc 0 ssl3_choose_cipher
PUBLIC 7bb78 0 ssl3_get_req_cert_type
PUBLIC 7bd54 0 ssl3_shutdown
PUBLIC 7be54 0 ssl3_renegotiate
PUBLIC 7be8c 0 ssl3_renegotiate_check
PUBLIC 7bf04 0 ssl3_write
PUBLIC 7c004 0 ssl3_peek
PUBLIC 7c0d0 0 ssl3_read
PUBLIC 7c1a0 0 ssl_get_algorithm2
PUBLIC 7c1dc 0 ssl3_change_cipher_state
PUBLIC 7c74c 0 ssl3_cleanup_key_block
PUBLIC 7c794 0 ssl3_setup_key_block
PUBLIC 7cb84 0 ssl3_enc
PUBLIC 7cd28 0 ssl3_free_digest_list
PUBLIC 7cd80 0 ssl3_init_finished_mac
PUBLIC 7cde0 0 ssl3_finish_mac
PUBLIC 7ce48 0 ssl3_digest_cached_records
PUBLIC 7d1a8 0 ssl3_cert_verify_mac
PUBLIC 7d1c8 0 ssl3_final_finish_mac
PUBLIC 7d238 0 ssl3_record_sequence_update
PUBLIC 7d2ec 0 n_ssl3_mac
PUBLIC 7d590 0 ssl3_generate_master_secret
PUBLIC 7d6d0 0 ssl3_alert_code
PUBLIC 7d6f4 0 ssl3_read_n
PUBLIC 7da08 0 ssl3_do_uncompress
PUBLIC 7da50 0 ssl3_do_compress
PUBLIC 7da98 0 ssl3_write_pending
PUBLIC 7e0a0 0 ssl3_write_bytes
PUBLIC 7e750 0 ssl3_do_change_cipher_spec
PUBLIC 7e898 0 ssl3_send_alert
PUBLIC 7e944 0 ssl3_read_bytes
PUBLIC 7fac4 0 ssl3_dispatch_alert
PUBLIC 7fedc 0 ssl3_do_write
PUBLIC 7ffb4 0 ssl3_send_finished
PUBLIC 80100 0 ssl3_get_finished
PUBLIC 802cc 0 ssl3_send_change_cipher_spec
PUBLIC 80300 0 ssl3_output_cert_chain
PUBLIC 803b4 0 ssl3_get_message
PUBLIC 807b8 0 ssl_cert_type
PUBLIC 8089c 0 ssl_verify_alarm_type
PUBLIC 808c4 0 ssl3_setup_read_buffer
PUBLIC 80a68 0 ssl3_setup_write_buffer
PUBLIC 80bf0 0 ssl3_setup_buffers
PUBLIC 80c18 0 ssl3_release_write_buffer
PUBLIC 80cfc 0 ssl3_release_read_buffer
PUBLIC 810c8 0 ssl3_cbc_remove_padding
PUBLIC 81154 0 tls1_cbc_remove_padding
PUBLIC 81324 0 ssl3_cbc_copy_mac
PUBLIC 814bc 0 ssl3_cbc_record_digest_supported
PUBLIC 814f8 0 ssl3_cbc_digest_record
PUBLIC 82100 0 dtls1_accept
PUBLIC 82f18 0 DTLSv1_server_method
PUBLIC 82f28 0 DTLSv1_2_server_method
PUBLIC 82f6c 0 DTLS_server_method
PUBLIC 82f80 0 dtls1_connect
PUBLIC 83ab0 0 DTLSv1_client_method
PUBLIC 83ac0 0 DTLSv1_2_client_method
PUBLIC 83b10 0 DTLS_client_method
PUBLIC 83ca0 0 dtls1_default_timeout
PUBLIC 83cac 0 dtls1_new
PUBLIC 83de4 0 dtls1_free
PUBLIC 83e48 0 dtls1_clear
PUBLIC 83f24 0 dtls1_get_cipher
PUBLIC 83f44 0 dtls1_start_timer
PUBLIC 83fb4 0 dtls1_get_timeout
PUBLIC 840b0 0 dtls1_is_timer_expired
PUBLIC 840f0 0 dtls1_double_timeout
PUBLIC 84114 0 dtls1_stop_timer
PUBLIC 841bc 0 dtls1_check_timeout_num
PUBLIC 84270 0 dtls1_handle_timeout
PUBLIC 842f0 0 dtls1_listen
PUBLIC 84350 0 dtls1_ctrl
PUBLIC 84b04 0 dtls1_get_record
PUBLIC 850ac 0 do_dtls1_write
PUBLIC 85444 0 dtls1_write_bytes
PUBLIC 854b4 0 dtls1_write_app_data_bytes
PUBLIC 85588 0 dtls1_dispatch_alert
PUBLIC 85680 0 dtls1_reset_seq_numbers
PUBLIC 85768 0 dtls1_read_bytes
PUBLIC 865f8 0 dtls1_hm_fragment_free
PUBLIC 86a90 0 dtls1_read_failed
PUBLIC 86b2c 0 dtls1_get_queue_priority
PUBLIC 86b34 0 dtls1_buffer_message
PUBLIC 86d58 0 dtls1_clear_record_buffer
PUBLIC 86d9c 0 dtls1_set_message_header
PUBLIC 86e14 0 dtls1_link_min_mtu
PUBLIC 86e1c 0 dtls1_min_mtu
PUBLIC 86f38 0 dtls1_do_write
PUBLIC 87494 0 dtls1_send_change_cipher_spec
PUBLIC 8756c 0 dtls1_retransmit_message
PUBLIC 87794 0 dtls1_retransmit_buffered_messages
PUBLIC 87860 0 dtls1_get_message_header
PUBLIC 878ec 0 dtls1_get_message
PUBLIC 881bc 0 dtls1_get_ccs_header
PUBLIC 881e4 0 dtls1_shutdown
PUBLIC 881e8 0 dtls1_process_heartbeat
PUBLIC 88394 0 dtls1_heartbeat
PUBLIC 88558 0 DTLSv1_method
PUBLIC 88568 0 DTLSv1_2_method
PUBLIC 885ac 0 DTLS_method
PUBLIC 885c0 0 CRYPTO_get_new_lockid
PUBLIC 886a4 0 CRYPTO_num_locks
PUBLIC 886ac 0 CRYPTO_get_dynlock_create_callback
PUBLIC 886c0 0 CRYPTO_get_dynlock_lock_callback
PUBLIC 886d4 0 CRYPTO_get_dynlock_destroy_callback
PUBLIC 886e8 0 CRYPTO_set_dynlock_create_callback
PUBLIC 886fc 0 CRYPTO_set_dynlock_lock_callback
PUBLIC 88710 0 CRYPTO_set_dynlock_destroy_callback
PUBLIC 88724 0 CRYPTO_get_locking_callback
PUBLIC 88738 0 CRYPTO_get_add_lock_callback
PUBLIC 8874c 0 CRYPTO_set_locking_callback
PUBLIC 8876c 0 CRYPTO_set_add_lock_callback
PUBLIC 88780 0 CRYPTO_THREADID_set_numeric
PUBLIC 887b4 0 CRYPTO_THREADID_set_pointer
PUBLIC 887dc 0 CRYPTO_THREADID_set_callback
PUBLIC 88800 0 CRYPTO_THREADID_get_callback
PUBLIC 88814 0 CRYPTO_THREADID_current
PUBLIC 88870 0 CRYPTO_THREADID_cmp
PUBLIC 88878 0 CRYPTO_THREADID_cpy
PUBLIC 88880 0 CRYPTO_THREADID_hash
PUBLIC 88888 0 CRYPTO_get_id_callback
PUBLIC 8889c 0 CRYPTO_set_id_callback
PUBLIC 888b0 0 CRYPTO_thread_id
PUBLIC 888dc 0 CRYPTO_get_lock_name
PUBLIC 88954 0 OPENSSL_ia32cap_loc
PUBLIC 8895c 0 OPENSSL_cpuid_setup
PUBLIC 88960 0 OPENSSL_showfatal
PUBLIC 889a0 0 OPENSSL_isservice
PUBLIC 889a8 0 OpenSSLDie
PUBLIC 889d0 0 CRYPTO_lock
PUBLIC 88a88 0 CRYPTO_get_new_dynlockid
PUBLIC 88cb4 0 CRYPTO_destroy_dynlockid
PUBLIC 88dc8 0 CRYPTO_get_dynlock_value
PUBLIC 88e80 0 CRYPTO_add_lock
PUBLIC 88f0c 0 OPENSSL_stderr
PUBLIC 88f20 0 CRYPTO_memcmp
PUBLIC 89074 0 CRYPTO_set_mem_functions
PUBLIC 89114 0 CRYPTO_set_mem_ex_functions
PUBLIC 891a0 0 CRYPTO_set_locked_mem_functions
PUBLIC 89204 0 CRYPTO_set_locked_mem_ex_functions
PUBLIC 89264 0 CRYPTO_set_mem_debug_functions
PUBLIC 892bc 0 CRYPTO_get_mem_functions
PUBLIC 89368 0 CRYPTO_get_mem_ex_functions
PUBLIC 893e4 0 CRYPTO_get_locked_mem_functions
PUBLIC 89448 0 CRYPTO_get_locked_mem_ex_functions
PUBLIC 89494 0 CRYPTO_get_mem_debug_functions
PUBLIC 8951c 0 CRYPTO_malloc_locked
PUBLIC 89620 0 CRYPTO_free_locked
PUBLIC 89688 0 CRYPTO_malloc
PUBLIC 8978c 0 CRYPTO_strdup
PUBLIC 897c8 0 CRYPTO_realloc
PUBLIC 898ac 0 CRYPTO_realloc_clean
PUBLIC 899c8 0 CRYPTO_free
PUBLIC 89a30 0 CRYPTO_remalloc
PUBLIC 89a64 0 CRYPTO_set_mem_debug_options
PUBLIC 89a88 0 CRYPTO_get_mem_debug_options
PUBLIC 89e30 0 CRYPTO_mem_ctrl
PUBLIC 8a00c 0 CRYPTO_is_mem_check_on
PUBLIC 8a0b8 0 CRYPTO_dbg_set_options
PUBLIC 8a0cc 0 CRYPTO_dbg_get_options
PUBLIC 8a0dc 0 CRYPTO_push_info_
PUBLIC 8a1cc 0 CRYPTO_pop_info
PUBLIC 8a2ac 0 CRYPTO_remove_all_info
PUBLIC 8a39c 0 CRYPTO_dbg_malloc
PUBLIC 8a594 0 CRYPTO_dbg_free
PUBLIC 8a6cc 0 CRYPTO_dbg_realloc
PUBLIC 8a778 0 CRYPTO_mem_leaks
PUBLIC 8a8d4 0 CRYPTO_mem_leaks_fp
PUBLIC 8a940 0 CRYPTO_mem_leaks_cb
PUBLIC 8ae6c 0 CRYPTO_get_ex_data_implementation
PUBLIC 8aef4 0 CRYPTO_set_ex_data_implementation
PUBLIC 8af5c 0 CRYPTO_ex_data_new_class
PUBLIC 8aff0 0 CRYPTO_cleanup_all_ex_data
PUBLIC 8b084 0 CRYPTO_get_ex_new_index
PUBLIC 8b150 0 CRYPTO_new_ex_data
PUBLIC 8b1fc 0 CRYPTO_dup_ex_data
PUBLIC 8b2a8 0 CRYPTO_free_ex_data
PUBLIC 8b354 0 CRYPTO_set_ex_data
PUBLIC 8b440 0 CRYPTO_get_ex_data
PUBLIC 8b978 0 OPENSSL_DIR_read
PUBLIC 8ba90 0 OPENSSL_DIR_end
PUBLIC 8baf0 0 OPENSSL_init
PUBLIC 8bb10 0 OPENSSL_cleanse
PUBLIC 8bc94 0 OBJ_NAME_init
PUBLIC 8bcf8 0 OBJ_NAME_new_index
PUBLIC 8be84 0 OBJ_NAME_get
PUBLIC 8bf4c 0 OBJ_NAME_add
PUBLIC 8c038 0 OBJ_NAME_remove
PUBLIC 8c10c 0 OBJ_NAME_do_all
PUBLIC 8c144 0 OBJ_NAME_do_all_sorted
PUBLIC 8c210 0 OBJ_NAME_cleanup
PUBLIC 8c504 0 check_defer
PUBLIC 8c534 0 OBJ_cleanup
PUBLIC 8c5bc 0 OBJ_new_nid
PUBLIC 8c5dc 0 OBJ_add_object
PUBLIC 8c7d8 0 OBJ_nid2obj
PUBLIC 8c8e0 0 OBJ_nid2sn
PUBLIC 8c9f0 0 OBJ_nid2ln
PUBLIC 8cb00 0 OBJ_bsearch_ex_
PUBLIC 8cbfc 0 OBJ_bsearch_
PUBLIC 8cc20 0 OBJ_obj2nid
PUBLIC 8ccfc 0 OBJ_obj2txt
PUBLIC 8d098 0 OBJ_ln2nid
PUBLIC 8d158 0 OBJ_sn2nid
PUBLIC 8d214 0 OBJ_txt2obj
PUBLIC 8d308 0 OBJ_txt2nid
PUBLIC 8d330 0 OBJ_create
PUBLIC 8d418 0 OBJ_create_objects
PUBLIC 8d57c 0 OBJ_dup
PUBLIC 8d76c 0 OBJ_cmp
PUBLIC 8d804 0 OBJ_find_sigid_algs
PUBLIC 8d8b4 0 OBJ_find_sigid_by_algs
PUBLIC 8d96c 0 OBJ_add_sigid
PUBLIC 8da78 0 OBJ_sigid_free
PUBLIC 8dad4 0 MD5_Init
PUBLIC 8db14 0 md5_block_data_order
PUBLIC 8e750 0 MD5_Update
PUBLIC 8e864 0 MD5_Transform
PUBLIC 8e86c 0 MD5_Final
PUBLIC 902b8 0 SHA1_Update
PUBLIC 903cc 0 SHA1_Transform
PUBLIC 903d4 0 SHA1_Final
PUBLIC 90540 0 SHA1_Init
PUBLIC 918c4 0 SHA224_Init
PUBLIC 91948 0 SHA256_Init
PUBLIC 919cc 0 SHA256_Update
PUBLIC 91ae0 0 SHA224_Update
PUBLIC 91ae4 0 SHA256_Transform
PUBLIC 91aec 0 SHA256_Final
PUBLIC 91f08 0 SHA224
PUBLIC 91f6c 0 SHA256
PUBLIC 91fd4 0 SHA224_Final
PUBLIC 9822c 0 SHA384_Init
PUBLIC 982fc 0 SHA512_Init
PUBLIC 983cc 0 SHA512_Final
PUBLIC 98880 0 SHA384_Final
PUBLIC 98884 0 SHA512_Update
PUBLIC 989e0 0 SHA384_Update
PUBLIC 989e4 0 SHA512_Transform
PUBLIC 98a28 0 SHA384
PUBLIC 98a8c 0 SHA512
PUBLIC 98af4 0 HMAC_Init_ex
PUBLIC 98d20 0 HMAC_Update
PUBLIC 98d3c 0 HMAC_Final
PUBLIC 98dd0 0 HMAC_CTX_init
PUBLIC 98dfc 0 HMAC_Init
PUBLIC 98e48 0 HMAC_CTX_copy
PUBLIC 98ec0 0 HMAC_CTX_cleanup
PUBLIC 98ef4 0 HMAC
PUBLIC 98fa4 0 HMAC_CTX_set_flags
PUBLIC 98fd4 0 RC4
PUBLIC 995d8 0 RC4_set_key
PUBLIC 995dc 0 BN_exp
PUBLIC 9976c 0 BN_mod_exp_recp
PUBLIC 99b58 0 BN_mod_exp_mont_consttime
PUBLIC 9a328 0 BN_mod_exp_mont
PUBLIC 9a8c4 0 BN_mod_exp_mont_word
PUBLIC 9ad6c 0 BN_mod_exp
PUBLIC 9ae18 0 BN_mod_exp_simple
PUBLIC 9b318 0 BN_set_params
PUBLIC 9b404 0 BN_get_params
PUBLIC 9b478 0 BN_value_one
PUBLIC 9b488 0 BN_num_bits_word
PUBLIC 9b4fc 0 BN_num_bits
PUBLIC 9b528 0 BN_clear_free
PUBLIC 9b588 0 BN_free
PUBLIC 9b5d8 0 BN_init
PUBLIC 9b5e4 0 BN_new
PUBLIC 9b65c 0 bn_expand2
PUBLIC 9b6ac 0 BN_copy
PUBLIC 9b798 0 BN_dup
PUBLIC 9b7e0 0 bn_dup_expand
PUBLIC 9b84c 0 BN_swap
PUBLIC 9b8c0 0 BN_clear
PUBLIC 9b8f4 0 BN_get_word
PUBLIC 9b920 0 BN_set_word
PUBLIC 9b970 0 BN_bin2bn
PUBLIC 9ba7c 0 BN_bn2bin
PUBLIC 9baf0 0 BN_ucmp
PUBLIC 9bb78 0 BN_cmp
PUBLIC 9bc68 0 BN_set_bit
PUBLIC 9bd08 0 BN_clear_bit
PUBLIC 9bd84 0 BN_is_bit_set
PUBLIC 9bdbc 0 BN_mask_bits
PUBLIC 9be48 0 BN_set_negative
PUBLIC 9be64 0 bn_cmp_words
PUBLIC 9befc 0 bn_cmp_part_words
PUBLIC 9bf70 0 BN_consttime_swap
PUBLIC 9c214 0 BN_CTX_init
PUBLIC 9c280 0 BN_CTX_new
PUBLIC 9c308 0 BN_CTX_free
PUBLIC 9c388 0 BN_CTX_start
PUBLIC 9c494 0 BN_CTX_end
PUBLIC 9c514 0 BN_CTX_get
PUBLIC 9c680 0 bn_sub_part_words
PUBLIC 9c828 0 bn_add_part_words
PUBLIC 9cae4 0 bn_mul_normal
PUBLIC 9cbd0 0 bn_mul_recursive
PUBLIC 9d050 0 bn_mul_high
PUBLIC 9d4cc 0 bn_mul_part_recursive
PUBLIC 9d9f8 0 BN_mul
PUBLIC 9dd0c 0 bn_mul_low_normal
PUBLIC 9ddcc 0 bn_mul_low_recursive
PUBLIC 9dee0 0 BN_nnmod
PUBLIC 9df60 0 BN_mod_add
PUBLIC 9df94 0 BN_mod_add_quick
PUBLIC 9dfdc 0 BN_mod_sub
PUBLIC 9e010 0 BN_mod_sub_quick
PUBLIC 9e050 0 BN_mod_mul
PUBLIC 9e0e4 0 BN_mod_sqr
PUBLIC 9e128 0 BN_mod_lshift1
PUBLIC 9e15c 0 BN_mod_lshift1_quick
PUBLIC 9e1a4 0 BN_mod_lshift_quick
PUBLIC 9e2ac 0 BN_mod_lshift
PUBLIC 9e33c 0 BN_bn2hex
PUBLIC 9e540 0 BN_bn2dec
PUBLIC 9e794 0 BN_hex2bn
PUBLIC 9e960 0 BN_dec2bn
PUBLIC 9eb00 0 BN_asc2bn
PUBLIC 9eb88 0 BN_print
PUBLIC 9ee90 0 BN_print_fp
PUBLIC 9eee4 0 BN_options
PUBLIC 9ef44 0 BN_lshift1
PUBLIC 9f018 0 BN_rshift1
PUBLIC 9f0e0 0 BN_lshift
PUBLIC 9f248 0 BN_rshift
PUBLIC 9f398 0 BN_mod_word
PUBLIC 9f408 0 BN_div_word
PUBLIC 9f4d4 0 BN_sub_word
PUBLIC 9f5c4 0 BN_add_word
PUBLIC 9f6bc 0 BN_mul_word
PUBLIC 9f73c 0 bn_sqr_normal
PUBLIC 9f814 0 bn_sqr_recursive
PUBLIC 9f9c0 0 BN_sqr
PUBLIC 9fb90 0 bn_mul_add_words
PUBLIC 9fcc0 0 bn_mul_words
PUBLIC 9fd7c 0 bn_sqr_words
PUBLIC 9fe0c 0 bn_div_words
PUBLIC 9fe34 0 bn_add_words
PUBLIC 9ff74 0 bn_sub_words
PUBLIC a0088 0 bn_mul_comba8
PUBLIC a0748 0 bn_mul_comba4
PUBLIC a0928 0 bn_sqr_comba8
PUBLIC a0ee0 0 bn_sqr_comba4
PUBLIC a1078 0 BN_RECP_CTX_init
PUBLIC a109c 0 BN_RECP_CTX_new
PUBLIC a10d4 0 BN_RECP_CTX_free
PUBLIC a1104 0 BN_RECP_CTX_set
PUBLIC a114c 0 BN_reciprocal
PUBLIC a11c8 0 BN_div_recp
PUBLIC a142c 0 BN_mod_mul_reciprocal
PUBLIC a179c 0 BN_mod_mul_montgomery
PUBLIC a182c 0 BN_from_montgomery
PUBLIC a1894 0 BN_MONT_CTX_init
PUBLIC a18c8 0 BN_MONT_CTX_new
PUBLIC a1904 0 BN_MONT_CTX_free
PUBLIC a1940 0 BN_MONT_CTX_set
PUBLIC a1b10 0 BN_MONT_CTX_copy
PUBLIC a1b8c 0 BN_MONT_CTX_set_locked
PUBLIC a1c74 0 EC_GROUP_new
PUBLIC a1d9c 0 EC_GROUP_method_of
PUBLIC a1da4 0 EC_METHOD_get_field_type
PUBLIC a1dac 0 EC_GROUP_get0_generator
PUBLIC a1db4 0 EC_GROUP_get_mont_data
PUBLIC a1dc8 0 EC_GROUP_get_order
PUBLIC a1df4 0 EC_GROUP_get_cofactor
PUBLIC a1e20 0 EC_GROUP_set_curve_name
PUBLIC a1e28 0 EC_GROUP_get_curve_name
PUBLIC a1e30 0 EC_GROUP_set_asn1_flag
PUBLIC a1e48 0 EC_GROUP_get_asn1_flag
PUBLIC a1e54 0 EC_GROUP_set_point_conversion_form
PUBLIC a1e5c 0 EC_GROUP_get_point_conversion_form
PUBLIC a1e64 0 EC_GROUP_set_seed
PUBLIC a1ee8 0 EC_GROUP_get0_seed
PUBLIC a1ef0 0 EC_GROUP_get_seed_len
PUBLIC a1ef8 0 EC_GROUP_set_curve_GFp
PUBLIC a1f54 0 EC_GROUP_get_curve_GFp
PUBLIC a1fb4 0 EC_GROUP_set_curve_GF2m
PUBLIC a2014 0 EC_GROUP_get_curve_GF2m
PUBLIC a2074 0 EC_GROUP_get_degree
PUBLIC a20cc 0 EC_GROUP_check_discriminant
PUBLIC a2124 0 EC_EX_DATA_set_data
PUBLIC a2210 0 EC_EX_DATA_get_data
PUBLIC a2258 0 EC_EX_DATA_free_data
PUBLIC a22c8 0 EC_EX_DATA_clear_free_data
PUBLIC a2338 0 EC_EX_DATA_free_all_data
PUBLIC a2380 0 EC_EX_DATA_clear_free_all_data
PUBLIC a23c8 0 EC_POINT_new
PUBLIC a24c8 0 EC_POINT_free
PUBLIC a24f4 0 EC_GROUP_free
PUBLIC a2578 0 EC_POINT_clear_free
PUBLIC a25c0 0 EC_GROUP_clear_free
PUBLIC a266c 0 EC_POINT_copy
PUBLIC a270c 0 EC_GROUP_copy
PUBLIC a299c 0 EC_GROUP_dup
PUBLIC a29e4 0 EC_POINT_dup
PUBLIC a2a2c 0 EC_POINT_method_of
PUBLIC a2a34 0 EC_POINT_set_to_infinity
PUBLIC a2ac8 0 EC_POINT_set_Jprojective_coordinates_GFp
PUBLIC a2b6c 0 EC_POINT_get_Jprojective_coordinates_GFp
PUBLIC a2c10 0 EC_POINT_set_affine_coordinates_GFp
PUBLIC a2ca8 0 EC_POINT_set_affine_coordinates_GF2m
PUBLIC a2d44 0 EC_POINT_get_affine_coordinates_GFp
PUBLIC a2ddc 0 EC_POINT_get_affine_coordinates_GF2m
PUBLIC a2e78 0 EC_POINT_add
PUBLIC a2f28 0 EC_POINT_dbl
PUBLIC a2fbc 0 EC_POINT_invert
PUBLIC a3050 0 EC_POINT_is_at_infinity
PUBLIC a30e4 0 EC_POINT_is_on_curve
PUBLIC a3170 0 EC_POINT_cmp
PUBLIC a3210 0 EC_GROUP_cmp
PUBLIC a349c 0 EC_POINT_make_affine
PUBLIC a3530 0 EC_POINTs_make_affine
PUBLIC a35f8 0 EC_POINTs_mul
PUBLIC a3640 0 EC_POINT_mul
PUBLIC a368c 0 EC_GROUP_precompute_mult
PUBLIC a36c4 0 EC_GROUP_have_precompute_mult
PUBLIC a36fc 0 ec_precompute_mont_data
PUBLIC a37a0 0 EC_GROUP_set_generator
PUBLIC a3cf8 0 ec_wNAF_mul
PUBLIC a4b34 0 ec_wNAF_precompute_mult
PUBLIC a5198 0 ec_wNAF_have_precompute_mult
PUBLIC a51d4 0 EC_GROUP_new_by_curve_name
PUBLIC a5718 0 EC_get_builtin_curves
PUBLIC a5780 0 EC_curve_nid2nist
PUBLIC a58c4 0 EC_curve_nist2nid
PUBLIC a5af8 0 EC_KEY_new
PUBLIC a5b80 0 EC_KEY_free
PUBLIC a5c18 0 EC_KEY_new_by_curve_name
PUBLIC a5c60 0 EC_KEY_copy
PUBLIC a5e08 0 EC_KEY_dup
PUBLIC a5e44 0 EC_KEY_up_ref
PUBLIC a5e84 0 EC_KEY_generate_key
PUBLIC a6000 0 EC_KEY_check_key
PUBLIC a62dc 0 EC_KEY_get0_group
PUBLIC a62e4 0 EC_KEY_set_group
PUBLIC a6318 0 EC_KEY_get0_private_key
PUBLIC a6320 0 EC_KEY_set_private_key
PUBLIC a6354 0 EC_KEY_get0_public_key
PUBLIC a635c 0 EC_KEY_set_public_key
PUBLIC a6394 0 EC_KEY_set_public_key_affine_coordinates
PUBLIC a6594 0 EC_KEY_get_enc_flags
PUBLIC a659c 0 EC_KEY_set_enc_flags
PUBLIC a65a4 0 EC_KEY_get_conv_form
PUBLIC a65ac 0 EC_KEY_set_conv_form
PUBLIC a65c4 0 EC_KEY_get_key_method_data
PUBLIC a6634 0 EC_KEY_insert_key_method_data
PUBLIC a66d0 0 EC_KEY_set_asn1_flag
PUBLIC a66e0 0 EC_KEY_precompute_mult
PUBLIC a66f0 0 EC_KEY_get_flags
PUBLIC a66f8 0 EC_KEY_set_flags
PUBLIC a6708 0 EC_KEY_clear_flags
PUBLIC a6718 0 EC_POINT_set_compressed_coordinates_GFp
PUBLIC a67fc 0 EC_POINT_set_compressed_coordinates_GF2m
PUBLIC a68e0 0 EC_POINT_point2oct
PUBLIC a69c8 0 EC_POINT_oct2point
PUBLIC a6aac 0 RSA_set_default_method
PUBLIC a6ac0 0 RSA_get_default_method
PUBLIC a6ae8 0 RSA_get_method
PUBLIC a6af0 0 RSA_set_method
PUBLIC a6b48 0 RSA_new_method
PUBLIC a6d38 0 RSA_new
PUBLIC a6d40 0 RSA_free
PUBLIC a6e7c 0 RSA_up_ref
PUBLIC a6ebc 0 RSA_get_ex_new_index
PUBLIC a6ef0 0 RSA_set_ex_data
PUBLIC a6ef8 0 RSA_get_ex_data
PUBLIC a6f00 0 RSA_memory_lock
PUBLIC a7068 0 RSA_sign
PUBLIC a72d0 0 int_rsa_verify
PUBLIC a77d8 0 RSA_verify
PUBLIC a78a8 0 d2i_RSA_PSS_PARAMS
PUBLIC a78b8 0 i2d_RSA_PSS_PARAMS
PUBLIC a78c8 0 RSA_PSS_PARAMS_new
PUBLIC a78d8 0 RSA_PSS_PARAMS_free
PUBLIC a78e8 0 d2i_RSA_OAEP_PARAMS
PUBLIC a78f8 0 i2d_RSA_OAEP_PARAMS
PUBLIC a7908 0 RSA_OAEP_PARAMS_new
PUBLIC a7918 0 RSA_OAEP_PARAMS_free
PUBLIC a7928 0 d2i_RSAPrivateKey
PUBLIC a7938 0 i2d_RSAPrivateKey
PUBLIC a7948 0 d2i_RSAPublicKey
PUBLIC a7958 0 i2d_RSAPublicKey
PUBLIC a7968 0 RSAPublicKey_dup
PUBLIC a797c 0 RSAPrivateKey_dup
PUBLIC a7990 0 RSA_size
PUBLIC a79b0 0 RSA_public_encrypt
PUBLIC a79d4 0 RSA_private_encrypt
PUBLIC a79f8 0 RSA_private_decrypt
PUBLIC a7a1c 0 RSA_public_decrypt
PUBLIC a7a40 0 RSA_flags
PUBLIC a7a50 0 RSA_blinding_off
PUBLIC a7a84 0 RSA_setup_blinding
PUBLIC a7d30 0 RSA_blinding_on
PUBLIC a7e40 0 d2i_DSA_SIG
PUBLIC a7e50 0 i2d_DSA_SIG
PUBLIC a7e60 0 d2i_DSAPrivateKey
PUBLIC a7e70 0 i2d_DSAPrivateKey
PUBLIC a7e80 0 d2i_DSAparams
PUBLIC a7e90 0 i2d_DSAparams
PUBLIC a7ea0 0 d2i_DSAPublicKey
PUBLIC a7eb0 0 i2d_DSAPublicKey
PUBLIC a7ec0 0 DSAparams_dup
PUBLIC a7ed4 0 DSA_sign
PUBLIC a7f48 0 DSA_verify
PUBLIC a8020 0 DSA_do_verify
PUBLIC a8034 0 DSA_do_sign
PUBLIC a8048 0 DSA_sign_setup
PUBLIC a805c 0 DSA_SIG_new
PUBLIC a808c 0 DSA_SIG_free
PUBLIC a80c4 0 ECDSA_do_sign_ex
PUBLIC a8118 0 ECDSA_do_sign
PUBLIC a8138 0 ECDSA_sign_ex
PUBLIC a81bc 0 ECDSA_sign
PUBLIC a81ec 0 ECDSA_sign_setup
PUBLIC a822c 0 ECDSA_do_verify
PUBLIC a8270 0 ECDSA_verify
PUBLIC a87e8 0 DH_generate_key
PUBLIC a87fc 0 DH_compute_key
PUBLIC a8810 0 DH_compute_key_padded
PUBLIC a887c 0 DH_OpenSSL
PUBLIC a888c 0 DH_set_default_method
PUBLIC a88a0 0 DH_get_default_method
PUBLIC a88c8 0 DH_set_method
PUBLIC a8920 0 DH_new_method
PUBLIC a8ae8 0 DH_new
PUBLIC a8af0 0 DH_free
PUBLIC a8bfc 0 DH_up_ref
PUBLIC a8c3c 0 DH_get_ex_new_index
PUBLIC a8c70 0 DH_set_ex_data
PUBLIC a8c78 0 DH_get_ex_data
PUBLIC a8c80 0 DH_size
PUBLIC a8ca0 0 DH_check
PUBLIC a8f78 0 DH_check_pub_key
PUBLIC aa774 0 DHparams_dup
PUBLIC ab184 0 DHparams_print
PUBLIC ab5d4 0 ECDH_compute_key
PUBLIC ab628 0 engine_unlocked_init
PUBLIC ab678 0 engine_unlocked_finish
PUBLIC ab754 0 ENGINE_init
PUBLIC ab7e0 0 ENGINE_finish
PUBLIC ab898 0 ENGINE_set_load_privkey_function
PUBLIC ab8a4 0 ENGINE_set_load_pubkey_function
PUBLIC ab8b0 0 ENGINE_set_load_ssl_client_cert_function
PUBLIC ab8bc 0 ENGINE_get_load_privkey_function
PUBLIC ab8c4 0 ENGINE_get_load_pubkey_function
PUBLIC ab8cc 0 ENGINE_get_ssl_client_cert_function
PUBLIC ab8d4 0 ENGINE_load_private_key
PUBLIC aba04 0 ENGINE_load_public_key
PUBLIC abb34 0 ENGINE_load_ssl_client_cert
PUBLIC abc74 0 ENGINE_unregister_RSA
PUBLIC abc88 0 ENGINE_register_RSA
PUBLIC abce0 0 ENGINE_register_all_RSA
PUBLIC abd0c 0 ENGINE_set_default_RSA
PUBLIC abd64 0 ENGINE_get_default_RSA
PUBLIC abd78 0 ENGINE_get_RSA
PUBLIC abd80 0 ENGINE_set_RSA
PUBLIC abd9c 0 ENGINE_unregister_DH
PUBLIC abdb0 0 ENGINE_register_DH
PUBLIC abe08 0 ENGINE_register_all_DH
PUBLIC abe34 0 ENGINE_set_default_DH
PUBLIC abe8c 0 ENGINE_get_default_DH
PUBLIC abea0 0 ENGINE_get_DH
PUBLIC abea8 0 ENGINE_set_DH
PUBLIC abeb4 0 BUF_MEM_new
PUBLIC abf1c 0 BUF_MEM_free
PUBLIC abf50 0 BUF_MEM_grow
PUBLIC ac090 0 BUF_MEM_grow_clean
PUBLIC ac1f8 0 BUF_reverse
PUBLIC ac258 0 BUF_strnlen
PUBLIC ac2c0 0 BUF_memdup
PUBLIC ac334 0 BUF_strlcpy
PUBLIC ac3b8 0 BUF_strndup
PUBLIC ac438 0 BUF_strdup
PUBLIC ac458 0 BUF_strlcat
PUBLIC ac4b0 0 BIO_set
PUBLIC ac548 0 BIO_new
PUBLIC ac5c8 0 BIO_free
PUBLIC ac688 0 BIO_vfree
PUBLIC ac68c 0 BIO_clear_flags
PUBLIC ac69c 0 BIO_test_flags
PUBLIC ac6a8 0 BIO_set_flags
PUBLIC ac6b8 0 BIO_get_callback
PUBLIC ac6c0 0 BIO_set_callback
PUBLIC ac6c8 0 BIO_set_callback_arg
PUBLIC ac6d0 0 BIO_get_callback_arg
PUBLIC ac6d8 0 BIO_method_name
PUBLIC ac6e4 0 BIO_method_type
PUBLIC ac6f0 0 BIO_read
PUBLIC ac80c 0 BIO_write
PUBLIC ac930 0 BIO_puts
PUBLIC aca48 0 BIO_gets
PUBLIC acb5c 0 BIO_indent
PUBLIC acbb4 0 BIO_ctrl
PUBLIC acca0 0 BIO_int_ctrl
PUBLIC accc0 0 BIO_ptr_ctrl
PUBLIC accec 0 BIO_callback_ctrl
PUBLIC acdd8 0 BIO_ctrl_pending
PUBLIC acde8 0 BIO_ctrl_wpending
PUBLIC acdf8 0 BIO_push
PUBLIC ace48 0 BIO_pop
PUBLIC acea0 0 BIO_get_retry_BIO
PUBLIC acef8 0 BIO_get_retry_reason
PUBLIC acf00 0 BIO_find_type
PUBLIC acf60 0 BIO_next
PUBLIC acf6c 0 BIO_free_all
PUBLIC acfa0 0 BIO_dup_chain
PUBLIC ad078 0 BIO_copy_next_retry
PUBLIC ad0a8 0 BIO_get_ex_new_index
PUBLIC ad0dc 0 BIO_set_ex_data
PUBLIC ad0e4 0 BIO_get_ex_data
PUBLIC ad0ec 0 BIO_number_read
PUBLIC ad0f8 0 BIO_number_written
PUBLIC ad68c 0 BIO_s_mem
PUBLIC ad69c 0 BIO_new_mem_buf
PUBLIC adc6c 0 BIO_s_file
PUBLIC adc7c 0 BIO_new_file
PUBLIC adda0 0 BIO_new_fp
PUBLIC adf5c 0 BIO_s_socket
PUBLIC adf6c 0 BIO_new_socket
PUBLIC adfa0 0 BIO_sock_non_fatal_error
PUBLIC adfe4 0 BIO_sock_should_retry
PUBLIC aeaf0 0 BIO_f_buffer
PUBLIC b02f8 0 BIO_vprintf
PUBLIC b03bc 0 BIO_printf
PUBLIC b03ec 0 BIO_vsnprintf
PUBLIC b0438 0 BIO_snprintf
PUBLIC b0468 0 sk_set_cmp_func
PUBLIC b0484 0 sk_new
PUBLIC b0524 0 sk_new_null
PUBLIC b052c 0 sk_insert
PUBLIC b0608 0 sk_delete
PUBLIC b0694 0 sk_delete_ptr
PUBLIC b06f0 0 sk_push
PUBLIC b06f8 0 sk_unshift
PUBLIC b0700 0 sk_shift
PUBLIC b0724 0 sk_pop
PUBLIC b0748 0 sk_zero
PUBLIC b077c 0 sk_free
PUBLIC b07a4 0 sk_dup
PUBLIC b0834 0 sk_deep_copy
PUBLIC b0984 0 sk_pop_free
PUBLIC b09d4 0 sk_num
PUBLIC b09e4 0 sk_value
PUBLIC b0a20 0 sk_set
PUBLIC b0a60 0 sk_sort
PUBLIC b0a98 0 sk_find
PUBLIC b0b4c 0 sk_find_ex
PUBLIC b0c00 0 sk_is_sorted
PUBLIC b0c10 0 lh_strhash
PUBLIC b0c70 0 lh_new
PUBLIC b0e00 0 lh_free
PUBLIC b0e68 0 lh_insert
PUBLIC b10d8 0 lh_delete
PUBLIC b12f0 0 lh_retrieve
PUBLIC b13d8 0 lh_doall
PUBLIC b1430 0 lh_doall_arg
PUBLIC b1490 0 lh_num_items
PUBLIC b149c 0 RAND_set_rand_method
PUBLIC b14e0 0 RAND_get_rand_method
PUBLIC b1544 0 RAND_set_rand_engine
PUBLIC b15a4 0 RAND_cleanup
PUBLIC b15d0 0 RAND_seed
PUBLIC b1604 0 RAND_add
PUBLIC b1648 0 RAND_bytes
PUBLIC b1684 0 RAND_pseudo_bytes
PUBLIC b16c0 0 RAND_status
PUBLIC b2128 0 ERR_get_implementation
PUBLIC b21b8 0 ERR_set_implementation
PUBLIC b2228 0 ERR_load_ERR_strings
PUBLIC b2524 0 ERR_load_strings
PUBLIC b25ac 0 ERR_unload_strings
PUBLIC b2630 0 ERR_free_strings
PUBLIC b26cc 0 ERR_get_string_table
PUBLIC b276c 0 ERR_get_err_state_table
PUBLIC b280c 0 ERR_release_err_state_table
PUBLIC b28b0 0 ERR_lib_error_string
PUBLIC b2970 0 ERR_func_error_string
PUBLIC b2a34 0 ERR_reason_error_string
PUBLIC b2b30 0 ERR_error_string_n
PUBLIC b2d2c 0 ERR_error_string
PUBLIC b2d64 0 ERR_remove_thread_state
PUBLIC b2e24 0 ERR_remove_state
PUBLIC b2e2c 0 ERR_get_state
PUBLIC b3050 0 ERR_put_error
PUBLIC b3120 0 ERR_clear_error
PUBLIC b3190 0 ERR_get_error_line_data
PUBLIC b32ac 0 ERR_get_error_line
PUBLIC b3378 0 ERR_peek_last_error
PUBLIC b339c 0 ERR_peek_error
PUBLIC b33d8 0 ERR_get_error
PUBLIC b3458 0 ERR_peek_last_error_line
PUBLIC b34c8 0 ERR_peek_error_line
PUBLIC b3550 0 ERR_peek_last_error_line_data
PUBLIC b3618 0 ERR_peek_error_line_data
PUBLIC b36f8 0 ERR_get_next_error_library
PUBLIC b3794 0 ERR_set_error_data
PUBLIC b37dc 0 ERR_add_error_vdata
PUBLIC b38b0 0 ERR_add_error_data
PUBLIC b38e0 0 ERR_set_mark
PUBLIC b3910 0 ERR_pop_to_mark
PUBLIC b39cc 0 ERR_load_crypto_strings
PUBLIC b3a44 0 EVP_MD_CTX_init
PUBLIC b3a50 0 EVP_MD_CTX_create
PUBLIC b3a80 0 EVP_DigestInit_ex
PUBLIC b3cdc 0 EVP_DigestInit
PUBLIC b3d00 0 EVP_DigestUpdate
PUBLIC b3d10 0 EVP_DigestFinal_ex
PUBLIC b3dbc 0 EVP_MD_CTX_cleanup
PUBLIC b3e8c 0 EVP_DigestFinal
PUBLIC b3eac 0 EVP_MD_CTX_copy_ex
PUBLIC b407c 0 EVP_MD_CTX_copy
PUBLIC b409c 0 EVP_Digest
PUBLIC b4134 0 EVP_MD_CTX_destroy
PUBLIC b4150 0 EVP_CIPHER_CTX_init
PUBLIC b415c 0 EVP_CIPHER_CTX_new
PUBLIC b418c 0 EVP_EncryptUpdate
PUBLIC b4368 0 EVP_EncryptFinal_ex
PUBLIC b44a0 0 EVP_EncryptFinal
PUBLIC b44a4 0 EVP_DecryptUpdate
PUBLIC b461c 0 EVP_CipherUpdate
PUBLIC b4644 0 EVP_DecryptFinal_ex
PUBLIC b490c 0 EVP_CipherFinal_ex
PUBLIC b4920 0 EVP_DecryptFinal
PUBLIC b4924 0 EVP_CipherFinal
PUBLIC b4938 0 EVP_CIPHER_CTX_cleanup
PUBLIC b49b8 0 EVP_CIPHER_CTX_free
PUBLIC b49d4 0 EVP_CIPHER_CTX_set_padding
PUBLIC b49f0 0 EVP_CIPHER_CTX_ctrl
PUBLIC b4ab8 0 EVP_CipherInit_ex
PUBLIC b4f00 0 EVP_CipherInit
PUBLIC b4f48 0 EVP_EncryptInit
PUBLIC b4f64 0 EVP_DecryptInit
PUBLIC b4f80 0 EVP_EncryptInit_ex
PUBLIC b4fa4 0 EVP_DecryptInit_ex
PUBLIC b4fc8 0 EVP_CIPHER_CTX_set_key_length
PUBLIC b5058 0 EVP_CIPHER_CTX_rand_key
PUBLIC b50a0 0 EVP_CIPHER_CTX_copy
PUBLIC b5738 0 EVP_des_cbc
PUBLIC b5748 0 EVP_des_cfb64
PUBLIC b575c 0 EVP_des_ofb
PUBLIC b5770 0 EVP_des_ecb
PUBLIC b5784 0 EVP_des_cfb1
PUBLIC b5798 0 EVP_des_cfb8
PUBLIC b5a94 0 EVP_idea_cbc
PUBLIC b5aa4 0 EVP_idea_cfb64
PUBLIC b5ab8 0 EVP_idea_ofb
PUBLIC b5acc 0 EVP_idea_ecb
PUBLIC b659c 0 EVP_des_ede_cbc
PUBLIC b65ac 0 EVP_des_ede_cfb64
PUBLIC b65c0 0 EVP_des_ede_ofb
PUBLIC b65d4 0 EVP_des_ede_ecb
PUBLIC b65e8 0 EVP_des_ede3_cbc
PUBLIC b65fc 0 EVP_des_ede3_cfb64
PUBLIC b6610 0 EVP_des_ede3_ofb
PUBLIC b6624 0 EVP_des_ede3_ecb
PUBLIC b6638 0 EVP_des_ede3_cfb1
PUBLIC b664c 0 EVP_des_ede3_cfb8
PUBLIC b6660 0 EVP_des_ede
PUBLIC b6674 0 EVP_des_ede3
PUBLIC b6688 0 EVP_des_ede3_wrap
PUBLIC b6a34 0 EVP_camellia_128_cbc
PUBLIC b6a44 0 EVP_camellia_128_ecb
PUBLIC b6a58 0 EVP_camellia_128_ofb
PUBLIC b6a6c 0 EVP_camellia_128_cfb128
PUBLIC b6a80 0 EVP_camellia_128_cfb1
PUBLIC b6a94 0 EVP_camellia_128_cfb8
PUBLIC b6aa8 0 EVP_camellia_192_cbc
PUBLIC b6abc 0 EVP_camellia_192_ecb
PUBLIC b6ad0 0 EVP_camellia_192_ofb
PUBLIC b6ae4 0 EVP_camellia_192_cfb128
PUBLIC b6af8 0 EVP_camellia_192_cfb1
PUBLIC b6b0c 0 EVP_camellia_192_cfb8
PUBLIC b6b20 0 EVP_camellia_256_cbc
PUBLIC b6b34 0 EVP_camellia_256_ecb
PUBLIC b6b48 0 EVP_camellia_256_ofb
PUBLIC b6b5c 0 EVP_camellia_256_cfb128
PUBLIC b6b70 0 EVP_camellia_256_cfb1
PUBLIC b6b84 0 EVP_camellia_256_cfb8
PUBLIC b6be0 0 EVP_rc4
PUBLIC b6bf0 0 EVP_rc4_40
PUBLIC b80a8 0 EVP_aes_128_cbc
PUBLIC b80b8 0 EVP_aes_128_ecb
PUBLIC b80cc 0 EVP_aes_128_ofb
PUBLIC b80e0 0 EVP_aes_128_cfb128
PUBLIC b80f4 0 EVP_aes_128_cfb1
PUBLIC b8108 0 EVP_aes_128_cfb8
PUBLIC b811c 0 EVP_aes_128_ctr
PUBLIC b8130 0 EVP_aes_192_cbc
PUBLIC b8144 0 EVP_aes_192_ecb
PUBLIC b8158 0 EVP_aes_192_ofb
PUBLIC b816c 0 EVP_aes_192_cfb128
PUBLIC b8180 0 EVP_aes_192_cfb1
PUBLIC b8194 0 EVP_aes_192_cfb8
PUBLIC b81a8 0 EVP_aes_192_ctr
PUBLIC b81bc 0 EVP_aes_256_cbc
PUBLIC b81d0 0 EVP_aes_256_ecb
PUBLIC b81e4 0 EVP_aes_256_ofb
PUBLIC b81f8 0 EVP_aes_256_cfb128
PUBLIC b820c 0 EVP_aes_256_cfb1
PUBLIC b8220 0 EVP_aes_256_cfb8
PUBLIC b8234 0 EVP_aes_256_ctr
PUBLIC b8248 0 EVP_aes_128_gcm
PUBLIC b8260 0 EVP_aes_192_gcm
PUBLIC b8278 0 EVP_aes_256_gcm
PUBLIC b8290 0 EVP_aes_128_xts
PUBLIC b82a4 0 EVP_aes_256_xts
PUBLIC b82bc 0 EVP_aes_128_ccm
PUBLIC b82d4 0 EVP_aes_192_ccm
PUBLIC b82ec 0 EVP_aes_256_ccm
PUBLIC b8300 0 EVP_aes_128_wrap
PUBLIC b8318 0 EVP_aes_192_wrap
PUBLIC b8330 0 EVP_aes_256_wrap
PUBLIC b83a8 0 EVP_add_cipher
PUBLIC b83fc 0 EVP_add_digest
PUBLIC b84ac 0 EVP_get_cipherbyname
PUBLIC b84b4 0 EVP_get_digestbyname
PUBLIC b84bc 0 EVP_cleanup
PUBLIC b8510 0 EVP_CIPHER_do_all
PUBLIC b8544 0 EVP_CIPHER_do_all_sorted
PUBLIC b8578 0 EVP_MD_do_all
PUBLIC b85ac 0 EVP_MD_do_all_sorted
PUBLIC b8858 0 EVP_seed_cbc
PUBLIC b8868 0 EVP_seed_cfb128
PUBLIC b887c 0 EVP_seed_ofb
PUBLIC b8890 0 EVP_seed_ecb
PUBLIC b8d78 0 EVP_rc2_cbc
PUBLIC b8d88 0 EVP_rc2_cfb64
PUBLIC b8d9c 0 EVP_rc2_ofb
PUBLIC b8db0 0 EVP_rc2_ecb
PUBLIC b8dc4 0 EVP_rc2_64_cbc
PUBLIC b8dd8 0 EVP_rc2_40_cbc
PUBLIC b8e0c 0 EVP_md5
PUBLIC b8e8c 0 EVP_sha1
PUBLIC b8e9c 0 EVP_sha224
PUBLIC b8eb0 0 EVP_sha256
PUBLIC b8ec4 0 EVP_sha384
PUBLIC b8ed8 0 EVP_sha512
PUBLIC b8f0c 0 EVP_dss1
PUBLIC b8f3c 0 EVP_ecdsa
PUBLIC b8f4c 0 EVP_SignFinal
PUBLIC b9144 0 EVP_VerifyFinal
PUBLIC b9328 0 EVP_PKEY_bits
PUBLIC b935c 0 EVP_PKEY_size
PUBLIC b9390 0 EVP_PKEY_save_parameters
PUBLIC b93cc 0 EVP_PKEY_missing_parameters
PUBLIC b93f8 0 EVP_PKEY_copy_parameters
PUBLIC b94b0 0 EVP_PKEY_cmp_parameters
PUBLIC b94f4 0 EVP_PKEY_cmp
PUBLIC b9564 0 EVP_PKEY_new
PUBLIC b95e4 0 EVP_PKEY_set_type
PUBLIC b96fc 0 EVP_PKEY_set_type_str
PUBLIC b9838 0 EVP_PKEY_assign
PUBLIC b9860 0 EVP_PKEY_get0
PUBLIC b9868 0 EVP_PKEY_set1_RSA
PUBLIC b9894 0 EVP_PKEY_get1_RSA
PUBLIC b98f4 0 EVP_PKEY_set1_DSA
PUBLIC b9920 0 EVP_PKEY_get1_DSA
PUBLIC b9980 0 EVP_PKEY_set1_EC_KEY
PUBLIC b99ac 0 EVP_PKEY_get1_EC_KEY
PUBLIC b9a08 0 EVP_PKEY_set1_DH
PUBLIC b9a34 0 EVP_PKEY_get1_DH
PUBLIC b9a98 0 EVP_PKEY_type
PUBLIC b9ad4 0 EVP_PKEY_id
PUBLIC b9adc 0 EVP_PKEY_base_id
PUBLIC b9ae4 0 EVP_PKEY_free
PUBLIC b9b98 0 EVP_PKEY_print_public
PUBLIC b9c0c 0 EVP_PKEY_print_private
PUBLIC b9c80 0 EVP_PKEY_print_params
PUBLIC b9cf4 0 EVP_PKEY_get_default_digest_nid
PUBLIC baebc 0 BIO_f_base64
PUBLIC baecc 0 ERR_load_EVP_strings
PUBLIC baf30 0 EVP_enc_null
PUBLIC baf40 0 OpenSSL_add_all_digests
PUBLIC bb0cc 0 EVP_CIPHER_block_size
PUBLIC bb0d4 0 EVP_CIPHER_CTX_block_size
PUBLIC bb0e0 0 EVP_Cipher
PUBLIC bb0f4 0 EVP_CIPHER_CTX_cipher
PUBLIC bb0fc 0 EVP_CIPHER_flags
PUBLIC bb104 0 EVP_CIPHER_CTX_flags
PUBLIC bb110 0 EVP_CIPHER_CTX_get_app_data
PUBLIC bb118 0 EVP_CIPHER_CTX_set_app_data
PUBLIC bb120 0 EVP_CIPHER_iv_length
PUBLIC bb128 0 EVP_CIPHER_CTX_iv_length
PUBLIC bb134 0 EVP_CIPHER_get_asn1_iv
PUBLIC bb1c0 0 EVP_CIPHER_asn1_to_param
PUBLIC bb230 0 EVP_CIPHER_set_asn1_iv
PUBLIC bb290 0 EVP_CIPHER_param_to_asn1
PUBLIC bb310 0 EVP_CIPHER_key_length
PUBLIC bb318 0 EVP_CIPHER_CTX_key_length
PUBLIC bb320 0 EVP_CIPHER_nid
PUBLIC bb328 0 EVP_CIPHER_type
PUBLIC bb478 0 EVP_CIPHER_CTX_nid
PUBLIC bb484 0 EVP_MD_block_size
PUBLIC bb48c 0 EVP_MD_type
PUBLIC bb494 0 EVP_MD_pkey_type
PUBLIC bb49c 0 EVP_MD_size
PUBLIC bb4e8 0 EVP_MD_flags
PUBLIC bb4f0 0 EVP_MD_CTX_md
PUBLIC bb4fc 0 EVP_MD_CTX_set_flags
PUBLIC bb50c 0 EVP_MD_CTX_clear_flags
PUBLIC bb51c 0 EVP_MD_CTX_test_flags
PUBLIC bb528 0 EVP_CIPHER_CTX_set_flags
PUBLIC bb538 0 EVP_CIPHER_CTX_clear_flags
PUBLIC bb548 0 EVP_CIPHER_CTX_test_flags
PUBLIC bb59c 0 EVP_PBE_alg_add_type
PUBLIC bb66c 0 EVP_PBE_alg_add
PUBLIC bb6cc 0 EVP_PBE_find
PUBLIC bb7a0 0 EVP_PBE_CipherInit
PUBLIC bb998 0 EVP_PBE_cleanup
PUBLIC bb9c8 0 PKCS5_PBE_add
PUBLIC bb9cc 0 PKCS5_PBE_keyivgen
PUBLIC bbcd8 0 PKCS5_PBKDF2_HMAC
PUBLIC bc1d4 0 PKCS5_PBKDF2_HMAC_SHA1
PUBLIC bc228 0 PKCS5_v2_PBKDF2_keyivgen
PUBLIC bc54c 0 PKCS5_v2_PBE_keyivgen
PUBLIC bc770 0 EVP_PKEY_meth_find
PUBLIC bc7f8 0 EVP_PKEY_meth_new
PUBLIC bc8a8 0 EVP_PKEY_meth_get0_info
PUBLIC bc8c4 0 EVP_PKEY_meth_copy
PUBLIC bc994 0 EVP_PKEY_meth_free
PUBLIC bc9ac 0 EVP_PKEY_meth_add0
PUBLIC bca28 0 EVP_PKEY_CTX_free
PUBLIC bca8c 0 EVP_PKEY_CTX_new
PUBLIC bcc38 0 EVP_PKEY_CTX_dup
PUBLIC bcd90 0 EVP_PKEY_CTX_new_id
PUBLIC bcf00 0 EVP_PKEY_CTX_ctrl
PUBLIC bd04c 0 EVP_PKEY_CTX_ctrl_str
PUBLIC bd160 0 EVP_PKEY_CTX_get_operation
PUBLIC bd168 0 EVP_PKEY_CTX_set0_keygen_info
PUBLIC bd174 0 EVP_PKEY_CTX_set_data
PUBLIC bd17c 0 EVP_PKEY_CTX_get_data
PUBLIC bd184 0 EVP_PKEY_CTX_get0_pkey
PUBLIC bd18c 0 EVP_PKEY_CTX_get0_peerkey
PUBLIC bd194 0 EVP_PKEY_CTX_set_app_data
PUBLIC bd19c 0 EVP_PKEY_CTX_get_app_data
PUBLIC bd1a4 0 EVP_PKEY_meth_set_init
PUBLIC bd1ac 0 EVP_PKEY_meth_set_copy
PUBLIC bd1b4 0 EVP_PKEY_meth_set_cleanup
PUBLIC bd1bc 0 EVP_PKEY_meth_set_paramgen
PUBLIC bd1c8 0 EVP_PKEY_meth_set_keygen
PUBLIC bd1d4 0 EVP_PKEY_meth_set_sign
PUBLIC bd1e0 0 EVP_PKEY_meth_set_verify
PUBLIC bd1ec 0 EVP_PKEY_meth_set_verify_recover
PUBLIC bd1f8 0 EVP_PKEY_meth_set_signctx
PUBLIC bd204 0 EVP_PKEY_meth_set_verifyctx
PUBLIC bd210 0 EVP_PKEY_meth_set_encrypt
PUBLIC bd21c 0 EVP_PKEY_meth_set_decrypt
PUBLIC bd228 0 EVP_PKEY_meth_set_derive
PUBLIC bd234 0 EVP_PKEY_meth_set_ctrl
PUBLIC bd240 0 EVP_PKEY_sign_init
PUBLIC bd2c4 0 EVP_PKEY_sign
PUBLIC bd3e4 0 EVP_PKEY_verify_init
PUBLIC bd468 0 EVP_PKEY_verify
PUBLIC bd508 0 EVP_PKEY_verify_recover_init
PUBLIC bd58c 0 EVP_PKEY_verify_recover
PUBLIC bd6ac 0 EVP_PKEY_encrypt_init
PUBLIC bd730 0 EVP_PKEY_encrypt
PUBLIC bd850 0 EVP_PKEY_decrypt_init
PUBLIC bd8d4 0 EVP_PKEY_decrypt
PUBLIC bd9f4 0 EVP_PKEY_derive_init
PUBLIC bda7c 0 EVP_PKEY_derive_set_peer
PUBLIC bdca8 0 EVP_PKEY_derive
PUBLIC bdde8 0 EVP_PKEY_paramgen_init
PUBLIC bde6c 0 EVP_PKEY_paramgen
PUBLIC bdf68 0 EVP_PKEY_keygen_init
PUBLIC bdfec 0 EVP_PKEY_keygen
PUBLIC be0e8 0 EVP_PKEY_CTX_set_cb
PUBLIC be0f0 0 EVP_PKEY_CTX_get_cb
PUBLIC be0f8 0 evp_pkey_set_cb_translate
PUBLIC be118 0 EVP_PKEY_CTX_get_keygen_info
PUBLIC be150 0 EVP_PKEY_new_mac_key
PUBLIC be1cc 0 EVP_DigestSignInit
PUBLIC be33c 0 EVP_DigestVerifyInit
PUBLIC be4ac 0 EVP_DigestSignFinal
PUBLIC be658 0 EVP_DigestVerifyFinal
PUBLIC be74c 0 EVP_aes_128_cbc_hmac_sha1
PUBLIC be754 0 EVP_aes_256_cbc_hmac_sha1
PUBLIC be75c 0 EVP_aes_128_cbc_hmac_sha256
PUBLIC be764 0 EVP_aes_256_cbc_hmac_sha256
PUBLIC be76c 0 i2d_ASN1_OBJECT
PUBLIC be804 0 a2d_ASN1_OBJECT
PUBLIC becac 0 i2t_ASN1_OBJECT
PUBLIC becb4 0 i2a_ASN1_OBJECT
PUBLIC bedb8 0 ASN1_OBJECT_new
PUBLIC bee34 0 ASN1_OBJECT_free
PUBLIC beeb8 0 c2i_ASN1_OBJECT
PUBLIC bf0b8 0 d2i_ASN1_OBJECT
PUBLIC bf15c 0 ASN1_OBJECT_create
PUBLIC bf194 0 ASN1_INTEGER_dup
PUBLIC bf198 0 ASN1_INTEGER_cmp
PUBLIC bf1d4 0 i2c_ASN1_INTEGER
PUBLIC bf3c4 0 c2i_ASN1_INTEGER
PUBLIC bf5e8 0 d2i_ASN1_UINTEGER
PUBLIC bf768 0 ASN1_INTEGER_set
PUBLIC bf910 0 ASN1_INTEGER_get
PUBLIC bf9b4 0 BN_to_ASN1_INTEGER
PUBLIC bfb10 0 ASN1_INTEGER_to_BN
PUBLIC bfb90 0 ASN1_TYPE_get
PUBLIC bfbac 0 ASN1_TYPE_set
PUBLIC bfc10 0 ASN1_TYPE_set1
PUBLIC bfc68 0 ASN1_TYPE_cmp
PUBLIC bfcdc 0 ASN1_dup
PUBLIC bfd84 0 ASN1_item_dup
PUBLIC bfe18 0 d2i_X509_ALGOR
PUBLIC bfe28 0 i2d_X509_ALGOR
PUBLIC bfe38 0 X509_ALGOR_new
PUBLIC bfe48 0 X509_ALGOR_free
PUBLIC bfe58 0 d2i_X509_ALGORS
PUBLIC bfe68 0 i2d_X509_ALGORS
PUBLIC bfe78 0 X509_ALGOR_dup
PUBLIC bfe8c 0 X509_ALGOR_set0
PUBLIC bff30 0 X509_ALGOR_get0
PUBLIC bff70 0 X509_ALGOR_set_md
PUBLIC bffac 0 X509_ALGOR_cmp
PUBLIC c001c 0 d2i_X509_PUBKEY
PUBLIC c002c 0 i2d_X509_PUBKEY
PUBLIC c003c 0 X509_PUBKEY_new
PUBLIC c004c 0 X509_PUBKEY_free
PUBLIC c005c 0 X509_PUBKEY_set
PUBLIC c0148 0 X509_PUBKEY_get
PUBLIC c0340 0 d2i_PUBKEY
PUBLIC c039c 0 i2d_PUBKEY
PUBLIC c03fc 0 d2i_RSA_PUBKEY
PUBLIC c0474 0 i2d_RSA_PUBKEY
PUBLIC c04f0 0 d2i_DSA_PUBKEY
PUBLIC c0568 0 i2d_DSA_PUBKEY
PUBLIC c05e8 0 d2i_EC_PUBKEY
PUBLIC c0660 0 i2d_EC_PUBKEY
PUBLIC c06e0 0 X509_PUBKEY_set0_param
PUBLIC c0748 0 X509_PUBKEY_get0_param
PUBLIC c0798 0 d2i_X509_SIG
PUBLIC c07a8 0 i2d_X509_SIG
PUBLIC c07b8 0 X509_SIG_new
PUBLIC c07c8 0 X509_SIG_free
PUBLIC c07d8 0 d2i_X509_ATTRIBUTE
PUBLIC c07e8 0 i2d_X509_ATTRIBUTE
PUBLIC c07f8 0 X509_ATTRIBUTE_new
PUBLIC c0808 0 X509_ATTRIBUTE_free
PUBLIC c0818 0 X509_ATTRIBUTE_dup
PUBLIC c082c 0 X509_ATTRIBUTE_create
PUBLIC c0c90 0 X509_NAME_ENTRY_free
PUBLIC c0e10 0 d2i_X509_NAME_ENTRY
PUBLIC c0e20 0 i2d_X509_NAME_ENTRY
PUBLIC c0e30 0 X509_NAME_ENTRY_new
PUBLIC c1434 0 X509_NAME_ENTRY_dup
PUBLIC c1448 0 d2i_X509_NAME
PUBLIC c1458 0 i2d_X509_NAME
PUBLIC c1468 0 X509_NAME_new
PUBLIC c1478 0 X509_NAME_free
PUBLIC c16e4 0 X509_NAME_dup
PUBLIC c16f8 0 X509_NAME_set
PUBLIC c1848 0 d2i_X509_CINF
PUBLIC c1858 0 i2d_X509_CINF
PUBLIC c1868 0 X509_CINF_new
PUBLIC c1878 0 X509_CINF_free
PUBLIC c1888 0 d2i_X509
PUBLIC c1898 0 i2d_X509
PUBLIC c18a8 0 X509_new
PUBLIC c18b8 0 X509_free
PUBLIC c18c8 0 X509_dup
PUBLIC c18dc 0 X509_get_ex_new_index
PUBLIC c1910 0 X509_set_ex_data
PUBLIC c1918 0 X509_get_ex_data
PUBLIC c1920 0 d2i_X509_AUX
PUBLIC c19b8 0 i2d_X509_AUX
PUBLIC c19ec 0 i2d_re_X509_tbs
PUBLIC c19fc 0 X509_get0_signature
PUBLIC c1a18 0 X509_get_signature_nid
PUBLIC c1a24 0 d2i_X509_CERT_AUX
PUBLIC c1a34 0 i2d_X509_CERT_AUX
PUBLIC c1a44 0 X509_CERT_AUX_new
PUBLIC c1a54 0 X509_CERT_AUX_free
PUBLIC c1a64 0 X509_alias_set1
PUBLIC c1b2c 0 X509_keyid_set1
PUBLIC c1bf4 0 X509_alias_get0
PUBLIC c1c20 0 X509_keyid_get0
PUBLIC c1c4c 0 X509_add1_trust_object
PUBLIC c1cc0 0 X509_add1_reject_object
PUBLIC c1d34 0 X509_trust_clear
PUBLIC c1d74 0 X509_reject_clear
PUBLIC c1db4 0 d2i_X509_CERT_PAIR
PUBLIC c1dc4 0 i2d_X509_CERT_PAIR
PUBLIC c1dd4 0 X509_CERT_PAIR_new
PUBLIC c1de4 0 X509_CERT_PAIR_free
PUBLIC c1df4 0 d2i_PrivateKey
PUBLIC c1f84 0 d2i_AutoPrivateKey
PUBLIC c20ac 0 ASN1_bn_print
PUBLIC c23f0 0 ASN1_primitive_new
PUBLIC c2528 0 ASN1_template_new
PUBLIC c2870 0 ASN1_item_ex_new
PUBLIC c2b04 0 ASN1_item_new
PUBLIC c2b34 0 ASN1_primitive_free
PUBLIC c2c3c 0 ASN1_template_free
PUBLIC c30fc 0 ASN1_item_free
PUBLIC c3318 0 ASN1_item_ex_free
PUBLIC c355c 0 asn1_ex_i2c
PUBLIC c3884 0 ASN1_item_ex_i2d
PUBLIC c3e1c 0 ASN1_item_ndef_i2d
PUBLIC c43b8 0 ASN1_template_i2d
PUBLIC c43d8 0 ASN1_item_i2d
PUBLIC c4bcc 0 ASN1_tag2bit
PUBLIC c4bf0 0 asn1_ex_c2i
PUBLIC c5668 0 ASN1_item_ex_d2i
PUBLIC c6194 0 ASN1_item_d2i
PUBLIC c6938 0 ASN1_template_d2i
PUBLIC c6c60 0 asn1_get_choice_selector
PUBLIC c6c70 0 asn1_set_choice_selector
PUBLIC c6c84 0 asn1_do_lock
PUBLIC c6d0c 0 asn1_enc_init
PUBLIC c6d54 0 asn1_enc_free
PUBLIC c6db8 0 asn1_enc_save
PUBLIC c6e5c 0 asn1_enc_restore
PUBLIC c6f14 0 asn1_get_field_ptr
PUBLIC c6f2c 0 asn1_do_adb
PUBLIC c7020 0 d2i_ASN1_INTEGER
PUBLIC c7030 0 i2d_ASN1_INTEGER
PUBLIC c7040 0 ASN1_INTEGER_new
PUBLIC c7050 0 ASN1_INTEGER_free
PUBLIC c7060 0 d2i_ASN1_ENUMERATED
PUBLIC c7070 0 i2d_ASN1_ENUMERATED
PUBLIC c7080 0 ASN1_ENUMERATED_new
PUBLIC c7090 0 ASN1_ENUMERATED_free
PUBLIC c70a0 0 d2i_ASN1_BIT_STRING
PUBLIC c70b0 0 i2d_ASN1_BIT_STRING
PUBLIC c70c0 0 ASN1_BIT_STRING_new
PUBLIC c70d0 0 ASN1_BIT_STRING_free
PUBLIC c70e0 0 d2i_ASN1_OCTET_STRING
PUBLIC c70f0 0 i2d_ASN1_OCTET_STRING
PUBLIC c7100 0 ASN1_OCTET_STRING_new
PUBLIC c7110 0 ASN1_OCTET_STRING_free
PUBLIC c7120 0 d2i_ASN1_NULL
PUBLIC c7130 0 i2d_ASN1_NULL
PUBLIC c7140 0 ASN1_NULL_new
PUBLIC c7150 0 ASN1_NULL_free
PUBLIC c7160 0 d2i_ASN1_UTF8STRING
PUBLIC c7170 0 i2d_ASN1_UTF8STRING
PUBLIC c7180 0 ASN1_UTF8STRING_new
PUBLIC c7190 0 ASN1_UTF8STRING_free
PUBLIC c71a0 0 d2i_ASN1_PRINTABLESTRING
PUBLIC c71b0 0 i2d_ASN1_PRINTABLESTRING
PUBLIC c71c0 0 ASN1_PRINTABLESTRING_new
PUBLIC c71d0 0 ASN1_PRINTABLESTRING_free
PUBLIC c71e0 0 d2i_ASN1_T61STRING
PUBLIC c71f0 0 i2d_ASN1_T61STRING
PUBLIC c7200 0 ASN1_T61STRING_new
PUBLIC c7210 0 ASN1_T61STRING_free
PUBLIC c7220 0 d2i_ASN1_IA5STRING
PUBLIC c7230 0 i2d_ASN1_IA5STRING
PUBLIC c7240 0 ASN1_IA5STRING_new
PUBLIC c7250 0 ASN1_IA5STRING_free
PUBLIC c7260 0 d2i_ASN1_GENERALSTRING
PUBLIC c7270 0 i2d_ASN1_GENERALSTRING
PUBLIC c7280 0 ASN1_GENERALSTRING_new
PUBLIC c7290 0 ASN1_GENERALSTRING_free
PUBLIC c72a0 0 d2i_ASN1_UTCTIME
PUBLIC c72b0 0 i2d_ASN1_UTCTIME
PUBLIC c72c0 0 ASN1_UTCTIME_new
PUBLIC c72d0 0 ASN1_UTCTIME_free
PUBLIC c72e0 0 d2i_ASN1_GENERALIZEDTIME
PUBLIC c72f0 0 i2d_ASN1_GENERALIZEDTIME
PUBLIC c7300 0 ASN1_GENERALIZEDTIME_new
PUBLIC c7310 0 ASN1_GENERALIZEDTIME_free
PUBLIC c7320 0 d2i_ASN1_VISIBLESTRING
PUBLIC c7330 0 i2d_ASN1_VISIBLESTRING
PUBLIC c7340 0 ASN1_VISIBLESTRING_new
PUBLIC c7350 0 ASN1_VISIBLESTRING_free
PUBLIC c7360 0 d2i_ASN1_UNIVERSALSTRING
PUBLIC c7370 0 i2d_ASN1_UNIVERSALSTRING
PUBLIC c7380 0 ASN1_UNIVERSALSTRING_new
PUBLIC c7390 0 ASN1_UNIVERSALSTRING_free
PUBLIC c73a0 0 d2i_ASN1_BMPSTRING
PUBLIC c73b0 0 i2d_ASN1_BMPSTRING
PUBLIC c73c0 0 ASN1_BMPSTRING_new
PUBLIC c73d0 0 ASN1_BMPSTRING_free
PUBLIC c73e0 0 d2i_ASN1_TYPE
PUBLIC c73f0 0 i2d_ASN1_TYPE
PUBLIC c7400 0 ASN1_TYPE_new
PUBLIC c7410 0 ASN1_TYPE_free
PUBLIC c7420 0 d2i_ASN1_PRINTABLE
PUBLIC c7430 0 i2d_ASN1_PRINTABLE
PUBLIC c7440 0 ASN1_PRINTABLE_new
PUBLIC c7450 0 ASN1_PRINTABLE_free
PUBLIC c7460 0 d2i_DISPLAYTEXT
PUBLIC c7470 0 i2d_DISPLAYTEXT
PUBLIC c7480 0 DISPLAYTEXT_new
PUBLIC c7490 0 DISPLAYTEXT_free
PUBLIC c74a0 0 d2i_DIRECTORYSTRING
PUBLIC c74b0 0 i2d_DIRECTORYSTRING
PUBLIC c74c0 0 DIRECTORYSTRING_new
PUBLIC c74d0 0 DIRECTORYSTRING_free
PUBLIC c74e0 0 d2i_ASN1_SEQUENCE_ANY
PUBLIC c74f0 0 i2d_ASN1_SEQUENCE_ANY
PUBLIC c7500 0 d2i_ASN1_SET_ANY
PUBLIC c7510 0 i2d_ASN1_SET_ANY
PUBLIC c7550 0 EVP_PKEY_asn1_get_count
PUBLIC c757c 0 EVP_PKEY_asn1_get0
PUBLIC c75c0 0 EVP_PKEY_asn1_find
PUBLIC c76ac 0 EVP_PKEY_asn1_find_str
PUBLIC c7794 0 EVP_PKEY_asn1_add0
PUBLIC c7818 0 EVP_PKEY_asn1_get0_info
PUBLIC c788c 0 EVP_PKEY_get0_asn1
PUBLIC c7894 0 EVP_PKEY_asn1_copy
PUBLIC c7944 0 EVP_PKEY_asn1_free
PUBLIC c7988 0 EVP_PKEY_asn1_new
PUBLIC c7aa0 0 EVP_PKEY_asn1_add_alias
PUBLIC c7af4 0 EVP_PKEY_asn1_set_public
PUBLIC c7b24 0 EVP_PKEY_asn1_set_private
PUBLIC c7b34 0 EVP_PKEY_asn1_set_param
PUBLIC c7b64 0 EVP_PKEY_asn1_set_free
PUBLIC c7b6c 0 EVP_PKEY_asn1_set_ctrl
PUBLIC c7b74 0 EVP_PKEY_asn1_set_item
PUBLIC c7b80 0 d2i_X509_EXTENSION
PUBLIC c7b90 0 i2d_X509_EXTENSION
PUBLIC c7ba0 0 X509_EXTENSION_new
PUBLIC c7bb0 0 X509_EXTENSION_free
PUBLIC c7bc0 0 d2i_X509_EXTENSIONS
PUBLIC c7bd0 0 i2d_X509_EXTENSIONS
PUBLIC c7be0 0 X509_EXTENSION_dup
PUBLIC c7bf4 0 ASN1_check_infinite_end
PUBLIC c7c40 0 ASN1_const_check_infinite_end
PUBLIC c7c8c 0 ASN1_get_object
PUBLIC c7e74 0 ASN1_put_object
PUBLIC c7f9c 0 ASN1_put_eoc
PUBLIC c7fc0 0 ASN1_object_size
PUBLIC c8018 0 asn1_Finish
PUBLIC c808c 0 asn1_const_Finish
PUBLIC c8100 0 asn1_GetSequence
PUBLIC c81cc 0 ASN1_STRING_set
PUBLIC c82e0 0 ASN1_STRING_copy
PUBLIC c8324 0 ASN1_STRING_set0
PUBLIC c8350 0 ASN1_STRING_type_new
PUBLIC c83c0 0 ASN1_STRING_new
PUBLIC c83c8 0 ASN1_STRING_free
PUBLIC c8408 0 ASN1_STRING_dup
PUBLIC c844c 0 ASN1_STRING_clear_free
PUBLIC c8490 0 ASN1_STRING_cmp
PUBLIC c84cc 0 asn1_add_error
PUBLIC c8548 0 ASN1_STRING_length
PUBLIC c8550 0 ASN1_STRING_length_set
PUBLIC c8558 0 ASN1_STRING_type
PUBLIC c8560 0 ASN1_STRING_data
PUBLIC c8568 0 ERR_load_ASN1_strings
PUBLIC c85a0 0 ASN1_TYPE_set_octetstring
PUBLIC c8604 0 ASN1_TYPE_get_octetstring
PUBLIC c8674 0 ASN1_TYPE_set_int_octetstring
PUBLIC c8798 0 ASN1_TYPE_get_int_octetstring
PUBLIC c8978 0 d2i_PBEPARAM
PUBLIC c8988 0 i2d_PBEPARAM
PUBLIC c8998 0 PBEPARAM_new
PUBLIC c89a8 0 PBEPARAM_free
PUBLIC c89b8 0 PKCS5_pbe_set0_algor
PUBLIC c8b6c 0 PKCS5_pbe_set
PUBLIC c8bf0 0 d2i_PBE2PARAM
PUBLIC c8c00 0 i2d_PBE2PARAM
PUBLIC c8c10 0 PBE2PARAM_new
PUBLIC c8c20 0 PBE2PARAM_free
PUBLIC c8c30 0 d2i_PBKDF2PARAM
PUBLIC c8c40 0 i2d_PBKDF2PARAM
PUBLIC c8c50 0 PBKDF2PARAM_new
PUBLIC c8c60 0 PBKDF2PARAM_free
PUBLIC c8c70 0 PKCS5_pbkdf2_set
PUBLIC c8e3c 0 PKCS5_pbe2_set_iv
PUBLIC c90d8 0 PKCS5_pbe2_set
PUBLIC c9148 0 d2i_PKCS8_PRIV_KEY_INFO
PUBLIC c9158 0 i2d_PKCS8_PRIV_KEY_INFO
PUBLIC c9168 0 PKCS8_PRIV_KEY_INFO_new
PUBLIC c9178 0 PKCS8_PRIV_KEY_INFO_free
PUBLIC c9188 0 PKCS8_pkey_set0
PUBLIC c924c 0 PKCS8_pkey_get0
PUBLIC c92e0 0 PEM_def_callback
PUBLIC c93e0 0 PEM_proc_type
PUBLIC c9478 0 PEM_dek_info
PUBLIC c9548 0 PEM_ASN1_read
PUBLIC c95e8 0 PEM_do_header
PUBLIC c981c 0 PEM_get_EVP_CIPHER_INFO
PUBLIC c9ae8 0 PEM_write_bio
PUBLIC c9da8 0 PEM_ASN1_write_bio
PUBLIC ca214 0 PEM_ASN1_write
PUBLIC ca2d4 0 PEM_write
PUBLIC ca374 0 PEM_read_bio
PUBLIC cab74 0 PEM_read
PUBLIC cac14 0 pem_check_suffix
PUBLIC cac74 0 PEM_bytes_read_bio
PUBLIC cb0ec 0 PEM_read_bio_X509_REQ
PUBLIC cb128 0 PEM_read_X509_REQ
PUBLIC cb164 0 PEM_write_bio_X509_REQ
PUBLIC cb1b4 0 PEM_write_X509_REQ
PUBLIC cb204 0 PEM_write_bio_X509_REQ_NEW
PUBLIC cb254 0 PEM_write_X509_REQ_NEW
PUBLIC cb2a4 0 PEM_read_bio_X509_CRL
PUBLIC cb2e0 0 PEM_read_X509_CRL
PUBLIC cb31c 0 PEM_write_bio_X509_CRL
PUBLIC cb36c 0 PEM_write_X509_CRL
PUBLIC cb3bc 0 PEM_read_bio_PKCS7
PUBLIC cb3f8 0 PEM_read_PKCS7
PUBLIC cb434 0 PEM_write_bio_PKCS7
PUBLIC cb484 0 PEM_write_PKCS7
PUBLIC cb4d4 0 PEM_read_bio_NETSCAPE_CERT_SEQUENCE
PUBLIC cb510 0 PEM_read_NETSCAPE_CERT_SEQUENCE
PUBLIC cb54c 0 PEM_write_bio_NETSCAPE_CERT_SEQUENCE
PUBLIC cb59c 0 PEM_write_NETSCAPE_CERT_SEQUENCE
PUBLIC cb5ec 0 PEM_read_bio_RSAPrivateKey
PUBLIC cb648 0 PEM_read_RSAPrivateKey
PUBLIC cb6a4 0 PEM_write_bio_RSAPrivateKey
PUBLIC cb6f8 0 PEM_write_RSAPrivateKey
PUBLIC cb74c 0 PEM_read_bio_RSAPublicKey
PUBLIC cb788 0 PEM_read_RSAPublicKey
PUBLIC cb7c4 0 PEM_write_bio_RSAPublicKey
PUBLIC cb814 0 PEM_write_RSAPublicKey
PUBLIC cb864 0 PEM_read_bio_RSA_PUBKEY
PUBLIC cb8a0 0 PEM_read_RSA_PUBKEY
PUBLIC cb8dc 0 PEM_write_bio_RSA_PUBKEY
PUBLIC cb92c 0 PEM_write_RSA_PUBKEY
PUBLIC cb97c 0 PEM_read_bio_DSAPrivateKey
PUBLIC cb9d8 0 PEM_write_bio_DSAPrivateKey
PUBLIC cba2c 0 PEM_write_DSAPrivateKey
PUBLIC cba80 0 PEM_read_bio_DSA_PUBKEY
PUBLIC cbabc 0 PEM_read_DSA_PUBKEY
PUBLIC cbaf8 0 PEM_write_bio_DSA_PUBKEY
PUBLIC cbb48 0 PEM_write_DSA_PUBKEY
PUBLIC cbb98 0 PEM_read_DSAPrivateKey
PUBLIC cbbf4 0 PEM_read_bio_DSAparams
PUBLIC cbc30 0 PEM_read_DSAparams
PUBLIC cbc6c 0 PEM_write_bio_DSAparams
PUBLIC cbcbc 0 PEM_write_DSAparams
PUBLIC cbd0c 0 PEM_read_bio_ECPrivateKey
PUBLIC cbd68 0 PEM_read_bio_ECPKParameters
PUBLIC cbda4 0 PEM_read_ECPKParameters
PUBLIC cbde0 0 PEM_write_bio_ECPKParameters
PUBLIC cbe30 0 PEM_write_ECPKParameters
PUBLIC cbe80 0 PEM_write_bio_ECPrivateKey
PUBLIC cbed4 0 PEM_write_ECPrivateKey
PUBLIC cbf28 0 PEM_read_bio_EC_PUBKEY
PUBLIC cbf64 0 PEM_read_EC_PUBKEY
PUBLIC cbfa0 0 PEM_write_bio_EC_PUBKEY
PUBLIC cbff0 0 PEM_write_EC_PUBKEY
PUBLIC cc040 0 PEM_read_ECPrivateKey
PUBLIC cc09c 0 PEM_write_bio_DHparams
PUBLIC cc0ec 0 PEM_write_DHparams
PUBLIC cc13c 0 PEM_write_bio_DHxparams
PUBLIC cc18c 0 PEM_write_DHxparams
PUBLIC cc1dc 0 PEM_read_bio_PUBKEY
PUBLIC cc218 0 PEM_read_PUBKEY
PUBLIC cc254 0 PEM_write_bio_PUBKEY
PUBLIC cc2a4 0 PEM_write_PUBKEY
PUBLIC cc2f4 0 ERR_load_PEM_strings
PUBLIC cc32c 0 PEM_read_bio_X509
PUBLIC cc368 0 PEM_read_X509
PUBLIC cc3a4 0 PEM_write_bio_X509
PUBLIC cc3f4 0 PEM_write_X509
PUBLIC cc444 0 PEM_read_bio_X509_AUX
PUBLIC cc480 0 PEM_read_X509_AUX
PUBLIC cc4bc 0 PEM_write_bio_X509_AUX
PUBLIC cc50c 0 PEM_write_X509_AUX
PUBLIC cc55c 0 PEM_read_bio_X509_CERT_PAIR
PUBLIC cc598 0 PEM_read_X509_CERT_PAIR
PUBLIC cc5d4 0 PEM_write_bio_X509_CERT_PAIR
PUBLIC cc624 0 PEM_write_X509_CERT_PAIR
PUBLIC cc674 0 PEM_ASN1_read_bio
PUBLIC cc720 0 PEM_read_bio_PrivateKey
PUBLIC cc95c 0 PEM_write_bio_PrivateKey
PUBLIC cca20 0 PEM_read_bio_Parameters
PUBLIC ccb40 0 PEM_write_bio_Parameters
PUBLIC ccbd0 0 PEM_read_PrivateKey
PUBLIC ccc60 0 PEM_write_PrivateKey
PUBLIC cccf4 0 PEM_read_bio_DHparams
PUBLIC ccdd0 0 PEM_read_DHparams
PUBLIC cce64 0 X509_STORE_set_default_paths
PUBLIC ccee8 0 X509_STORE_load_locations
PUBLIC ccfa0 0 X509_issuer_and_serial_hash
PUBLIC cd088 0 X509_CRL_match
PUBLIC cd098 0 X509_get_issuer_name
PUBLIC cd0a4 0 X509_get_subject_name
PUBLIC cd0b0 0 X509_get_serialNumber
PUBLIC cd0bc 0 X509_cmp
PUBLIC cd144 0 X509_NAME_cmp
PUBLIC cd1e4 0 X509_issuer_and_serial_cmp
PUBLIC cd214 0 X509_issuer_name_cmp
PUBLIC cd228 0 X509_subject_name_cmp
PUBLIC cd23c 0 X509_CRL_cmp
PUBLIC cd250 0 X509_NAME_hash
PUBLIC cd2bc 0 X509_issuer_name_hash
PUBLIC cd2c8 0 X509_subject_name_hash
PUBLIC cd2d4 0 X509_NAME_hash_old
PUBLIC cd38c 0 X509_issuer_name_hash_old
PUBLIC cd398 0 X509_subject_name_hash_old
PUBLIC cd3a4 0 X509_find_by_issuer_and_serial
PUBLIC cd41c 0 X509_find_by_subject
PUBLIC cd478 0 X509_get_pubkey
PUBLIC cd49c 0 X509_get0_pubkey_bitstr
PUBLIC cd4b0 0 X509_check_private_key
PUBLIC cd5a0 0 X509_chain_check_suiteb
PUBLIC cd8a8 0 X509_CRL_check_suiteb
PUBLIC cd980 0 X509_chain_up_ref
PUBLIC cd9ec 0 X509_NAME_oneline
PUBLIC ce1ec 0 X509_time_adj_ex
PUBLIC ce288 0 X509_time_adj
PUBLIC ce298 0 X509_cmp_time
PUBLIC ce824 0 X509_cmp_current_time
PUBLIC cf318 0 X509_gmtime_adj
PUBLIC cf320 0 X509_get_pubkey_parameters
PUBLIC cf45c 0 X509_verify_cert
PUBLIC d0260 0 X509_CRL_diff
PUBLIC d0664 0 X509_STORE_CTX_get_ex_new_index
PUBLIC d0698 0 X509_STORE_CTX_set_ex_data
PUBLIC d06a0 0 X509_STORE_CTX_get_ex_data
PUBLIC d06a8 0 X509_STORE_CTX_get_error
PUBLIC d06b0 0 X509_STORE_CTX_set_error
PUBLIC d06b8 0 X509_STORE_CTX_get_error_depth
PUBLIC d06c0 0 X509_STORE_CTX_get_current_cert
PUBLIC d06c8 0 X509_STORE_CTX_get_chain
PUBLIC d06d0 0 X509_STORE_CTX_get1_chain
PUBLIC d06e0 0 X509_STORE_CTX_get0_current_issuer
PUBLIC d06e8 0 X509_STORE_CTX_get0_current_crl
PUBLIC d06f0 0 X509_STORE_CTX_get0_parent_ctx
PUBLIC d06f8 0 X509_STORE_CTX_set_cert
PUBLIC d0700 0 X509_STORE_CTX_set_chain
PUBLIC d0708 0 X509_STORE_CTX_set0_crls
PUBLIC d0710 0 X509_STORE_CTX_purpose_inherit
PUBLIC d087c 0 X509_STORE_CTX_set_purpose
PUBLIC d088c 0 X509_STORE_CTX_set_trust
PUBLIC d089c 0 X509_STORE_CTX_new
PUBLIC d0908 0 X509_STORE_CTX_init
PUBLIC d0c84 0 X509_STORE_CTX_trusted_stack
PUBLIC d0c9c 0 X509_STORE_CTX_cleanup
PUBLIC d0d50 0 X509_STORE_CTX_free
PUBLIC d0d6c 0 X509_STORE_CTX_set_depth
PUBLIC d0d74 0 X509_STORE_CTX_set_flags
PUBLIC d0d7c 0 X509_STORE_CTX_set_time
PUBLIC d0d88 0 X509_STORE_CTX_set_verify_cb
PUBLIC d0d90 0 X509_STORE_CTX_get0_policy_tree
PUBLIC d0d98 0 X509_STORE_CTX_get_explicit_policy
PUBLIC d0da0 0 X509_STORE_CTX_set_default
PUBLIC d0dc4 0 X509_STORE_CTX_get0_param
PUBLIC d0dcc 0 X509_STORE_CTX_set0_param
PUBLIC d11b4 0 X509_CRL_set_version
PUBLIC d121c 0 X509_CRL_set_issuer_name
PUBLIC d1240 0 X509_CRL_set_lastUpdate
PUBLIC d1294 0 X509_CRL_set_nextUpdate
PUBLIC d12e8 0 X509_CRL_sort
PUBLIC d133c 0 X509_REVOKED_set_revocationDate
PUBLIC d1384 0 X509_REVOKED_set_serialNumber
PUBLIC d13cc 0 ERR_load_X509_strings
PUBLIC d1404 0 X509v3_get_ext_count
PUBLIC d1410 0 X509v3_get_ext_by_OBJ
PUBLIC d1478 0 X509v3_get_ext_by_NID
PUBLIC d14ac 0 X509v3_get_ext_by_critical
PUBLIC d153c 0 X509v3_get_ext
PUBLIC d1578 0 X509v3_delete_ext
PUBLIC d15b4 0 X509v3_add_ext
PUBLIC d16fc 0 X509_EXTENSION_set_object
PUBLIC d1738 0 X509_EXTENSION_set_critical
PUBLIC d1758 0 X509_EXTENSION_set_data
PUBLIC d1784 0 X509_EXTENSION_create_by_OBJ
PUBLIC d1870 0 X509_EXTENSION_create_by_NID
PUBLIC d18f8 0 X509_EXTENSION_get_object
PUBLIC d1904 0 X509_EXTENSION_get_data
PUBLIC d1910 0 X509_EXTENSION_get_critical
PUBLIC d192c 0 X509_CRL_get_ext_count
PUBLIC d1938 0 X509_CRL_get_ext_by_NID
PUBLIC d1944 0 X509_CRL_get_ext_by_OBJ
PUBLIC d1950 0 X509_CRL_get_ext_by_critical
PUBLIC d195c 0 X509_CRL_get_ext
PUBLIC d1968 0 X509_CRL_delete_ext
PUBLIC d1974 0 X509_CRL_get_ext_d2i
PUBLIC d1980 0 X509_CRL_add1_ext_i2d
PUBLIC d198c 0 X509_CRL_add_ext
PUBLIC d19a8 0 X509_get_ext_count
PUBLIC d19b4 0 X509_get_ext_by_NID
PUBLIC d19c0 0 X509_get_ext_by_OBJ
PUBLIC d19cc 0 X509_get_ext_by_critical
PUBLIC d19d8 0 X509_get_ext
PUBLIC d19e4 0 X509_delete_ext
PUBLIC d19f0 0 X509_add_ext
PUBLIC d1a0c 0 X509_get_ext_d2i
PUBLIC d1a18 0 X509_add1_ext_i2d
PUBLIC d1a24 0 X509_REVOKED_get_ext_count
PUBLIC d1a2c 0 X509_REVOKED_get_ext_by_NID
PUBLIC d1a34 0 X509_REVOKED_get_ext_by_OBJ
PUBLIC d1a3c 0 X509_REVOKED_get_ext_by_critical
PUBLIC d1a44 0 X509_REVOKED_get_ext
PUBLIC d1a4c 0 X509_REVOKED_delete_ext
PUBLIC d1a54 0 X509_REVOKED_add_ext
PUBLIC d1a6c 0 X509_REVOKED_get_ext_d2i
PUBLIC d1a74 0 X509_REVOKED_add1_ext_i2d
PUBLIC d1a7c 0 X509_certificate_type
PUBLIC d1dc0 0 X509_LOOKUP_new
PUBLIC d1e34 0 X509_LOOKUP_free
PUBLIC d1e68 0 X509_LOOKUP_init
PUBLIC d1e9c 0 X509_LOOKUP_shutdown
PUBLIC d1ed0 0 X509_LOOKUP_ctrl
PUBLIC d1f10 0 X509_LOOKUP_by_subject
PUBLIC d1f54 0 X509_LOOKUP_by_issuer_serial
PUBLIC d1f94 0 X509_LOOKUP_by_fingerprint
PUBLIC d1fd4 0 X509_LOOKUP_by_alias
PUBLIC d2014 0 X509_STORE_new
PUBLIC d20e0 0 X509_STORE_free
PUBLIC d21a8 0 X509_STORE_add_lookup
PUBLIC d2230 0 X509_OBJECT_up_ref_count
PUBLIC d22b0 0 X509_OBJECT_free_contents
PUBLIC d22d4 0 X509_OBJECT_idx_by_subject
PUBLIC d22dc 0 X509_OBJECT_retrieve_by_subject
PUBLIC d2308 0 X509_STORE_get_by_subject
PUBLIC d2420 0 X509_STORE_get1_certs
PUBLIC d2600 0 X509_STORE_get1_crls
PUBLIC d27e0 0 X509_OBJECT_retrieve_match
PUBLIC d28d4 0 X509_STORE_add_cert
PUBLIC d29f0 0 X509_STORE_add_crl
PUBLIC d2b00 0 X509_STORE_CTX_get1_issuer
PUBLIC d2ccc 0 X509_STORE_set_flags
PUBLIC d2cd4 0 X509_STORE_set_depth
PUBLIC d2ce8 0 X509_STORE_set_purpose
PUBLIC d2cf0 0 X509_STORE_set_trust
PUBLIC d2cf8 0 X509_STORE_set1_param
PUBLIC d2d00 0 X509_STORE_set_verify_cb
PUBLIC d2d08 0 X509_STORE_set_lookup_crls_cb
PUBLIC d2d10 0 X509_STORE_CTX_get0_store
PUBLIC d2d18 0 X509_verify
PUBLIC d2d68 0 X509_REQ_verify
PUBLIC d2da0 0 NETSCAPE_SPKI_verify
PUBLIC d2dd8 0 X509_sign
PUBLIC d2e24 0 X509_sign_ctx
PUBLIC d2e68 0 X509_http_nbio
PUBLIC d2e78 0 X509_REQ_sign
PUBLIC d2eb8 0 X509_REQ_sign_ctx
PUBLIC d2ef8 0 X509_CRL_sign
PUBLIC d2f44 0 X509_CRL_sign_ctx
PUBLIC d2f88 0 X509_CRL_http_nbio
PUBLIC d2f98 0 NETSCAPE_SPKI_sign
PUBLIC d2fd8 0 d2i_X509_fp
PUBLIC d2ff0 0 i2d_X509_fp
PUBLIC d3008 0 d2i_X509_bio
PUBLIC d3020 0 i2d_X509_bio
PUBLIC d3038 0 d2i_X509_CRL_fp
PUBLIC d3050 0 i2d_X509_CRL_fp
PUBLIC d3068 0 d2i_X509_CRL_bio
PUBLIC d3080 0 i2d_X509_CRL_bio
PUBLIC d3098 0 d2i_PKCS7_fp
PUBLIC d30b0 0 i2d_PKCS7_fp
PUBLIC d30c8 0 d2i_PKCS7_bio
PUBLIC d30e0 0 i2d_PKCS7_bio
PUBLIC d30f8 0 d2i_X509_REQ_fp
PUBLIC d3110 0 i2d_X509_REQ_fp
PUBLIC d3128 0 d2i_X509_REQ_bio
PUBLIC d3140 0 i2d_X509_REQ_bio
PUBLIC d3158 0 d2i_RSAPrivateKey_fp
PUBLIC d3170 0 i2d_RSAPrivateKey_fp
PUBLIC d3188 0 d2i_RSAPublicKey_fp
PUBLIC d31a0 0 d2i_RSA_PUBKEY_fp
PUBLIC d31cc 0 i2d_RSAPublicKey_fp
PUBLIC d31e4 0 i2d_RSA_PUBKEY_fp
PUBLIC d31fc 0 d2i_RSAPrivateKey_bio
PUBLIC d3214 0 i2d_RSAPrivateKey_bio
PUBLIC d322c 0 d2i_RSAPublicKey_bio
PUBLIC d3244 0 d2i_RSA_PUBKEY_bio
PUBLIC d3270 0 i2d_RSAPublicKey_bio
PUBLIC d3288 0 i2d_RSA_PUBKEY_bio
PUBLIC d32a0 0 d2i_DSAPrivateKey_fp
PUBLIC d32cc 0 i2d_DSAPrivateKey_fp
PUBLIC d32e4 0 d2i_DSA_PUBKEY_fp
PUBLIC d3310 0 i2d_DSA_PUBKEY_fp
PUBLIC d3328 0 d2i_DSAPrivateKey_bio
PUBLIC d3354 0 i2d_DSAPrivateKey_bio
PUBLIC d336c 0 d2i_DSA_PUBKEY_bio
PUBLIC d3398 0 i2d_DSA_PUBKEY_bio
PUBLIC d33b0 0 d2i_EC_PUBKEY_fp
PUBLIC d33dc 0 i2d_EC_PUBKEY_fp
PUBLIC d33f4 0 d2i_ECPrivateKey_fp
PUBLIC d3420 0 i2d_ECPrivateKey_fp
PUBLIC d3438 0 d2i_EC_PUBKEY_bio
PUBLIC d3464 0 i2d_EC_PUBKEY_bio
PUBLIC d347c 0 d2i_ECPrivateKey_bio
PUBLIC d34a8 0 i2d_ECPrivateKey_bio
PUBLIC d34c0 0 X509_pubkey_digest
PUBLIC d3508 0 X509_digest
PUBLIC d353c 0 X509_CRL_digest
PUBLIC d3570 0 X509_REQ_digest
PUBLIC d35a4 0 X509_NAME_digest
PUBLIC d35d8 0 PKCS7_ISSUER_AND_SERIAL_digest
PUBLIC d360c 0 d2i_PKCS8_fp
PUBLIC d3638 0 i2d_PKCS8_fp
PUBLIC d3650 0 d2i_PKCS8_bio
PUBLIC d367c 0 i2d_PKCS8_bio
PUBLIC d3694 0 d2i_PKCS8_PRIV_KEY_INFO_fp
PUBLIC d36c0 0 i2d_PKCS8_PRIV_KEY_INFO_fp
PUBLIC d36d8 0 i2d_PKCS8PrivateKeyInfo_fp
PUBLIC d3718 0 i2d_PrivateKey_fp
PUBLIC d3730 0 d2i_PrivateKey_fp
PUBLIC d375c 0 i2d_PUBKEY_fp
PUBLIC d3774 0 d2i_PUBKEY_fp
PUBLIC d37a0 0 d2i_PKCS8_PRIV_KEY_INFO_bio
PUBLIC d37cc 0 i2d_PKCS8_PRIV_KEY_INFO_bio
PUBLIC d37e4 0 i2d_PKCS8PrivateKeyInfo_bio
PUBLIC d3824 0 i2d_PrivateKey_bio
PUBLIC d383c 0 d2i_PrivateKey_bio
PUBLIC d3868 0 i2d_PUBKEY_bio
PUBLIC d3880 0 d2i_PUBKEY_bio
PUBLIC d38ac 0 X509_verify_cert_error_string
PUBLIC d40b4 0 X509_TRUST_set_default
PUBLIC d40d0 0 X509_TRUST_get_count
PUBLIC d40fc 0 X509_TRUST_get0
PUBLIC d4148 0 X509_TRUST_get_by_id
PUBLIC d41a0 0 X509_check_trust
PUBLIC d42d4 0 X509_TRUST_set
PUBLIC d4330 0 X509_TRUST_add
PUBLIC d44f4 0 X509_TRUST_cleanup
PUBLIC d4578 0 X509_TRUST_get_flags
PUBLIC d4580 0 X509_TRUST_get0_name
PUBLIC d4588 0 X509_TRUST_get_trust
PUBLIC d4590 0 X509_LOOKUP_file
PUBLIC d45a0 0 X509_load_cert_file
PUBLIC d475c 0 X509_load_crl_file
PUBLIC d4918 0 X509_load_cert_crl_file
PUBLIC d54a8 0 X509_LOOKUP_hash_dir
PUBLIC d54f0 0 X509_VERIFY_PARAM_free
PUBLIC d55c0 0 X509_VERIFY_PARAM_new
PUBLIC d56f0 0 X509_VERIFY_PARAM_set1_name
PUBLIC d5724 0 X509_VERIFY_PARAM_set_flags
PUBLIC d5740 0 X509_VERIFY_PARAM_clear_flags
PUBLIC d5758 0 X509_VERIFY_PARAM_get_flags
PUBLIC d5760 0 X509_VERIFY_PARAM_set_purpose
PUBLIC d5768 0 X509_VERIFY_PARAM_set_trust
PUBLIC d5770 0 X509_VERIFY_PARAM_set_depth
PUBLIC d5778 0 X509_VERIFY_PARAM_set_time
PUBLIC d578c 0 X509_VERIFY_PARAM_add0_policy
PUBLIC d57d4 0 X509_VERIFY_PARAM_set1_policies
PUBLIC d589c 0 X509_VERIFY_PARAM_set1_host
PUBLIC d59ec 0 X509_VERIFY_PARAM_add1_host
PUBLIC d5b08 0 X509_VERIFY_PARAM_set_hostflags
PUBLIC d5b14 0 X509_VERIFY_PARAM_get0_peername
PUBLIC d5b20 0 X509_VERIFY_PARAM_set1_email
PUBLIC d5bb4 0 X509_VERIFY_PARAM_set1_ip
PUBLIC d5c64 0 X509_VERIFY_PARAM_inherit
PUBLIC d5f94 0 X509_VERIFY_PARAM_set1
PUBLIC d5fb4 0 X509_VERIFY_PARAM_set1_ip_asc
PUBLIC d5fe8 0 X509_VERIFY_PARAM_get_depth
PUBLIC d5ff0 0 X509_VERIFY_PARAM_get0_name
PUBLIC d5ff8 0 X509_VERIFY_PARAM_add0_table
PUBLIC d6080 0 X509_VERIFY_PARAM_get_count
PUBLIC d60ac 0 X509_VERIFY_PARAM_get0
PUBLIC d60e4 0 X509_VERIFY_PARAM_lookup
PUBLIC d6164 0 X509_VERIFY_PARAM_table_cleanup
PUBLIC d61e4 0 X509V3_EXT_add
PUBLIC d62a0 0 X509V3_EXT_get_nid
PUBLIC d6344 0 X509V3_EXT_get
PUBLIC d6360 0 X509V3_EXT_free
PUBLIC d6410 0 X509V3_EXT_add_list
PUBLIC d6448 0 X509V3_EXT_add_alias
PUBLIC d651c 0 X509V3_EXT_cleanup
PUBLIC d654c 0 X509V3_add_standard_extensions
PUBLIC d6554 0 X509V3_EXT_d2i
PUBLIC d65b8 0 X509V3_get_d2i
PUBLIC d66d4 0 X509V3_add1_i2d
PUBLIC d6860 0 X509V3_conf_free
PUBLIC d773c 0 X509V3_add_value
PUBLIC d7860 0 X509V3_add_value_uchar
PUBLIC d7864 0 X509V3_add_value_bool
PUBLIC d788c 0 X509V3_add_value_bool_nf
PUBLIC d78ac 0 i2s_ASN1_ENUMERATED
PUBLIC d7918 0 i2s_ASN1_INTEGER
PUBLIC d7984 0 s2i_ASN1_INTEGER
PUBLIC d7b0c 0 X509V3_add_value_int
PUBLIC d7b64 0 X509V3_get_value_bool
PUBLIC d7d60 0 X509V3_get_value_int
PUBLIC d7ddc 0 X509V3_parse_list
PUBLIC d8284 0 hex_to_string
PUBLIC d8368 0 string_to_hex
PUBLIC d8558 0 name_cmp
PUBLIC d85a4 0 X509_email_free
PUBLIC d85b4 0 X509_get1_ocsp
PUBLIC d885c 0 X509_get1_email
PUBLIC d88a8 0 X509_REQ_get1_email
PUBLIC d8910 0 X509_check_host
PUBLIC d89b4 0 X509_check_email
PUBLIC d8a58 0 X509_check_ip
PUBLIC d8a6c 0 a2i_ipadd
PUBLIC d8c24 0 X509_check_ip_asc
PUBLIC d8c70 0 a2i_IPADDRESS
PUBLIC d8cd0 0 a2i_IPADDRESS_NC
PUBLIC d8d9c 0 X509V3_NAME_from_section
PUBLIC d8e94 0 ERR_load_X509V3_strings
PUBLIC d8ecc 0 d2i_GENERAL_NAME
PUBLIC d8edc 0 i2d_GENERAL_NAME
PUBLIC d8eec 0 d2i_OTHERNAME
PUBLIC d8efc 0 i2d_OTHERNAME
PUBLIC d8f0c 0 OTHERNAME_new
PUBLIC d8f1c 0 OTHERNAME_free
PUBLIC d8f2c 0 d2i_EDIPARTYNAME
PUBLIC d8f3c 0 i2d_EDIPARTYNAME
PUBLIC d8f4c 0 EDIPARTYNAME_new
PUBLIC d8f5c 0 EDIPARTYNAME_free
PUBLIC d8f6c 0 GENERAL_NAME_new
PUBLIC d8f7c 0 GENERAL_NAME_free
PUBLIC d8f8c 0 d2i_GENERAL_NAMES
PUBLIC d8f9c 0 i2d_GENERAL_NAMES
PUBLIC d8fac 0 GENERAL_NAMES_new
PUBLIC d8fbc 0 GENERAL_NAMES_free
PUBLIC d8fcc 0 GENERAL_NAME_dup
PUBLIC d8fec 0 OTHERNAME_cmp
PUBLIC d9030 0 GENERAL_NAME_cmp
PUBLIC d90cc 0 GENERAL_NAME_set0_value
PUBLIC d9108 0 GENERAL_NAME_get0_value
PUBLIC d9158 0 GENERAL_NAME_set0_othername
PUBLIC d9198 0 GENERAL_NAME_get0_otherName
PUBLIC d91e0 0 i2v_GENERAL_NAME
PUBLIC d94c8 0 i2v_GENERAL_NAMES
PUBLIC d952c 0 GENERAL_NAME_print
PUBLIC d974c 0 a2i_GENERAL_NAME
PUBLIC d9b38 0 v2i_GENERAL_NAME_ex
PUBLIC d9cdc 0 v2i_GENERAL_NAME
PUBLIC da334 0 v2i_GENERAL_NAMES
PUBLIC da3fc 0 i2s_ASN1_OCTET_STRING
PUBLIC da408 0 s2i_ASN1_OCTET_STRING
PUBLIC dab08 0 d2i_PKEY_USAGE_PERIOD
PUBLIC dab18 0 i2d_PKEY_USAGE_PERIOD
PUBLIC dab28 0 PKEY_USAGE_PERIOD_new
PUBLIC dab38 0 PKEY_USAGE_PERIOD_free
PUBLIC dab50 0 i2s_ASN1_ENUMERATED_TABLE
PUBLIC dac90 0 d2i_SXNETID
PUBLIC daca0 0 i2d_SXNETID
PUBLIC dacb0 0 SXNETID_new
PUBLIC dacc0 0 SXNETID_free
PUBLIC dacd0 0 d2i_SXNET
PUBLIC dace0 0 i2d_SXNET
PUBLIC dacf0 0 SXNET_new
PUBLIC dad00 0 SXNET_free
PUBLIC dad10 0 SXNET_get_id_INTEGER
PUBLIC dad6c 0 SXNET_add_id_INTEGER
PUBLIC daf48 0 SXNET_add_id_asc
PUBLIC db01c 0 SXNET_add_id_ulong
PUBLIC db0a8 0 SXNET_get_id_asc
PUBLIC db114 0 SXNET_get_id_ulong
PUBLIC db4e4 0 POLICYINFO_free
PUBLIC db4f4 0 d2i_CERTIFICATEPOLICIES
PUBLIC db504 0 i2d_CERTIFICATEPOLICIES
PUBLIC db514 0 CERTIFICATEPOLICIES_new
PUBLIC db524 0 CERTIFICATEPOLICIES_free
PUBLIC db534 0 d2i_POLICYINFO
PUBLIC db544 0 i2d_POLICYINFO
PUBLIC db554 0 POLICYINFO_new
PUBLIC db564 0 d2i_POLICYQUALINFO
PUBLIC db574 0 i2d_POLICYQUALINFO
PUBLIC db584 0 POLICYQUALINFO_new
PUBLIC db594 0 POLICYQUALINFO_free
PUBLIC db5a4 0 d2i_USERNOTICE
PUBLIC db5b4 0 i2d_USERNOTICE
PUBLIC db5c4 0 USERNOTICE_new
PUBLIC db5d4 0 USERNOTICE_free
PUBLIC db5e4 0 d2i_NOTICEREF
PUBLIC db5f4 0 i2d_NOTICEREF
PUBLIC db604 0 NOTICEREF_new
PUBLIC dc1a8 0 NOTICEREF_free
PUBLIC dc1b8 0 X509_POLICY_NODE_print
PUBLIC dc3dc 0 DIST_POINT_free
PUBLIC dca9c 0 d2i_DIST_POINT_NAME
PUBLIC dcaac 0 i2d_DIST_POINT_NAME
PUBLIC dcabc 0 DIST_POINT_NAME_new
PUBLIC dcacc 0 DIST_POINT_NAME_free
PUBLIC dcadc 0 d2i_DIST_POINT
PUBLIC dcaec 0 i2d_DIST_POINT
PUBLIC dcafc 0 DIST_POINT_new
PUBLIC dd0dc 0 d2i_CRL_DIST_POINTS
PUBLIC dd0ec 0 i2d_CRL_DIST_POINTS
PUBLIC dd0fc 0 CRL_DIST_POINTS_new
PUBLIC dd10c 0 CRL_DIST_POINTS_free
PUBLIC dd11c 0 d2i_ISSUING_DIST_POINT
PUBLIC dd12c 0 i2d_ISSUING_DIST_POINT
PUBLIC dd13c 0 ISSUING_DIST_POINT_new
PUBLIC dd14c 0 ISSUING_DIST_POINT_free
PUBLIC dd608 0 DIST_POINT_set_dpname
PUBLIC ddda8 0 X509_PURPOSE_get_count
PUBLIC dddd4 0 X509_PURPOSE_get0
PUBLIC dde1c 0 X509_PURPOSE_get_by_sname
PUBLIC dde68 0 X509_PURPOSE_get_by_id
PUBLIC ddec0 0 X509_PURPOSE_set
PUBLIC ddf1c 0 X509_PURPOSE_add
PUBLIC de100 0 X509_PURPOSE_cleanup
PUBLIC de194 0 X509_PURPOSE_get_id
PUBLIC de19c 0 X509_PURPOSE_get0_name
PUBLIC de1a4 0 X509_PURPOSE_get0_sname
PUBLIC de1ac 0 X509_PURPOSE_get_trust
PUBLIC de1b4 0 X509_supported_extension
PUBLIC de20c 0 X509_check_akid
PUBLIC de8f4 0 X509_check_purpose
PUBLIC de9a0 0 X509_check_ca
PUBLIC dea7c 0 X509_check_issued
PUBLIC deca4 0 ACCESS_DESCRIPTION_free
PUBLIC decb4 0 d2i_ACCESS_DESCRIPTION
PUBLIC decc4 0 i2d_ACCESS_DESCRIPTION
PUBLIC decd4 0 ACCESS_DESCRIPTION_new
PUBLIC def08 0 d2i_AUTHORITY_INFO_ACCESS
PUBLIC def18 0 i2d_AUTHORITY_INFO_ACCESS
PUBLIC def28 0 AUTHORITY_INFO_ACCESS_new
PUBLIC def38 0 AUTHORITY_INFO_ACCESS_free
PUBLIC def48 0 i2a_ACCESS_DESCRIPTION
PUBLIC df40c 0 d2i_AUTHORITY_KEYID
PUBLIC df41c 0 i2d_AUTHORITY_KEYID
PUBLIC df42c 0 AUTHORITY_KEYID_new
PUBLIC df43c 0 AUTHORITY_KEYID_free
PUBLIC df4d0 0 POLICY_MAPPING_free
PUBLIC df4e0 0 POLICY_MAPPING_new
PUBLIC df764 0 POLICY_CONSTRAINTS_new
PUBLIC df774 0 POLICY_CONSTRAINTS_free
PUBLIC dff78 0 GENERAL_SUBTREE_new
PUBLIC dff88 0 GENERAL_SUBTREE_free
PUBLIC dff98 0 NAME_CONSTRAINTS_new
PUBLIC dffa8 0 NAME_CONSTRAINTS_free
PUBLIC e0190 0 NAME_CONSTRAINTS_check
PUBLIC e0284 0 d2i_PROXY_POLICY
PUBLIC e0294 0 i2d_PROXY_POLICY
PUBLIC e02a4 0 PROXY_POLICY_new
PUBLIC e02b4 0 PROXY_POLICY_free
PUBLIC e02c4 0 d2i_PROXY_CERT_INFO_EXTENSION
PUBLIC e02d4 0 i2d_PROXY_CERT_INFO_EXTENSION
PUBLIC e02e4 0 PROXY_CERT_INFO_EXTENSION_new
PUBLIC e02f4 0 PROXY_CERT_INFO_EXTENSION_free
PUBLIC e1014 0 policy_cache_free
PUBLIC e1058 0 policy_cache_set
PUBLIC e13a0 0 policy_cache_find_data
PUBLIC e13e0 0 policy_data_free
PUBLIC e1430 0 policy_data_new
PUBLIC e151c 0 policy_cache_set_mapping
PUBLIC e1694 0 X509_policy_tree_free
PUBLIC e1754 0 X509_policy_check
PUBLIC e21f4 0 X509_policy_tree_level_count
PUBLIC e2200 0 X509_policy_tree_get0_level
PUBLIC e223c 0 X509_policy_tree_get0_policies
PUBLIC e2248 0 X509_policy_tree_get0_user_policies
PUBLIC e2264 0 X509_policy_level_node_count
PUBLIC e22a0 0 X509_policy_level_get0_node
PUBLIC e22d0 0 X509_policy_node_get0_policy
PUBLIC e22e0 0 X509_policy_node_get0_qualifiers
PUBLIC e22f0 0 X509_policy_node_get0_parent
PUBLIC e2a28 0 ERR_load_CONF_strings
PUBLIC e2a60 0 CONF_modules_load
PUBLIC e2fe8 0 CONF_modules_finish
PUBLIC e3064 0 CONF_modules_unload
PUBLIC e3168 0 CONF_module_add
PUBLIC e3220 0 CONF_modules_free
PUBLIC e3234 0 CONF_imodule_get_name
PUBLIC e323c 0 CONF_imodule_get_value
PUBLIC e3244 0 CONF_imodule_get_usr_data
PUBLIC e324c 0 CONF_imodule_set_usr_data
PUBLIC e3254 0 CONF_imodule_get_module
PUBLIC e325c 0 CONF_imodule_get_flags
PUBLIC e3264 0 CONF_imodule_set_flags
PUBLIC e326c 0 CONF_module_get_usr_data
PUBLIC e3274 0 CONF_module_set_usr_data
PUBLIC e327c 0 CONF_get1_default_config_file
PUBLIC e331c 0 CONF_modules_load_file
PUBLIC e33dc 0 CONF_parse_list
PUBLIC e360c 0 d2i_PKCS7
PUBLIC e361c 0 i2d_PKCS7
PUBLIC e362c 0 PKCS7_new
PUBLIC e363c 0 PKCS7_free
PUBLIC e364c 0 i2d_PKCS7_NDEF
PUBLIC e365c 0 PKCS7_dup
PUBLIC e3670 0 d2i_PKCS7_SIGNED
PUBLIC e3680 0 i2d_PKCS7_SIGNED
PUBLIC e3690 0 PKCS7_SIGNED_new
PUBLIC e36a0 0 PKCS7_SIGNED_free
PUBLIC e36b0 0 d2i_PKCS7_SIGNER_INFO
PUBLIC e36c0 0 i2d_PKCS7_SIGNER_INFO
PUBLIC e36d0 0 PKCS7_SIGNER_INFO_new
PUBLIC e36e0 0 PKCS7_SIGNER_INFO_free
PUBLIC e36f0 0 d2i_PKCS7_ISSUER_AND_SERIAL
PUBLIC e3700 0 i2d_PKCS7_ISSUER_AND_SERIAL
PUBLIC e3710 0 PKCS7_ISSUER_AND_SERIAL_new
PUBLIC e3720 0 PKCS7_ISSUER_AND_SERIAL_free
PUBLIC e3730 0 d2i_PKCS7_ENVELOPE
PUBLIC e3740 0 i2d_PKCS7_ENVELOPE
PUBLIC e3750 0 PKCS7_ENVELOPE_new
PUBLIC e3760 0 PKCS7_ENVELOPE_free
PUBLIC e3770 0 d2i_PKCS7_RECIP_INFO
PUBLIC e3780 0 i2d_PKCS7_RECIP_INFO
PUBLIC e3790 0 PKCS7_RECIP_INFO_new
PUBLIC e37a0 0 PKCS7_RECIP_INFO_free
PUBLIC e37b0 0 d2i_PKCS7_ENC_CONTENT
PUBLIC e37c0 0 i2d_PKCS7_ENC_CONTENT
PUBLIC e37d0 0 PKCS7_ENC_CONTENT_new
PUBLIC e37e0 0 PKCS7_ENC_CONTENT_free
PUBLIC e37f0 0 d2i_PKCS7_SIGN_ENVELOPE
PUBLIC e3800 0 i2d_PKCS7_SIGN_ENVELOPE
PUBLIC e3810 0 PKCS7_SIGN_ENVELOPE_new
PUBLIC e3820 0 PKCS7_SIGN_ENVELOPE_free
PUBLIC e3830 0 d2i_PKCS7_ENCRYPT
PUBLIC e3840 0 i2d_PKCS7_ENCRYPT
PUBLIC e3850 0 PKCS7_ENCRYPT_new
PUBLIC e3860 0 PKCS7_ENCRYPT_free
PUBLIC e3870 0 d2i_PKCS7_DIGEST
PUBLIC e3880 0 i2d_PKCS7_DIGEST
PUBLIC e3890 0 PKCS7_DIGEST_new
PUBLIC e38a0 0 PKCS7_DIGEST_free
PUBLIC e38b0 0 PKCS7_print_ctx
PUBLIC e38d8 0 PKCS7_ctrl
PUBLIC e3a2c 0 PKCS7_set_content
PUBLIC e3ad4 0 PKCS7_set_type
PUBLIC e3cbc 0 PKCS7_content_new
PUBLIC e3d10 0 PKCS7_set0_type_other
PUBLIC e3d34 0 PKCS7_add_signer
PUBLIC e3e98 0 PKCS7_add_certificate
PUBLIC e3fa8 0 PKCS7_add_crl
PUBLIC e40b8 0 PKCS7_SIGNER_INFO_set
PUBLIC e421c 0 PKCS7_add_signature
PUBLIC e42e4 0 PKCS7_set_digest
PUBLIC e43bc 0 PKCS7_get_signer_info
PUBLIC e4408 0 PKCS7_SIGNER_INFO_get0_algs
PUBLIC e4430 0 PKCS7_RECIP_INFO_get0_alg
PUBLIC e4440 0 PKCS7_add_recipient_info
PUBLIC e44c8 0 PKCS7_RECIP_INFO_set
PUBLIC e467c 0 PKCS7_add_recipient
PUBLIC e46d0 0 PKCS7_cert_from_signer_info
PUBLIC e4710 0 PKCS7_set_cipher
PUBLIC e47cc 0 PKCS7_stream
PUBLIC e48a0 0 ERR_load_PKCS7_strings
PUBLIC e4b78 0 PKCS7_dataInit
PUBLIC e5430 0 PKCS7_dataDecode
PUBLIC e5c20 0 PKCS7_SIGNER_INFO_sign
PUBLIC e5e00 0 PKCS7_get_issuer_and_serial
PUBLIC e5e6c 0 PKCS7_get_signed_attribute
PUBLIC e5f04 0 PKCS7_dataFinal
PUBLIC e66e4 0 PKCS7_get_attribute
PUBLIC e677c 0 PKCS7_digest_from_attributes
PUBLIC e6824 0 PKCS7_signatureVerify
PUBLIC e6b74 0 PKCS7_dataVerify
PUBLIC e6d58 0 PKCS7_set_signed_attributes
PUBLIC e6dec 0 PKCS7_set_attributes
PUBLIC e6e80 0 PKCS7_add_signed_attribute
PUBLIC e6e88 0 PKCS7_add_attribute
PUBLIC e6e90 0 PKCS7_add_attrib_smimecap
PUBLIC e6f14 0 PKCS7_get_smimecap
PUBLIC e6f6c 0 PKCS7_simple_smimecap
PUBLIC e70bc 0 PKCS7_add_attrib_content_type
PUBLIC e7110 0 PKCS7_add0_attrib_signing_time
PUBLIC e7180 0 PKCS7_add1_attrib_digest
PUBLIC e71e4 0 PKCS12_PBE_add
PUBLIC e71e8 0 PKCS12_PBE_keyivgen
PUBLIC e7410 0 PKCS12_key_gen_uni
PUBLIC e7940 0 PKCS12_key_gen_asc
PUBLIC e7a20 0 OPENSSL_asc2uni
PUBLIC e7ac4 0 OPENSSL_uni2asc
PUBLIC e7b50 0 i2d_PKCS12_bio
PUBLIC e7b68 0 i2d_PKCS12_fp
PUBLIC e7b80 0 d2i_PKCS12_bio
PUBLIC e7b98 0 d2i_PKCS12_fp
PUBLIC e7bb0 0 PKCS12_x5092certbag
PUBLIC e7bc8 0 PKCS12_x509crl2certbag
PUBLIC e7be0 0 PKCS12_certbag2x509
PUBLIC e7c30 0 PKCS12_certbag2x509crl
PUBLIC e7c80 0 ERR_load_PKCS12_strings
PUBLIC e7cb8 0 PKCS8_decrypt
PUBLIC e7cfc 0 COMP_CTX_new
PUBLIC e7d70 0 COMP_CTX_free
PUBLIC e7d9c 0 COMP_compress_block
PUBLIC e7df0 0 COMP_expand_block
PUBLIC e7e48 0 ERR_load_COMP_strings
PUBLIC e88b8 0 COMP_zlib
PUBLIC e899c 0 COMP_zlib_cleanup
PUBLIC e89a0 0 BIO_f_zlib
PUBLIC e89b4 0 d2i_OCSP_SIGNATURE
PUBLIC e89c4 0 i2d_OCSP_SIGNATURE
PUBLIC e89d4 0 OCSP_SIGNATURE_new
PUBLIC e89e4 0 OCSP_SIGNATURE_free
PUBLIC e89f4 0 d2i_OCSP_CERTID
PUBLIC e8a04 0 i2d_OCSP_CERTID
PUBLIC e8a14 0 OCSP_CERTID_new
PUBLIC e8a24 0 OCSP_CERTID_free
PUBLIC e8a34 0 d2i_OCSP_ONEREQ
PUBLIC e8a44 0 i2d_OCSP_ONEREQ
PUBLIC e8a54 0 OCSP_ONEREQ_new
PUBLIC e8a64 0 OCSP_ONEREQ_free
PUBLIC e8a74 0 d2i_OCSP_REQINFO
PUBLIC e8a84 0 i2d_OCSP_REQINFO
PUBLIC e8a94 0 OCSP_REQINFO_new
PUBLIC e8aa4 0 OCSP_REQINFO_free
PUBLIC e8ab4 0 d2i_OCSP_REQUEST
PUBLIC e8ac4 0 i2d_OCSP_REQUEST
PUBLIC e8ad4 0 OCSP_REQUEST_new
PUBLIC e8ae4 0 OCSP_REQUEST_free
PUBLIC e8af4 0 d2i_OCSP_RESPBYTES
PUBLIC e8b04 0 i2d_OCSP_RESPBYTES
PUBLIC e8b14 0 OCSP_RESPBYTES_new
PUBLIC e8b24 0 OCSP_RESPBYTES_free
PUBLIC e8b34 0 d2i_OCSP_RESPONSE
PUBLIC e8b44 0 i2d_OCSP_RESPONSE
PUBLIC e8b54 0 OCSP_RESPONSE_new
PUBLIC e8b64 0 OCSP_RESPONSE_free
PUBLIC e8b74 0 d2i_OCSP_RESPID
PUBLIC e8b84 0 i2d_OCSP_RESPID
PUBLIC e8b94 0 OCSP_RESPID_new
PUBLIC e8ba4 0 OCSP_RESPID_free
PUBLIC e8bb4 0 d2i_OCSP_REVOKEDINFO
PUBLIC e8bc4 0 i2d_OCSP_REVOKEDINFO
PUBLIC e8bd4 0 OCSP_REVOKEDINFO_new
PUBLIC e8be4 0 OCSP_REVOKEDINFO_free
PUBLIC e8bf4 0 d2i_OCSP_CERTSTATUS
PUBLIC e8c04 0 i2d_OCSP_CERTSTATUS
PUBLIC e8c14 0 OCSP_CERTSTATUS_new
PUBLIC e8c24 0 OCSP_CERTSTATUS_free
PUBLIC e8c34 0 d2i_OCSP_SINGLERESP
PUBLIC e8c44 0 i2d_OCSP_SINGLERESP
PUBLIC e8c54 0 OCSP_SINGLERESP_new
PUBLIC e8c64 0 OCSP_SINGLERESP_free
PUBLIC e8c74 0 d2i_OCSP_RESPDATA
PUBLIC e8c84 0 i2d_OCSP_RESPDATA
PUBLIC e8c94 0 OCSP_RESPDATA_new
PUBLIC e8ca4 0 OCSP_RESPDATA_free
PUBLIC e8cb4 0 d2i_OCSP_BASICRESP
PUBLIC e8cc4 0 i2d_OCSP_BASICRESP
PUBLIC e8cd4 0 OCSP_BASICRESP_new
PUBLIC e8ce4 0 OCSP_BASICRESP_free
PUBLIC e8cf4 0 d2i_OCSP_CRLID
PUBLIC e8d04 0 i2d_OCSP_CRLID
PUBLIC e8d14 0 OCSP_CRLID_new
PUBLIC e8d24 0 OCSP_CRLID_free
PUBLIC e8d34 0 d2i_OCSP_SERVICELOC
PUBLIC e8d44 0 i2d_OCSP_SERVICELOC
PUBLIC e8d54 0 OCSP_SERVICELOC_new
PUBLIC e8d64 0 OCSP_SERVICELOC_free
PUBLIC e8d74 0 OCSP_REQ_CTX_free
PUBLIC e8da8 0 OCSP_REQ_CTX_new
PUBLIC e8e48 0 OCSP_REQ_CTX_get0_mem_bio
PUBLIC e8e50 0 OCSP_set_max_response_length
PUBLIC e8e60 0 OCSP_REQ_CTX_i2d
PUBLIC e8ed4 0 OCSP_REQ_CTX_http
PUBLIC e8f2c 0 OCSP_REQ_CTX_set1_req
PUBLIC e8f40 0 OCSP_REQ_CTX_add1_header
PUBLIC e8fdc 0 OCSP_sendreq_new
PUBLIC e9048 0 OCSP_REQ_CTX_nbio
PUBLIC e9644 0 OCSP_REQ_CTX_nbio_d2i
PUBLIC e96b8 0 OCSP_sendreq_nbio
PUBLIC e96d4 0 OCSP_sendreq_bio
PUBLIC e9760 0 ERR_load_OCSP_strings
PUBLIC e9798 0 ERR_load_UI_strings
PUBLIC e97d0 0 ERR_load_CMS_strings
PUBLIC e9808 0 cms_get0_enveloped
PUBLIC e9860 0 cms_env_asn1_ctrl
PUBLIC e9954 0 CMS_get0_RecipientInfos
PUBLIC e9968 0 CMS_RecipientInfo_type
PUBLIC e9970 0 CMS_RecipientInfo_get0_pkey_ctx
PUBLIC e999c 0 CMS_EnvelopedData_create
PUBLIC e9aa4 0 CMS_RecipientInfo_ktri_get0_algs
PUBLIC e9b20 0 CMS_RecipientInfo_ktri_get0_signer_id
PUBLIC e9b7c 0 CMS_RecipientInfo_ktri_cert_cmp
PUBLIC e9bd8 0 CMS_RecipientInfo_set0_pkey
PUBLIC e9c34 0 CMS_RecipientInfo_kekri_id_cmp
PUBLIC e9cb0 0 CMS_add0_recipient_key
PUBLIC e9f1c 0 CMS_RecipientInfo_kekri_get0_id
PUBLIC e9fdc 0 CMS_RecipientInfo_set0_key
PUBLIC ea03c 0 CMS_RecipientInfo_decrypt
PUBLIC ea4dc 0 CMS_RecipientInfo_encrypt
PUBLIC ea858 0 cms_EnvelopedData_init_bio
PUBLIC eaa84 0 cms_pkey_get_ri_type
PUBLIC eaad8 0 CMS_add1_recipient_cert
PUBLIC ead1c 0 cms_EncryptedContent_init_bio
PUBLIC eb190 0 cms_EncryptedContent_init
PUBLIC eb208 0 CMS_EncryptedData_set1_key
PUBLIC eb320 0 cms_EncryptedData_init_bio
PUBLIC eb348 0 CMS_RecipientInfo_set0_password
PUBLIC eb3cc 0 CMS_add0_recipient_password
PUBLIC eb794 0 cms_RecipientInfo_pwri_crypt
PUBLIC ebd24 0 CMS_RecipientInfo_kari_get0_alg
PUBLIC ebd98 0 CMS_RecipientInfo_kari_get0_reks
PUBLIC ebdec 0 CMS_RecipientInfo_kari_get0_orig_id
PUBLIC ebf00 0 CMS_RecipientInfo_kari_orig_id_cmp
PUBLIC ebf88 0 CMS_RecipientEncryptedKey_get0_id
PUBLIC ec054 0 CMS_RecipientEncryptedKey_cert_cmp
PUBLIC ec088 0 CMS_RecipientInfo_kari_set0_pkey
PUBLIC ec0f4 0 CMS_RecipientInfo_kari_get0_ctx
PUBLIC ec10c 0 CMS_RecipientInfo_kari_decrypt
PUBLIC ec2c4 0 cms_RecipientInfo_kari_init
PUBLIC ec48c 0 cms_RecipientInfo_kari_encrypt
PUBLIC ec7bc 0 pitem_new
PUBLIC ec808 0 pitem_free
PUBLIC ec814 0 pqueue_new
PUBLIC ec868 0 pqueue_free
PUBLIC ec874 0 pqueue_insert
PUBLIC ec8f8 0 pqueue_peek
PUBLIC ec900 0 pqueue_pop
PUBLIC ec918 0 pqueue_find
PUBLIC ec974 0 pqueue_print
PUBLIC ec9e4 0 pqueue_iterator
PUBLIC ec9e8 0 pqueue_next
PUBLIC eca0c 0 pqueue_size
PUBLIC eca38 0 ERR_load_TS_strings
PUBLIC ecb8c 0 SRP_Calc_u
PUBLIC ecce0 0 SRP_Calc_server_key
PUBLIC ecde0 0 SRP_Calc_B
PUBLIC ecf14 0 SRP_Calc_x
PUBLIC ed088 0 SRP_Calc_A
PUBLIC ed114 0 SRP_Calc_client_key
PUBLIC ed2cc 0 SRP_Verify_B_mod_N
PUBLIC ed348 0 SRP_Verify_A_mod_N
PUBLIC ed34c 0 SRP_check_known_gN_param
PUBLIC ed3d8 0 SRP_get_default_gN
PUBLIC eda3c 0 SRP_VBASE_new
PUBLIC edaec 0 SRP_VBASE_free
PUBLIC edb28 0 SRP_VBASE_init
PUBLIC ee0c0 0 SRP_VBASE_get_by_user
PUBLIC ee29c 0 SRP_create_verifier_BN
PUBLIC ee3a8 0 SRP_create_verifier
PUBLIC ee9e8 0 ERR_load_CRYPTO_strings
PUBLIC eea20 0 ERR_load_OBJ_strings
PUBLIC eea58 0 SHA1
PUBLIC eefe4 0 DES_set_odd_parity
PUBLIC ef05c 0 DES_check_key_parity
PUBLIC ef0f8 0 DES_is_weak_key
PUBLIC ef2a4 0 DES_set_key_unchecked
PUBLIC ef4e8 0 DES_set_key_checked
PUBLIC ef534 0 DES_set_key
PUBLIC ef564 0 DES_key_sched
PUBLIC ef568 0 DES_options
PUBLIC ef5f8 0 DES_ecb_encrypt
PUBLIC ef6a0 0 DES_ecb3_encrypt
PUBLIC ef760 0 DES_cfb64_encrypt
PUBLIC ef940 0 DES_ede3_cfb64_encrypt
PUBLIC efb2c 0 DES_ede3_cfb_encrypt
PUBLIC f0488 0 DES_cfb_encrypt
PUBLIC f0df4 0 DES_ede3_ofb64_encrypt
PUBLIC f0fc0 0 DES_ofb64_encrypt
PUBLIC f1164 0 DES_encrypt1
PUBLIC f2700 0 DES_encrypt2
PUBLIC f3b34 0 DES_encrypt3
PUBLIC f3c4c 0 DES_decrypt3
PUBLIC f3d68 0 DES_ncbc_encrypt
PUBLIC f4358 0 DES_ede3_cbc_encrypt
PUBLIC f4970 0 AES_options
PUBLIC f4980 0 AES_set_encrypt_key
PUBLIC f4984 0 AES_set_decrypt_key
PUBLIC f4988 0 AES_wrap_key
PUBLIC f49b4 0 AES_unwrap_key
PUBLIC f49e0 0 private_AES_set_encrypt_key
PUBLIC f4e68 0 private_AES_set_decrypt_key
PUBLIC f5164 0 AES_encrypt
PUBLIC f56bc 0 AES_decrypt
PUBLIC f5bc8 0 AES_cbc_encrypt
PUBLIC f5c0c 0 RC2_ecb_encrypt
PUBLIC f5cc0 0 RC2_set_key
PUBLIC f5e90 0 RC2_encrypt
PUBLIC f5fc4 0 RC2_decrypt
PUBLIC f612c 0 RC2_cbc_encrypt
PUBLIC f670c 0 RC2_cfb64_encrypt
PUBLIC f68dc 0 RC2_ofb64_encrypt
PUBLIC f6a7c 0 RC4_options
PUBLIC f6a8c 0 private_RC4_set_key
PUBLIC f6ba8 0 idea_encrypt
PUBLIC f72b8 0 idea_cbc_encrypt
PUBLIC f789c 0 idea_cfb64_encrypt
PUBLIC f7a6c 0 idea_ofb64_encrypt
PUBLIC f7c0c 0 idea_options
PUBLIC f7c1c 0 idea_ecb_encrypt
PUBLIC f7cc0 0 idea_set_encrypt_key
PUBLIC f7e64 0 idea_set_decrypt_key
PUBLIC f8018 0 Camellia_set_key
PUBLIC f801c 0 private_Camellia_set_key
PUBLIC f8078 0 Camellia_encrypt
PUBLIC f8088 0 Camellia_decrypt
PUBLIC f8098 0 Camellia_cbc_encrypt
PUBLIC f80dc 0 SEED_set_key
PUBLIC f8f20 0 SEED_encrypt
PUBLIC f9ea8 0 SEED_decrypt
PUBLIC fae30 0 SEED_ecb_encrypt
PUBLIC fae40 0 SEED_cbc_encrypt
PUBLIC fae84 0 SEED_cfb128_encrypt
PUBLIC faebc 0 SEED_ofb128_encrypt
PUBLIC faeec 0 CRYPTO_cbc128_encrypt
PUBLIC fb2b0 0 CRYPTO_cbc128_decrypt
PUBLIC fb8f4 0 CRYPTO_ctr128_encrypt
PUBLIC fc078 0 CRYPTO_ctr128_encrypt_ctr32
PUBLIC fc5c0 0 CRYPTO_cfb128_encrypt
PUBLIC fcc3c 0 CRYPTO_cfb128_1_encrypt
PUBLIC fce04 0 CRYPTO_cfb128_8_encrypt
PUBLIC fcf00 0 CRYPTO_ofb128_encrypt
PUBLIC fd758 0 CRYPTO_gcm128_init
PUBLIC fdb70 0 CRYPTO_gcm128_setiv
PUBLIC fe018 0 CRYPTO_gcm128_aad
PUBLIC fe37c 0 CRYPTO_gcm128_encrypt
PUBLIC fea00 0 CRYPTO_gcm128_decrypt
PUBLIC ff098 0 CRYPTO_gcm128_encrypt_ctr32
PUBLIC ff4cc 0 CRYPTO_gcm128_decrypt_ctr32
PUBLIC ff904 0 CRYPTO_gcm128_finish
PUBLIC ffabc 0 CRYPTO_gcm128_tag
PUBLIC ffaf4 0 CRYPTO_gcm128_new
PUBLIC ffb38 0 CRYPTO_gcm128_release
PUBLIC ffb58 0 CRYPTO_ccm128_init
PUBLIC ffbb0 0 CRYPTO_ccm128_setiv
PUBLIC ffc18 0 CRYPTO_ccm128_aad
PUBLIC ffd40 0 CRYPTO_ccm128_encrypt
PUBLIC 100794 0 CRYPTO_ccm128_decrypt
PUBLIC 100dc8 0 CRYPTO_ccm128_encrypt_ccm64
PUBLIC 101658 0 CRYPTO_ccm128_decrypt_ccm64
PUBLIC 101b6c 0 CRYPTO_ccm128_tag
PUBLIC 101bb0 0 CRYPTO_xts128_encrypt
PUBLIC 10246c 0 CRYPTO_128_wrap
PUBLIC 1025bc 0 CRYPTO_128_unwrap
PUBLIC 102780 0 BN_uadd
PUBLIC 1028b0 0 BN_usub
PUBLIC 102ad0 0 BN_add
PUBLIC 102b74 0 BN_sub
PUBLIC 102c7c 0 BN_div
PUBLIC 1035e0 0 BN_pseudo_rand
PUBLIC 103798 0 BN_rand
PUBLIC 103950 0 BN_bntest_rand
PUBLIC 103b84 0 BN_rand_range
PUBLIC 103b94 0 BN_pseudo_rand_range
PUBLIC 103ba4 0 BN_BLINDING_free
PUBLIC 103bfc 0 BN_BLINDING_new
PUBLIC 103cf4 0 BN_BLINDING_invert_ex
PUBLIC 103d7c 0 BN_BLINDING_invert
PUBLIC 103d8c 0 BN_BLINDING_get_thread_id
PUBLIC 103d94 0 BN_BLINDING_set_thread_id
PUBLIC 103d9c 0 BN_BLINDING_thread_id
PUBLIC 103da4 0 BN_BLINDING_get_flags
PUBLIC 103dac 0 BN_BLINDING_set_flags
PUBLIC 103db4 0 BN_BLINDING_create_param
PUBLIC 103f78 0 BN_BLINDING_update
PUBLIC 1040b8 0 BN_BLINDING_convert_ex
PUBLIC 10418c 0 BN_BLINDING_convert
PUBLIC 10419c 0 BN_gcd
PUBLIC 104370 0 BN_mod_inverse
PUBLIC 104da4 0 BN_GENCB_call
PUBLIC 104e18 0 BN_is_prime_fasttest_ex
PUBLIC 1052b8 0 BN_generate_prime_ex
PUBLIC 105808 0 BN_is_prime_ex
PUBLIC 105824 0 ERR_load_BN_strings
PUBLIC 10585c 0 EC_GROUP_new_curve_GFp
PUBLIC 105928 0 EC_GROUP_new_curve_GF2m
PUBLIC 10598c 0 ERR_load_EC_strings
PUBLIC 106294 0 EC_GROUP_get_basis_type
PUBLIC 106314 0 EC_GROUP_get_trinomial_basis
PUBLIC 1063a8 0 EC_GROUP_get_pentanomial_basis
PUBLIC 106470 0 X9_62_PENTANOMIAL_new
PUBLIC 106480 0 X9_62_PENTANOMIAL_free
PUBLIC 106490 0 X9_62_CHARACTERISTIC_TWO_new
PUBLIC 1064a0 0 X9_62_CHARACTERISTIC_TWO_free
PUBLIC 1064b0 0 ECPARAMETERS_new
PUBLIC 1064c0 0 ECPARAMETERS_free
PUBLIC 107040 0 d2i_ECPKPARAMETERS
PUBLIC 107050 0 i2d_ECPKPARAMETERS
PUBLIC 107060 0 ECPKPARAMETERS_new
PUBLIC 107070 0 ECPKPARAMETERS_free
PUBLIC 107080 0 d2i_EC_PRIVATEKEY
PUBLIC 107090 0 i2d_EC_PRIVATEKEY
PUBLIC 1070a0 0 EC_PRIVATEKEY_new
PUBLIC 1070b0 0 EC_PRIVATEKEY_free
PUBLIC 1070c0 0 d2i_ECPKParameters
PUBLIC 107254 0 i2d_ECPKParameters
PUBLIC 107388 0 d2i_ECPrivateKey
PUBLIC 107790 0 i2d_ECPrivateKey
PUBLIC 107cc0 0 i2d_ECParameters
PUBLIC 107d14 0 d2i_ECParameters
PUBLIC 107e7c 0 o2i_ECPublicKey
PUBLIC 107fa4 0 i2o_ECPublicKey
PUBLIC 10812c 0 ec_GF2m_simple_is_at_infinity
PUBLIC 10813c 0 ec_GF2m_simple_points_make_affine
PUBLIC 10818c 0 ec_GF2m_simple_group_init
PUBLIC 1081b4 0 ec_GF2m_simple_point_init
PUBLIC 1081dc 0 ec_GF2m_simple_group_finish
PUBLIC 108200 0 ec_GF2m_simple_point_finish
PUBLIC 108224 0 ec_GF2m_simple_group_clear_finish
PUBLIC 108268 0 ec_GF2m_simple_point_clear_finish
PUBLIC 108294 0 ec_GF2m_simple_group_get_curve
PUBLIC 10830c 0 ec_GF2m_simple_group_copy
PUBLIC 108484 0 ec_GF2m_simple_group_set_curve
PUBLIC 108618 0 ec_GF2m_simple_group_get_degree
PUBLIC 10862c 0 ec_GF2m_simple_group_check_discriminant
PUBLIC 1086e4 0 ec_GF2m_simple_point_set_to_infinity
PUBLIC 108704 0 ec_GF2m_simple_field_mul
PUBLIC 10871c 0 ec_GF2m_simple_field_sqr
PUBLIC 108730 0 ec_GF2m_simple_field_div
PUBLIC 108748 0 ec_GF2m_simple_point_copy
PUBLIC 1087a4 0 ec_GF2m_simple_point_set_affine_coordinates
PUBLIC 108888 0 ec_GF2m_simple_point_get_affine_coordinates
PUBLIC 1089a0 0 ec_GF2m_simple_cmp
PUBLIC 108b3c 0 ec_GF2m_simple_make_affine
PUBLIC 108c44 0 ec_GF2m_simple_is_on_curve
PUBLIC 108dc4 0 ec_GF2m_simple_add
PUBLIC 1091e8 0 ec_GF2m_simple_dbl
PUBLIC 109204 0 ec_GF2m_simple_invert
PUBLIC 109260 0 EC_GF2m_simple_method
PUBLIC 109b6c 0 ec_GF2m_simple_mul
PUBLIC 109de8 0 ec_GF2m_precompute_mult
PUBLIC 109dec 0 ec_GF2m_have_precompute_mult
PUBLIC 10c568 0 EC_KEY_print
PUBLIC 10c5c4 0 EC_KEY_print_fp
PUBLIC 10c650 0 ECParameters_print
PUBLIC 10c6a8 0 ECParameters_print_fp
PUBLIC 10c72c 0 ECPKParameters_print
PUBLIC 10cfdc 0 ECPKParameters_print_fp
PUBLIC 10d068 0 ec_GFp_simple_set_compressed_coordinates
PUBLIC 10d4f0 0 ec_GFp_simple_point2oct
PUBLIC 10d86c 0 ec_GFp_simple_oct2point
PUBLIC 10dc10 0 ec_GF2m_simple_set_compressed_coordinates
PUBLIC 10dea8 0 ec_GF2m_simple_point2oct
PUBLIC 10e270 0 ec_GF2m_simple_oct2point
PUBLIC 10ff4c 0 RSA_PKCS1_SSLeay
PUBLIC 10ff5c 0 ERR_load_RSA_strings
PUBLIC 10ff94 0 RSA_padding_add_PKCS1_type_1
PUBLIC 110038 0 RSA_padding_check_PKCS1_type_1
PUBLIC 1101d4 0 RSA_padding_add_PKCS1_type_2
PUBLIC 1102cc 0 RSA_padding_check_PKCS1_type_2
PUBLIC 11047c 0 RSA_padding_add_SSLv23
PUBLIC 110584 0 RSA_padding_check_SSLv23
PUBLIC 110750 0 RSA_padding_add_none
PUBLIC 1107dc 0 RSA_padding_check_none
PUBLIC 110854 0 PKCS1_MGF1
PUBLIC 11099c 0 RSA_padding_add_PKCS1_OAEP_mgf1
PUBLIC 110ed0 0 RSA_padding_add_PKCS1_OAEP
PUBLIC 110efc 0 RSA_padding_check_PKCS1_OAEP_mgf1
PUBLIC 111558 0 RSA_padding_check_PKCS1_OAEP
PUBLIC 11158c 0 RSA_padding_add_X931
PUBLIC 11164c 0 RSA_padding_check_X931
PUBLIC 1117a8 0 RSA_X931_hash_id
PUBLIC 11499c 0 DSA_set_default_method
PUBLIC 1149b0 0 DSA_get_default_method
PUBLIC 1149d8 0 DSA_set_method
PUBLIC 114a30 0 DSA_new_method
PUBLIC 114bf0 0 DSA_new
PUBLIC 114bf8 0 DSA_free
PUBLIC 114cf4 0 DSA_up_ref
PUBLIC 114d34 0 DSA_size
PUBLIC 114d94 0 DSA_get_ex_new_index
PUBLIC 114dc8 0 DSA_set_ex_data
PUBLIC 114dd0 0 DSA_get_ex_data
PUBLIC 114dd8 0 DSA_dup_DH
PUBLIC 114ea8 0 ERR_load_DSA_strings
PUBLIC 115864 0 DSA_OpenSSL
PUBLIC 11722c 0 ECDSA_set_default_method
PUBLIC 117240 0 ECDSA_get_default_method
PUBLIC 117354 0 ecdsa_check
PUBLIC 1174d0 0 ECDSA_set_method
PUBLIC 117510 0 ECDSA_size
PUBLIC 1175c8 0 ECDSA_get_ex_new_index
PUBLIC 1175fc 0 ECDSA_set_ex_data
PUBLIC 117628 0 ECDSA_get_ex_data
PUBLIC 11764c 0 ECDSA_METHOD_new
PUBLIC 1176ec 0 ECDSA_METHOD_set_sign
PUBLIC 1176f4 0 ECDSA_METHOD_set_sign_setup
PUBLIC 1176fc 0 ECDSA_METHOD_set_verify
PUBLIC 117704 0 ECDSA_METHOD_set_flags
PUBLIC 117710 0 ECDSA_METHOD_set_name
PUBLIC 117718 0 ECDSA_METHOD_free
PUBLIC 117728 0 ECDSA_METHOD_set_app_data
PUBLIC 117730 0 ECDSA_METHOD_get_app_data
PUBLIC 117738 0 d2i_ECDSA_SIG
PUBLIC 117748 0 i2d_ECDSA_SIG
PUBLIC 117758 0 ECDSA_SIG_new
PUBLIC 117768 0 ECDSA_SIG_free
PUBLIC 118830 0 ECDSA_OpenSSL
PUBLIC 118840 0 ERR_load_ECDSA_strings
PUBLIC 1188c8 0 d2i_DHparams
PUBLIC 1188d8 0 i2d_DHparams
PUBLIC 1188e8 0 d2i_int_dhx
PUBLIC 1188f8 0 i2d_int_dhx
PUBLIC 118908 0 d2i_DHxparams
PUBLIC 1189dc 0 i2d_DHxparams
PUBLIC 118a64 0 ERR_load_DH_strings
PUBLIC 119494 0 DH_get_1024_160
PUBLIC 11950c 0 DH_get_2048_224
PUBLIC 119584 0 DH_get_2048_256
PUBLIC 1195fc 0 DH_KDF_X9_42
PUBLIC 119988 0 ECDH_set_default_method
PUBLIC 11999c 0 ECDH_get_default_method
PUBLIC 119ab0 0 ecdh_check
PUBLIC 119c2c 0 ECDH_set_method
PUBLIC 119c6c 0 ECDH_get_ex_new_index
PUBLIC 119ca0 0 ECDH_set_ex_data
PUBLIC 119ccc 0 ECDH_get_ex_data
PUBLIC 11a108 0 ECDH_OpenSSL
PUBLIC 11a118 0 ERR_load_ECDH_strings
PUBLIC 11a150 0 ECDH_KDF_X9_62
PUBLIC 11a2b8 0 ERR_load_DSO_strings
PUBLIC 11a2f0 0 DSO_set_default_method
PUBLIC 11a304 0 DSO_get_default_method
PUBLIC 11a314 0 DSO_get_method
PUBLIC 11a31c 0 DSO_set_method
PUBLIC 11a32c 0 DSO_new_method
PUBLIC 11a450 0 DSO_new
PUBLIC 11a458 0 DSO_free
PUBLIC 11a5a4 0 DSO_flags
PUBLIC 11a5b0 0 DSO_up_ref
PUBLIC 11a620 0 DSO_bind_var
PUBLIC 11a6e0 0 DSO_bind_func
PUBLIC 11a7a0 0 DSO_ctrl
PUBLIC 11a878 0 DSO_set_name_converter
PUBLIC 11a8d4 0 DSO_get_filename
PUBLIC 11a920 0 DSO_set_filename
PUBLIC 11aa3c 0 DSO_load
PUBLIC 11ac1c 0 DSO_merge
PUBLIC 11aca8 0 DSO_convert_filename
PUBLIC 11ade4 0 DSO_get_loaded_filename
PUBLIC 11ae30 0 DSO_pathbyaddr
PUBLIC 11aeb8 0 DSO_global_lookup
PUBLIC 11af30 0 DSO_METHOD_openssl
PUBLIC 11af34 0 ERR_load_ENGINE_strings
PUBLIC 11af88 0 ENGINE_new
PUBLIC 11b004 0 engine_set_all_null
PUBLIC 11b050 0 engine_free_util
PUBLIC 11b12c 0 ENGINE_free
PUBLIC 11b134 0 engine_cleanup_add_first
PUBLIC 11b1a8 0 engine_cleanup_add_last
PUBLIC 11b218 0 ENGINE_cleanup
PUBLIC 11b258 0 ENGINE_get_ex_new_index
PUBLIC 11b28c 0 ENGINE_set_ex_data
PUBLIC 11b294 0 ENGINE_get_ex_data
PUBLIC 11b29c 0 ENGINE_set_id
PUBLIC 11b2ec 0 ENGINE_set_name
PUBLIC 11b33c 0 ENGINE_set_destroy_function
PUBLIC 11b348 0 ENGINE_set_init_function
PUBLIC 11b354 0 ENGINE_set_finish_function
PUBLIC 11b360 0 ENGINE_set_ctrl_function
PUBLIC 11b36c 0 ENGINE_set_flags
PUBLIC 11b378 0 ENGINE_set_cmd_defns
PUBLIC 11b384 0 ENGINE_get_id
PUBLIC 11b38c 0 ENGINE_get_name
PUBLIC 11b394 0 ENGINE_get_destroy_function
PUBLIC 11b39c 0 ENGINE_get_init_function
PUBLIC 11b3a4 0 ENGINE_get_finish_function
PUBLIC 11b3ac 0 ENGINE_get_ctrl_function
PUBLIC 11b3b4 0 ENGINE_get_flags
PUBLIC 11b3bc 0 ENGINE_get_cmd_defns
PUBLIC 11b3c4 0 ENGINE_get_static_state
PUBLIC 11b3d8 0 ENGINE_get_first
PUBLIC 11b438 0 ENGINE_get_last
PUBLIC 11b49c 0 ENGINE_get_next
PUBLIC 11b538 0 ENGINE_get_prev
PUBLIC 11b5d4 0 ENGINE_add
PUBLIC 11b804 0 ENGINE_remove
PUBLIC 11b9b0 0 ENGINE_by_id
PUBLIC 11bcc4 0 ENGINE_up_ref
PUBLIC 11bd3c 0 ENGINE_ctrl
PUBLIC 11c1c8 0 ENGINE_cmd_is_executable
PUBLIC 11c22c 0 ENGINE_ctrl_cmd
PUBLIC 11c324 0 ENGINE_ctrl_cmd_string
PUBLIC 11c6c0 0 ENGINE_get_table_flags
PUBLIC 11c6d0 0 ENGINE_set_table_flags
PUBLIC 11c6e4 0 engine_table_register
PUBLIC 11c8d4 0 engine_table_unregister
PUBLIC 11c93c 0 engine_table_cleanup
PUBLIC 11c9ac 0 engine_table_select
PUBLIC 11cb00 0 engine_table_doall
PUBLIC 11cb40 0 ENGINE_unregister_DSA
PUBLIC 11cb54 0 ENGINE_register_DSA
PUBLIC 11cbac 0 ENGINE_register_all_DSA
PUBLIC 11cbd8 0 ENGINE_set_default_DSA
PUBLIC 11cc30 0 ENGINE_get_default_DSA
PUBLIC 11cc44 0 ENGINE_get_DSA
PUBLIC 11cc4c 0 ENGINE_set_DSA
PUBLIC 11cc68 0 ENGINE_unregister_ECDSA
PUBLIC 11cc7c 0 ENGINE_register_ECDSA
PUBLIC 11ccd4 0 ENGINE_register_all_ECDSA
PUBLIC 11cd00 0 ENGINE_set_default_ECDSA
PUBLIC 11cd58 0 ENGINE_get_default_ECDSA
PUBLIC 11cd6c 0 ENGINE_get_ECDSA
PUBLIC 11cd74 0 ENGINE_set_ECDSA
PUBLIC 11cd90 0 ENGINE_unregister_ECDH
PUBLIC 11cda4 0 ENGINE_register_ECDH
PUBLIC 11cdfc 0 ENGINE_register_all_ECDH
PUBLIC 11ce28 0 ENGINE_set_default_ECDH
PUBLIC 11ce80 0 ENGINE_get_default_ECDH
PUBLIC 11ce94 0 ENGINE_get_ECDH
PUBLIC 11ce9c 0 ENGINE_set_ECDH
PUBLIC 11ceb8 0 ENGINE_unregister_RAND
PUBLIC 11cecc 0 ENGINE_register_RAND
PUBLIC 11cf24 0 ENGINE_register_all_RAND
PUBLIC 11cf50 0 ENGINE_set_default_RAND
PUBLIC 11cfa8 0 ENGINE_get_default_RAND
PUBLIC 11cfbc 0 ENGINE_get_RAND
PUBLIC 11cfc4 0 ENGINE_set_RAND
PUBLIC 11cfe0 0 ENGINE_unregister_ciphers
PUBLIC 11cff4 0 ENGINE_register_ciphers
PUBLIC 11d068 0 ENGINE_register_all_ciphers
PUBLIC 11d094 0 ENGINE_set_default_ciphers
PUBLIC 11d108 0 ENGINE_get_cipher_engine
PUBLIC 11d11c 0 ENGINE_get_ciphers
PUBLIC 11d124 0 ENGINE_get_cipher
PUBLIC 11d198 0 ENGINE_set_ciphers
PUBLIC 11d1b4 0 ENGINE_unregister_digests
PUBLIC 11d1c8 0 ENGINE_register_digests
PUBLIC 11d23c 0 ENGINE_register_all_digests
PUBLIC 11d268 0 ENGINE_set_default_digests
PUBLIC 11d2dc 0 ENGINE_get_digest_engine
PUBLIC 11d2f0 0 ENGINE_get_digests
PUBLIC 11d2f8 0 ENGINE_get_digest
PUBLIC 11d36c 0 ENGINE_set_digests
PUBLIC 11d388 0 ENGINE_unregister_pkey_meths
PUBLIC 11d39c 0 ENGINE_register_pkey_meths
PUBLIC 11d410 0 ENGINE_register_all_pkey_meths
PUBLIC 11d43c 0 ENGINE_set_default_pkey_meths
PUBLIC 11d4b0 0 ENGINE_get_pkey_meth_engine
PUBLIC 11d4c4 0 ENGINE_get_pkey_meths
PUBLIC 11d4cc 0 ENGINE_get_pkey_meth
PUBLIC 11d540 0 ENGINE_set_pkey_meths
PUBLIC 11d54c 0 engine_pkey_meths_free
PUBLIC 11d684 0 ENGINE_unregister_pkey_asn1_meths
PUBLIC 11d698 0 ENGINE_register_pkey_asn1_meths
PUBLIC 11d70c 0 ENGINE_register_all_pkey_asn1_meths
PUBLIC 11d738 0 ENGINE_set_default_pkey_asn1_meths
PUBLIC 11d7ac 0 ENGINE_get_pkey_asn1_meth_engine
PUBLIC 11d7c0 0 ENGINE_get_pkey_asn1_meths
PUBLIC 11d7c8 0 ENGINE_get_pkey_asn1_meth
PUBLIC 11d83c 0 ENGINE_set_pkey_asn1_meths
PUBLIC 11d848 0 engine_pkey_asn1_meths_free
PUBLIC 11d8c8 0 ENGINE_get_pkey_asn1_meth_str
PUBLIC 11d998 0 ENGINE_pkey_asn1_find_str
PUBLIC 11da38 0 ERR_load_BUF_strings
PUBLIC 11da78 0 ERR_load_BIO_strings
PUBLIC 11db30 0 BIO_s_null
PUBLIC 11db64 0 BIO_dump_indent_cb
PUBLIC 11df20 0 BIO_dump_cb
PUBLIC 11df3c 0 BIO_dump_fp
PUBLIC 11df5c 0 BIO_dump_indent_fp
PUBLIC 11df94 0 BIO_dump
PUBLIC 11dfb4 0 BIO_dump_indent
PUBLIC 11dfec 0 BIO_hex_string
PUBLIC 11e76c 0 RAND_SSLeay
PUBLIC 11e77c 0 ssleay_rand_bytes
PUBLIC 11f2b8 0 ERR_load_RAND_strings
PUBLIC 11f2f0 0 RAND_poll
PUBLIC 11f594 0 EVP_EncodeInit
PUBLIC 11f5ac 0 EVP_EncodeBlock
PUBLIC 11f700 0 EVP_EncodeUpdate
PUBLIC 11f870 0 EVP_EncodeFinal
PUBLIC 11f8c0 0 EVP_DecodeInit
PUBLIC 11f8dc 0 EVP_DecodeBlock
PUBLIC 11fafc 0 EVP_DecodeUpdate
PUBLIC 11feb0 0 EVP_DecodeFinal
PUBLIC 11ff04 0 EVP_set_pw_prompt
PUBLIC 11ff48 0 EVP_get_pw_prompt
PUBLIC 11ff68 0 EVP_read_pw_string_min
PUBLIC 120030 0 EVP_read_pw_string
PUBLIC 120058 0 EVP_BytesToKey
PUBLIC 1202fc 0 EVP_md4
PUBLIC 12032c 0 EVP_sha
PUBLIC 12035c 0 EVP_whirlpool
PUBLIC 12038c 0 EVP_dss
PUBLIC 1203bc 0 EVP_mdc2
PUBLIC 1203ec 0 EVP_ripemd160
PUBLIC 120758 0 BIO_f_md
PUBLIC 120d94 0 BIO_f_cipher
PUBLIC 120da4 0 BIO_set_cipher
PUBLIC 120e48 0 EVP_PKCS82PKEY
PUBLIC 120fa8 0 EVP_PKEY2PKCS8_broken
PUBLIC 1210cc 0 EVP_PKEY2PKCS8
PUBLIC 1210d4 0 PKCS8_set_broken
PUBLIC 121138 0 EVP_PKEY_get_attr_count
PUBLIC 121140 0 EVP_PKEY_get_attr_by_NID
PUBLIC 121148 0 EVP_PKEY_get_attr_by_OBJ
PUBLIC 121150 0 EVP_PKEY_get_attr
PUBLIC 121158 0 EVP_PKEY_delete_attr
PUBLIC 121160 0 EVP_PKEY_add1_attr
PUBLIC 121178 0 EVP_PKEY_add1_attr_by_OBJ
PUBLIC 1211a0 0 EVP_PKEY_add1_attr_by_NID
PUBLIC 1211c8 0 EVP_PKEY_add1_attr_by_txt
PUBLIC 1211f0 0 ASN1_BIT_STRING_set
PUBLIC 1211f4 0 i2c_ASN1_BIT_STRING
PUBLIC 121310 0 c2i_ASN1_BIT_STRING
PUBLIC 121488 0 ASN1_BIT_STRING_set_bit
PUBLIC 121600 0 ASN1_BIT_STRING_get_bit
PUBLIC 121658 0 ASN1_BIT_STRING_check
PUBLIC 1216d0 0 asn1_utctime_to_tm
PUBLIC 121924 0 ASN1_UTCTIME_check
PUBLIC 121930 0 ASN1_UTCTIME_set_string
PUBLIC 1219a8 0 ASN1_UTCTIME_adj
PUBLIC 121b48 0 ASN1_UTCTIME_set
PUBLIC 121b54 0 ASN1_UTCTIME_cmp_time_t
PUBLIC 121bfc 0 asn1_generalizedtime_to_tm
PUBLIC 121ecc 0 ASN1_GENERALIZEDTIME_check
PUBLIC 121ed8 0 ASN1_GENERALIZEDTIME_set_string
PUBLIC 121f50 0 ASN1_GENERALIZEDTIME_adj
PUBLIC 1220a4 0 ASN1_GENERALIZEDTIME_set
PUBLIC 1220b0 0 d2i_ASN1_TIME
PUBLIC 1220c0 0 i2d_ASN1_TIME
PUBLIC 1220d0 0 ASN1_TIME_new
PUBLIC 1220e0 0 ASN1_TIME_free
PUBLIC 1220f0 0 ASN1_TIME_adj
PUBLIC 1221b8 0 ASN1_TIME_set
PUBLIC 1221c4 0 ASN1_TIME_check
PUBLIC 1221e8 0 ASN1_TIME_to_generalizedtime
PUBLIC 1222e4 0 ASN1_TIME_set_string
PUBLIC 122368 0 ASN1_TIME_diff
PUBLIC 122484 0 ASN1_OCTET_STRING_dup
PUBLIC 122488 0 ASN1_OCTET_STRING_cmp
PUBLIC 12248c 0 ASN1_OCTET_STRING_set
PUBLIC 1227e0 0 ASN1_d2i_bio
PUBLIC 122848 0 ASN1_d2i_fp
PUBLIC 1228d8 0 ASN1_item_d2i_bio
PUBLIC 122944 0 ASN1_item_d2i_fp
PUBLIC 1229cc 0 ASN1_i2d_bio
PUBLIC 122a98 0 ASN1_i2d_fp
PUBLIC 122b24 0 ASN1_item_i2d_bio
PUBLIC 122be0 0 ASN1_item_i2d_fp
PUBLIC 122c6c 0 ASN1_ENUMERATED_set
PUBLIC 122e14 0 ASN1_ENUMERATED_get
PUBLIC 122eb8 0 BN_to_ASN1_ENUMERATED
PUBLIC 122ff0 0 ASN1_ENUMERATED_to_BN
PUBLIC 123070 0 ASN1_sign
PUBLIC 123340 0 ASN1_item_sign_ctx
PUBLIC 1236a4 0 ASN1_item_sign
PUBLIC 123730 0 ASN1_digest
PUBLIC 1237ec 0 ASN1_item_digest
PUBLIC 123868 0 ASN1_verify
PUBLIC 123a3c 0 ASN1_item_verify
PUBLIC 1258c8 0 X509_NAME_print_ex
PUBLIC 125de0 0 X509_NAME_print_ex_fp
PUBLIC 126384 0 ASN1_STRING_print_ex
PUBLIC 126394 0 ASN1_STRING_print_ex_fp
PUBLIC 1263a4 0 ASN1_STRING_to_UTF8
PUBLIC 12643c 0 d2i_X509_VAL
PUBLIC 12644c 0 i2d_X509_VAL
PUBLIC 12645c 0 X509_VAL_new
PUBLIC 12646c 0 X509_VAL_free
PUBLIC 1264a8 0 d2i_X509_REQ_INFO
PUBLIC 1264b8 0 i2d_X509_REQ_INFO
PUBLIC 1264c8 0 X509_REQ_INFO_new
PUBLIC 1264d8 0 X509_REQ_INFO_free
PUBLIC 1264e8 0 d2i_X509_REQ
PUBLIC 1264f8 0 i2d_X509_REQ
PUBLIC 126508 0 X509_REQ_new
PUBLIC 126518 0 X509_REQ_free
PUBLIC 126528 0 X509_REQ_dup
PUBLIC 126bb4 0 d2i_X509_REVOKED
PUBLIC 126bc4 0 i2d_X509_REVOKED
PUBLIC 126bd4 0 X509_REVOKED_new
PUBLIC 126be4 0 X509_REVOKED_free
PUBLIC 126bf4 0 X509_REVOKED_dup
PUBLIC 126c08 0 d2i_X509_CRL_INFO
PUBLIC 126c18 0 i2d_X509_CRL_INFO
PUBLIC 126c28 0 X509_CRL_INFO_new
PUBLIC 126c38 0 X509_CRL_INFO_free
PUBLIC 126c48 0 d2i_X509_CRL
PUBLIC 126c58 0 i2d_X509_CRL
PUBLIC 126c68 0 X509_CRL_new
PUBLIC 126c78 0 X509_CRL_free
PUBLIC 126c88 0 X509_CRL_dup
PUBLIC 126c9c 0 X509_CRL_add0_revoked
PUBLIC 126d2c 0 X509_CRL_verify
PUBLIC 126d50 0 X509_CRL_get0_by_serial
PUBLIC 126d78 0 X509_CRL_get0_by_cert
PUBLIC 126dcc 0 X509_CRL_set_default_method
PUBLIC 126dfc 0 X509_CRL_METHOD_new
PUBLIC 126e50 0 X509_CRL_METHOD_free
PUBLIC 126e60 0 X509_CRL_set_meth_data
PUBLIC 126e68 0 X509_CRL_get_meth_data
PUBLIC 126e70 0 X509_INFO_new
PUBLIC 126eec 0 X509_INFO_free
PUBLIC 126f80 0 d2i_NETSCAPE_SPKAC
PUBLIC 126f90 0 i2d_NETSCAPE_SPKAC
PUBLIC 126fa0 0 NETSCAPE_SPKAC_new
PUBLIC 126fb0 0 NETSCAPE_SPKAC_free
PUBLIC 126fc0 0 d2i_NETSCAPE_SPKI
PUBLIC 126fd0 0 i2d_NETSCAPE_SPKI
PUBLIC 126fe0 0 NETSCAPE_SPKI_new
PUBLIC 126ff0 0 NETSCAPE_SPKI_free
PUBLIC 12702c 0 d2i_NETSCAPE_CERT_SEQUENCE
PUBLIC 12703c 0 i2d_NETSCAPE_CERT_SEQUENCE
PUBLIC 12704c 0 NETSCAPE_CERT_SEQUENCE_new
PUBLIC 12705c 0 NETSCAPE_CERT_SEQUENCE_free
PUBLIC 12706c 0 i2d_PrivateKey
PUBLIC 1270fc 0 X509_ocspid_print
PUBLIC 12728c 0 X509_signature_dump
PUBLIC 1273bc 0 X509_signature_print
PUBLIC 1274ac 0 ASN1_STRING_print
PUBLIC 127594 0 ASN1_GENERALIZEDTIME_print
PUBLIC 127844 0 ASN1_UTCTIME_print
PUBLIC 127a38 0 ASN1_TIME_print
PUBLIC 127a7c 0 X509_print_ex
PUBLIC 12807c 0 X509_print_ex_fp
PUBLIC 128110 0 X509_print_fp
PUBLIC 12811c 0 X509_print
PUBLIC 128128 0 X509_NAME_print
PUBLIC 128278 0 X509_CERT_AUX_print
PUBLIC 1286ac 0 ASN1_PCTX_new
PUBLIC 12871c 0 ASN1_PCTX_free
PUBLIC 128720 0 ASN1_PCTX_get_flags
PUBLIC 128728 0 ASN1_PCTX_set_flags
PUBLIC 128730 0 ASN1_PCTX_get_nm_flags
PUBLIC 128738 0 ASN1_PCTX_set_nm_flags
PUBLIC 128740 0 ASN1_PCTX_get_cert_flags
PUBLIC 128748 0 ASN1_PCTX_set_cert_flags
PUBLIC 128750 0 ASN1_PCTX_get_oid_flags
PUBLIC 128758 0 ASN1_PCTX_set_oid_flags
PUBLIC 128760 0 ASN1_PCTX_get_str_flags
PUBLIC 128768 0 ASN1_PCTX_set_str_flags
PUBLIC 128770 0 asn1_template_print_ctx
PUBLIC 129780 0 ASN1_item_print
PUBLIC 129f38 0 i2a_ASN1_INTEGER
PUBLIC 12a0c0 0 a2i_ASN1_INTEGER
PUBLIC 12a43c 0 i2a_ASN1_STRING
PUBLIC 12a574 0 a2i_ASN1_STRING
PUBLIC 12a8a4 0 i2d_X509_PKEY
PUBLIC 12a8ac 0 X509_PKEY_new
PUBLIC 12a968 0 X509_PKEY_free
PUBLIC 12aa0c 0 d2i_X509_PKEY
PUBLIC 12bee8 0 ASN1_generate_v3
PUBLIC 12bf3c 0 ASN1_generate_nconf
PUBLIC 12bf70 0 ASN1_tag2str
PUBLIC 12cacc 0 ASN1_parse
PUBLIC 12cb00 0 ASN1_parse_dump
PUBLIC 12cb38 0 d2i_ASN1_type_bytes
PUBLIC 12ccfc 0 i2d_ASN1_bytes
PUBLIC 12cdac 0 d2i_ASN1_bytes
PUBLIC 12d13c 0 ASN1_seq_unpack
PUBLIC 12d1bc 0 ASN1_seq_pack
PUBLIC 12d2a8 0 ASN1_unpack_string
PUBLIC 12d314 0 ASN1_pack_string
PUBLIC 12d464 0 ASN1_item_pack
PUBLIC 12d584 0 ASN1_item_unpack
PUBLIC 12d5ec 0 PEM_X509_INFO_read_bio
PUBLIC 12dba8 0 PEM_X509_INFO_read
PUBLIC 12dc38 0 PEM_X509_INFO_write_bio
PUBLIC 12de70 0 d2i_PKCS8PrivateKey_bio
PUBLIC 12df84 0 d2i_PKCS8PrivateKey_fp
PUBLIC 12dffc 0 PEM_read_bio_PKCS8
PUBLIC 12e038 0 PEM_read_PKCS8
PUBLIC 12e074 0 PEM_write_bio_PKCS8
PUBLIC 12e0c4 0 PEM_write_PKCS8
PUBLIC 12e114 0 PEM_read_bio_PKCS8_PRIV_KEY_INFO
PUBLIC 12e150 0 PEM_read_PKCS8_PRIV_KEY_INFO
PUBLIC 12e18c 0 PEM_write_bio_PKCS8_PRIV_KEY_INFO
PUBLIC 12e3a8 0 PEM_write_bio_PKCS8PrivateKey_nid
PUBLIC 12e3e4 0 PEM_write_bio_PKCS8PrivateKey
PUBLIC 12e414 0 i2d_PKCS8PrivateKey_bio
PUBLIC 12e444 0 i2d_PKCS8PrivateKey_nid_bio
PUBLIC 12e480 0 PEM_write_PKCS8PrivateKey_nid
PUBLIC 12e51c 0 i2d_PKCS8PrivateKey_fp
PUBLIC 12e5b8 0 PEM_write_PKCS8PrivateKey
PUBLIC 12e654 0 i2d_PKCS8PrivateKey_nid_fp
PUBLIC 12e6f4 0 PEM_write_PKCS8_PRIV_KEY_INFO
PUBLIC 12e744 0 X509_get_default_private_dir
PUBLIC 12e754 0 X509_get_default_cert_area
PUBLIC 12e764 0 X509_get_default_cert_dir
PUBLIC 12e774 0 X509_get_default_cert_file
PUBLIC 12e784 0 X509_get_default_cert_dir_env
PUBLIC 12e794 0 X509_get_default_cert_file_env
PUBLIC 12e7a4 0 X509_to_X509_REQ
PUBLIC 12e8b8 0 X509_REQ_get_pubkey
PUBLIC 12e8dc 0 X509_REQ_check_private_key
PUBLIC 12ea20 0 X509_REQ_extension_nid
PUBLIC 12ea60 0 X509_REQ_get_extension_nids
PUBLIC 12ea70 0 X509_REQ_set_extension_nids
PUBLIC 12ea84 0 X509_REQ_add_extensions_nid
PUBLIC 12eb88 0 X509_REQ_add_extensions
PUBLIC 12eb90 0 X509_REQ_get_attr_count
PUBLIC 12eb9c 0 X509_REQ_get_attr_by_NID
PUBLIC 12eba8 0 X509_REQ_get_attr_by_OBJ
PUBLIC 12ebb4 0 X509_REQ_get_attr
PUBLIC 12ebc0 0 X509_REQ_get_extensions
PUBLIC 12ecb0 0 X509_REQ_delete_attr
PUBLIC 12ecbc 0 X509_REQ_add1_attr
PUBLIC 12ecd8 0 X509_REQ_add1_attr_by_OBJ
PUBLIC 12ed04 0 X509_REQ_add1_attr_by_NID
PUBLIC 12ed30 0 X509_REQ_add1_attr_by_txt
PUBLIC 12ed5c 0 X509_REQ_set_version
PUBLIC 12ed70 0 X509_REQ_set_subject_name
PUBLIC 12ed94 0 X509_REQ_set_pubkey
PUBLIC 12edb8 0 X509_NAME_entry_count
PUBLIC 12edc8 0 X509_NAME_get_index_by_OBJ
PUBLIC 12ee3c 0 X509_NAME_get_index_by_NID
PUBLIC 12ee70 0 X509_NAME_get_entry
PUBLIC 12eeb0 0 X509_NAME_delete_entry
PUBLIC 12ef84 0 X509_NAME_add_entry
PUBLIC 12f128 0 X509_NAME_ENTRY_set_object
PUBLIC 12f19c 0 X509_NAME_ENTRY_set_data
PUBLIC 12f294 0 X509_NAME_ENTRY_create_by_OBJ
PUBLIC 12f34c 0 X509_NAME_add_entry_by_OBJ
PUBLIC 12f3a0 0 X509_NAME_ENTRY_create_by_txt
PUBLIC 12f448 0 X509_NAME_add_entry_by_txt
PUBLIC 12f49c 0 X509_NAME_ENTRY_create_by_NID
PUBLIC 12f524 0 X509_NAME_add_entry_by_NID
PUBLIC 12f578 0 X509_NAME_ENTRY_get_object
PUBLIC 12f584 0 X509_NAME_ENTRY_get_data
PUBLIC 12f590 0 X509_NAME_get_text_by_OBJ
PUBLIC 12f604 0 X509_NAME_get_text_by_NID
PUBLIC 12f640 0 X509at_get_attr_count
PUBLIC 12f644 0 X509at_get_attr_by_OBJ
PUBLIC 12f6ac 0 X509at_get_attr_by_NID
PUBLIC 12f6e0 0 X509at_get_attr
PUBLIC 12f71c 0 X509at_delete_attr
PUBLIC 12f758 0 X509at_add1_attr
PUBLIC 12f870 0 X509_ATTRIBUTE_set1_object
PUBLIC 12f8ac 0 X509_ATTRIBUTE_set1_data
PUBLIC 12fa24 0 X509_ATTRIBUTE_create_by_OBJ
PUBLIC 12fb08 0 X509at_add1_attr_by_OBJ
PUBLIC 12fb58 0 X509_ATTRIBUTE_create_by_NID
PUBLIC 12fbe8 0 X509at_add1_attr_by_NID
PUBLIC 12fc38 0 X509_ATTRIBUTE_create_by_txt
PUBLIC 12fce0 0 X509at_add1_attr_by_txt
PUBLIC 12fd30 0 X509_ATTRIBUTE_count
PUBLIC 12fd50 0 X509_ATTRIBUTE_get0_object
PUBLIC 12fd5c 0 X509_ATTRIBUTE_get0_type
PUBLIC 12fda0 0 X509_ATTRIBUTE_get0_data
PUBLIC 12fe04 0 X509at_get0_data_by_OBJ
PUBLIC 12feec 0 d2i_BASIC_CONSTRAINTS
PUBLIC 12fefc 0 i2d_BASIC_CONSTRAINTS
PUBLIC 12ff0c 0 BASIC_CONSTRAINTS_new
PUBLIC 12ff1c 0 BASIC_CONSTRAINTS_free
PUBLIC 130094 0 i2v_ASN1_BIT_STRING
PUBLIC 130110 0 v2i_ASN1_BIT_STRING
PUBLIC 1307e8 0 X509V3_EXT_nconf
PUBLIC 13098c 0 X509V3_EXT_nconf_nid
PUBLIC 130acc 0 X509V3_EXT_i2d
PUBLIC 130c10 0 X509V3_EXT_add_nconf_sk
PUBLIC 130cec 0 X509V3_EXT_add_nconf
PUBLIC 130cfc 0 X509V3_EXT_CRL_add_nconf
PUBLIC 130d0c 0 X509V3_EXT_REQ_add_nconf
PUBLIC 130d78 0 X509V3_get_string
PUBLIC 130de4 0 X509V3_get_section
PUBLIC 130e50 0 X509V3_string_free
PUBLIC 130e78 0 X509V3_section_free
PUBLIC 130ea0 0 X509V3_set_nconf
PUBLIC 130eb8 0 X509V3_set_ctx
PUBLIC 130ed0 0 X509V3_EXT_conf
PUBLIC 130f10 0 X509V3_EXT_conf_nid
PUBLIC 130f50 0 X509V3_set_conf_lhash
PUBLIC 130f6c 0 X509V3_EXT_add_conf
PUBLIC 130fac 0 X509V3_EXT_CRL_add_conf
PUBLIC 130fec 0 X509V3_EXT_REQ_add_conf
PUBLIC 1311bc 0 d2i_EXTENDED_KEY_USAGE
PUBLIC 1311cc 0 i2d_EXTENDED_KEY_USAGE
PUBLIC 1311dc 0 EXTENDED_KEY_USAGE_new
PUBLIC 1311ec 0 EXTENDED_KEY_USAGE_free
PUBLIC 131334 0 X509V3_EXT_val_prn
PUBLIC 131514 0 X509V3_EXT_print
PUBLIC 1317c0 0 X509V3_extensions_print
PUBLIC 131990 0 X509V3_EXT_print_fp
PUBLIC 1319f8 0 policy_node_cmp_new
PUBLIC 131a08 0 tree_find_sk
PUBLIC 131a50 0 level_find_node
PUBLIC 131abc 0 policy_node_free
PUBLIC 131ac0 0 level_add_node
PUBLIC 131bd0 0 policy_node_match
PUBLIC 131c4c 0 CONF_set_nconf
PUBLIC 131c90 0 CONF_set_default_method
PUBLIC 131ca8 0 NCONF_new
PUBLIC 131d04 0 NCONF_free
PUBLIC 131d20 0 NCONF_free_data
PUBLIC 131d3c 0 CONF_free
PUBLIC 131d64 0 NCONF_load
PUBLIC 131dbc 0 NCONF_load_bio
PUBLIC 131e14 0 CONF_load_bio
PUBLIC 131e54 0 CONF_load
PUBLIC 131ed4 0 CONF_load_fp
PUBLIC 131f4c 0 NCONF_load_fp
PUBLIC 131fcc 0 NCONF_get_section
PUBLIC 13204c 0 CONF_get_section
PUBLIC 132084 0 NCONF_get_string
PUBLIC 132140 0 CONF_get_string
PUBLIC 132180 0 NCONF_get_number_e
PUBLIC 132234 0 CONF_get_number
PUBLIC 132290 0 NCONF_dump_bio
PUBLIC 1322e8 0 CONF_dump_bio
PUBLIC 13231c 0 CONF_dump_fp
PUBLIC 132390 0 NCONF_dump_fp
PUBLIC 132528 0 _CONF_get_section
PUBLIC 132568 0 _CONF_get_section_values
PUBLIC 13257c 0 _CONF_add_string
PUBLIC 1325f0 0 _CONF_get_string
PUBLIC 1326b4 0 _CONF_new_data
PUBLIC 132708 0 _CONF_free_data
PUBLIC 132760 0 _CONF_new_section
PUBLIC 133ab0 0 NCONF_default
PUBLIC 133ac0 0 NCONF_WIN32
PUBLIC 133ad4 0 TXT_DB_read
PUBLIC 133e84 0 TXT_DB_get_by_index
PUBLIC 133ed8 0 TXT_DB_create_index
PUBLIC 134018 0 TXT_DB_write
PUBLIC 1341dc 0 TXT_DB_insert
PUBLIC 134300 0 TXT_DB_free
PUBLIC 134440 0 PKCS12_item_pack_safebag
PUBLIC 134534 0 PKCS12_MAKE_KEYBAG
PUBLIC 13458c 0 PKCS12_MAKE_SHKEYBAG
PUBLIC 134670 0 PKCS12_pack_p7data
PUBLIC 13475c 0 PKCS12_unpack_p7data
PUBLIC 1347c4 0 PKCS12_pack_p7encdata
PUBLIC 134964 0 PKCS12_unpack_p7encdata
PUBLIC 1349c0 0 PKCS12_decrypt_skey
PUBLIC 1349c8 0 PKCS12_pack_authsafes
PUBLIC 1349f4 0 PKCS12_unpack_authsafes
PUBLIC 134a64 0 d2i_PKCS12
PUBLIC 134a74 0 i2d_PKCS12
PUBLIC 134a84 0 PKCS12_new
PUBLIC 134a94 0 PKCS12_free
PUBLIC 134aa4 0 d2i_PKCS12_MAC_DATA
PUBLIC 134ab4 0 i2d_PKCS12_MAC_DATA
PUBLIC 134ac4 0 PKCS12_MAC_DATA_new
PUBLIC 134ad4 0 PKCS12_MAC_DATA_free
PUBLIC 134ae4 0 d2i_PKCS12_BAGS
PUBLIC 134af4 0 i2d_PKCS12_BAGS
PUBLIC 134b04 0 PKCS12_BAGS_new
PUBLIC 134b14 0 PKCS12_BAGS_free
PUBLIC 134b24 0 d2i_PKCS12_SAFEBAG
PUBLIC 134b34 0 i2d_PKCS12_SAFEBAG
PUBLIC 134b44 0 PKCS12_SAFEBAG_new
PUBLIC 134b54 0 PKCS12_SAFEBAG_free
PUBLIC 134b64 0 PKCS12_pbe_crypt
PUBLIC 134cf4 0 PKCS12_item_decrypt_d2i
PUBLIC 134dec 0 PKCS12_item_i2d_encrypt
PUBLIC 134f34 0 PKCS8_encrypt
PUBLIC 1353b0 0 UI_free
PUBLIC 1353ec 0 UI_add_input_string
PUBLIC 13555c 0 UI_dup_input_string
PUBLIC 1356fc 0 UI_add_verify_string
PUBLIC 13586c 0 UI_dup_verify_string
PUBLIC 135a1c 0 UI_add_input_boolean
PUBLIC 135a50 0 UI_dup_input_boolean
PUBLIC 135be0 0 UI_add_info_string
PUBLIC 135d10 0 UI_dup_info_string
PUBLIC 135e84 0 UI_add_error_string
PUBLIC 135fb4 0 UI_dup_error_string
PUBLIC 136128 0 UI_construct_prompt
PUBLIC 136278 0 UI_add_user_data
PUBLIC 136288 0 UI_get0_user_data
PUBLIC 136290 0 UI_process
PUBLIC 1363dc 0 UI_ctrl
PUBLIC 136494 0 UI_get_ex_new_index
PUBLIC 1364c8 0 UI_set_ex_data
PUBLIC 1364d0 0 UI_get_ex_data
PUBLIC 1364d8 0 UI_set_default_method
PUBLIC 1364ec 0 UI_get_default_method
PUBLIC 136514 0 UI_new_method
PUBLIC 1365a8 0 UI_new
PUBLIC 1365b0 0 UI_get_method
PUBLIC 1365b8 0 UI_set_method
PUBLIC 1365c4 0 UI_create_method
PUBLIC 136610 0 UI_destroy_method
PUBLIC 136634 0 UI_method_set_opener
PUBLIC 136648 0 UI_method_set_writer
PUBLIC 13665c 0 UI_method_set_flusher
PUBLIC 136670 0 UI_method_set_reader
PUBLIC 136684 0 UI_method_set_closer
PUBLIC 136698 0 UI_method_set_prompt_constructor
PUBLIC 1366ac 0 UI_method_get_opener
PUBLIC 1366b8 0 UI_method_get_writer
PUBLIC 1366c4 0 UI_method_get_flusher
PUBLIC 1366d0 0 UI_method_get_reader
PUBLIC 1366dc 0 UI_method_get_closer
PUBLIC 1366e8 0 UI_method_get_prompt_constructor
PUBLIC 1366f4 0 UI_get_string_type
PUBLIC 136700 0 UI_get_input_flags
PUBLIC 13670c 0 UI_get0_output_string
PUBLIC 136718 0 UI_get0_action_string
PUBLIC 136744 0 UI_get0_result_string
PUBLIC 136764 0 UI_get0_result
PUBLIC 136800 0 UI_get0_test_string
PUBLIC 13681c 0 UI_get_result_minsize
PUBLIC 136844 0 UI_get_result_maxsize
PUBLIC 13686c 0 UI_set_result
PUBLIC 137194 0 UI_OpenSSL
PUBLIC 1371a4 0 d2i_CMS_ContentInfo
PUBLIC 1371b4 0 i2d_CMS_ContentInfo
PUBLIC 1371c4 0 CMS_ContentInfo_new
PUBLIC 1371d4 0 CMS_ContentInfo_free
PUBLIC 1371e4 0 CMS_ContentInfo_print_ctx
PUBLIC 13720c 0 CMS_get0_type
PUBLIC 137214 0 CMS_get0_content
PUBLIC 137324 0 cms_content_bio
PUBLIC 137374 0 CMS_dataInit
PUBLIC 1374b0 0 CMS_dataFinal
PUBLIC 137638 0 CMS_get0_eContentType
PUBLIC 1376f8 0 CMS_set1_eContentType
PUBLIC 1377f0 0 CMS_is_detached
PUBLIC 137818 0 CMS_set_detached
PUBLIC 1378d0 0 cms_Data_create
PUBLIC 137900 0 cms_DigestAlgorithm_set
PUBLIC 13793c 0 cms_DigestAlgorithm_init_bio
PUBLIC 137a38 0 cms_DigestAlgorithm_find_ctx
PUBLIC 137b0c 0 CMS_add0_CertificateChoices
PUBLIC 137be4 0 CMS_add0_cert
PUBLIC 137d00 0 CMS_add1_cert
PUBLIC 137d4c 0 CMS_add0_RevocationInfoChoice
PUBLIC 137e2c 0 CMS_add0_crl
PUBLIC 137e4c 0 CMS_add1_crl
PUBLIC 137e98 0 CMS_get1_certs
PUBLIC 137fd0 0 CMS_get1_crls
PUBLIC 138110 0 cms_ias_cert_cmp
PUBLIC 138158 0 cms_keyid_cert_cmp
PUBLIC 138194 0 cms_set1_ias
PUBLIC 138260 0 cms_set1_keyid
PUBLIC 13852c 0 CMS_SharedInfo_encode
PUBLIC 13859c 0 CMS_stream
PUBLIC 138634 0 d2i_CMS_bio
PUBLIC 13864c 0 i2d_CMS_bio
PUBLIC 138664 0 PEM_read_bio_CMS
PUBLIC 1386a0 0 PEM_read_CMS
PUBLIC 1386dc 0 PEM_write_bio_CMS
PUBLIC 13872c 0 PEM_write_CMS
PUBLIC 13877c 0 BIO_new_CMS
PUBLIC 13878c 0 i2d_CMS_bio_stream
PUBLIC 1387b0 0 PEM_write_bio_CMS_stream
PUBLIC 1387e4 0 SMIME_write_CMS
PUBLIC 138858 0 SMIME_read_CMS
PUBLIC 138868 0 CMS_SignedData_init
PUBLIC 13895c 0 cms_set1_SignerIdentifier
PUBLIC 1389dc 0 cms_SignerIdentifier_get0_signer_id
PUBLIC 138a44 0 cms_SignerIdentifier_cert_cmp
PUBLIC 138a70 0 CMS_SignerInfo_get0_pkey_ctx
PUBLIC 138a78 0 CMS_SignerInfo_get0_md_ctx
PUBLIC 138a80 0 CMS_get0_SignerInfos
PUBLIC 138ae4 0 CMS_get0_signers
PUBLIC 138b68 0 CMS_SignerInfo_set1_signer_cert
PUBLIC 138bdc 0 CMS_SignerInfo_get0_signer_id
PUBLIC 138be4 0 CMS_SignerInfo_cert_cmp
PUBLIC 138bec 0 CMS_set1_signers_certs
PUBLIC 138d7c 0 CMS_SignerInfo_get0_algs
PUBLIC 138dbc 0 CMS_SignerInfo_get0_signature
PUBLIC 138dc4 0 CMS_SignerInfo_sign
PUBLIC 13904c 0 cms_SignedData_final
PUBLIC 1393fc 0 CMS_SignerInfo_verify
PUBLIC 1395c8 0 cms_SignedData_init_bio
PUBLIC 139814 0 CMS_SignerInfo_verify_content
PUBLIC 139af0 0 CMS_add_smimecap
PUBLIC 139b50 0 CMS_add_simple_smimecap
PUBLIC 139c64 0 CMS_add_standard_smimecap
PUBLIC 139e08 0 CMS_add1_signer
PUBLIC 13a4fc 0 cms_DigestedData_create
PUBLIC 13a57c 0 cms_DigestedData_init_bio
PUBLIC 13a588 0 cms_DigestedData_do_final
PUBLIC 13a69c 0 cms_CompressedData_create
PUBLIC 13a778 0 cms_CompressedData_init_bio
PUBLIC 13a834 0 CMAC_CTX_new
PUBLIC 13a86c 0 CMAC_CTX_cleanup
PUBLIC 13a8b4 0 CMAC_CTX_get0_cipher_ctx
PUBLIC 13a8b8 0 CMAC_CTX_free
PUBLIC 13a8d4 0 CMAC_CTX_copy
PUBLIC 13a95c 0 CMAC_Init
PUBLIC 13abe4 0 CMAC_Update
PUBLIC 13acd8 0 CMAC_Final
PUBLIC 13b0cc 0 CMAC_resume
PUBLIC 13b108 0 OPENSSL_gmtime
PUBLIC 13b11c 0 OPENSSL_gmtime_adj
PUBLIC 13b3d8 0 OPENSSL_gmtime_diff
PUBLIC 13b688 0 MD4_Init
PUBLIC 13b6c8 0 md4_block_data_order
PUBLIC 13bf8c 0 MD4_Update
PUBLIC 13c0a0 0 MD4_Transform
PUBLIC 13c0a8 0 MD4_Final
PUBLIC 13d9b4 0 SHA_Update
PUBLIC 13dac8 0 SHA_Transform
PUBLIC 13dad0 0 SHA_Final
PUBLIC 13dc3c 0 SHA_Init
PUBLIC 13de30 0 MDC2_Init
PUBLIC 13de70 0 MDC2_Update
PUBLIC 13df34 0 MDC2_Final
PUBLIC 13dfc8 0 RIPEMD160_Init
PUBLIC 13e014 0 ripemd160_block_data_order
PUBLIC 13fc88 0 RIPEMD160_Update
PUBLIC 13fd9c 0 RIPEMD160_Transform
PUBLIC 13fda4 0 RIPEMD160_Final
PUBLIC 13ff10 0 WHIRLPOOL_Init
PUBLIC 13ff28 0 WHIRLPOOL_BitUpdate
PUBLIC 1402bc 0 WHIRLPOOL_Update
PUBLIC 140330 0 WHIRLPOOL_Final
PUBLIC 140514 0 WHIRLPOOL
PUBLIC 14056c 0 whirlpool_block
PUBLIC 142518 0 Camellia_Ekeygen
PUBLIC 14314c 0 Camellia_EncryptBlock_Rounds
PUBLIC 143704 0 Camellia_EncryptBlock
PUBLIC 143714 0 Camellia_DecryptBlock_Rounds
PUBLIC 143cbc 0 Camellia_DecryptBlock
PUBLIC 143ccc 0 BN_kronecker
PUBLIC 143f74 0 BN_mod_sqrt
PUBLIC 144818 0 BN_mod_exp2_mont
PUBLIC 144ff0 0 BN_GF2m_add
PUBLIC 145110 0 BN_GF2m_mod_arr
PUBLIC 1453d4 0 BN_GF2m_mod_sqr_arr
PUBLIC 145548 0 BN_GF2m_mod_mul_arr
PUBLIC 145e84 0 BN_GF2m_mod_exp_arr
PUBLIC 145fb4 0 BN_GF2m_mod_sqrt_arr
PUBLIC 146050 0 BN_GF2m_mod_solve_quad_arr
PUBLIC 1463b4 0 BN_GF2m_poly2arr
PUBLIC 146454 0 BN_GF2m_mod
PUBLIC 1464e0 0 BN_GF2m_mod_inv
PUBLIC 14691c 0 BN_GF2m_mod_mul
PUBLIC 1469f4 0 BN_GF2m_mod_div
PUBLIC 146a7c 0 BN_GF2m_mod_sqr
PUBLIC 146b44 0 BN_GF2m_mod_exp
PUBLIC 146c1c 0 BN_GF2m_mod_sqrt
PUBLIC 146cec 0 BN_GF2m_mod_solve_quad
PUBLIC 146dbc 0 BN_GF2m_arr2poly
PUBLIC 146e04 0 BN_GF2m_mod_inv_arr
PUBLIC 146e74 0 BN_GF2m_mod_div_arr
PUBLIC 146ef4 0 ec_GFp_mont_group_init
PUBLIC 146f10 0 ec_GFp_mont_group_finish
PUBLIC 146f54 0 ec_GFp_mont_group_clear_finish
PUBLIC 146f98 0 ec_GFp_mont_group_set_curve
PUBLIC 147110 0 ec_GFp_mont_group_copy
PUBLIC 1471d8 0 ec_GFp_mont_field_mul
PUBLIC 14723c 0 ec_GFp_mont_field_sqr
PUBLIC 14729c 0 ec_GFp_mont_field_encode
PUBLIC 147304 0 ec_GFp_mont_field_decode
PUBLIC 147364 0 ec_GFp_mont_field_set_to_one
PUBLIC 1473c8 0 EC_GFp_mont_method
PUBLIC 1473d8 0 ec_GFp_nist_group_copy
PUBLIC 1473e4 0 ec_GFp_nist_group_set_curve
PUBLIC 14757c 0 ec_GFp_nist_field_mul
PUBLIC 147674 0 ec_GFp_nist_field_sqr
PUBLIC 147758 0 EC_GFp_nist_method
PUBLIC 147768 0 EC_POINT_point2bn
PUBLIC 147814 0 EC_POINT_bn2point
PUBLIC 147904 0 EC_POINT_point2hex
PUBLIC 147a0c 0 EC_POINT_hex2point
PUBLIC 147a68 0 RSA_generate_key_ex
PUBLIC 148040 0 RSA_sign_ASN1_OCTET_STRING
PUBLIC 148160 0 RSA_verify_ASN1_OCTET_STRING
PUBLIC 1482b8 0 RSA_verify_PKCS1_PSS_mgf1
PUBLIC 1487b0 0 RSA_verify_PKCS1_PSS
PUBLIC 1487d0 0 RSA_padding_add_PKCS1_PSS_mgf1
PUBLIC 148b70 0 RSA_padding_add_PKCS1_PSS
PUBLIC 148b90 0 dsa_builtin_paramgen
PUBLIC 149500 0 DSA_generate_parameters_ex
PUBLIC 1495ac 0 dsa_builtin_paramgen2
PUBLIC 14a048 0 dsa_paramgen_check_g
PUBLIC 14a150 0 DSA_generate_key
PUBLIC 14a2d4 0 DH_generate_parameters_ex
PUBLIC 14ac98 0 DSO_METHOD_dlfcn
PUBLIC 14aca8 0 RAND_query_egd_bytes
PUBLIC 14aef4 0 RAND_egd_bytes
PUBLIC 14af24 0 RAND_egd
PUBLIC 14af98 0 ERR_print_errors_cb
PUBLIC 14b098 0 ERR_print_errors_fp
PUBLIC 14b0ac 0 ERR_print_errors
PUBLIC 14b0c0 0 ASN1_PRINTABLE_type
PUBLIC 14b178 0 ASN1_UNIVERSALSTRING_to_string
PUBLIC 14b2a8 0 i2d_ASN1_SET
PUBLIC 14b52c 0 d2i_ASN1_SET
PUBLIC 14b7bc 0 UTF8_getc
PUBLIC 14ba44 0 UTF8_putc
PUBLIC 14be40 0 ASN1_mbstring_ncopy
PUBLIC 14c7d4 0 ASN1_mbstring_copy
PUBLIC 14c7fc 0 i2d_ASN1_BOOLEAN
PUBLIC 14c86c 0 d2i_ASN1_BOOLEAN
PUBLIC 14cb30 0 BIO_new_NDEF
PUBLIC 14d944 0 SMIME_read_ASN1
PUBLIC 14dfa0 0 SMIME_crlf_copy
PUBLIC 14e0f0 0 i2d_ASN1_bio_stream
PUBLIC 14e1b8 0 PEM_write_bio_ASN1_stream
PUBLIC 14e298 0 SMIME_write_ASN1
PUBLIC 14eae4 0 SMIME_text
PUBLIC 14ecd4 0 ASN1_STRING_set_default_mask
PUBLIC 14ece8 0 ASN1_STRING_get_default_mask
PUBLIC 14ecf8 0 ASN1_STRING_set_default_mask_asc
PUBLIC 14edf4 0 ASN1_STRING_TABLE_get
PUBLIC 14ee84 0 ASN1_STRING_set_by_NID
PUBLIC 14ef54 0 ASN1_STRING_TABLE_add
PUBLIC 14f09c 0 ASN1_STRING_TABLE_cleanup
PUBLIC 14f0cc 0 CMS_signed_get_attr_count
PUBLIC 14f0d4 0 CMS_signed_get_attr_by_NID
PUBLIC 14f0dc 0 CMS_signed_get_attr_by_OBJ
PUBLIC 14f0e4 0 CMS_signed_get_attr
PUBLIC 14f0ec 0 CMS_signed_delete_attr
PUBLIC 14f0f4 0 CMS_signed_add1_attr
PUBLIC 14f10c 0 CMS_signed_add1_attr_by_OBJ
PUBLIC 14f134 0 CMS_signed_add1_attr_by_NID
PUBLIC 14f15c 0 CMS_signed_add1_attr_by_txt
PUBLIC 14f184 0 CMS_signed_get0_data_by_OBJ
PUBLIC 14f18c 0 CMS_unsigned_get_attr_count
PUBLIC 14f194 0 CMS_unsigned_get_attr_by_NID
PUBLIC 14f19c 0 CMS_unsigned_get_attr_by_OBJ
PUBLIC 14f1a4 0 CMS_unsigned_get_attr
PUBLIC 14f1ac 0 CMS_unsigned_delete_attr
PUBLIC 14f1b4 0 CMS_unsigned_add1_attr
PUBLIC 14f1cc 0 CMS_unsigned_add1_attr_by_OBJ
PUBLIC 14f1f4 0 CMS_unsigned_add1_attr_by_NID
PUBLIC 14f21c 0 CMS_unsigned_add1_attr_by_txt
PUBLIC 14f244 0 CMS_unsigned_get0_data_by_OBJ
PUBLIC 14f24c 0 BN_get0_nist_prime_192
PUBLIC 14f25c 0 BN_get0_nist_prime_224
PUBLIC 14f270 0 BN_get0_nist_prime_256
PUBLIC 14f284 0 BN_get0_nist_prime_384
PUBLIC 14f298 0 BN_get0_nist_prime_521
PUBLIC 14f2ac 0 BN_nist_mod_192
PUBLIC 14f694 0 BN_nist_mod_224
PUBLIC 14fb78 0 BN_nist_mod_256
PUBLIC 1501f0 0 BN_nist_mod_384
PUBLIC 150a68 0 BN_nist_mod_521
PUBLIC 150f90 0 ec_GFp_simple_is_at_infinity
PUBLIC 150fa0 0 ec_GFp_simple_group_init
PUBLIC 150fd0 0 ec_GFp_simple_point_init
PUBLIC 151000 0 ec_GFp_simple_group_finish
PUBLIC 151024 0 ec_GFp_simple_point_finish
PUBLIC 151048 0 ec_GFp_simple_group_clear_finish
PUBLIC 15106c 0 ec_GFp_simple_point_clear_finish
PUBLIC 151098 0 ec_GFp_simple_group_get_degree
PUBLIC 1510a0 0 ec_GFp_simple_group_get_curve
PUBLIC 1511f0 0 ec_GFp_simple_set_Jprojective_coordinates_GFp
PUBLIC 1513d8 0 ec_GFp_simple_get_Jprojective_coordinates_GFp
PUBLIC 151550 0 ec_GFp_simple_field_sqr
PUBLIC 151564 0 ec_GFp_simple_field_mul
PUBLIC 15157c 0 ec_GFp_simple_group_check_discriminant
PUBLIC 1517a4 0 ec_GFp_simple_point_set_to_infinity
PUBLIC 1517c4 0 ec_GFp_simple_point_get_affine_coordinates
PUBLIC 151b18 0 ec_GFp_simple_dbl
PUBLIC 151fdc 0 ec_GFp_simple_group_copy
PUBLIC 152038 0 ec_GFp_simple_point_copy
PUBLIC 152094 0 ec_GFp_simple_group_set_curve
PUBLIC 152270 0 ec_GFp_simple_point_set_affine_coordinates
PUBLIC 1522f0 0 ec_GFp_simple_cmp
PUBLIC 1525c4 0 ec_GFp_simple_add
PUBLIC 152bb8 0 ec_GFp_simple_invert
PUBLIC 152bf8 0 ec_GFp_simple_is_on_curve
PUBLIC 152ee8 0 ec_GFp_simple_make_affine
PUBLIC 15300c 0 ec_GFp_simple_points_make_affine
PUBLIC 153560 0 EC_GFp_simple_method
PUBLIC 153b94 0 BIO_f_asn1
PUBLIC 153ba4 0 BIO_asn1_set_prefix
PUBLIC 153bc8 0 BIO_asn1_get_prefix
PUBLIC 153c00 0 BIO_asn1_set_suffix
PUBLIC 153c24 0 BIO_asn1_get_suffix
PUBLIC 153c5c 0 __aeabi_uidiv
PUBLIC 153d04 0 __aeabi_uidivmod
PUBLIC 153d24 0 __aeabi_idiv
PUBLIC 153e00 0 __aeabi_idivmod
PUBLIC 153e20 0 __aeabi_drsub
PUBLIC 153e28 0 __aeabi_dsub
PUBLIC 153e2c 0 __aeabi_dadd
PUBLIC 1540d8 0 __floatunsidf
PUBLIC 1540fc 0 __aeabi_i2d
PUBLIC 154124 0 __extendsfdf2
PUBLIC 154164 0 __floatundidf
PUBLIC 154178 0 __floatdidf
PUBLIC 1541d8 0 __aeabi_dmul
PUBLIC 154444 0 __divdf3
PUBLIC 154648 0 __gtdf2
PUBLIC 154650 0 __ltdf2
PUBLIC 154658 0 __cmpdf2
PUBLIC 1546e0 0 __aeabi_cdrcmple
PUBLIC 1546fc 0 __aeabi_cdcmpeq
PUBLIC 154710 0 __aeabi_dcmpeq
PUBLIC 154724 0 __aeabi_dcmplt
PUBLIC 154738 0 __aeabi_dcmple
PUBLIC 15474c 0 __aeabi_dcmpge
PUBLIC 154760 0 __aeabi_dcmpgt
PUBLIC 154774 0 __aeabi_d2iz
PUBLIC 1547d0 0 __aeabi_uldivmod
PUBLIC 15480c 0 __aeabi_idiv0
PUBLIC 15481c 0 __gnu_ldivmod_helper
PUBLIC 154858 0 __gnu_uldivmod_helper
PUBLIC 154ccc 0 _Unwind_GetCFA
PUBLIC 154cd4 0 __gnu_Unwind_RaiseException
PUBLIC 154d78 0 __gnu_Unwind_ForcedUnwind
PUBLIC 154d94 0 __gnu_Unwind_Resume
PUBLIC 154e08 0 __gnu_Unwind_Resume_or_Rethrow
PUBLIC 154e28 0 _Unwind_Complete
PUBLIC 154e2c 0 _Unwind_DeleteException
PUBLIC 154e4c 0 _Unwind_VRS_Get
PUBLIC 154ed0 0 _Unwind_VRS_Set
PUBLIC 154f58 0 __gnu_Unwind_Backtrace
PUBLIC 155410 0 __aeabi_unwind_cpp_pr0
PUBLIC 155418 0 __aeabi_unwind_cpp_pr1
PUBLIC 155420 0 __aeabi_unwind_cpp_pr2
PUBLIC 155428 0 _Unwind_VRS_Pop
PUBLIC 155780 0 restore_core_regs
PUBLIC 155794 0 __gnu_Unwind_Restore_VFP
PUBLIC 15579c 0 __gnu_Unwind_Save_VFP
PUBLIC 1557a4 0 __gnu_Unwind_Restore_VFP_D
PUBLIC 1557ac 0 __gnu_Unwind_Save_VFP_D
PUBLIC 1557b4 0 __gnu_Unwind_Restore_VFP_D_16_to_31
PUBLIC 1557bc 0 __gnu_Unwind_Save_VFP_D_16_to_31
PUBLIC 1557c4 0 __gnu_Unwind_Restore_WMMXD
PUBLIC 155808 0 __gnu_Unwind_Save_WMMXD
PUBLIC 15584c 0 __gnu_Unwind_Restore_WMMXC
PUBLIC 155860 0 __gnu_Unwind_Save_WMMXC
PUBLIC 155874 0 ___Unwind_RaiseException
PUBLIC 155898 0 ___Unwind_Resume
PUBLIC 1558bc 0 ___Unwind_Resume_or_Rethrow
PUBLIC 1558e0 0 ___Unwind_ForcedUnwind
PUBLIC 155904 0 ___Unwind_Backtrace
PUBLIC 1559b4 0 __gnu_unwind_execute
PUBLIC 155d30 0 __gnu_unwind_frame
PUBLIC 155d70 0 _Unwind_GetRegionStart
PUBLIC 155d80 0 _Unwind_GetLanguageSpecificData
PUBLIC 155d9c 0 _Unwind_GetDataRelBase
PUBLIC 155da4 0 _Unwind_GetTextRelBase
PUBLIC 155dac 0 __divdi3
PUBLIC 156244 0 __udivdi3
STACK CFI INIT 153c5c a8 .cfa: sp 0 + .ra: lr
STACK CFI INIT 153d24 dc .cfa: sp 0 + .ra: lr
STACK CFI INIT 15481c 3c .cfa: sp 0 + .ra: lr
STACK CFI 154820 .cfa: sp 24 + .ra: .cfa -4 + ^ r4: .cfa -24 + ^ r5: .cfa -20 + ^ r6: .cfa -16 + ^ r7: .cfa -12 + ^ r8: .cfa -8 + ^
STACK CFI INIT 154858 3c .cfa: sp 0 + .ra: lr
STACK CFI 15485c .cfa: sp 24 + .ra: .cfa -4 + ^ r4: .cfa -24 + ^ r5: .cfa -20 + ^ r6: .cfa -16 + ^ r7: .cfa -12 + ^ r8: .cfa -8 + ^
STACK CFI INIT 154894 18 .cfa: sp 0 + .ra: lr
STACK CFI INIT 1548ac ac .cfa: sp 0 + .ra: lr
STACK CFI 1548b0 .cfa: sp 48 + .ra: .cfa -4 + ^ r0: .cfa -48 + ^ r1: .cfa -44 + ^ r10: .cfa -12 + ^ r11: .cfa -8 + ^ r2: .cfa -40 + ^ r4: .cfa -36 + ^ r5: .cfa -32 + ^ r6: .cfa -28 + ^ r7: .cfa -24 + ^ r8: .cfa -20 + ^ r9: .cfa -16 + ^
STACK CFI INIT 154958 50 .cfa: sp 0 + .ra: lr
STACK CFI INIT 1549a8 110 .cfa: sp 0 + .ra: lr
STACK CFI 1549b0 .cfa: sp 24 + .ra: .cfa -4 + ^ r0: .cfa -24 + ^ r1: .cfa -20 + ^ r2: .cfa -16 + ^ r4: .cfa -12 + ^ r5: .cfa -8 + ^
STACK CFI INIT 154ab8 6c .cfa: sp 0 + .ra: lr
STACK CFI 154ac0 .cfa: sp 8 + .ra: .cfa -4 + ^ r4: .cfa -8 + ^
STACK CFI INIT 154b24 14 .cfa: sp 0 + .ra: lr
STACK CFI INIT 154b38 8 .cfa: sp 0 + .ra: lr
STACK CFI INIT 154b40 4 .cfa: sp 0 + .ra: lr
STACK CFI INIT 154b44 64 .cfa: sp 0 + .ra: lr
STACK CFI 154b48 .cfa: sp 16 + .ra: .cfa -4 + ^ r4: .cfa -16 + ^ r5: .cfa -12 + ^ r6: .cfa -8 + ^
STACK CFI INIT 154ba8 124 .cfa: sp 0 + .ra: lr
STACK CFI 154bac .cfa: sp 36 + .ra: .cfa -4 + ^ r10: .cfa -12 + ^ r11: .cfa -8 + ^ r4: .cfa -36 + ^ r5: .cfa -32 + ^ r6: .cfa -28 + ^ r7: .cfa -24 + ^ r8: .cfa -20 + ^ r9: .cfa -16 + ^
STACK CFI 154bc8 .cfa: sp 1008 +
STACK CFI INIT 154ccc 8 .cfa: sp 0 + .ra: lr
STACK CFI INIT 154cd4 a4 .cfa: sp 0 + .ra: lr
STACK CFI 154cd8 .cfa: sp 20 + .ra: .cfa -4 + ^ r4: .cfa -20 + ^ r5: .cfa -16 + ^ r6: .cfa -12 + ^ r7: .cfa -8 + ^
STACK CFI 154cf4 .cfa: sp 504 +
STACK CFI INIT 154d78 1c .cfa: sp 0 + .ra: lr
STACK CFI INIT 154d94 74 .cfa: sp 0 + .ra: lr
STACK CFI 154d98 .cfa: sp 16 + .ra: .cfa -4 + ^ r4: .cfa -16 + ^ r5: .cfa -12 + ^ r6: .cfa -8 + ^
STACK CFI INIT 154e08 20 .cfa: sp 0 + .ra: lr
STACK CFI INIT 154e28 4 .cfa: sp 0 + .ra: lr
STACK CFI INIT 154e2c 20 .cfa: sp 0 + .ra: lr
STACK CFI 154e30 .cfa: sp 8 + .ra: .cfa -4 + ^ r3: .cfa -8 + ^
STACK CFI INIT 154e4c 5c .cfa: sp 0 + .ra: lr
STACK CFI INIT 154ea8 28 .cfa: sp 0 + .ra: lr
STACK CFI 154eac .cfa: sp 24 + .ra: .cfa -4 + ^ r0: .cfa -24 + ^ r1: .cfa -20 + ^ r2: .cfa -16 + ^ r3: .cfa -12 + ^ r4: .cfa -8 + ^
STACK CFI INIT 154ed0 5c .cfa: sp 0 + .ra: lr
STACK CFI INIT 154f2c 2c .cfa: sp 0 + .ra: lr
STACK CFI 154f30 .cfa: sp 24 + .ra: .cfa -4 + ^ r0: .cfa -24 + ^ r1: .cfa -20 + ^ r2: .cfa -16 + ^ r3: .cfa -12 + ^ r4: .cfa -8 + ^
STACK CFI INIT 154f58 c4 .cfa: sp 0 + .ra: lr
STACK CFI 154f5c .cfa: sp 24 + .ra: .cfa -4 + ^ r4: .cfa -24 + ^ r5: .cfa -20 + ^ r6: .cfa -16 + ^ r7: .cfa -12 + ^ r8: .cfa -8 + ^
STACK CFI 154f78 .cfa: sp 592 +
STACK CFI INIT 15501c 3f4 .cfa: sp 0 + .ra: lr
STACK CFI 155020 .cfa: sp 36 + .ra: .cfa -4 + ^ r10: .cfa -12 + ^ r11: .cfa -8 + ^ r4: .cfa -36 + ^ r5: .cfa -32 + ^ r6: .cfa -28 + ^ r7: .cfa -24 + ^ r8: .cfa -20 + ^ r9: .cfa -16 + ^
STACK CFI 15502c .cfa: sp 72 +
STACK CFI INIT 155410 8 .cfa: sp 0 + .ra: lr
STACK CFI INIT 155418 8 .cfa: sp 0 + .ra: lr
STACK CFI INIT 155420 8 .cfa: sp 0 + .ra: lr
STACK CFI INIT 155428 358 .cfa: sp 0 + .ra: lr
STACK CFI 15542c .cfa: sp 28 + .ra: .cfa -4 + ^ r4: .cfa -28 + ^ r5: .cfa -24 + ^ r6: .cfa -20 + ^ r7: .cfa -16 + ^ r8: .cfa -12 + ^ r9: .cfa -8 + ^
STACK CFI 155434 .cfa: sp 296 +
STACK CFI INIT 155928 60 .cfa: sp 0 + .ra: lr
STACK CFI INIT 155988 28 .cfa: sp 0 + .ra: lr
STACK CFI 15598c .cfa: sp 24 + .ra: .cfa -4 + ^ r0: .cfa -24 + ^ r1: .cfa -20 + ^ r2: .cfa -16 + ^ r3: .cfa -12 + ^ r4: .cfa -8 + ^
STACK CFI INIT 1559b0 4 .cfa: sp 0 + .ra: lr
STACK CFI INIT 1559b4 37c .cfa: sp 0 + .ra: lr
STACK CFI 1559b8 .cfa: sp 48 + .ra: .cfa -4 + ^ r0: .cfa -48 + ^ r1: .cfa -44 + ^ r10: .cfa -8 + ^ r2: .cfa -40 + ^ r3: .cfa -36 + ^ r4: .cfa -32 + ^ r5: .cfa -28 + ^ r6: .cfa -24 + ^ r7: .cfa -20 + ^ r8: .cfa -16 + ^ r9: .cfa -12 + ^
STACK CFI INIT 155d30 40 .cfa: sp 0 + .ra: lr
STACK CFI 155d34 .cfa: sp 24 + .ra: .cfa -4 + ^ r0: .cfa -24 + ^ r1: .cfa -20 + ^ r2: .cfa -16 + ^ r3: .cfa -12 + ^ r4: .cfa -8 + ^
STACK CFI INIT 155d70 10 .cfa: sp 0 + .ra: lr
STACK CFI 155d74 .cfa: sp 8 + .ra: .cfa -4 + ^ r3: .cfa -8 + ^
STACK CFI INIT 155d80 1c .cfa: sp 0 + .ra: lr
STACK CFI 155d84 .cfa: sp 8 + .ra: .cfa -4 + ^ r3: .cfa -8 + ^
STACK CFI INIT 155d9c 8 .cfa: sp 0 + .ra: lr
STACK CFI 155da0 .cfa: sp 8 + .ra: .cfa -4 + ^ r3: .cfa -8 + ^
STACK CFI INIT 155da4 8 .cfa: sp 0 + .ra: lr
STACK CFI 155da8 .cfa: sp 8 + .ra: .cfa -4 + ^ r3: .cfa -8 + ^
STACK CFI INIT 155dac 498 .cfa: sp 0 + .ra: lr
STACK CFI 155db4 .cfa: sp 36 + .ra: .cfa -4 + ^ r10: .cfa -12 + ^ r11: .cfa -8 + ^ r4: .cfa -36 + ^ r5: .cfa -32 + ^ r6: .cfa -28 + ^ r7: .cfa -24 + ^ r8: .cfa -20 + ^ r9: .cfa -16 + ^
STACK CFI 155dbc .cfa: sp 56 +
STACK CFI INIT 156244 404 .cfa: sp 0 + .ra: lr
STACK CFI 15624c .cfa: sp 48 + .ra: .cfa -4 + ^ r0: .cfa -48 + ^ r1: .cfa -44 + ^ r10: .cfa -12 + ^ r11: .cfa -8 + ^ r2: .cfa -40 + ^ r4: .cfa -36 + ^ r5: .cfa -32 + ^ r6: .cfa -28 + ^ r7: .cfa -24 + ^ r8: .cfa -20 + ^ r9: .cfa -16 + ^
