MODULE Linux arm C74D8A03872581561ED712C9D9A47EC20 lib_imagingmath.so
FUNC 1558 70 0 abs_I
FUNC 15c8 6c 0 neg_I
FUNC 1634 7c 0 add_I
FUNC 16b0 7c 0 sub_I
FUNC 172c 7c 0 mul_I
FUNC 17a8 98 0 div_I
FUNC 1840 9c 0 mod_I
FUNC 18dc 84 0 diff_I
FUNC 1960 6c 0 invert_I
FUNC 19cc 7c 0 and_I
FUNC 1a48 7c 0 or_I
FUNC 1ac4 7c 0 xor_I
FUNC 1b40 7c 0 lshift_I
FUNC 1bbc 7c 0 rshift_I
FUNC 1c38 80 0 min_I
FUNC 1cb8 80 0 max_I
FUNC 1d38 84 0 eq_I
FUNC 1dbc 80 0 ne_I
FUNC 1e3c 84 0 lt_I
FUNC 1ec0 84 0 le_I
FUNC 1f44 84 0 gt_I
FUNC 1fc8 84 0 ge_I
FUNC 204c 68 0 abs_F
FUNC 20b4 68 0 neg_F
FUNC 211c 74 0 add_F
FUNC 2190 74 0 sub_F
FUNC 2204 74 0 mul_F
FUNC 2278 8c 0 div_F
FUNC 2304 78 0 diff_F
FUNC 237c 7c 0 min_F
FUNC 23f8 7c 0 max_F
FUNC 2474 8c 0 eq_F
FUNC 2500 8c 0 ne_F
FUNC 258c 8c 0 lt_F
FUNC 2618 8c 0 le_F
FUNC 26a4 8c 0 gt_F
FUNC 2730 8c 0 ge_F
FUNC 27bc 10c 0 pow_I
FUNC 28c8 b8 0 mod_F
FUNC 2980 7c 0 pow_F
FUNC 29fc 74 0 _binop
FUNC 2a70 68 0 _unop
FUNC 2ad8 1134 0 init_imagingmath
FUNC 3d1c 18 0 selfrel_offset31
FUNC 3d34 ac 0 search_EIT_table
FUNC 3de0 50 0 __gnu_unwind_get_pr_addr
FUNC 3e30 110 0 get_eit_entry
FUNC 3f40 6c 0 restore_non_core_regs
FUNC 3fac 14 0 _Unwind_decode_typeinfo_ptr
FUNC 3fc0 8 0 __gnu_unwind_24bit
FUNC 3fc8 4 0 _Unwind_DebugHook
FUNC 3fcc 64 0 unwind_phase2
FUNC 4030 124 0 unwind_phase2_forced
FUNC 4154 8 0 _Unwind_GetCFA
FUNC 415c a4 0 __gnu_Unwind_RaiseException
FUNC 4200 1c 0 __gnu_Unwind_ForcedUnwind
FUNC 421c 74 0 __gnu_Unwind_Resume
FUNC 4290 20 0 __gnu_Unwind_Resume_or_Rethrow
FUNC 42b0 4 0 _Unwind_Complete
FUNC 42b4 20 0 _Unwind_DeleteException
FUNC 42d4 5c 0 _Unwind_VRS_Get
FUNC 4330 28 0 _Unwind_GetGR
FUNC 4358 5c 0 _Unwind_VRS_Set
FUNC 43b4 2c 0 _Unwind_SetGR
FUNC 43e0 c4 0 __gnu_Unwind_Backtrace
FUNC 44a4 3f4 0 __gnu_unwind_pr_common
FUNC 4898 8 0 __aeabi_unwind_cpp_pr0
FUNC 48a0 8 0 __aeabi_unwind_cpp_pr1
FUNC 48a8 8 0 __aeabi_unwind_cpp_pr2
FUNC 48b0 358 0 _Unwind_VRS_Pop
FUNC 4db0 60 0 next_unwind_byte
FUNC 4e10 28 0 _Unwind_GetGR
FUNC 4e38 4 0 unwind_UCB_from_context
FUNC 4e3c 37c 0 __gnu_unwind_execute
FUNC 51b8 40 0 __gnu_unwind_frame
FUNC 51f8 10 0 _Unwind_GetRegionStart
FUNC 5208 1c 0 _Unwind_GetLanguageSpecificData
FUNC 5224 8 0 _Unwind_GetDataRelBase
FUNC 522c 8 0 _Unwind_GetTextRelBase
PUBLIC 1558 0 abs_I
PUBLIC 15c8 0 neg_I
PUBLIC 1634 0 add_I
PUBLIC 16b0 0 sub_I
PUBLIC 172c 0 mul_I
PUBLIC 17a8 0 div_I
PUBLIC 1840 0 mod_I
PUBLIC 18dc 0 diff_I
PUBLIC 1960 0 invert_I
PUBLIC 19cc 0 and_I
PUBLIC 1a48 0 or_I
PUBLIC 1ac4 0 xor_I
PUBLIC 1b40 0 lshift_I
PUBLIC 1bbc 0 rshift_I
PUBLIC 1c38 0 min_I
PUBLIC 1cb8 0 max_I
PUBLIC 1d38 0 eq_I
PUBLIC 1dbc 0 ne_I
PUBLIC 1e3c 0 lt_I
PUBLIC 1ec0 0 le_I
PUBLIC 1f44 0 gt_I
PUBLIC 1fc8 0 ge_I
PUBLIC 204c 0 abs_F
PUBLIC 20b4 0 neg_F
PUBLIC 211c 0 add_F
PUBLIC 2190 0 sub_F
PUBLIC 2204 0 mul_F
PUBLIC 2278 0 div_F
PUBLIC 2304 0 diff_F
PUBLIC 237c 0 min_F
PUBLIC 23f8 0 max_F
PUBLIC 2474 0 eq_F
PUBLIC 2500 0 ne_F
PUBLIC 258c 0 lt_F
PUBLIC 2618 0 le_F
PUBLIC 26a4 0 gt_F
PUBLIC 2730 0 ge_F
PUBLIC 27bc 0 pow_I
PUBLIC 28c8 0 mod_F
PUBLIC 2980 0 pow_F
PUBLIC 2ad8 0 init_imagingmath
PUBLIC 3c10 0 __aeabi_idiv
PUBLIC 3cec 0 __aeabi_idivmod
PUBLIC 3d0c 0 __aeabi_idiv0
PUBLIC 4154 0 _Unwind_GetCFA
PUBLIC 415c 0 __gnu_Unwind_RaiseException
PUBLIC 4200 0 __gnu_Unwind_ForcedUnwind
PUBLIC 421c 0 __gnu_Unwind_Resume
PUBLIC 4290 0 __gnu_Unwind_Resume_or_Rethrow
PUBLIC 42b0 0 _Unwind_Complete
PUBLIC 42b4 0 _Unwind_DeleteException
PUBLIC 42d4 0 _Unwind_VRS_Get
PUBLIC 4358 0 _Unwind_VRS_Set
PUBLIC 43e0 0 __gnu_Unwind_Backtrace
PUBLIC 4898 0 __aeabi_unwind_cpp_pr0
PUBLIC 48a0 0 __aeabi_unwind_cpp_pr1
PUBLIC 48a8 0 __aeabi_unwind_cpp_pr2
PUBLIC 48b0 0 _Unwind_VRS_Pop
PUBLIC 4c08 0 restore_core_regs
PUBLIC 4c1c 0 __gnu_Unwind_Restore_VFP
PUBLIC 4c24 0 __gnu_Unwind_Save_VFP
PUBLIC 4c2c 0 __gnu_Unwind_Restore_VFP_D
PUBLIC 4c34 0 __gnu_Unwind_Save_VFP_D
PUBLIC 4c3c 0 __gnu_Unwind_Restore_VFP_D_16_to_31
PUBLIC 4c44 0 __gnu_Unwind_Save_VFP_D_16_to_31
PUBLIC 4c4c 0 __gnu_Unwind_Restore_WMMXD
PUBLIC 4c90 0 __gnu_Unwind_Save_WMMXD
PUBLIC 4cd4 0 __gnu_Unwind_Restore_WMMXC
PUBLIC 4ce8 0 __gnu_Unwind_Save_WMMXC
PUBLIC 4cfc 0 ___Unwind_RaiseException
PUBLIC 4d20 0 ___Unwind_Resume
PUBLIC 4d44 0 ___Unwind_Resume_or_Rethrow
PUBLIC 4d68 0 ___Unwind_ForcedUnwind
PUBLIC 4d8c 0 ___Unwind_Backtrace
PUBLIC 4e3c 0 __gnu_unwind_execute
PUBLIC 51b8 0 __gnu_unwind_frame
PUBLIC 51f8 0 _Unwind_GetRegionStart
PUBLIC 5208 0 _Unwind_GetLanguageSpecificData
PUBLIC 5224 0 _Unwind_GetDataRelBase
PUBLIC 522c 0 _Unwind_GetTextRelBase
STACK CFI INIT 1558 70 .cfa: sp 0 + .ra: lr
STACK CFI 1560 .cfa: sp 8 + r4: .cfa -8 + ^ r5: .cfa -4 + ^
STACK CFI INIT 15c8 6c .cfa: sp 0 + .ra: lr
STACK CFI 15d0 .cfa: sp 8 + r4: .cfa -8 + ^ r5: .cfa -4 + ^
STACK CFI INIT 1634 7c .cfa: sp 0 + .ra: lr
STACK CFI 163c .cfa: sp 24 + r4: .cfa -24 + ^ r5: .cfa -20 + ^ r6: .cfa -16 + ^ r7: .cfa -12 + ^ r8: .cfa -8 + ^ r9: .cfa -4 + ^
STACK CFI INIT 16b0 7c .cfa: sp 0 + .ra: lr
STACK CFI 16b8 .cfa: sp 24 + r4: .cfa -24 + ^ r5: .cfa -20 + ^ r6: .cfa -16 + ^ r7: .cfa -12 + ^ r8: .cfa -8 + ^ r9: .cfa -4 + ^
STACK CFI INIT 172c 7c .cfa: sp 0 + .ra: lr
STACK CFI 1734 .cfa: sp 24 + r4: .cfa -24 + ^ r5: .cfa -20 + ^ r6: .cfa -16 + ^ r7: .cfa -12 + ^ r8: .cfa -8 + ^ r9: .cfa -4 + ^
STACK CFI INIT 17a8 98 .cfa: sp 0 + .ra: lr
STACK CFI 17ac .cfa: sp 36 + .ra: .cfa -4 + ^ r10: .cfa -12 + ^ r11: .cfa -8 + ^ r4: .cfa -36 + ^ r5: .cfa -32 + ^ r6: .cfa -28 + ^ r7: .cfa -24 + ^ r8: .cfa -20 + ^ r9: .cfa -16 + ^
STACK CFI 17b0 .cfa: sp 48 +
STACK CFI INIT 1840 9c .cfa: sp 0 + .ra: lr
STACK CFI 1844 .cfa: sp 36 + .ra: .cfa -4 + ^ r10: .cfa -12 + ^ r11: .cfa -8 + ^ r4: .cfa -36 + ^ r5: .cfa -32 + ^ r6: .cfa -28 + ^ r7: .cfa -24 + ^ r8: .cfa -20 + ^ r9: .cfa -16 + ^
STACK CFI 1848 .cfa: sp 48 +
STACK CFI INIT 18dc 84 .cfa: sp 0 + .ra: lr
STACK CFI 18e4 .cfa: sp 24 + r4: .cfa -24 + ^ r5: .cfa -20 + ^ r6: .cfa -16 + ^ r7: .cfa -12 + ^ r8: .cfa -8 + ^ r9: .cfa -4 + ^
STACK CFI INIT 1960 6c .cfa: sp 0 + .ra: lr
STACK CFI 1968 .cfa: sp 8 + r4: .cfa -8 + ^ r5: .cfa -4 + ^
STACK CFI INIT 19cc 7c .cfa: sp 0 + .ra: lr
STACK CFI 19d4 .cfa: sp 24 + r4: .cfa -24 + ^ r5: .cfa -20 + ^ r6: .cfa -16 + ^ r7: .cfa -12 + ^ r8: .cfa -8 + ^ r9: .cfa -4 + ^
STACK CFI INIT 1a48 7c .cfa: sp 0 + .ra: lr
STACK CFI 1a50 .cfa: sp 24 + r4: .cfa -24 + ^ r5: .cfa -20 + ^ r6: .cfa -16 + ^ r7: .cfa -12 + ^ r8: .cfa -8 + ^ r9: .cfa -4 + ^
STACK CFI INIT 1ac4 7c .cfa: sp 0 + .ra: lr
STACK CFI 1acc .cfa: sp 24 + r4: .cfa -24 + ^ r5: .cfa -20 + ^ r6: .cfa -16 + ^ r7: .cfa -12 + ^ r8: .cfa -8 + ^ r9: .cfa -4 + ^
STACK CFI INIT 1b40 7c .cfa: sp 0 + .ra: lr
STACK CFI 1b48 .cfa: sp 24 + r4: .cfa -24 + ^ r5: .cfa -20 + ^ r6: .cfa -16 + ^ r7: .cfa -12 + ^ r8: .cfa -8 + ^ r9: .cfa -4 + ^
STACK CFI INIT 1bbc 7c .cfa: sp 0 + .ra: lr
STACK CFI 1bc4 .cfa: sp 24 + r4: .cfa -24 + ^ r5: .cfa -20 + ^ r6: .cfa -16 + ^ r7: .cfa -12 + ^ r8: .cfa -8 + ^ r9: .cfa -4 + ^
STACK CFI INIT 1c38 80 .cfa: sp 0 + .ra: lr
STACK CFI 1c40 .cfa: sp 24 + r4: .cfa -24 + ^ r5: .cfa -20 + ^ r6: .cfa -16 + ^ r7: .cfa -12 + ^ r8: .cfa -8 + ^ r9: .cfa -4 + ^
STACK CFI INIT 1cb8 80 .cfa: sp 0 + .ra: lr
STACK CFI 1cc0 .cfa: sp 24 + r4: .cfa -24 + ^ r5: .cfa -20 + ^ r6: .cfa -16 + ^ r7: .cfa -12 + ^ r8: .cfa -8 + ^ r9: .cfa -4 + ^
STACK CFI INIT 1d38 84 .cfa: sp 0 + .ra: lr
STACK CFI 1d40 .cfa: sp 24 + r4: .cfa -24 + ^ r5: .cfa -20 + ^ r6: .cfa -16 + ^ r7: .cfa -12 + ^ r8: .cfa -8 + ^ r9: .cfa -4 + ^
STACK CFI INIT 1dbc 80 .cfa: sp 0 + .ra: lr
STACK CFI 1dc4 .cfa: sp 24 + r4: .cfa -24 + ^ r5: .cfa -20 + ^ r6: .cfa -16 + ^ r7: .cfa -12 + ^ r8: .cfa -8 + ^ r9: .cfa -4 + ^
STACK CFI INIT 1e3c 84 .cfa: sp 0 + .ra: lr
STACK CFI 1e44 .cfa: sp 24 + r4: .cfa -24 + ^ r5: .cfa -20 + ^ r6: .cfa -16 + ^ r7: .cfa -12 + ^ r8: .cfa -8 + ^ r9: .cfa -4 + ^
STACK CFI INIT 1ec0 84 .cfa: sp 0 + .ra: lr
STACK CFI 1ec8 .cfa: sp 24 + r4: .cfa -24 + ^ r5: .cfa -20 + ^ r6: .cfa -16 + ^ r7: .cfa -12 + ^ r8: .cfa -8 + ^ r9: .cfa -4 + ^
STACK CFI INIT 1f44 84 .cfa: sp 0 + .ra: lr
STACK CFI 1f4c .cfa: sp 24 + r4: .cfa -24 + ^ r5: .cfa -20 + ^ r6: .cfa -16 + ^ r7: .cfa -12 + ^ r8: .cfa -8 + ^ r9: .cfa -4 + ^
STACK CFI INIT 1fc8 84 .cfa: sp 0 + .ra: lr
STACK CFI 1fd0 .cfa: sp 24 + r4: .cfa -24 + ^ r5: .cfa -20 + ^ r6: .cfa -16 + ^ r7: .cfa -12 + ^ r8: .cfa -8 + ^ r9: .cfa -4 + ^
STACK CFI INIT 204c 68 .cfa: sp 0 + .ra: lr
STACK CFI 2054 .cfa: sp 8 + r4: .cfa -8 + ^ r5: .cfa -4 + ^
STACK CFI INIT 20b4 68 .cfa: sp 0 + .ra: lr
STACK CFI 20bc .cfa: sp 8 + r4: .cfa -8 + ^ r5: .cfa -4 + ^
STACK CFI INIT 211c 74 .cfa: sp 0 + .ra: lr
STACK CFI 2124 .cfa: sp 16 + r4: .cfa -16 + ^ r5: .cfa -12 + ^ r6: .cfa -8 + ^ r7: .cfa -4 + ^
STACK CFI INIT 2190 74 .cfa: sp 0 + .ra: lr
STACK CFI 2198 .cfa: sp 16 + r4: .cfa -16 + ^ r5: .cfa -12 + ^ r6: .cfa -8 + ^ r7: .cfa -4 + ^
STACK CFI INIT 2204 74 .cfa: sp 0 + .ra: lr
STACK CFI 220c .cfa: sp 16 + r4: .cfa -16 + ^ r5: .cfa -12 + ^ r6: .cfa -8 + ^ r7: .cfa -4 + ^
STACK CFI INIT 2278 8c .cfa: sp 0 + .ra: lr
STACK CFI 2280 .cfa: sp 16 + r4: .cfa -16 + ^ r5: .cfa -12 + ^ r6: .cfa -8 + ^ r7: .cfa -4 + ^
STACK CFI INIT 2304 78 .cfa: sp 0 + .ra: lr
STACK CFI 230c .cfa: sp 16 + r4: .cfa -16 + ^ r5: .cfa -12 + ^ r6: .cfa -8 + ^ r7: .cfa -4 + ^
STACK CFI INIT 237c 7c .cfa: sp 0 + .ra: lr
STACK CFI 2384 .cfa: sp 16 + r4: .cfa -16 + ^ r5: .cfa -12 + ^ r6: .cfa -8 + ^ r7: .cfa -4 + ^
STACK CFI INIT 23f8 7c .cfa: sp 0 + .ra: lr
STACK CFI 2400 .cfa: sp 16 + r4: .cfa -16 + ^ r5: .cfa -12 + ^ r6: .cfa -8 + ^ r7: .cfa -4 + ^
STACK CFI INIT 2474 8c .cfa: sp 0 + .ra: lr
STACK CFI 247c .cfa: sp 16 + r4: .cfa -16 + ^ r5: .cfa -12 + ^ r6: .cfa -8 + ^ r7: .cfa -4 + ^
STACK CFI INIT 2500 8c .cfa: sp 0 + .ra: lr
STACK CFI 2508 .cfa: sp 16 + r4: .cfa -16 + ^ r5: .cfa -12 + ^ r6: .cfa -8 + ^ r7: .cfa -4 + ^
STACK CFI INIT 258c 8c .cfa: sp 0 + .ra: lr
STACK CFI 2594 .cfa: sp 16 + r4: .cfa -16 + ^ r5: .cfa -12 + ^ r6: .cfa -8 + ^ r7: .cfa -4 + ^
STACK CFI INIT 2618 8c .cfa: sp 0 + .ra: lr
STACK CFI 2620 .cfa: sp 16 + r4: .cfa -16 + ^ r5: .cfa -12 + ^ r6: .cfa -8 + ^ r7: .cfa -4 + ^
STACK CFI INIT 26a4 8c .cfa: sp 0 + .ra: lr
STACK CFI 26ac .cfa: sp 16 + r4: .cfa -16 + ^ r5: .cfa -12 + ^ r6: .cfa -8 + ^ r7: .cfa -4 + ^
STACK CFI INIT 2730 8c .cfa: sp 0 + .ra: lr
STACK CFI 2738 .cfa: sp 16 + r4: .cfa -16 + ^ r5: .cfa -12 + ^ r6: .cfa -8 + ^ r7: .cfa -4 + ^
STACK CFI INIT 27bc 10c .cfa: sp 0 + .ra: lr
STACK CFI 27c0 .cfa: sp 36 + .ra: .cfa -4 + ^ r10: .cfa -12 + ^ r11: .cfa -8 + ^ r4: .cfa -36 + ^ r5: .cfa -32 + ^ r6: .cfa -28 + ^ r7: .cfa -24 + ^ r8: .cfa -20 + ^ r9: .cfa -16 + ^
STACK CFI 27c8 .cfa: sp 68 + s16: .cfa -68 + ^ s18: .cfa -60 + ^ s20: .cfa -52 + ^ s22: .cfa -44 + ^
STACK CFI 27cc .cfa: sp 80 +
STACK CFI INIT 28c8 b8 .cfa: sp 0 + .ra: lr
STACK CFI 28cc .cfa: sp 40 + .ra: .cfa -4 + ^ r10: .cfa -12 + ^ r11: .cfa -8 + ^ r3: .cfa -40 + ^ r4: .cfa -36 + ^ r5: .cfa -32 + ^ r6: .cfa -28 + ^ r7: .cfa -24 + ^ r8: .cfa -20 + ^ r9: .cfa -16 + ^
STACK CFI INIT 2980 7c .cfa: sp 0 + .ra: lr
STACK CFI 2984 .cfa: sp 40 + .ra: .cfa -4 + ^ r10: .cfa -12 + ^ r11: .cfa -8 + ^ r3: .cfa -40 + ^ r4: .cfa -36 + ^ r5: .cfa -32 + ^ r6: .cfa -28 + ^ r7: .cfa -24 + ^ r8: .cfa -20 + ^ r9: .cfa -16 + ^
STACK CFI INIT 29fc 74 .cfa: sp 0 + .ra: lr
STACK CFI 2a00 .cfa: sp 4 + .ra: .cfa -4 + ^
STACK CFI 2a08 .cfa: sp 48 +
STACK CFI INIT 2a70 68 .cfa: sp 0 + .ra: lr
STACK CFI 2a7c .cfa: sp 4 + .ra: .cfa -4 + ^
STACK CFI 2a80 .cfa: sp 40 +
STACK CFI INIT 2ad8 1134 .cfa: sp 0 + .ra: lr
STACK CFI 2aec .cfa: sp 16 + .ra: .cfa -4 + ^ r4: .cfa -16 + ^ r5: .cfa -12 + ^ r6: .cfa -8 + ^
STACK CFI 2af0 .cfa: sp 24 +
STACK CFI INIT 3c10 dc .cfa: sp 0 + .ra: lr
STACK CFI INIT 3d1c 18 .cfa: sp 0 + .ra: lr
STACK CFI INIT 3d34 ac .cfa: sp 0 + .ra: lr
STACK CFI 3d38 .cfa: sp 48 + .ra: .cfa -4 + ^ r0: .cfa -48 + ^ r1: .cfa -44 + ^ r10: .cfa -12 + ^ r11: .cfa -8 + ^ r2: .cfa -40 + ^ r4: .cfa -36 + ^ r5: .cfa -32 + ^ r6: .cfa -28 + ^ r7: .cfa -24 + ^ r8: .cfa -20 + ^ r9: .cfa -16 + ^
STACK CFI INIT 3de0 50 .cfa: sp 0 + .ra: lr
STACK CFI INIT 3e30 110 .cfa: sp 0 + .ra: lr
STACK CFI 3e38 .cfa: sp 24 + .ra: .cfa -4 + ^ r0: .cfa -24 + ^ r1: .cfa -20 + ^ r2: .cfa -16 + ^ r4: .cfa -12 + ^ r5: .cfa -8 + ^
STACK CFI INIT 3f40 6c .cfa: sp 0 + .ra: lr
STACK CFI 3f48 .cfa: sp 8 + .ra: .cfa -4 + ^ r4: .cfa -8 + ^
STACK CFI INIT 3fac 14 .cfa: sp 0 + .ra: lr
STACK CFI INIT 3fc0 8 .cfa: sp 0 + .ra: lr
STACK CFI INIT 3fc8 4 .cfa: sp 0 + .ra: lr
STACK CFI INIT 3fcc 64 .cfa: sp 0 + .ra: lr
STACK CFI 3fd0 .cfa: sp 16 + .ra: .cfa -4 + ^ r4: .cfa -16 + ^ r5: .cfa -12 + ^ r6: .cfa -8 + ^
STACK CFI INIT 4030 124 .cfa: sp 0 + .ra: lr
STACK CFI 4034 .cfa: sp 36 + .ra: .cfa -4 + ^ r10: .cfa -12 + ^ r11: .cfa -8 + ^ r4: .cfa -36 + ^ r5: .cfa -32 + ^ r6: .cfa -28 + ^ r7: .cfa -24 + ^ r8: .cfa -20 + ^ r9: .cfa -16 + ^
STACK CFI 4050 .cfa: sp 1008 +
STACK CFI INIT 4154 8 .cfa: sp 0 + .ra: lr
STACK CFI INIT 415c a4 .cfa: sp 0 + .ra: lr
STACK CFI 4160 .cfa: sp 20 + .ra: .cfa -4 + ^ r4: .cfa -20 + ^ r5: .cfa -16 + ^ r6: .cfa -12 + ^ r7: .cfa -8 + ^
STACK CFI 417c .cfa: sp 504 +
STACK CFI INIT 4200 1c .cfa: sp 0 + .ra: lr
STACK CFI INIT 421c 74 .cfa: sp 0 + .ra: lr
STACK CFI 4220 .cfa: sp 16 + .ra: .cfa -4 + ^ r4: .cfa -16 + ^ r5: .cfa -12 + ^ r6: .cfa -8 + ^
STACK CFI INIT 4290 20 .cfa: sp 0 + .ra: lr
STACK CFI INIT 42b0 4 .cfa: sp 0 + .ra: lr
STACK CFI INIT 42b4 20 .cfa: sp 0 + .ra: lr
STACK CFI 42b8 .cfa: sp 8 + .ra: .cfa -4 + ^ r3: .cfa -8 + ^
STACK CFI INIT 42d4 5c .cfa: sp 0 + .ra: lr
STACK CFI INIT 4330 28 .cfa: sp 0 + .ra: lr
STACK CFI 4334 .cfa: sp 24 + .ra: .cfa -4 + ^ r0: .cfa -24 + ^ r1: .cfa -20 + ^ r2: .cfa -16 + ^ r3: .cfa -12 + ^ r4: .cfa -8 + ^
STACK CFI INIT 4358 5c .cfa: sp 0 + .ra: lr
STACK CFI INIT 43b4 2c .cfa: sp 0 + .ra: lr
STACK CFI 43b8 .cfa: sp 24 + .ra: .cfa -4 + ^ r0: .cfa -24 + ^ r1: .cfa -20 + ^ r2: .cfa -16 + ^ r3: .cfa -12 + ^ r4: .cfa -8 + ^
STACK CFI INIT 43e0 c4 .cfa: sp 0 + .ra: lr
STACK CFI 43e4 .cfa: sp 24 + .ra: .cfa -4 + ^ r4: .cfa -24 + ^ r5: .cfa -20 + ^ r6: .cfa -16 + ^ r7: .cfa -12 + ^ r8: .cfa -8 + ^
STACK CFI 4400 .cfa: sp 592 +
STACK CFI INIT 44a4 3f4 .cfa: sp 0 + .ra: lr
STACK CFI 44a8 .cfa: sp 36 + .ra: .cfa -4 + ^ r10: .cfa -12 + ^ r11: .cfa -8 + ^ r4: .cfa -36 + ^ r5: .cfa -32 + ^ r6: .cfa -28 + ^ r7: .cfa -24 + ^ r8: .cfa -20 + ^ r9: .cfa -16 + ^
STACK CFI 44b4 .cfa: sp 72 +
STACK CFI INIT 4898 8 .cfa: sp 0 + .ra: lr
STACK CFI INIT 48a0 8 .cfa: sp 0 + .ra: lr
STACK CFI INIT 48a8 8 .cfa: sp 0 + .ra: lr
STACK CFI INIT 48b0 358 .cfa: sp 0 + .ra: lr
STACK CFI 48b4 .cfa: sp 28 + .ra: .cfa -4 + ^ r4: .cfa -28 + ^ r5: .cfa -24 + ^ r6: .cfa -20 + ^ r7: .cfa -16 + ^ r8: .cfa -12 + ^ r9: .cfa -8 + ^
STACK CFI 48bc .cfa: sp 296 +
STACK CFI INIT 4db0 60 .cfa: sp 0 + .ra: lr
STACK CFI INIT 4e10 28 .cfa: sp 0 + .ra: lr
STACK CFI 4e14 .cfa: sp 24 + .ra: .cfa -4 + ^ r0: .cfa -24 + ^ r1: .cfa -20 + ^ r2: .cfa -16 + ^ r3: .cfa -12 + ^ r4: .cfa -8 + ^
STACK CFI INIT 4e38 4 .cfa: sp 0 + .ra: lr
STACK CFI INIT 4e3c 37c .cfa: sp 0 + .ra: lr
STACK CFI 4e40 .cfa: sp 48 + .ra: .cfa -4 + ^ r0: .cfa -48 + ^ r1: .cfa -44 + ^ r10: .cfa -8 + ^ r2: .cfa -40 + ^ r3: .cfa -36 + ^ r4: .cfa -32 + ^ r5: .cfa -28 + ^ r6: .cfa -24 + ^ r7: .cfa -20 + ^ r8: .cfa -16 + ^ r9: .cfa -12 + ^
STACK CFI INIT 51b8 40 .cfa: sp 0 + .ra: lr
STACK CFI 51bc .cfa: sp 24 + .ra: .cfa -4 + ^ r0: .cfa -24 + ^ r1: .cfa -20 + ^ r2: .cfa -16 + ^ r3: .cfa -12 + ^ r4: .cfa -8 + ^
STACK CFI INIT 51f8 10 .cfa: sp 0 + .ra: lr
STACK CFI 51fc .cfa: sp 8 + .ra: .cfa -4 + ^ r3: .cfa -8 + ^
STACK CFI INIT 5208 1c .cfa: sp 0 + .ra: lr
STACK CFI 520c .cfa: sp 8 + .ra: .cfa -4 + ^ r3: .cfa -8 + ^
STACK CFI INIT 5224 8 .cfa: sp 0 + .ra: lr
STACK CFI 5228 .cfa: sp 8 + .ra: .cfa -4 + ^ r3: .cfa -8 + ^
STACK CFI INIT 522c 8 .cfa: sp 0 + .ra: lr
STACK CFI 5230 .cfa: sp 8 + .ra: .cfa -4 + ^ r3: .cfa -8 + ^
