MODULE Linux arm 5222EBEE7D853808530AE44A334351750 libass.so
FUNC 96b94 38 0 __popcountsi2
FUNC 96bcc 44 0 __fixdfdi
FUNC 96c10 68 0 __fixunsdfdi
FUNC 96c78 3c 0 __gnu_ldivmod_helper
FUNC 96cb4 3c 0 __gnu_uldivmod_helper
FUNC 96cf0 18 0 selfrel_offset31
FUNC 96d08 ac 0 search_EIT_table
FUNC 96db4 50 0 __gnu_unwind_get_pr_addr
FUNC 96e04 10c 0 get_eit_entry
FUNC 96f10 6c 0 restore_non_core_regs
FUNC 96f7c 14 0 _Unwind_decode_typeinfo_ptr
FUNC 96f90 8 0 __gnu_unwind_24bit
FUNC 96f98 4 0 _Unwind_DebugHook
FUNC 96f9c 64 0 unwind_phase2
FUNC 97000 124 0 unwind_phase2_forced
FUNC 97124 8 0 _Unwind_GetCFA
FUNC 9712c a4 0 __gnu_Unwind_RaiseException
FUNC 971d0 1c 0 __gnu_Unwind_ForcedUnwind
FUNC 971ec 74 0 __gnu_Unwind_Resume
FUNC 97260 20 0 __gnu_Unwind_Resume_or_Rethrow
FUNC 97280 4 0 _Unwind_Complete
FUNC 97284 20 0 _Unwind_DeleteException
FUNC 972a4 5c 0 _Unwind_VRS_Get
FUNC 97300 28 0 _Unwind_GetGR
FUNC 97328 5c 0 _Unwind_VRS_Set
FUNC 97384 2c 0 _Unwind_SetGR
FUNC 973b0 c4 0 __gnu_Unwind_Backtrace
FUNC 97474 3f0 0 __gnu_unwind_pr_common
FUNC 97864 8 0 __aeabi_unwind_cpp_pr0
FUNC 9786c 8 0 __aeabi_unwind_cpp_pr1
FUNC 97874 8 0 __aeabi_unwind_cpp_pr2
FUNC 9787c 34c 0 _Unwind_VRS_Pop
FUNC 97d70 60 0 next_unwind_byte
FUNC 97dd0 28 0 _Unwind_GetGR
FUNC 97df8 4 0 unwind_UCB_from_context
FUNC 97dfc 37c 0 __gnu_unwind_execute
FUNC 98178 40 0 __gnu_unwind_frame
FUNC 981b8 10 0 _Unwind_GetRegionStart
FUNC 981c8 1c 0 _Unwind_GetLanguageSpecificData
FUNC 981e4 8 0 _Unwind_GetDataRelBase
FUNC 981ec 8 0 _Unwind_GetTextRelBase
FUNC 987e4 478 0 __divdi3
FUNC 98c5c 3e4 0 __udivdi3
PUBLIC 8614 0 ass_library_version
PUBLIC 8620 0 ass_alloc_style
PUBLIC 8a88 0 ass_alloc_event
PUBLIC 98c8 0 ass_free_event
PUBLIC 98fc 0 ass_free_style
PUBLIC 9924 0 ass_free_track
PUBLIC 99f4 0 ass_process_force_style
PUBLIC a038 0 ass_process_data
PUBLIC a0a0 0 ass_process_codec_private
PUBLIC a0cc 0 ass_process_chunk
PUBLIC a22c 0 ass_flush_events
PUBLIC a270 0 ass_read_styles
PUBLIC a2bc 0 ass_step_sub
PUBLIC a3fc 0 ass_new_track
PUBLIC a4bc 0 ass_read_memory
PUBLIC a54c 0 ass_read_file
PUBLIC fff4 0 ass_renderer_init
PUBLIC 1055c 0 ass_renderer_done
PUBLIC 10638 0 ass_render_frame
PUBLIC 14ed8 0 ass_library_init
PUBLIC 14f04 0 ass_set_fonts_dir
PUBLIC 14f2c 0 ass_set_extract_fonts
PUBLIC 14f3c 0 ass_set_style_overrides
PUBLIC 14fd4 0 ass_add_font
PUBLIC 150ac 0 ass_clear_fonts
PUBLIC 15108 0 ass_library_done
PUBLIC 1513c 0 ass_set_message_cb
PUBLIC 18604 0 ass_set_frame_size
PUBLIC 18628 0 ass_set_storage_size
PUBLIC 1864c 0 ass_set_shaper
PUBLIC 18650 0 ass_set_margins
PUBLIC 186a0 0 ass_set_use_margins
PUBLIC 186a8 0 ass_set_pixel_aspect
PUBLIC 186c8 0 ass_set_aspect_ratio
PUBLIC 186dc 0 ass_set_font_scale
PUBLIC 186fc 0 ass_set_hinting
PUBLIC 18710 0 ass_set_line_spacing
PUBLIC 18718 0 ass_set_line_position
PUBLIC 18738 0 ass_set_fonts
PUBLIC 187c0 0 ass_set_selective_style_override_enabled
PUBLIC 187d4 0 ass_set_selective_style_override
PUBLIC 18818 0 ass_fonts_update
PUBLIC 18820 0 ass_set_cache_limits
STACK CFI INIT 965c4 a8 .cfa: sp 0 + .ra: lr
STACK CFI INIT 9668c dc .cfa: sp 0 + .ra: lr
STACK CFI INIT 96b94 38 .cfa: sp 0 + .ra: lr
STACK CFI INIT 96bcc 44 .cfa: sp 0 + .ra: lr
STACK CFI 96bd0 .cfa: sp 16 + .ra: .cfa -4 + ^ r3: .cfa -16 + ^ r4: .cfa -12 + ^ r5: .cfa -8 + ^
STACK CFI INIT 96c10 68 .cfa: sp 0 + .ra: lr
STACK CFI 96c14 .cfa: sp 16 + .ra: .cfa -4 + ^ r4: .cfa -16 + ^ r5: .cfa -12 + ^ r6: .cfa -8 + ^
STACK CFI INIT 96c78 3c .cfa: sp 0 + .ra: lr
STACK CFI 96c7c .cfa: sp 24 + .ra: .cfa -4 + ^ r3: .cfa -24 + ^ r4: .cfa -20 + ^ r5: .cfa -16 + ^ r6: .cfa -12 + ^ r7: .cfa -8 + ^
STACK CFI INIT 96cb4 3c .cfa: sp 0 + .ra: lr
STACK CFI 96cb8 .cfa: sp 24 + .ra: .cfa -4 + ^ r3: .cfa -24 + ^ r4: .cfa -20 + ^ r5: .cfa -16 + ^ r6: .cfa -12 + ^ r7: .cfa -8 + ^
STACK CFI INIT 96cf0 18 .cfa: sp 0 + .ra: lr
STACK CFI INIT 96d08 ac .cfa: sp 0 + .ra: lr
STACK CFI 96d0c .cfa: sp 48 + .ra: .cfa -4 + ^ r0: .cfa -48 + ^ r1: .cfa -44 + ^ r10: .cfa -12 + ^ r11: .cfa -8 + ^ r2: .cfa -40 + ^ r4: .cfa -36 + ^ r5: .cfa -32 + ^ r6: .cfa -28 + ^ r7: .cfa -24 + ^ r8: .cfa -20 + ^ r9: .cfa -16 + ^
STACK CFI INIT 96db4 50 .cfa: sp 0 + .ra: lr
STACK CFI INIT 96e04 10c .cfa: sp 0 + .ra: lr
STACK CFI 96e0c .cfa: sp 24 + .ra: .cfa -4 + ^ r0: .cfa -24 + ^ r1: .cfa -20 + ^ r2: .cfa -16 + ^ r4: .cfa -12 + ^ r5: .cfa -8 + ^
STACK CFI INIT 96f10 6c .cfa: sp 0 + .ra: lr
STACK CFI 96f18 .cfa: sp 8 + .ra: .cfa -4 + ^ r4: .cfa -8 + ^
STACK CFI INIT 96f7c 14 .cfa: sp 0 + .ra: lr
STACK CFI INIT 96f90 8 .cfa: sp 0 + .ra: lr
STACK CFI INIT 96f98 4 .cfa: sp 0 + .ra: lr
STACK CFI INIT 96f9c 64 .cfa: sp 0 + .ra: lr
STACK CFI 96fa0 .cfa: sp 16 + .ra: .cfa -4 + ^ r4: .cfa -16 + ^ r5: .cfa -12 + ^ r6: .cfa -8 + ^
STACK CFI INIT 97000 124 .cfa: sp 0 + .ra: lr
STACK CFI 97004 .cfa: sp 36 + .ra: .cfa -4 + ^ r10: .cfa -12 + ^ r11: .cfa -8 + ^ r4: .cfa -36 + ^ r5: .cfa -32 + ^ r6: .cfa -28 + ^ r7: .cfa -24 + ^ r8: .cfa -20 + ^ r9: .cfa -16 + ^
STACK CFI 97020 .cfa: sp 1008 +
STACK CFI INIT 97124 8 .cfa: sp 0 + .ra: lr
STACK CFI INIT 9712c a4 .cfa: sp 0 + .ra: lr
STACK CFI 97134 .cfa: sp 20 + .ra: .cfa -4 + ^ r4: .cfa -20 + ^ r5: .cfa -16 + ^ r6: .cfa -12 + ^ r7: .cfa -8 + ^
STACK CFI 97148 .cfa: sp 504 +
STACK CFI INIT 971d0 1c .cfa: sp 0 + .ra: lr
STACK CFI INIT 971ec 74 .cfa: sp 0 + .ra: lr
STACK CFI 971f0 .cfa: sp 16 + .ra: .cfa -4 + ^ r4: .cfa -16 + ^ r5: .cfa -12 + ^ r6: .cfa -8 + ^
STACK CFI INIT 97260 20 .cfa: sp 0 + .ra: lr
STACK CFI INIT 97280 4 .cfa: sp 0 + .ra: lr
STACK CFI INIT 97284 20 .cfa: sp 0 + .ra: lr
STACK CFI 97288 .cfa: sp 8 + .ra: .cfa -4 + ^ r3: .cfa -8 + ^
STACK CFI INIT 972a4 5c .cfa: sp 0 + .ra: lr
STACK CFI INIT 97300 28 .cfa: sp 0 + .ra: lr
STACK CFI 97304 .cfa: sp 24 + .ra: .cfa -4 + ^ r0: .cfa -24 + ^ r1: .cfa -20 + ^ r2: .cfa -16 + ^ r3: .cfa -12 + ^ r4: .cfa -8 + ^
STACK CFI INIT 97328 5c .cfa: sp 0 + .ra: lr
STACK CFI INIT 97384 2c .cfa: sp 0 + .ra: lr
STACK CFI 97388 .cfa: sp 24 + .ra: .cfa -4 + ^ r0: .cfa -24 + ^ r1: .cfa -20 + ^ r2: .cfa -16 + ^ r3: .cfa -12 + ^ r4: .cfa -8 + ^
STACK CFI INIT 973b0 c4 .cfa: sp 0 + .ra: lr
STACK CFI 973b8 .cfa: sp 24 + .ra: .cfa -4 + ^ r4: .cfa -24 + ^ r5: .cfa -20 + ^ r6: .cfa -16 + ^ r7: .cfa -12 + ^ r8: .cfa -8 + ^
STACK CFI 973cc .cfa: sp 592 +
STACK CFI INIT 97474 3f0 .cfa: sp 0 + .ra: lr
STACK CFI 97478 .cfa: sp 36 + .ra: .cfa -4 + ^ r10: .cfa -12 + ^ r11: .cfa -8 + ^ r4: .cfa -36 + ^ r5: .cfa -32 + ^ r6: .cfa -28 + ^ r7: .cfa -24 + ^ r8: .cfa -20 + ^ r9: .cfa -16 + ^
STACK CFI 97484 .cfa: sp 72 +
STACK CFI INIT 97864 8 .cfa: sp 0 + .ra: lr
STACK CFI INIT 9786c 8 .cfa: sp 0 + .ra: lr
STACK CFI INIT 97874 8 .cfa: sp 0 + .ra: lr
STACK CFI INIT 9787c 34c .cfa: sp 0 + .ra: lr
STACK CFI 97880 .cfa: sp 28 + .ra: .cfa -4 + ^ r4: .cfa -28 + ^ r5: .cfa -24 + ^ r6: .cfa -20 + ^ r7: .cfa -16 + ^ r8: .cfa -12 + ^ r9: .cfa -8 + ^
STACK CFI 97888 .cfa: sp 296 +
STACK CFI INIT 97d70 60 .cfa: sp 0 + .ra: lr
STACK CFI INIT 97dd0 28 .cfa: sp 0 + .ra: lr
STACK CFI 97dd4 .cfa: sp 24 + .ra: .cfa -4 + ^ r0: .cfa -24 + ^ r1: .cfa -20 + ^ r2: .cfa -16 + ^ r3: .cfa -12 + ^ r4: .cfa -8 + ^
STACK CFI INIT 97df8 4 .cfa: sp 0 + .ra: lr
STACK CFI INIT 97dfc 37c .cfa: sp 0 + .ra: lr
STACK CFI 97e00 .cfa: sp 48 + .ra: .cfa -4 + ^ r0: .cfa -48 + ^ r1: .cfa -44 + ^ r10: .cfa -8 + ^ r2: .cfa -40 + ^ r3: .cfa -36 + ^ r4: .cfa -32 + ^ r5: .cfa -28 + ^ r6: .cfa -24 + ^ r7: .cfa -20 + ^ r8: .cfa -16 + ^ r9: .cfa -12 + ^
STACK CFI INIT 98178 40 .cfa: sp 0 + .ra: lr
STACK CFI 9817c .cfa: sp 24 + .ra: .cfa -4 + ^ r0: .cfa -24 + ^ r1: .cfa -20 + ^ r2: .cfa -16 + ^ r3: .cfa -12 + ^ r4: .cfa -8 + ^
STACK CFI INIT 981b8 10 .cfa: sp 0 + .ra: lr
STACK CFI 981bc .cfa: sp 8 + .ra: .cfa -4 + ^ r3: .cfa -8 + ^
STACK CFI INIT 981c8 1c .cfa: sp 0 + .ra: lr
STACK CFI 981cc .cfa: sp 8 + .ra: .cfa -4 + ^ r3: .cfa -8 + ^
STACK CFI INIT 981e4 8 .cfa: sp 0 + .ra: lr
STACK CFI 981e8 .cfa: sp 8 + .ra: .cfa -4 + ^ r3: .cfa -8 + ^
STACK CFI INIT 981ec 8 .cfa: sp 0 + .ra: lr
STACK CFI 981f0 .cfa: sp 8 + .ra: .cfa -4 + ^ r3: .cfa -8 + ^
STACK CFI INIT 987e4 478 .cfa: sp 0 + .ra: lr
STACK CFI 987f0 .cfa: sp 36 + .ra: .cfa -4 + ^ r10: .cfa -12 + ^ r11: .cfa -8 + ^ r4: .cfa -36 + ^ r5: .cfa -32 + ^ r6: .cfa -28 + ^ r7: .cfa -24 + ^ r8: .cfa -20 + ^ r9: .cfa -16 + ^
STACK CFI 987f8 .cfa: sp 56 +
STACK CFI INIT 98c5c 3e4 .cfa: sp 0 + .ra: lr
STACK CFI 98c64 .cfa: sp 48 + .ra: .cfa -4 + ^ r0: .cfa -48 + ^ r1: .cfa -44 + ^ r10: .cfa -12 + ^ r11: .cfa -8 + ^ r2: .cfa -40 + ^ r4: .cfa -36 + ^ r5: .cfa -32 + ^ r6: .cfa -28 + ^ r7: .cfa -24 + ^ r8: .cfa -20 + ^ r9: .cfa -16 + ^
