MODULE Linux arm F9AF1EB2A4410B0E49928E0DA664CC880 libXBMC_addon-arm.so
FUNC 1140 80 0 XBMC_register_me
FUNC 11c0 20 0 XBMC_unregister_me
FUNC 11e0 24 0 XBMC_log
FUNC 1204 2c 0 XBMC_get_setting
FUNC 1230 24 0 XBMC_queue_notification
FUNC 1254 24 0 XBMC_wake_on_lan
FUNC 1278 24 0 XBMC_unknown_to_utf8
FUNC 129c 30 0 XBMC_get_localized_string
FUNC 12cc 2c 0 XBMC_get_dvd_menu_language
FUNC 12f8 20 0 XBMC_free_string
FUNC 1318 2c 0 XBMC_open_file
FUNC 1344 2c 0 XBMC_open_file_for_write
FUNC 1370 30 0 XBMC_read_file
FUNC 13a0 30 0 XBMC_read_file_string
FUNC 13d0 30 0 XBMC_write_file
FUNC 1400 20 0 XBMC_flush_file
FUNC 1420 40 0 XBMC_seek_file
FUNC 1460 2c 0 XBMC_truncate_file
FUNC 148c 34 0 XBMC_get_file_position
FUNC 14c0 34 0 XBMC_get_file_length
FUNC 14f4 20 0 XBMC_close_file
FUNC 1514 28 0 XBMC_get_file_chunk_size
FUNC 153c 2c 0 XBMC_file_exists
FUNC 1568 2c 0 XBMC_stat_file
FUNC 1594 28 0 XBMC_delete_file
FUNC 15bc 28 0 XBMC_can_open_directory
FUNC 15e4 28 0 XBMC_create_directory
FUNC 160c 28 0 XBMC_directory_exists
FUNC 1634 28 0 XBMC_remove_directory
FUNC 165c 3c 0 XBMC_get_directory
FUNC 1698 24 0 XBMC_free_directory
FUNC 16bc 18 0 selfrel_offset31
FUNC 16d4 ac 0 search_EIT_table
FUNC 1780 50 0 __gnu_unwind_get_pr_addr
FUNC 17d0 10c 0 get_eit_entry
FUNC 18dc 6c 0 restore_non_core_regs
FUNC 1948 14 0 _Unwind_decode_typeinfo_ptr
FUNC 195c 8 0 __gnu_unwind_24bit
FUNC 1964 4 0 _Unwind_DebugHook
FUNC 1968 64 0 unwind_phase2
FUNC 19cc 124 0 unwind_phase2_forced
FUNC 1af0 8 0 _Unwind_GetCFA
FUNC 1af8 a4 0 __gnu_Unwind_RaiseException
FUNC 1b9c 1c 0 __gnu_Unwind_ForcedUnwind
FUNC 1bb8 74 0 __gnu_Unwind_Resume
FUNC 1c2c 20 0 __gnu_Unwind_Resume_or_Rethrow
FUNC 1c4c 4 0 _Unwind_Complete
FUNC 1c50 20 0 _Unwind_DeleteException
FUNC 1c70 5c 0 _Unwind_VRS_Get
FUNC 1ccc 28 0 _Unwind_GetGR
FUNC 1cf4 5c 0 _Unwind_VRS_Set
FUNC 1d50 2c 0 _Unwind_SetGR
FUNC 1d7c c4 0 __gnu_Unwind_Backtrace
FUNC 1e40 3f0 0 __gnu_unwind_pr_common
FUNC 2230 8 0 __aeabi_unwind_cpp_pr0
FUNC 2238 8 0 __aeabi_unwind_cpp_pr1
FUNC 2240 8 0 __aeabi_unwind_cpp_pr2
FUNC 2248 34c 0 _Unwind_VRS_Pop
FUNC 273c 60 0 next_unwind_byte
FUNC 279c 28 0 _Unwind_GetGR
FUNC 27c4 4 0 unwind_UCB_from_context
FUNC 27c8 37c 0 __gnu_unwind_execute
FUNC 2b44 40 0 __gnu_unwind_frame
FUNC 2b84 10 0 _Unwind_GetRegionStart
FUNC 2b94 1c 0 _Unwind_GetLanguageSpecificData
FUNC 2bb0 8 0 _Unwind_GetDataRelBase
FUNC 2bb8 8 0 _Unwind_GetTextRelBase
PUBLIC 1140 0 XBMC_register_me
PUBLIC 11c0 0 XBMC_unregister_me
PUBLIC 11e0 0 XBMC_log
PUBLIC 1204 0 XBMC_get_setting
PUBLIC 1230 0 XBMC_queue_notification
PUBLIC 1254 0 XBMC_wake_on_lan
PUBLIC 1278 0 XBMC_unknown_to_utf8
PUBLIC 129c 0 XBMC_get_localized_string
PUBLIC 12cc 0 XBMC_get_dvd_menu_language
PUBLIC 12f8 0 XBMC_free_string
PUBLIC 1318 0 XBMC_open_file
PUBLIC 1344 0 XBMC_open_file_for_write
PUBLIC 1370 0 XBMC_read_file
PUBLIC 13a0 0 XBMC_read_file_string
PUBLIC 13d0 0 XBMC_write_file
PUBLIC 1400 0 XBMC_flush_file
PUBLIC 1420 0 XBMC_seek_file
PUBLIC 1460 0 XBMC_truncate_file
PUBLIC 148c 0 XBMC_get_file_position
PUBLIC 14c0 0 XBMC_get_file_length
PUBLIC 14f4 0 XBMC_close_file
PUBLIC 1514 0 XBMC_get_file_chunk_size
PUBLIC 153c 0 XBMC_file_exists
PUBLIC 1568 0 XBMC_stat_file
PUBLIC 1594 0 XBMC_delete_file
PUBLIC 15bc 0 XBMC_can_open_directory
PUBLIC 15e4 0 XBMC_create_directory
PUBLIC 160c 0 XBMC_directory_exists
PUBLIC 1634 0 XBMC_remove_directory
PUBLIC 165c 0 XBMC_get_directory
PUBLIC 1698 0 XBMC_free_directory
PUBLIC 1af0 0 _Unwind_GetCFA
PUBLIC 1af8 0 __gnu_Unwind_RaiseException
PUBLIC 1b9c 0 __gnu_Unwind_ForcedUnwind
PUBLIC 1bb8 0 __gnu_Unwind_Resume
PUBLIC 1c2c 0 __gnu_Unwind_Resume_or_Rethrow
PUBLIC 1c4c 0 _Unwind_Complete
PUBLIC 1c50 0 _Unwind_DeleteException
PUBLIC 1c70 0 _Unwind_VRS_Get
PUBLIC 1cf4 0 _Unwind_VRS_Set
PUBLIC 1d7c 0 __gnu_Unwind_Backtrace
PUBLIC 2230 0 __aeabi_unwind_cpp_pr0
PUBLIC 2238 0 __aeabi_unwind_cpp_pr1
PUBLIC 2240 0 __aeabi_unwind_cpp_pr2
PUBLIC 2248 0 _Unwind_VRS_Pop
PUBLIC 2594 0 restore_core_regs
PUBLIC 25a8 0 __gnu_Unwind_Restore_VFP
PUBLIC 25b0 0 __gnu_Unwind_Save_VFP
PUBLIC 25b8 0 __gnu_Unwind_Restore_VFP_D
PUBLIC 25c0 0 __gnu_Unwind_Save_VFP_D
PUBLIC 25c8 0 __gnu_Unwind_Restore_VFP_D_16_to_31
PUBLIC 25d0 0 __gnu_Unwind_Save_VFP_D_16_to_31
PUBLIC 25d8 0 __gnu_Unwind_Restore_WMMXD
PUBLIC 261c 0 __gnu_Unwind_Save_WMMXD
PUBLIC 2660 0 __gnu_Unwind_Restore_WMMXC
PUBLIC 2674 0 __gnu_Unwind_Save_WMMXC
PUBLIC 2688 0 ___Unwind_RaiseException
PUBLIC 26ac 0 ___Unwind_Resume
PUBLIC 26d0 0 ___Unwind_Resume_or_Rethrow
PUBLIC 26f4 0 ___Unwind_ForcedUnwind
PUBLIC 2718 0 ___Unwind_Backtrace
PUBLIC 27c8 0 __gnu_unwind_execute
PUBLIC 2b44 0 __gnu_unwind_frame
PUBLIC 2b84 0 _Unwind_GetRegionStart
PUBLIC 2b94 0 _Unwind_GetLanguageSpecificData
PUBLIC 2bb0 0 _Unwind_GetDataRelBase
PUBLIC 2bb8 0 _Unwind_GetTextRelBase
STACK CFI INIT 1140 80 .cfa: sp 0 + .ra: lr
STACK CFI 1148 .cfa: sp 8 + .ra: .cfa -4 + ^ r4: .cfa -8 + ^
STACK CFI INIT 11c0 20 .cfa: sp 0 + .ra: lr
STACK CFI 11cc .cfa: sp 8 + .ra: .cfa -4 + ^ r3: .cfa -8 + ^
STACK CFI INIT 11e0 24 .cfa: sp 0 + .ra: lr
STACK CFI 11e8 .cfa: sp 8 + .ra: .cfa -4 + ^ r3: .cfa -8 + ^
STACK CFI INIT 1204 2c .cfa: sp 0 + .ra: lr
STACK CFI 120c .cfa: sp 8 + .ra: .cfa -4 + ^ r3: .cfa -8 + ^
STACK CFI INIT 1230 24 .cfa: sp 0 + .ra: lr
STACK CFI 1238 .cfa: sp 8 + .ra: .cfa -4 + ^ r3: .cfa -8 + ^
STACK CFI INIT 1254 24 .cfa: sp 0 + .ra: lr
STACK CFI 125c .cfa: sp 8 + .ra: .cfa -4 + ^ r3: .cfa -8 + ^
STACK CFI INIT 1278 24 .cfa: sp 0 + .ra: lr
STACK CFI 1280 .cfa: sp 8 + .ra: .cfa -4 + ^ r3: .cfa -8 + ^
STACK CFI INIT 129c 30 .cfa: sp 0 + .ra: lr
STACK CFI 12a4 .cfa: sp 8 + .ra: .cfa -4 + ^ r3: .cfa -8 + ^
STACK CFI INIT 12cc 2c .cfa: sp 0 + .ra: lr
STACK CFI 12d4 .cfa: sp 8 + .ra: .cfa -4 + ^ r3: .cfa -8 + ^
STACK CFI INIT 12f8 20 .cfa: sp 0 + .ra: lr
STACK CFI 1300 .cfa: sp 8 + .ra: .cfa -4 + ^ r3: .cfa -8 + ^
STACK CFI INIT 1318 2c .cfa: sp 0 + .ra: lr
STACK CFI 1320 .cfa: sp 8 + .ra: .cfa -4 + ^ r3: .cfa -8 + ^
STACK CFI INIT 1344 2c .cfa: sp 0 + .ra: lr
STACK CFI 134c .cfa: sp 8 + .ra: .cfa -4 + ^ r3: .cfa -8 + ^
STACK CFI INIT 1370 30 .cfa: sp 0 + .ra: lr
STACK CFI 1378 .cfa: sp 8 + .ra: .cfa -4 + ^ r3: .cfa -8 + ^
STACK CFI INIT 13a0 30 .cfa: sp 0 + .ra: lr
STACK CFI 13a8 .cfa: sp 8 + .ra: .cfa -4 + ^ r3: .cfa -8 + ^
STACK CFI INIT 13d0 30 .cfa: sp 0 + .ra: lr
STACK CFI 13d8 .cfa: sp 8 + .ra: .cfa -4 + ^ r3: .cfa -8 + ^
STACK CFI INIT 1400 20 .cfa: sp 0 + .ra: lr
STACK CFI 1408 .cfa: sp 8 + .ra: .cfa -4 + ^ r3: .cfa -8 + ^
STACK CFI INIT 1420 40 .cfa: sp 0 + .ra: lr
STACK CFI 1428 .cfa: sp 12 + .ra: .cfa -4 + ^ r4: .cfa -12 + ^ r5: .cfa -8 + ^
STACK CFI 1430 .cfa: sp 24 +
STACK CFI INIT 1460 2c .cfa: sp 0 + .ra: lr
STACK CFI 1468 .cfa: sp 16 + .ra: .cfa -4 + ^ r3: .cfa -16 + ^ r4: .cfa -12 + ^ r5: .cfa -8 + ^
STACK CFI INIT 148c 34 .cfa: sp 0 + .ra: lr
STACK CFI 1494 .cfa: sp 8 + .ra: .cfa -4 + ^ r3: .cfa -8 + ^
STACK CFI INIT 14c0 34 .cfa: sp 0 + .ra: lr
STACK CFI 14c8 .cfa: sp 8 + .ra: .cfa -4 + ^ r3: .cfa -8 + ^
STACK CFI INIT 14f4 20 .cfa: sp 0 + .ra: lr
STACK CFI 14fc .cfa: sp 8 + .ra: .cfa -4 + ^ r3: .cfa -8 + ^
STACK CFI INIT 1514 28 .cfa: sp 0 + .ra: lr
STACK CFI 151c .cfa: sp 8 + .ra: .cfa -4 + ^ r3: .cfa -8 + ^
STACK CFI INIT 153c 2c .cfa: sp 0 + .ra: lr
STACK CFI 1544 .cfa: sp 8 + .ra: .cfa -4 + ^ r3: .cfa -8 + ^
STACK CFI INIT 1568 2c .cfa: sp 0 + .ra: lr
STACK CFI 1570 .cfa: sp 8 + .ra: .cfa -4 + ^ r3: .cfa -8 + ^
STACK CFI INIT 1594 28 .cfa: sp 0 + .ra: lr
STACK CFI 159c .cfa: sp 8 + .ra: .cfa -4 + ^ r3: .cfa -8 + ^
STACK CFI INIT 15bc 28 .cfa: sp 0 + .ra: lr
STACK CFI 15c4 .cfa: sp 8 + .ra: .cfa -4 + ^ r3: .cfa -8 + ^
STACK CFI INIT 15e4 28 .cfa: sp 0 + .ra: lr
STACK CFI 15ec .cfa: sp 8 + .ra: .cfa -4 + ^ r3: .cfa -8 + ^
STACK CFI INIT 160c 28 .cfa: sp 0 + .ra: lr
STACK CFI 1614 .cfa: sp 8 + .ra: .cfa -4 + ^ r3: .cfa -8 + ^
STACK CFI INIT 1634 28 .cfa: sp 0 + .ra: lr
STACK CFI 163c .cfa: sp 8 + .ra: .cfa -4 + ^ r3: .cfa -8 + ^
STACK CFI INIT 165c 3c .cfa: sp 0 + .ra: lr
STACK CFI 1664 .cfa: sp 4 + .ra: .cfa -4 + ^
STACK CFI 166c .cfa: sp 16 +
STACK CFI INIT 1698 24 .cfa: sp 0 + .ra: lr
STACK CFI 16a0 .cfa: sp 8 + .ra: .cfa -4 + ^ r3: .cfa -8 + ^
STACK CFI INIT 16bc 18 .cfa: sp 0 + .ra: lr
STACK CFI INIT 16d4 ac .cfa: sp 0 + .ra: lr
STACK CFI 16d8 .cfa: sp 48 + .ra: .cfa -4 + ^ r0: .cfa -48 + ^ r1: .cfa -44 + ^ r10: .cfa -12 + ^ r11: .cfa -8 + ^ r2: .cfa -40 + ^ r4: .cfa -36 + ^ r5: .cfa -32 + ^ r6: .cfa -28 + ^ r7: .cfa -24 + ^ r8: .cfa -20 + ^ r9: .cfa -16 + ^
STACK CFI INIT 1780 50 .cfa: sp 0 + .ra: lr
STACK CFI INIT 17d0 10c .cfa: sp 0 + .ra: lr
STACK CFI 17d8 .cfa: sp 24 + .ra: .cfa -4 + ^ r0: .cfa -24 + ^ r1: .cfa -20 + ^ r2: .cfa -16 + ^ r4: .cfa -12 + ^ r5: .cfa -8 + ^
STACK CFI INIT 18dc 6c .cfa: sp 0 + .ra: lr
STACK CFI 18e4 .cfa: sp 8 + .ra: .cfa -4 + ^ r4: .cfa -8 + ^
STACK CFI INIT 1948 14 .cfa: sp 0 + .ra: lr
STACK CFI INIT 195c 8 .cfa: sp 0 + .ra: lr
STACK CFI INIT 1964 4 .cfa: sp 0 + .ra: lr
STACK CFI INIT 1968 64 .cfa: sp 0 + .ra: lr
STACK CFI 196c .cfa: sp 16 + .ra: .cfa -4 + ^ r4: .cfa -16 + ^ r5: .cfa -12 + ^ r6: .cfa -8 + ^
STACK CFI INIT 19cc 124 .cfa: sp 0 + .ra: lr
STACK CFI 19d0 .cfa: sp 36 + .ra: .cfa -4 + ^ r10: .cfa -12 + ^ r11: .cfa -8 + ^ r4: .cfa -36 + ^ r5: .cfa -32 + ^ r6: .cfa -28 + ^ r7: .cfa -24 + ^ r8: .cfa -20 + ^ r9: .cfa -16 + ^
STACK CFI 19ec .cfa: sp 1008 +
STACK CFI INIT 1af0 8 .cfa: sp 0 + .ra: lr
STACK CFI INIT 1af8 a4 .cfa: sp 0 + .ra: lr
STACK CFI 1b00 .cfa: sp 20 + .ra: .cfa -4 + ^ r4: .cfa -20 + ^ r5: .cfa -16 + ^ r6: .cfa -12 + ^ r7: .cfa -8 + ^
STACK CFI 1b14 .cfa: sp 504 +
STACK CFI INIT 1b9c 1c .cfa: sp 0 + .ra: lr
STACK CFI INIT 1bb8 74 .cfa: sp 0 + .ra: lr
STACK CFI 1bbc .cfa: sp 16 + .ra: .cfa -4 + ^ r4: .cfa -16 + ^ r5: .cfa -12 + ^ r6: .cfa -8 + ^
STACK CFI INIT 1c2c 20 .cfa: sp 0 + .ra: lr
STACK CFI INIT 1c4c 4 .cfa: sp 0 + .ra: lr
STACK CFI INIT 1c50 20 .cfa: sp 0 + .ra: lr
STACK CFI 1c54 .cfa: sp 8 + .ra: .cfa -4 + ^ r3: .cfa -8 + ^
STACK CFI INIT 1c70 5c .cfa: sp 0 + .ra: lr
STACK CFI INIT 1ccc 28 .cfa: sp 0 + .ra: lr
STACK CFI 1cd0 .cfa: sp 24 + .ra: .cfa -4 + ^ r0: .cfa -24 + ^ r1: .cfa -20 + ^ r2: .cfa -16 + ^ r3: .cfa -12 + ^ r4: .cfa -8 + ^
STACK CFI INIT 1cf4 5c .cfa: sp 0 + .ra: lr
STACK CFI INIT 1d50 2c .cfa: sp 0 + .ra: lr
STACK CFI 1d54 .cfa: sp 24 + .ra: .cfa -4 + ^ r0: .cfa -24 + ^ r1: .cfa -20 + ^ r2: .cfa -16 + ^ r3: .cfa -12 + ^ r4: .cfa -8 + ^
STACK CFI INIT 1d7c c4 .cfa: sp 0 + .ra: lr
STACK CFI 1d84 .cfa: sp 24 + .ra: .cfa -4 + ^ r4: .cfa -24 + ^ r5: .cfa -20 + ^ r6: .cfa -16 + ^ r7: .cfa -12 + ^ r8: .cfa -8 + ^
STACK CFI 1d98 .cfa: sp 592 +
STACK CFI INIT 1e40 3f0 .cfa: sp 0 + .ra: lr
STACK CFI 1e44 .cfa: sp 36 + .ra: .cfa -4 + ^ r10: .cfa -12 + ^ r11: .cfa -8 + ^ r4: .cfa -36 + ^ r5: .cfa -32 + ^ r6: .cfa -28 + ^ r7: .cfa -24 + ^ r8: .cfa -20 + ^ r9: .cfa -16 + ^
STACK CFI 1e50 .cfa: sp 72 +
STACK CFI INIT 2230 8 .cfa: sp 0 + .ra: lr
STACK CFI INIT 2238 8 .cfa: sp 0 + .ra: lr
STACK CFI INIT 2240 8 .cfa: sp 0 + .ra: lr
STACK CFI INIT 2248 34c .cfa: sp 0 + .ra: lr
STACK CFI 224c .cfa: sp 28 + .ra: .cfa -4 + ^ r4: .cfa -28 + ^ r5: .cfa -24 + ^ r6: .cfa -20 + ^ r7: .cfa -16 + ^ r8: .cfa -12 + ^ r9: .cfa -8 + ^
STACK CFI 2254 .cfa: sp 296 +
STACK CFI INIT 273c 60 .cfa: sp 0 + .ra: lr
STACK CFI INIT 279c 28 .cfa: sp 0 + .ra: lr
STACK CFI 27a0 .cfa: sp 24 + .ra: .cfa -4 + ^ r0: .cfa -24 + ^ r1: .cfa -20 + ^ r2: .cfa -16 + ^ r3: .cfa -12 + ^ r4: .cfa -8 + ^
STACK CFI INIT 27c4 4 .cfa: sp 0 + .ra: lr
STACK CFI INIT 27c8 37c .cfa: sp 0 + .ra: lr
STACK CFI 27cc .cfa: sp 48 + .ra: .cfa -4 + ^ r0: .cfa -48 + ^ r1: .cfa -44 + ^ r10: .cfa -8 + ^ r2: .cfa -40 + ^ r3: .cfa -36 + ^ r4: .cfa -32 + ^ r5: .cfa -28 + ^ r6: .cfa -24 + ^ r7: .cfa -20 + ^ r8: .cfa -16 + ^ r9: .cfa -12 + ^
STACK CFI INIT 2b44 40 .cfa: sp 0 + .ra: lr
STACK CFI 2b48 .cfa: sp 24 + .ra: .cfa -4 + ^ r0: .cfa -24 + ^ r1: .cfa -20 + ^ r2: .cfa -16 + ^ r3: .cfa -12 + ^ r4: .cfa -8 + ^
STACK CFI INIT 2b84 10 .cfa: sp 0 + .ra: lr
STACK CFI 2b88 .cfa: sp 8 + .ra: .cfa -4 + ^ r3: .cfa -8 + ^
STACK CFI INIT 2b94 1c .cfa: sp 0 + .ra: lr
STACK CFI 2b98 .cfa: sp 8 + .ra: .cfa -4 + ^ r3: .cfa -8 + ^
STACK CFI INIT 2bb0 8 .cfa: sp 0 + .ra: lr
STACK CFI 2bb4 .cfa: sp 8 + .ra: .cfa -4 + ^ r3: .cfa -8 + ^
STACK CFI INIT 2bb8 8 .cfa: sp 0 + .ra: lr
STACK CFI 2bbc .cfa: sp 8 + .ra: .cfa -4 + ^ r3: .cfa -8 + ^
