MODULE Linux arm 3BD505D28EC7D9E3262DF6137D9CDAAB0 libbluray.so
FUNC 28a0c 3c 0 __gnu_ldivmod_helper
FUNC 28a48 3c 0 __gnu_uldivmod_helper
FUNC 28a84 18 0 selfrel_offset31
FUNC 28a9c ac 0 search_EIT_table
FUNC 28b48 50 0 __gnu_unwind_get_pr_addr
FUNC 28b98 10c 0 get_eit_entry
FUNC 28ca4 6c 0 restore_non_core_regs
FUNC 28d10 14 0 _Unwind_decode_typeinfo_ptr
FUNC 28d24 8 0 __gnu_unwind_24bit
FUNC 28d2c 4 0 _Unwind_DebugHook
FUNC 28d30 64 0 unwind_phase2
FUNC 28d94 124 0 unwind_phase2_forced
FUNC 28eb8 8 0 _Unwind_GetCFA
FUNC 28ec0 a4 0 __gnu_Unwind_RaiseException
FUNC 28f64 1c 0 __gnu_Unwind_ForcedUnwind
FUNC 28f80 74 0 __gnu_Unwind_Resume
FUNC 28ff4 20 0 __gnu_Unwind_Resume_or_Rethrow
FUNC 29014 4 0 _Unwind_Complete
FUNC 29018 20 0 _Unwind_DeleteException
FUNC 29038 5c 0 _Unwind_VRS_Get
FUNC 29094 28 0 _Unwind_GetGR
FUNC 290bc 5c 0 _Unwind_VRS_Set
FUNC 29118 2c 0 _Unwind_SetGR
FUNC 29144 c4 0 __gnu_Unwind_Backtrace
FUNC 29208 3f0 0 __gnu_unwind_pr_common
FUNC 295f8 8 0 __aeabi_unwind_cpp_pr0
FUNC 29600 8 0 __aeabi_unwind_cpp_pr1
FUNC 29608 8 0 __aeabi_unwind_cpp_pr2
FUNC 29610 34c 0 _Unwind_VRS_Pop
FUNC 29b04 60 0 next_unwind_byte
FUNC 29b64 28 0 _Unwind_GetGR
FUNC 29b8c 4 0 unwind_UCB_from_context
FUNC 29b90 37c 0 __gnu_unwind_execute
FUNC 29f0c 40 0 __gnu_unwind_frame
FUNC 29f4c 10 0 _Unwind_GetRegionStart
FUNC 29f5c 1c 0 _Unwind_GetLanguageSpecificData
FUNC 29f78 8 0 _Unwind_GetDataRelBase
FUNC 29f80 8 0 _Unwind_GetTextRelBase
FUNC 29f88 478 0 __divdi3
FUNC 2a400 3e4 0 __udivdi3
PUBLIC 2a88 0 bd_register_file
PUBLIC 2aa4 0 bd_register_dir
PUBLIC 63b4 0 bd_get_version
PUBLIC 63d8 0 bd_get_disc_info
PUBLIC 63e0 0 bd_init
PUBLIC 6530 0 bd_close
PUBLIC 66c0 0 bd_tell_time
PUBLIC 675c 0 bd_chapter_pos
PUBLIC 67c8 0 bd_get_current_chapter
PUBLIC 6bf8 0 bd_seek_time
PUBLIC 6d84 0 bd_seek_chapter
PUBLIC 74b4 0 bd_seek_playitem
PUBLIC 75c8 0 bd_seek_mark
PUBLIC 76e4 0 bd_seek
PUBLIC 77e8 0 bd_get_title_size
PUBLIC 7834 0 bd_tell
PUBLIC 786c 0 bd_read
PUBLIC 889c 0 bd_read_skip_still
PUBLIC 8910 0 bd_select_playlist
PUBLIC 8ec0 0 bd_select_title
PUBLIC 8fac 0 bd_get_current_title
PUBLIC 8fb4 0 bd_select_angle
PUBLIC 90cc 0 bd_get_current_angle
PUBLIC 90f8 0 bd_seamless_angle_change
PUBLIC 9164 0 bd_get_titles
PUBLIC 926c 0 bd_get_main_title
PUBLIC 9324 0 bd_get_title_info
PUBLIC 9460 0 bd_get_playlist_info
PUBLIC 9510 0 bd_free_title_info
PUBLIC 95f0 0 bd_set_player_setting
PUBLIC 96f4 0 bd_set_player_setting_str
PUBLIC 974c 0 bd_select_stream
PUBLIC 97a4 0 bd_start_bdj
PUBLIC 9914 0 bd_stop_bdj
PUBLIC 992c 0 bd_play
PUBLIC 9bb8 0 bd_play_title
PUBLIC 9c98 0 bd_menu_call
PUBLIC 9fa4 0 bd_read_ext
PUBLIC b69c 0 bd_get_event
PUBLIC b7c4 0 bd_set_scr
PUBLIC b808 0 bd_mouse_select
PUBLIC bce8 0 bd_user_input
PUBLIC c1c4 0 bd_register_overlay_proc
PUBLIC c218 0 bd_register_argb_overlay_proc
PUBLIC c21c 0 bd_get_sound_effect
PUBLIC c2ac 0 bd_get_meta
PUBLIC c9b8 0 bd_open_disc
PUBLIC cad0 0 bd_open
PUBLIC cb18 0 bd_open_stream
PUBLIC cbec 0 bd_get_clpi
PUBLIC cc20 0 bd_read_clpi
PUBLIC cc24 0 bd_free_clpi
PUBLIC cc28 0 bd_read_mpls
PUBLIC cc2c 0 bd_free_mpls
PUBLIC cc30 0 bd_read_mobj
PUBLIC cc34 0 bd_free_mobj
PUBLIC cc54 0 bd_read_bdjo
PUBLIC cc5c 0 bd_free_bdjo
PUBLIC ccd8 0 bd_psr_lock
PUBLIC cce4 0 bd_psr_unlock
PUBLIC ccf0 0 bd_psr_register_cb
PUBLIC cdec 0 bd_psr_unregister_cb
PUBLIC ce84 0 bd_psr_save_state
PUBLIC cf44 0 bd_psr_reset_backup_registers
PUBLIC cf9c 0 bd_psr_restore_state
PUBLIC d180 0 bd_gpr_write
PUBLIC d200 0 bd_gpr_read
PUBLIC d26c 0 bd_psr_read
PUBLIC d2f4 0 bd_psr_setting_write
PUBLIC d4f4 0 bd_psr_write
PUBLIC d598 0 bd_psr_write_bits
PUBLIC 26f18 0 bd_set_debug_handler
PUBLIC 26f2c 0 bd_set_debug_mask
PUBLIC 26f40 0 bd_get_debug_mask
PUBLIC 27684 0 bd_refcnt_inc
PUBLIC 276d8 0 bd_refcnt_dec
PUBLIC 287b8 0 __aeabi_uidiv
PUBLIC 28860 0 __aeabi_uidivmod
PUBLIC 28880 0 __divsi3
PUBLIC 2895c 0 __aeabi_idivmod
PUBLIC 2897c 0 __aeabi_ldivmod
PUBLIC 289c0 0 __aeabi_uldivmod
PUBLIC 289fc 0 __aeabi_idiv0
PUBLIC 28a0c 0 __gnu_ldivmod_helper
PUBLIC 28a48 0 __gnu_uldivmod_helper
PUBLIC 28eb8 0 _Unwind_GetCFA
PUBLIC 28ec0 0 __gnu_Unwind_RaiseException
PUBLIC 28f64 0 __gnu_Unwind_ForcedUnwind
PUBLIC 28f80 0 __gnu_Unwind_Resume
PUBLIC 28ff4 0 __gnu_Unwind_Resume_or_Rethrow
PUBLIC 29014 0 _Unwind_Complete
PUBLIC 29018 0 _Unwind_DeleteException
PUBLIC 29038 0 _Unwind_VRS_Get
PUBLIC 290bc 0 _Unwind_VRS_Set
PUBLIC 29144 0 __gnu_Unwind_Backtrace
PUBLIC 295f8 0 __aeabi_unwind_cpp_pr0
PUBLIC 29600 0 __aeabi_unwind_cpp_pr1
PUBLIC 29608 0 __aeabi_unwind_cpp_pr2
PUBLIC 29610 0 _Unwind_VRS_Pop
PUBLIC 2995c 0 restore_core_regs
PUBLIC 29970 0 __gnu_Unwind_Restore_VFP
PUBLIC 29978 0 __gnu_Unwind_Save_VFP
PUBLIC 29980 0 __gnu_Unwind_Restore_VFP_D
PUBLIC 29988 0 __gnu_Unwind_Save_VFP_D
PUBLIC 29990 0 __gnu_Unwind_Restore_VFP_D_16_to_31
PUBLIC 29998 0 __gnu_Unwind_Save_VFP_D_16_to_31
PUBLIC 299a0 0 __gnu_Unwind_Restore_WMMXD
PUBLIC 299e4 0 __gnu_Unwind_Save_WMMXD
PUBLIC 29a28 0 __gnu_Unwind_Restore_WMMXC
PUBLIC 29a3c 0 __gnu_Unwind_Save_WMMXC
PUBLIC 29a50 0 ___Unwind_RaiseException
PUBLIC 29a74 0 ___Unwind_Resume
PUBLIC 29a98 0 ___Unwind_Resume_or_Rethrow
PUBLIC 29abc 0 ___Unwind_ForcedUnwind
PUBLIC 29ae0 0 ___Unwind_Backtrace
PUBLIC 29b90 0 __gnu_unwind_execute
PUBLIC 29f0c 0 __gnu_unwind_frame
PUBLIC 29f4c 0 _Unwind_GetRegionStart
PUBLIC 29f5c 0 _Unwind_GetLanguageSpecificData
PUBLIC 29f78 0 _Unwind_GetDataRelBase
PUBLIC 29f80 0 _Unwind_GetTextRelBase
PUBLIC 29f88 0 __divdi3
PUBLIC 2a400 0 __udivdi3
STACK CFI INIT 287b8 a8 .cfa: sp 0 + .ra: lr
STACK CFI INIT 28880 dc .cfa: sp 0 + .ra: lr
STACK CFI INIT 28a0c 3c .cfa: sp 0 + .ra: lr
STACK CFI 28a10 .cfa: sp 24 + .ra: .cfa -4 + ^ r3: .cfa -24 + ^ r4: .cfa -20 + ^ r5: .cfa -16 + ^ r6: .cfa -12 + ^ r7: .cfa -8 + ^
STACK CFI INIT 28a48 3c .cfa: sp 0 + .ra: lr
STACK CFI 28a4c .cfa: sp 24 + .ra: .cfa -4 + ^ r3: .cfa -24 + ^ r4: .cfa -20 + ^ r5: .cfa -16 + ^ r6: .cfa -12 + ^ r7: .cfa -8 + ^
STACK CFI INIT 28a84 18 .cfa: sp 0 + .ra: lr
STACK CFI INIT 28a9c ac .cfa: sp 0 + .ra: lr
STACK CFI 28aa0 .cfa: sp 48 + .ra: .cfa -4 + ^ r0: .cfa -48 + ^ r1: .cfa -44 + ^ r10: .cfa -12 + ^ r11: .cfa -8 + ^ r2: .cfa -40 + ^ r4: .cfa -36 + ^ r5: .cfa -32 + ^ r6: .cfa -28 + ^ r7: .cfa -24 + ^ r8: .cfa -20 + ^ r9: .cfa -16 + ^
STACK CFI INIT 28b48 50 .cfa: sp 0 + .ra: lr
STACK CFI INIT 28b98 10c .cfa: sp 0 + .ra: lr
STACK CFI 28ba0 .cfa: sp 24 + .ra: .cfa -4 + ^ r0: .cfa -24 + ^ r1: .cfa -20 + ^ r2: .cfa -16 + ^ r4: .cfa -12 + ^ r5: .cfa -8 + ^
STACK CFI INIT 28ca4 6c .cfa: sp 0 + .ra: lr
STACK CFI 28cac .cfa: sp 8 + .ra: .cfa -4 + ^ r4: .cfa -8 + ^
STACK CFI INIT 28d10 14 .cfa: sp 0 + .ra: lr
STACK CFI INIT 28d24 8 .cfa: sp 0 + .ra: lr
STACK CFI INIT 28d2c 4 .cfa: sp 0 + .ra: lr
STACK CFI INIT 28d30 64 .cfa: sp 0 + .ra: lr
STACK CFI 28d34 .cfa: sp 16 + .ra: .cfa -4 + ^ r4: .cfa -16 + ^ r5: .cfa -12 + ^ r6: .cfa -8 + ^
STACK CFI INIT 28d94 124 .cfa: sp 0 + .ra: lr
STACK CFI 28d98 .cfa: sp 36 + .ra: .cfa -4 + ^ r10: .cfa -12 + ^ r11: .cfa -8 + ^ r4: .cfa -36 + ^ r5: .cfa -32 + ^ r6: .cfa -28 + ^ r7: .cfa -24 + ^ r8: .cfa -20 + ^ r9: .cfa -16 + ^
STACK CFI 28db4 .cfa: sp 1008 +
STACK CFI INIT 28eb8 8 .cfa: sp 0 + .ra: lr
STACK CFI INIT 28ec0 a4 .cfa: sp 0 + .ra: lr
STACK CFI 28ec8 .cfa: sp 20 + .ra: .cfa -4 + ^ r4: .cfa -20 + ^ r5: .cfa -16 + ^ r6: .cfa -12 + ^ r7: .cfa -8 + ^
STACK CFI 28edc .cfa: sp 504 +
STACK CFI INIT 28f64 1c .cfa: sp 0 + .ra: lr
STACK CFI INIT 28f80 74 .cfa: sp 0 + .ra: lr
STACK CFI 28f84 .cfa: sp 16 + .ra: .cfa -4 + ^ r4: .cfa -16 + ^ r5: .cfa -12 + ^ r6: .cfa -8 + ^
STACK CFI INIT 28ff4 20 .cfa: sp 0 + .ra: lr
STACK CFI INIT 29014 4 .cfa: sp 0 + .ra: lr
STACK CFI INIT 29018 20 .cfa: sp 0 + .ra: lr
STACK CFI 2901c .cfa: sp 8 + .ra: .cfa -4 + ^ r3: .cfa -8 + ^
STACK CFI INIT 29038 5c .cfa: sp 0 + .ra: lr
STACK CFI INIT 29094 28 .cfa: sp 0 + .ra: lr
STACK CFI 29098 .cfa: sp 24 + .ra: .cfa -4 + ^ r0: .cfa -24 + ^ r1: .cfa -20 + ^ r2: .cfa -16 + ^ r3: .cfa -12 + ^ r4: .cfa -8 + ^
STACK CFI INIT 290bc 5c .cfa: sp 0 + .ra: lr
STACK CFI INIT 29118 2c .cfa: sp 0 + .ra: lr
STACK CFI 2911c .cfa: sp 24 + .ra: .cfa -4 + ^ r0: .cfa -24 + ^ r1: .cfa -20 + ^ r2: .cfa -16 + ^ r3: .cfa -12 + ^ r4: .cfa -8 + ^
STACK CFI INIT 29144 c4 .cfa: sp 0 + .ra: lr
STACK CFI 2914c .cfa: sp 24 + .ra: .cfa -4 + ^ r4: .cfa -24 + ^ r5: .cfa -20 + ^ r6: .cfa -16 + ^ r7: .cfa -12 + ^ r8: .cfa -8 + ^
STACK CFI 29160 .cfa: sp 592 +
STACK CFI INIT 29208 3f0 .cfa: sp 0 + .ra: lr
STACK CFI 2920c .cfa: sp 36 + .ra: .cfa -4 + ^ r10: .cfa -12 + ^ r11: .cfa -8 + ^ r4: .cfa -36 + ^ r5: .cfa -32 + ^ r6: .cfa -28 + ^ r7: .cfa -24 + ^ r8: .cfa -20 + ^ r9: .cfa -16 + ^
STACK CFI 29218 .cfa: sp 72 +
STACK CFI INIT 295f8 8 .cfa: sp 0 + .ra: lr
STACK CFI INIT 29600 8 .cfa: sp 0 + .ra: lr
STACK CFI INIT 29608 8 .cfa: sp 0 + .ra: lr
STACK CFI INIT 29610 34c .cfa: sp 0 + .ra: lr
STACK CFI 29614 .cfa: sp 28 + .ra: .cfa -4 + ^ r4: .cfa -28 + ^ r5: .cfa -24 + ^ r6: .cfa -20 + ^ r7: .cfa -16 + ^ r8: .cfa -12 + ^ r9: .cfa -8 + ^
STACK CFI 2961c .cfa: sp 296 +
STACK CFI INIT 29b04 60 .cfa: sp 0 + .ra: lr
STACK CFI INIT 29b64 28 .cfa: sp 0 + .ra: lr
STACK CFI 29b68 .cfa: sp 24 + .ra: .cfa -4 + ^ r0: .cfa -24 + ^ r1: .cfa -20 + ^ r2: .cfa -16 + ^ r3: .cfa -12 + ^ r4: .cfa -8 + ^
STACK CFI INIT 29b8c 4 .cfa: sp 0 + .ra: lr
STACK CFI INIT 29b90 37c .cfa: sp 0 + .ra: lr
STACK CFI 29b94 .cfa: sp 48 + .ra: .cfa -4 + ^ r0: .cfa -48 + ^ r1: .cfa -44 + ^ r10: .cfa -8 + ^ r2: .cfa -40 + ^ r3: .cfa -36 + ^ r4: .cfa -32 + ^ r5: .cfa -28 + ^ r6: .cfa -24 + ^ r7: .cfa -20 + ^ r8: .cfa -16 + ^ r9: .cfa -12 + ^
STACK CFI INIT 29f0c 40 .cfa: sp 0 + .ra: lr
STACK CFI 29f10 .cfa: sp 24 + .ra: .cfa -4 + ^ r0: .cfa -24 + ^ r1: .cfa -20 + ^ r2: .cfa -16 + ^ r3: .cfa -12 + ^ r4: .cfa -8 + ^
STACK CFI INIT 29f4c 10 .cfa: sp 0 + .ra: lr
STACK CFI 29f50 .cfa: sp 8 + .ra: .cfa -4 + ^ r3: .cfa -8 + ^
STACK CFI INIT 29f5c 1c .cfa: sp 0 + .ra: lr
STACK CFI 29f60 .cfa: sp 8 + .ra: .cfa -4 + ^ r3: .cfa -8 + ^
STACK CFI INIT 29f78 8 .cfa: sp 0 + .ra: lr
STACK CFI 29f7c .cfa: sp 8 + .ra: .cfa -4 + ^ r3: .cfa -8 + ^
STACK CFI INIT 29f80 8 .cfa: sp 0 + .ra: lr
STACK CFI 29f84 .cfa: sp 8 + .ra: .cfa -4 + ^ r3: .cfa -8 + ^
STACK CFI INIT 29f88 478 .cfa: sp 0 + .ra: lr
STACK CFI 29f94 .cfa: sp 36 + .ra: .cfa -4 + ^ r10: .cfa -12 + ^ r11: .cfa -8 + ^ r4: .cfa -36 + ^ r5: .cfa -32 + ^ r6: .cfa -28 + ^ r7: .cfa -24 + ^ r8: .cfa -20 + ^ r9: .cfa -16 + ^
STACK CFI 29f9c .cfa: sp 56 +
STACK CFI INIT 2a400 3e4 .cfa: sp 0 + .ra: lr
STACK CFI 2a408 .cfa: sp 48 + .ra: .cfa -4 + ^ r0: .cfa -48 + ^ r1: .cfa -44 + ^ r10: .cfa -12 + ^ r11: .cfa -8 + ^ r2: .cfa -40 + ^ r4: .cfa -36 + ^ r5: .cfa -32 + ^ r6: .cfa -28 + ^ r7: .cfa -24 + ^ r8: .cfa -20 + ^ r9: .cfa -16 + ^
