MODULE Linux arm 13FF4F281002E1D2EDEC8F879A090A1A0 libsmbclient.so
FUNC 3d8088 44 0 __fixdfdi
FUNC 3d80cc 68 0 __fixunsdfdi
FUNC 3d8134 3c 0 __gnu_ldivmod_helper
FUNC 3d8170 3c 0 __gnu_uldivmod_helper
FUNC 3d81ac 18 0 selfrel_offset31
FUNC 3d81c4 ac 0 search_EIT_table
FUNC 3d8270 50 0 __gnu_unwind_get_pr_addr
FUNC 3d82c0 10c 0 get_eit_entry
FUNC 3d83cc 6c 0 restore_non_core_regs
FUNC 3d8438 14 0 _Unwind_decode_typeinfo_ptr
FUNC 3d844c 8 0 __gnu_unwind_24bit
FUNC 3d8454 4 0 _Unwind_DebugHook
FUNC 3d8458 64 0 unwind_phase2
FUNC 3d84bc 124 0 unwind_phase2_forced
FUNC 3d85e0 8 0 _Unwind_GetCFA
FUNC 3d85e8 a4 0 __gnu_Unwind_RaiseException
FUNC 3d868c 1c 0 __gnu_Unwind_ForcedUnwind
FUNC 3d86a8 74 0 __gnu_Unwind_Resume
FUNC 3d871c 20 0 __gnu_Unwind_Resume_or_Rethrow
FUNC 3d873c 4 0 _Unwind_Complete
FUNC 3d8740 20 0 _Unwind_DeleteException
FUNC 3d8760 5c 0 _Unwind_VRS_Get
FUNC 3d87bc 28 0 _Unwind_GetGR
FUNC 3d87e4 5c 0 _Unwind_VRS_Set
FUNC 3d8840 2c 0 _Unwind_SetGR
FUNC 3d886c c4 0 __gnu_Unwind_Backtrace
FUNC 3d8930 3f0 0 __gnu_unwind_pr_common
FUNC 3d8d20 8 0 __aeabi_unwind_cpp_pr0
FUNC 3d8d28 8 0 __aeabi_unwind_cpp_pr1
FUNC 3d8d30 8 0 __aeabi_unwind_cpp_pr2
FUNC 3d8d38 34c 0 _Unwind_VRS_Pop
FUNC 3d922c 60 0 next_unwind_byte
FUNC 3d928c 28 0 _Unwind_GetGR
FUNC 3d92b4 4 0 unwind_UCB_from_context
FUNC 3d92b8 37c 0 __gnu_unwind_execute
FUNC 3d9634 40 0 __gnu_unwind_frame
FUNC 3d9674 10 0 _Unwind_GetRegionStart
FUNC 3d9684 1c 0 _Unwind_GetLanguageSpecificData
FUNC 3d96a0 8 0 _Unwind_GetDataRelBase
FUNC 3d96a8 8 0 _Unwind_GetTextRelBase
FUNC 3d9ca0 478 0 __divdi3
FUNC 3da118 3e4 0 __udivdi3
PUBLIC 6d42c 0 SMBC_add_cached_server
PUBLIC 6d5cc 0 SMBC_get_cached_server
PUBLIC 6d744 0 SMBC_remove_cached_server
PUBLIC 6d858 0 SMBC_purge_cached_servers
PUBLIC 6dad0 0 smbc_init
PUBLIC 6db4c 0 smbc_set_context
PUBLIC 6db74 0 smbc_open
PUBLIC 6dbf4 0 smbc_creat
PUBLIC 6dc84 0 smbc_read
PUBLIC 6dcc8 0 smbc_write
PUBLIC 6dd0c 0 smbc_lseek
PUBLIC 6dd60 0 smbc_close
PUBLIC 6dda0 0 smbc_unlink
PUBLIC 6ddd0 0 smbc_rename
PUBLIC 6de0c 0 smbc_opendir
PUBLIC 6de7c 0 smbc_closedir
PUBLIC 6debc 0 smbc_getdents
PUBLIC 6df00 0 smbc_readdir
PUBLIC 6df34 0 smbc_telldir
PUBLIC 6df68 0 smbc_lseekdir
PUBLIC 6dfb0 0 smbc_mkdir
PUBLIC 6dfe8 0 smbc_rmdir
PUBLIC 6e018 0 smbc_stat
PUBLIC 6e050 0 smbc_fstat
PUBLIC 6e08c 0 smbc_statvfs
PUBLIC 6e0c4 0 smbc_fstatvfs
PUBLIC 6e100 0 smbc_ftruncate
PUBLIC 6e148 0 smbc_chmod
PUBLIC 6e180 0 smbc_utimes
PUBLIC 6e1b8 0 smbc_utime
PUBLIC 6e23c 0 smbc_setxattr
PUBLIC 6e290 0 smbc_lsetxattr
PUBLIC 6e2e4 0 smbc_fsetxattr
PUBLIC 6e354 0 smbc_getxattr
PUBLIC 6e3a0 0 smbc_lgetxattr
PUBLIC 6e3ec 0 smbc_fgetxattr
PUBLIC 6e454 0 smbc_removexattr
PUBLIC 6e48c 0 smbc_lremovexattr
PUBLIC 6e4c4 0 smbc_fremovexattr
PUBLIC 6e518 0 smbc_listxattr
PUBLIC 6e558 0 smbc_llistxattr
PUBLIC 6e598 0 smbc_flistxattr
PUBLIC 6e5f4 0 smbc_print_file
PUBLIC 6e630 0 smbc_open_print_job
PUBLIC 6e66c 0 smbc_list_print_jobs
PUBLIC 6e6a4 0 smbc_unlink_print_job
PUBLIC 6e9b8 0 smbc_new_context
PUBLIC 6ee50 0 smbc_free_context
PUBLIC 6f35c 0 smbc_option_set
PUBLIC 6f67c 0 smbc_option_get
PUBLIC 6f938 0 smbc_init_context
PUBLIC 6fcd4 0 smbc_version
PUBLIC 6fcd8 0 smbc_set_credentials
PUBLIC 6fce8 0 smbc_set_credentials_with_fallback
PUBLIC 70208 0 SMBC_check_options
PUBLIC 70298 0 SMBC_opendir_ctx
PUBLIC 71384 0 SMBC_closedir_ctx
PUBLIC 71508 0 SMBC_readdir_ctx
PUBLIC 7176c 0 SMBC_getdents_ctx
PUBLIC 71978 0 SMBC_mkdir_ctx
PUBLIC 71c54 0 SMBC_rmdir_ctx
PUBLIC 72044 0 SMBC_telldir_ctx
PUBLIC 72144 0 SMBC_lseekdir_ctx
PUBLIC 72270 0 SMBC_fstatdir_ctx
PUBLIC 722a8 0 SMBC_chmod_ctx
PUBLIC 725ec 0 SMBC_utimes_ctx
PUBLIC 728ec 0 SMBC_unlink_ctx
PUBLIC 72c24 0 SMBC_rename_ctx
PUBLIC 73188 0 SMBC_read_ctx
PUBLIC 73488 0 SMBC_write_ctx
PUBLIC 736d0 0 SMBC_close_ctx
PUBLIC 73ab0 0 SMBC_getatr
PUBLIC 73e04 0 SMBC_setatr
PUBLIC 73f7c 0 SMBC_lseek_ctx
PUBLIC 74234 0 SMBC_open_ctx
PUBLIC 74650 0 SMBC_creat_ctx
PUBLIC 74690 0 SMBC_ftruncate_ctx
PUBLIC 748b4 0 SMBC_dlist_contains
PUBLIC 748e8 0 SMBC_errno
PUBLIC 74bd0 0 smbc_urldecode
PUBLIC 74c30 0 smbc_urlencode
PUBLIC 74d48 0 SMBC_parse_path
PUBLIC 752c4 0 SMBC_open_print_job_ctx
PUBLIC 75460 0 SMBC_print_file_ctx
PUBLIC 75728 0 SMBC_list_print_jobs_ctx
PUBLIC 7598c 0 SMBC_unlink_print_job_ctx
PUBLIC 75c10 0 SMBC_check_server
PUBLIC 75c44 0 SMBC_remove_unused_server
PUBLIC 75df8 0 SMBC_call_auth_fn
PUBLIC 75f5c 0 SMBC_get_auth_data
PUBLIC 75f60 0 SMBC_find_server
PUBLIC 76db8 0 SMBC_server
PUBLIC 76f74 0 SMBC_attr_server
PUBLIC 775f4 0 SMBC_stat_ctx
PUBLIC 77900 0 SMBC_fstat_ctx
PUBLIC 77c50 0 SMBC_fstatvfs_ctx
PUBLIC 77d74 0 SMBC_statvfs_ctx
PUBLIC 7afc8 0 SMBC_setxattr_ctx
PUBLIC 7b864 0 SMBC_getxattr_ctx
PUBLIC 7be80 0 SMBC_removexattr_ctx
PUBLIC 7c2b8 0 SMBC_listxattr_ctx
PUBLIC 7c358 0 smbc_getNetbiosName
PUBLIC 7c360 0 smbc_setNetbiosName
PUBLIC 7c39c 0 smbc_getWorkgroup
PUBLIC 7c3a4 0 smbc_setWorkgroup
PUBLIC 7c3e0 0 smbc_getUser
PUBLIC 7c3e8 0 smbc_setUser
PUBLIC 7c424 0 smbc_getDebug
PUBLIC 7c42c 0 smbc_setDebug
PUBLIC 7c478 0 smbc_getTimeout
PUBLIC 7c480 0 smbc_setTimeout
PUBLIC 7c488 0 smbc_getOptionDebugToStderr
PUBLIC 7c494 0 smbc_setOptionDebugToStderr
PUBLIC 7c4b0 0 smbc_getOptionFullTimeNames
PUBLIC 7c4bc 0 smbc_setOptionFullTimeNames
PUBLIC 7c4d0 0 smbc_getOptionOpenShareMode
PUBLIC 7c4dc 0 smbc_setOptionOpenShareMode
PUBLIC 7c4e8 0 smbc_getOptionUserData
PUBLIC 7c4f4 0 smbc_setOptionUserData
PUBLIC 7c500 0 smbc_getOptionSmbEncryptionLevel
PUBLIC 7c50c 0 smbc_setOptionSmbEncryptionLevel
PUBLIC 7c518 0 smbc_getOptionCaseSensitive
PUBLIC 7c524 0 smbc_setOptionCaseSensitive
PUBLIC 7c538 0 smbc_getOptionBrowseMaxLmbCount
PUBLIC 7c540 0 smbc_setOptionBrowseMaxLmbCount
PUBLIC 7c548 0 smbc_getOptionUrlEncodeReaddirEntries
PUBLIC 7c550 0 smbc_setOptionUrlEncodeReaddirEntries
PUBLIC 7c558 0 smbc_getOptionOneSharePerServer
PUBLIC 7c560 0 smbc_setOptionOneSharePerServer
PUBLIC 7c568 0 smbc_getOptionUseKerberos
PUBLIC 7c574 0 smbc_setOptionUseKerberos
PUBLIC 7c58c 0 smbc_getOptionFallbackAfterKerberos
PUBLIC 7c598 0 smbc_setOptionFallbackAfterKerberos
PUBLIC 7c5b0 0 smbc_getOptionNoAutoAnonymousLogin
PUBLIC 7c5bc 0 smbc_setOptionNoAutoAnonymousLogin
PUBLIC 7c5d4 0 smbc_getOptionUseCCache
PUBLIC 7c5e0 0 smbc_setOptionUseCCache
PUBLIC 7c5f8 0 smbc_getFunctionAuthData
PUBLIC 7c600 0 smbc_setFunctionAuthData
PUBLIC 7c614 0 smbc_getFunctionAuthDataWithContext
PUBLIC 7c620 0 smbc_setFunctionAuthDataWithContext
PUBLIC 7c634 0 smbc_getFunctionCheckServer
PUBLIC 7c63c 0 smbc_setFunctionCheckServer
PUBLIC 7c644 0 smbc_getFunctionRemoveUnusedServer
PUBLIC 7c64c 0 smbc_setFunctionRemoveUnusedServer
PUBLIC 7c654 0 smbc_getFunctionAddCachedServer
PUBLIC 7c65c 0 smbc_setFunctionAddCachedServer
PUBLIC 7c664 0 smbc_getFunctionGetCachedServer
PUBLIC 7c66c 0 smbc_setFunctionGetCachedServer
PUBLIC 7c674 0 smbc_getFunctionRemoveCachedServer
PUBLIC 7c67c 0 smbc_setFunctionRemoveCachedServer
PUBLIC 7c684 0 smbc_getFunctionPurgeCachedServers
PUBLIC 7c68c 0 smbc_setServerCacheData
PUBLIC 7c698 0 smbc_getServerCacheData
PUBLIC 7c6a4 0 smbc_setFunctionPurgeCachedServers
PUBLIC 7c6ac 0 smbc_getFunctionOpen
PUBLIC 7c6b4 0 smbc_setFunctionOpen
PUBLIC 7c6bc 0 smbc_getFunctionCreat
PUBLIC 7c6c4 0 smbc_setFunctionCreat
PUBLIC 7c6cc 0 smbc_getFunctionRead
PUBLIC 7c6d4 0 smbc_setFunctionRead
PUBLIC 7c6dc 0 smbc_getFunctionWrite
PUBLIC 7c6e4 0 smbc_setFunctionWrite
PUBLIC 7c6ec 0 smbc_getFunctionUnlink
PUBLIC 7c6f4 0 smbc_setFunctionUnlink
PUBLIC 7c6fc 0 smbc_getFunctionRename
PUBLIC 7c704 0 smbc_setFunctionRename
PUBLIC 7c70c 0 smbc_getFunctionLseek
PUBLIC 7c714 0 smbc_setFunctionLseek
PUBLIC 7c71c 0 smbc_getFunctionStat
PUBLIC 7c724 0 smbc_setFunctionStat
PUBLIC 7c72c 0 smbc_getFunctionFstat
PUBLIC 7c734 0 smbc_setFunctionFstat
PUBLIC 7c73c 0 smbc_getFunctionStatVFS
PUBLIC 7c748 0 smbc_setFunctionStatVFS
PUBLIC 7c754 0 smbc_getFunctionFstatVFS
PUBLIC 7c760 0 smbc_setFunctionFstatVFS
PUBLIC 7c76c 0 smbc_getFunctionFtruncate
PUBLIC 7c778 0 smbc_setFunctionFtruncate
PUBLIC 7c784 0 smbc_getFunctionClose
PUBLIC 7c78c 0 smbc_setFunctionClose
PUBLIC 7c794 0 smbc_getFunctionOpendir
PUBLIC 7c79c 0 smbc_setFunctionOpendir
PUBLIC 7c7a4 0 smbc_getFunctionClosedir
PUBLIC 7c7ac 0 smbc_setFunctionClosedir
PUBLIC 7c7b4 0 smbc_getFunctionReaddir
PUBLIC 7c7bc 0 smbc_setFunctionReaddir
PUBLIC 7c7c4 0 smbc_getFunctionGetdents
PUBLIC 7c7cc 0 smbc_setFunctionGetdents
PUBLIC 7c7d4 0 smbc_getFunctionMkdir
PUBLIC 7c7dc 0 smbc_setFunctionMkdir
PUBLIC 7c7e4 0 smbc_getFunctionRmdir
PUBLIC 7c7ec 0 smbc_setFunctionRmdir
PUBLIC 7c7f4 0 smbc_getFunctionTelldir
PUBLIC 7c7fc 0 smbc_setFunctionTelldir
PUBLIC 7c804 0 smbc_getFunctionLseekdir
PUBLIC 7c80c 0 smbc_setFunctionLseekdir
PUBLIC 7c814 0 smbc_getFunctionFstatdir
PUBLIC 7c81c 0 smbc_setFunctionFstatdir
PUBLIC 7c824 0 smbc_getFunctionChmod
PUBLIC 7c82c 0 smbc_setFunctionChmod
PUBLIC 7c834 0 smbc_getFunctionUtimes
PUBLIC 7c83c 0 smbc_setFunctionUtimes
PUBLIC 7c844 0 smbc_getFunctionSetxattr
PUBLIC 7c84c 0 smbc_setFunctionSetxattr
PUBLIC 7c854 0 smbc_getFunctionGetxattr
PUBLIC 7c85c 0 smbc_setFunctionGetxattr
PUBLIC 7c864 0 smbc_getFunctionRemovexattr
PUBLIC 7c86c 0 smbc_setFunctionRemovexattr
PUBLIC 7c874 0 smbc_getFunctionListxattr
PUBLIC 7c87c 0 smbc_setFunctionListxattr
PUBLIC 7c884 0 smbc_getFunctionPrintFile
PUBLIC 7c88c 0 smbc_setFunctionPrintFile
PUBLIC 7c894 0 smbc_getFunctionOpenPrintJob
PUBLIC 7c89c 0 smbc_setFunctionOpenPrintJob
PUBLIC 7c8a4 0 smbc_getFunctionListPrintJobs
PUBLIC 7c8ac 0 smbc_setFunctionListPrintJobs
PUBLIC 7c8b4 0 smbc_getFunctionUnlinkPrintJob
PUBLIC 7c8bc 0 smbc_setFunctionUnlinkPrintJob
PUBLIC 7c8c4 0 get_dyn_SBINDIR
PUBLIC 7c8e8 0 set_dyn_SBINDIR
PUBLIC 7c924 0 is_default_dyn_SBINDIR
PUBLIC 7c93c 0 get_dyn_BINDIR
PUBLIC 7c964 0 set_dyn_BINDIR
PUBLIC 7c9a4 0 is_default_dyn_BINDIR
PUBLIC 7c9c0 0 get_dyn_SWATDIR
PUBLIC 7c9e8 0 set_dyn_SWATDIR
PUBLIC 7ca28 0 is_default_dyn_SWATDIR
PUBLIC 7ca44 0 get_dyn_CONFIGFILE
PUBLIC 7ca6c 0 set_dyn_CONFIGFILE
PUBLIC 7caac 0 is_default_dyn_CONFIGFILE
PUBLIC 7cac8 0 get_dyn_LOGFILEBASE
PUBLIC 7caf0 0 set_dyn_LOGFILEBASE
PUBLIC 7cb30 0 is_default_dyn_LOGFILEBASE
PUBLIC 7cb4c 0 get_dyn_LMHOSTSFILE
PUBLIC 7cb74 0 set_dyn_LMHOSTSFILE
PUBLIC 7cbb4 0 is_default_dyn_LMHOSTSFILE
PUBLIC 7cbd0 0 get_dyn_CODEPAGEDIR
PUBLIC 7cbf8 0 set_dyn_CODEPAGEDIR
PUBLIC 7cc38 0 is_default_dyn_CODEPAGEDIR
PUBLIC 7cc54 0 get_dyn_LIBDIR
PUBLIC 7cc7c 0 set_dyn_LIBDIR
PUBLIC 7ccbc 0 is_default_dyn_LIBDIR
PUBLIC 7ccd8 0 get_dyn_MODULESDIR
PUBLIC 7cd00 0 set_dyn_MODULESDIR
PUBLIC 7cd40 0 is_default_dyn_MODULESDIR
PUBLIC 7cd5c 0 get_dyn_SHLIBEXT
PUBLIC 7cd84 0 set_dyn_SHLIBEXT
PUBLIC 7cdc4 0 is_default_dyn_SHLIBEXT
PUBLIC 7cde0 0 get_dyn_LOCKDIR
PUBLIC 7ce08 0 set_dyn_LOCKDIR
PUBLIC 7ce48 0 is_default_dyn_LOCKDIR
PUBLIC 7ce64 0 get_dyn_STATEDIR
PUBLIC 7ce8c 0 set_dyn_STATEDIR
PUBLIC 7cecc 0 is_default_dyn_STATEDIR
PUBLIC 7cee8 0 get_dyn_CACHEDIR
PUBLIC 7cf10 0 set_dyn_CACHEDIR
PUBLIC 7cf50 0 is_default_dyn_CACHEDIR
PUBLIC 7cf6c 0 get_dyn_PIDDIR
PUBLIC 7cf94 0 set_dyn_PIDDIR
PUBLIC 7cfd4 0 is_default_dyn_PIDDIR
PUBLIC 7cff0 0 get_dyn_NMBDSOCKETDIR
PUBLIC 7d018 0 set_dyn_NMBDSOCKETDIR
PUBLIC 7d058 0 is_default_dyn_NMBDSOCKETDIR
PUBLIC 7d074 0 get_dyn_NCALRPCDIR
PUBLIC 7d09c 0 set_dyn_NCALRPCDIR
PUBLIC 7d0dc 0 is_default_dyn_NCALRPCDIR
PUBLIC 7d0f8 0 get_dyn_SMB_PASSWD_FILE
PUBLIC 7d120 0 set_dyn_SMB_PASSWD_FILE
PUBLIC 7d160 0 is_default_dyn_SMB_PASSWD_FILE
PUBLIC 7d17c 0 get_dyn_PRIVATE_DIR
PUBLIC 7d1a4 0 set_dyn_PRIVATE_DIR
PUBLIC 7d1e4 0 is_default_dyn_PRIVATE_DIR
PUBLIC 7d200 0 get_dyn_LOCALEDIR
PUBLIC 7d228 0 set_dyn_LOCALEDIR
PUBLIC 7d268 0 is_default_dyn_LOCALEDIR
PUBLIC 7efec 0 lp_smb_ports
PUBLIC 7f010 0 lp_dos_charset
PUBLIC 7f038 0 lp_unix_charset
PUBLIC 7f060 0 lp_display_charset
PUBLIC 7f088 0 lp_logfile
PUBLIC 7f0ac 0 lp_configfile
PUBLIC 7f0d0 0 lp_smb_passwd_file
PUBLIC 7f0f4 0 lp_private_dir
PUBLIC 7f118 0 lp_serverstring
PUBLIC 7f13c 0 lp_printcap_cache_time
PUBLIC 7f150 0 lp_addport_cmd
PUBLIC 7f174 0 lp_enumports_cmd
PUBLIC 7f198 0 lp_addprinter_cmd
PUBLIC 7f1bc 0 lp_deleteprinter_cmd
PUBLIC 7f1e0 0 lp_os2_driver_map
PUBLIC 7f204 0 lp_lockdir
PUBLIC 7f228 0 lp_statedir
PUBLIC 7f2ac 0 lp_cachedir
PUBLIC 7f330 0 lp_piddir
PUBLIC 7f354 0 lp_mangling_method
PUBLIC 7f378 0 lp_mangle_prefix
PUBLIC 7f38c 0 lp_utmpdir
PUBLIC 7f3b0 0 lp_wtmpdir
PUBLIC 7f3d4 0 lp_utmp
PUBLIC 7f3e8 0 lp_rootdir
PUBLIC 7f40c 0 lp_perfcount_module
PUBLIC 7f430 0 lp_defaultservice
PUBLIC 7f454 0 lp_msg_command
PUBLIC 7f478 0 lp_get_quota_command
PUBLIC 7f49c 0 lp_set_quota_command
PUBLIC 7f4c0 0 lp_auto_services
PUBLIC 7f4e4 0 lp_passwd_program
PUBLIC 7f508 0 lp_passwd_chat
PUBLIC 7f52c 0 lp_passwordserver
PUBLIC 7f550 0 lp_name_resolve_order
PUBLIC 7f574 0 lp_realm
PUBLIC 7f598 0 lp_afs_username_map
PUBLIC 7f5c0 0 lp_afs_token_lifetime
PUBLIC 7f5d4 0 lp_log_nt_token_command
PUBLIC 7f5f8 0 lp_username_map
PUBLIC 7f61c 0 lp_logon_script
PUBLIC 7f644 0 lp_logon_path
PUBLIC 7f66c 0 lp_logon_drive
PUBLIC 7f694 0 lp_logon_home
PUBLIC 7f6bc 0 lp_remote_announce
PUBLIC 7f6e0 0 lp_remote_browse_sync
PUBLIC 7f704 0 lp_nmbd_bind_explicit_broadcast
PUBLIC 7f718 0 lp_wins_server_list
PUBLIC 7f72c 0 lp_interfaces
PUBLIC 7f740 0 lp_nis_home_map_name
PUBLIC 7f764 0 lp_netbios_aliases
PUBLIC 7f778 0 lp_passdb_backend
PUBLIC 7f8c8 0 lp_preload_modules
PUBLIC 7f8dc 0 lp_panic_action
PUBLIC 7f900 0 lp_adduser_script
PUBLIC 7f924 0 lp_renameuser_script
PUBLIC 7f948 0 lp_deluser_script
PUBLIC 7f96c 0 lp_guestaccount
PUBLIC 7f994 0 lp_addgroup_script
PUBLIC 7f9b8 0 lp_delgroup_script
PUBLIC 7f9dc 0 lp_addusertogroup_script
PUBLIC 7fa00 0 lp_deluserfromgroup_script
PUBLIC 7fa24 0 lp_setprimarygroup_script
PUBLIC 7fa48 0 lp_addmachine_script
PUBLIC 7fa6c 0 lp_shutdown_script
PUBLIC 7fa90 0 lp_abort_shutdown_script
PUBLIC 7fab4 0 lp_username_map_script
PUBLIC 7fad8 0 lp_username_map_cache_time
PUBLIC 7faec 0 lp_check_password_script
PUBLIC 7fb10 0 lp_wins_hook
PUBLIC 7fb34 0 lp_template_homedir
PUBLIC 7fb5c 0 lp_template_shell
PUBLIC 7fb84 0 lp_winbind_separator
PUBLIC 7fbac 0 lp_acl_compatibility
PUBLIC 7fbc0 0 lp_winbind_enum_users
PUBLIC 7fbd4 0 lp_winbind_enum_groups
PUBLIC 7fbe8 0 lp_winbind_use_default_domain
PUBLIC 7fbfc 0 lp_winbind_trusted_domains_only
PUBLIC 7fc10 0 lp_winbind_nested_groups
PUBLIC 7fc24 0 lp_winbind_expand_groups
PUBLIC 7fc38 0 lp_winbind_refresh_tickets
PUBLIC 7fc4c 0 lp_winbind_offline_logon
PUBLIC 7fc60 0 lp_winbind_normalize_names
PUBLIC 7fc74 0 lp_winbind_rpc_only
PUBLIC 7fc88 0 lp_create_krb5_conf
PUBLIC 7fc9c 0 lp_winbind_max_domain_connections
PUBLIC 7fd44 0 lp_idmap_backend
PUBLIC 7fd6c 0 lp_idmap_cache_time
PUBLIC 7fd80 0 lp_idmap_negative_cache_time
PUBLIC 7fd94 0 lp_keepalive
PUBLIC 7fda8 0 lp_passdb_expand_explicit
PUBLIC 7fdbc 0 lp_ldap_suffix
PUBLIC 7fde0 0 lp_ldap_admin_dn
PUBLIC 7fe04 0 lp_ldap_ssl
PUBLIC 7fe18 0 lp_ldap_ssl_ads
PUBLIC 7fe2c 0 lp_ldap_deref
PUBLIC 7fe40 0 lp_ldap_follow_referral
PUBLIC 7fe54 0 lp_ldap_passwd_sync
PUBLIC 7fe68 0 lp_ldap_delete_dn
PUBLIC 7fe7c 0 lp_ldap_replication_sleep
PUBLIC 7fe90 0 lp_ldap_timeout
PUBLIC 7fea4 0 lp_ldap_connection_timeout
PUBLIC 7feb8 0 lp_ldap_page_size
PUBLIC 7fecc 0 lp_ldap_debug_level
PUBLIC 7fee0 0 lp_ldap_debug_threshold
PUBLIC 7fef4 0 lp_add_share_cmd
PUBLIC 7ff18 0 lp_change_share_cmd
PUBLIC 7ff3c 0 lp_delete_share_cmd
PUBLIC 7ff60 0 lp_usershare_path
PUBLIC 7ff84 0 lp_usershare_prefix_allow_list
PUBLIC 7ff98 0 lp_usershare_prefix_deny_list
PUBLIC 7ffac 0 lp_eventlog_list
PUBLIC 7ffc0 0 lp_registry_shares
PUBLIC 7ffd4 0 lp_usershare_allow_guests
PUBLIC 7ffe8 0 lp_usershare_owner_only
PUBLIC 7fffc 0 lp_disable_netbios
PUBLIC 80010 0 lp_reset_on_zero_vc
PUBLIC 80024 0 lp_log_writeable_files_on_exit
PUBLIC 80038 0 lp_ms_add_printer_wizard
PUBLIC 8004c 0 lp_dns_proxy
PUBLIC 80060 0 lp_wins_support
PUBLIC 80074 0 lp_we_are_a_wins_server
PUBLIC 80088 0 lp_wins_proxy
PUBLIC 8009c 0 lp_local_master
PUBLIC 800b0 0 lp_domain_logons
PUBLIC 800c4 0 lp_init_logon_delayed_hosts
PUBLIC 800d8 0 lp_init_logon_delay
PUBLIC 800ec 0 lp_load_printers
PUBLIC 80100 0 _lp_readraw
PUBLIC 80114 0 lp_large_readwrite
PUBLIC 80128 0 _lp_writeraw
PUBLIC 8013c 0 lp_null_passwords
PUBLIC 80150 0 lp_obey_pam_restrictions
PUBLIC 80164 0 lp_encrypted_passwords
PUBLIC 80178 0 lp_client_schannel
PUBLIC 8018c 0 lp_server_schannel
PUBLIC 801a0 0 lp_syslog_only
PUBLIC 801b4 0 lp_timestamp_logs
PUBLIC 801c8 0 lp_debug_prefix_timestamp
PUBLIC 801dc 0 lp_debug_hires_timestamp
PUBLIC 801f0 0 lp_debug_pid
PUBLIC 80204 0 lp_debug_uid
PUBLIC 80218 0 lp_debug_class
PUBLIC 8022c 0 lp_enable_core_files
PUBLIC 80240 0 lp_browse_list
PUBLIC 80254 0 lp_nis_home_map
PUBLIC 80268 0 lp_bind_interfaces_only
PUBLIC 8027c 0 lp_pam_password_change
PUBLIC 80290 0 lp_unix_password_sync
PUBLIC 802a4 0 lp_passwd_chat_debug
PUBLIC 802b8 0 lp_passwd_chat_timeout
PUBLIC 802cc 0 lp_nt_pipe_support
PUBLIC 802e0 0 lp_nt_status_support
PUBLIC 802f4 0 lp_stat_cache
PUBLIC 80308 0 lp_max_stat_cache_size
PUBLIC 8031c 0 lp_allow_trusted_domains
PUBLIC 80330 0 lp_map_untrusted_to_domain
PUBLIC 80344 0 lp_restrict_anonymous
PUBLIC 80358 0 lp_lanman_auth
PUBLIC 8036c 0 lp_ntlm_auth
PUBLIC 80380 0 lp_client_plaintext_auth
PUBLIC 80394 0 lp_client_lanman_auth
PUBLIC 803a8 0 lp_client_ntlmv2_auth
PUBLIC 803bc 0 lp_host_msdfs
PUBLIC 803d0 0 lp_kernel_oplocks
PUBLIC 803e4 0 lp_enhanced_browsing
PUBLIC 803f8 0 lp_use_mmap
PUBLIC 8040c 0 lp_unix_extensions
PUBLIC 80420 0 lp_use_spnego
PUBLIC 80434 0 lp_client_use_spnego
PUBLIC 80448 0 lp_client_use_spnego_principal
PUBLIC 8045c 0 lp_send_spnego_principal
PUBLIC 80470 0 lp_hostname_lookups
PUBLIC 80484 0 lp_change_notify
PUBLIC 804d8 0 lp_kernel_change_notify
PUBLIC 8052c 0 lp_dedicated_keytab_file
PUBLIC 80550 0 lp_kerberos_method
PUBLIC 80564 0 lp_defer_sharing_violations
PUBLIC 80578 0 lp_enable_privileges
PUBLIC 8058c 0 lp_enable_asu_support
PUBLIC 805a0 0 lp_os_level
PUBLIC 805b4 0 lp_max_ttl
PUBLIC 805c8 0 lp_max_wins_ttl
PUBLIC 805dc 0 lp_min_wins_ttl
PUBLIC 805f0 0 lp_max_log_size
PUBLIC 80604 0 lp_max_open_files
PUBLIC 80618 0 lp_open_files_db_hash_size
PUBLIC 8062c 0 lp_maxxmit
PUBLIC 80640 0 lp_maxmux
PUBLIC 80654 0 lp_passwordlevel
PUBLIC 80668 0 lp_usernamelevel
PUBLIC 8067c 0 lp_deadtime
PUBLIC 80690 0 lp_getwd_cache
PUBLIC 806a4 0 lp_minprotocol
PUBLIC 806b8 0 lp_security
PUBLIC 806cc 0 lp_auth_methods
PUBLIC 806e0 0 lp_paranoid_server_security
PUBLIC 806f4 0 lp_maxdisksize
PUBLIC 80708 0 lp_lpqcachetime
PUBLIC 8071c 0 lp_max_smbd_processes
PUBLIC 80730 0 _lp_disable_spoolss
PUBLIC 80744 0 lp_syslog
PUBLIC 80758 0 lp_lm_announce
PUBLIC 8076c 0 lp_lm_interval
PUBLIC 80780 0 lp_machine_password_timeout
PUBLIC 80794 0 lp_map_to_guest
PUBLIC 807a8 0 lp_oplock_break_wait_time
PUBLIC 807bc 0 lp_lock_spin_time
PUBLIC 807d0 0 lp_usershare_max_shares
PUBLIC 807e4 0 lp_socket_options
PUBLIC 8080c 0 lp_config_backend
PUBLIC 80820 0 lp_smb2_max_read
PUBLIC 80834 0 lp_smb2_max_write
PUBLIC 80848 0 lp_smb2_max_trans
PUBLIC 8085c 0 lp_smb2_max_credits
PUBLIC 8088c 0 lp_preexec
PUBLIC 808e8 0 lp_postexec
PUBLIC 80944 0 lp_rootpreexec
PUBLIC 809a0 0 lp_rootpostexec
PUBLIC 809fc 0 lp_servicename
PUBLIC 80a58 0 lp_const_servicename
PUBLIC 80ab4 0 lp_pathname
PUBLIC 80b10 0 lp_dontdescend
PUBLIC 80b6c 0 lp_username
PUBLIC 80bc8 0 lp_invalid_users
PUBLIC 80c18 0 lp_valid_users
PUBLIC 80c68 0 lp_admin_users
PUBLIC 80cb8 0 lp_svcctl_list
PUBLIC 80ccc 0 lp_cups_options
PUBLIC 80d28 0 lp_cups_server
PUBLIC 80d4c 0 lp_cups_encrypt
PUBLIC 80d54 0 lp_iprint_server
PUBLIC 80d78 0 lp_cups_connection_timeout
PUBLIC 80d8c 0 lp_ctdbd_socket
PUBLIC 80db4 0 lp_cluster_addresses
PUBLIC 80dc8 0 lp_clustering
PUBLIC 80ddc 0 lp_ctdb_timeout
PUBLIC 80df0 0 lp_ctdb_locktime_warn_threshold
PUBLIC 80e04 0 lp_printcommand
PUBLIC 80e60 0 lp_lpqcommand
PUBLIC 80ebc 0 lp_lprmcommand
PUBLIC 80f18 0 lp_lppausecommand
PUBLIC 80f74 0 lp_lpresumecommand
PUBLIC 80fd0 0 lp_queuepausecommand
PUBLIC 8102c 0 lp_queueresumecommand
PUBLIC 81088 0 lp_printjob_username
PUBLIC 810e4 0 lp_hostsallow
PUBLIC 81134 0 lp_hostsdeny
PUBLIC 81184 0 lp_magicscript
PUBLIC 811e0 0 lp_magicoutput
PUBLIC 8123c 0 lp_comment
PUBLIC 81298 0 lp_force_user
PUBLIC 812f4 0 lp_force_group
PUBLIC 81350 0 lp_readlist
PUBLIC 813a0 0 lp_writelist
PUBLIC 813f0 0 lp_printer_admin
PUBLIC 81440 0 lp_fstype
PUBLIC 8149c 0 lp_vfs_objects
PUBLIC 814ec 0 lp_msdfs_proxy
PUBLIC 81548 0 lp_veto_files
PUBLIC 815a4 0 lp_hide_files
PUBLIC 81600 0 lp_veto_oplocks
PUBLIC 8165c 0 lp_msdfs_root
PUBLIC 816ac 0 lp_aio_write_behind
PUBLIC 81708 0 lp_dfree_command
PUBLIC 81764 0 lp_autoloaded
PUBLIC 817b4 0 lp_preexec_close
PUBLIC 81804 0 lp_rootpreexec_close
PUBLIC 81854 0 lp_casesensitive
PUBLIC 818a4 0 lp_preservecase
PUBLIC 818f4 0 lp_shortpreservecase
PUBLIC 81944 0 lp_hide_dot_files
PUBLIC 81994 0 lp_hide_special_files
PUBLIC 819e4 0 lp_hideunreadable
PUBLIC 81a34 0 lp_hideunwriteable_files
PUBLIC 81a84 0 lp_browseable
PUBLIC 81ad4 0 lp_access_based_share_enum
PUBLIC 81b24 0 lp_readonly
PUBLIC 81b74 0 lp_no_set_dir
PUBLIC 81bc4 0 lp_guest_ok
PUBLIC 81c14 0 lp_guest_only
PUBLIC 81c64 0 lp_administrative_share
PUBLIC 81cb4 0 lp_print_ok
PUBLIC 81d04 0 lp_print_notify_backchannel
PUBLIC 81d54 0 lp_map_hidden
PUBLIC 81da4 0 lp_map_archive
PUBLIC 81df4 0 lp_store_dos_attributes
PUBLIC 81e44 0 lp_dmapi_support
PUBLIC 81e94 0 lp_locking
PUBLIC 81ee8 0 lp_strict_locking
PUBLIC 81f3c 0 lp_posix_locking
PUBLIC 81f90 0 lp_share_modes
PUBLIC 81fe0 0 lp_oplocks
PUBLIC 82030 0 lp_level2_oplocks
PUBLIC 82080 0 lp_onlyuser
PUBLIC 820d0 0 lp_manglednames
PUBLIC 82124 0 lp_symlinks
PUBLIC 82174 0 lp_syncalways
PUBLIC 821c4 0 lp_strict_allocate
PUBLIC 82214 0 lp_strict_sync
PUBLIC 82264 0 lp_map_system
PUBLIC 822b4 0 lp_delete_readonly
PUBLIC 82304 0 lp_fake_oplocks
PUBLIC 82354 0 lp_recursive_veto_delete
PUBLIC 823a4 0 lp_dos_filemode
PUBLIC 823f4 0 lp_dos_filetimes
PUBLIC 82444 0 lp_dos_filetime_resolution
PUBLIC 82494 0 lp_fake_dir_create_times
PUBLIC 824e4 0 lp_async_smb_echo_handler
PUBLIC 824f8 0 lp_multicast_dns_register
PUBLIC 8250c 0 lp_allow_insecure_widelinks
PUBLIC 82520 0 lp_blocking_locks
PUBLIC 82570 0 lp_inherit_perms
PUBLIC 825c0 0 lp_inherit_acls
PUBLIC 82610 0 lp_inherit_owner
PUBLIC 82660 0 lp_use_client_driver
PUBLIC 826b0 0 lp_default_devmode
PUBLIC 82700 0 lp_force_printername
PUBLIC 82750 0 lp_nt_acl_support
PUBLIC 827a0 0 lp_force_unknown_acl_user
PUBLIC 827f0 0 lp_ea_support
PUBLIC 82840 0 _lp_use_sendfile
PUBLIC 82890 0 lp_profile_acls
PUBLIC 828e0 0 lp_map_acl_inherit
PUBLIC 82930 0 lp_afs_share
PUBLIC 82980 0 lp_acl_check_permissions
PUBLIC 829d0 0 lp_acl_group_control
PUBLIC 82a20 0 lp_acl_map_full_control
PUBLIC 82a70 0 lp_create_mask
PUBLIC 82ac0 0 lp_force_create_mode
PUBLIC 82b10 0 lp_security_mask
PUBLIC 82b60 0 lp_force_security_mode
PUBLIC 82bb0 0 lp_dir_mask
PUBLIC 82c00 0 lp_force_dir_mode
PUBLIC 82c50 0 lp_dir_security_mask
PUBLIC 82ca0 0 lp_force_dir_security_mode
PUBLIC 82cf0 0 lp_max_connections
PUBLIC 82d40 0 lp_defaultcase
PUBLIC 82d90 0 lp_minprintspace
PUBLIC 82de0 0 lp_printing
PUBLIC 82e30 0 lp_max_reported_jobs
PUBLIC 82e80 0 lp_oplock_contention_limit
PUBLIC 82ed0 0 lp_csc_policy
PUBLIC 82f20 0 lp_write_cache_size
PUBLIC 82f70 0 lp_block_size
PUBLIC 82fc0 0 lp_dfree_cache_time
PUBLIC 83010 0 lp_allocation_roundup_size
PUBLIC 83060 0 lp_aio_read_size
PUBLIC 830b0 0 lp_aio_write_size
PUBLIC 83100 0 lp_map_readonly
PUBLIC 83150 0 lp_directory_name_cache_size
PUBLIC 831a0 0 lp_smb_encrypt
PUBLIC 831f0 0 lp_magicchar
PUBLIC 83244 0 lp_winbind_cache_time
PUBLIC 83258 0 lp_winbind_reconnect_delay
PUBLIC 8326c 0 lp_winbind_max_clients
PUBLIC 83280 0 lp_winbind_nss_info
PUBLIC 83294 0 lp_algorithmic_rid_base
PUBLIC 832a8 0 lp_name_cache_timeout
PUBLIC 832bc 0 lp_client_signing
PUBLIC 832d0 0 lp_server_signing
PUBLIC 832e4 0 lp_client_ldap_sasl_wrapping
PUBLIC 832f8 0 lp_ncalrpc_dir
PUBLIC 8331c 0 lp_parm_talloc_string
PUBLIC 83350 0 lp_parm_const_string
PUBLIC 8337c 0 lp_parm_string_list
PUBLIC 833c4 0 lp_parm_int
PUBLIC 83400 0 lp_parm_ulong
PUBLIC 83444 0 lp_parm_bool
PUBLIC 83480 0 lp_parm_enum
PUBLIC 83554 0 canonicalize_servicename
PUBLIC 83f88 0 lp_add_home
PUBLIC 84174 0 lp_add_service
PUBLIC 841a4 0 lp_add_printer
PUBLIC 842ac 0 lp_parameter_is_valid
PUBLIC 842e0 0 lp_parameter_is_global
PUBLIC 8431c 0 lp_parameter_is_canonical
PUBLIC 84358 0 lp_canonicalize_parameter
PUBLIC 843a8 0 show_parameter_list
PUBLIC 84754 0 lp_string_is_valid_boolean
PUBLIC 8475c 0 lp_invert_boolean
PUBLIC 847a0 0 lp_canonicalize_parameter_with_value
PUBLIC 84828 0 lp_canonicalize_boolean
PUBLIC 8486c 0 service_ok
PUBLIC 84b94 0 lp_config_backend_is_registry
PUBLIC 84bac 0 lp_config_backend_is_file
PUBLIC 84bc0 0 lp_file_list_changed
PUBLIC 84e1c 0 lp_idmap_uid
PUBLIC 84e24 0 lp_idmap_gid
PUBLIC 84e2c 0 lp_ldap_machine_suffix
PUBLIC 84e54 0 lp_ldap_user_suffix
PUBLIC 84e7c 0 lp_ldap_group_suffix
PUBLIC 84ea4 0 lp_ldap_idmap_suffix
PUBLIC 84ecc 0 lp_local_ptr_by_snum
PUBLIC 84f3c 0 lp_do_parameter
PUBLIC 8537c 0 lp_maxprotocol
PUBLIC 860b4 0 lp_set_cmdline
PUBLIC 860bc 0 lp_set_option
PUBLIC 86144 0 init_locals
PUBLIC 863fc 0 process_registry_service
PUBLIC 867fc 0 process_registry_shares
PUBLIC 868d8 0 lp_is_default
PUBLIC 86910 0 dump_a_parameter
PUBLIC 86aa8 0 lp_get_parameter
PUBLIC 86ad4 0 lp_next_parameter
PUBLIC 86cb0 0 lp_snum_ok
PUBLIC 86cfc 0 lp_loaded
PUBLIC 86d10 0 lp_killunused
PUBLIC 86d98 0 lp_kill_all_services
PUBLIC 86da0 0 lp_killservice
PUBLIC 86dcc 0 parse_usershare_file
PUBLIC 87588 0 gfree_loadparm
PUBLIC 8760c 0 lp_set_in_client
PUBLIC 87620 0 lp_is_in_client
PUBLIC 87634 0 lp_numservices
PUBLIC 87644 0 lp_dump_one
PUBLIC 87684 0 lp_dump
PUBLIC 87814 0 get_share_params
PUBLIC 878d8 0 share_list_all
PUBLIC 87970 0 next_share
PUBLIC 87a5c 0 next_printer
PUBLIC 87a8c 0 snum2params_static
PUBLIC 87aa4 0 volume_label
PUBLIC 87b48 0 lp_domain_master
PUBLIC 87b84 0 lp_domain_master_true_or_auto
PUBLIC 87ba0 0 lp_preferred_master
PUBLIC 87be0 0 lp_remove_service
PUBLIC 883cc 0 load_usershare_service
PUBLIC 88664 0 lp_servicenumber
PUBLIC 888a0 0 lp_parm_string
PUBLIC 888c4 0 lp_add_one_printer
PUBLIC 89234 0 lp_load
PUBLIC 89258 0 lp_load_initial_only
PUBLIC 8927c 0 lp_load_with_registry_shares
PUBLIC 892a0 0 share_defined
PUBLIC 892b4 0 load_usershare_shares
PUBLIC 89928 0 lp_copy_service
PUBLIC 89978 0 lp_default_server_announce
PUBLIC 8998c 0 lp_major_announce_version
PUBLIC 89a30 0 lp_minor_announce_version
PUBLIC 89acc 0 lp_set_name_resolve_order
PUBLIC 89ae4 0 lp_printername
PUBLIC 89b64 0 lp_set_logfile
PUBLIC 89b90 0 lp_maxprintjobs
PUBLIC 89bf8 0 lp_printcapname
PUBLIC 89c54 0 lp_disable_spoolss
PUBLIC 89ca4 0 lp_set_spoolss_state
PUBLIC 89d48 0 lp_get_spoolss_state
PUBLIC 89d60 0 lp_use_sendfile
PUBLIC 89dc8 0 set_use_sendfile
PUBLIC 89e18 0 set_store_dos_attributes
PUBLIC 89e58 0 lp_set_mangling_method
PUBLIC 89e70 0 lp_posix_pathnames
PUBLIC 89e84 0 lp_set_posix_pathnames
PUBLIC 89e9c 0 lp_posix_cifsu_locktype
PUBLIC 89ed0 0 lp_set_posix_default_cifsx_readwrite_locktype
PUBLIC 89ef8 0 lp_min_receive_file_size
PUBLIC 89f18 0 lp_socket_address
PUBLIC 89f60 0 lp_set_passdb_backend
PUBLIC 89f78 0 widelinks_warning
PUBLIC 8a018 0 lp_widelinks
PUBLIC 8a048 0 lp_writeraw
PUBLIC 8a068 0 lp_readraw
PUBLIC 8a088 0 server_role_str
PUBLIC 8a0c4 0 set_server_role
PUBLIC 8a35c 0 lp_server_role
PUBLIC 8a36c 0 get_int_param
PUBLIC 8a38c 0 get_string_param
PUBLIC 8a6b4 0 share_info_db_init
PUBLIC 8ab74 0 get_share_security_default
PUBLIC 8ac84 0 get_share_security
PUBLIC 8ae9c 0 set_share_security
PUBLIC 8b0ec 0 delete_share_security
PUBLIC 8b234 0 share_access_check
PUBLIC 8b2a8 0 parse_usershare_acl
PUBLIC 8b68c 0 init_ldap_debugging
PUBLIC 8ba68 0 reg_openhive
PUBLIC 8bc30 0 reg_openkey
PUBLIC 8bd2c 0 reg_enumkey
PUBLIC 8bdc8 0 reg_enumvalue
PUBLIC 8bef0 0 reg_queryvalue
PUBLIC 8c030 0 reg_querymultiplevalues
PUBLIC 8c174 0 reg_queryinfokey
PUBLIC 8c338 0 reg_createkey
PUBLIC 8c648 0 reg_deletekey
PUBLIC 8cb84 0 reg_setvalue
PUBLIC 8cea0 0 reg_deletevalue
PUBLIC 8d15c 0 reg_getkeysecurity
PUBLIC 8d16c 0 reg_setkeysecurity
PUBLIC 8d17c 0 reg_getversion
PUBLIC 8d194 0 reg_deleteallvalues
PUBLIC 8d238 0 reg_deletekey_recursive
PUBLIC 8d248 0 reg_deletesubkeys_recursive
PUBLIC 8d340 0 store_reg_keys
PUBLIC 8d370 0 store_reg_values
PUBLIC 8d3a0 0 create_reg_subkey
PUBLIC 8d3d0 0 delete_reg_subkey
PUBLIC 8d400 0 fetch_reg_keys
PUBLIC 8d430 0 fetch_reg_values
PUBLIC 8d4cc 0 regkey_get_secdesc
PUBLIC 8d520 0 regkey_access_check
PUBLIC 8d5fc 0 regkey_set_secdesc
PUBLIC 8d62c 0 reg_subkeys_need_update
PUBLIC 8d65c 0 reg_values_need_update
PUBLIC 8d738 0 reghook_cache_init
PUBLIC 8d7f0 0 reghook_cache_add
PUBLIC 8d8cc 0 reghook_cache_find
PUBLIC 8d9f4 0 reghook_dump_cache
PUBLIC 8dbb0 0 regsubkey_ctr_init
PUBLIC 8dc20 0 regsubkey_ctr_reinit
PUBLIC 8dc8c 0 regsubkey_ctr_set_seqnum
PUBLIC 8dca0 0 regsubkey_ctr_get_seqnum
PUBLIC 8dcb0 0 regsubkey_ctr_delkey
PUBLIC 8ddf4 0 regsubkey_ctr_key_exists
PUBLIC 8de2c 0 regsubkey_ctr_addkey
PUBLIC 8decc 0 regsubkey_ctr_numkeys
PUBLIC 8ded4 0 regsubkey_ctr_specific_key
PUBLIC 8deec 0 regval_ctr_init
PUBLIC 8df28 0 regval_ctr_numvals
PUBLIC 8df30 0 dup_registry_value
PUBLIC 8e068 0 free_registry_value
PUBLIC 8e098 0 regval_data_p
PUBLIC 8e0a0 0 regval_size
PUBLIC 8e0a8 0 regval_name
PUBLIC 8e0ac 0 regval_type
PUBLIC 8e0b4 0 regval_ctr_specific_value
PUBLIC 8e0cc 0 regval_ctr_value_exists
PUBLIC 8e110 0 regval_ctr_value_byname
PUBLIC 8e164 0 regval_compose
PUBLIC 8e220 0 regval_ctr_delvalue
PUBLIC 8e2ac 0 regval_ctr_addvalue
PUBLIC 8e374 0 regval_ctr_addvalue_sz
PUBLIC 8e3c0 0 regval_ctr_addvalue_multi_sz
PUBLIC 8e40c 0 regval_ctr_copyvalue
PUBLIC 8e43c 0 regval_ctr_getvalue
PUBLIC 8e490 0 regval_ctr_get_seqnum
PUBLIC 8e4a0 0 regval_ctr_set_seqnum
PUBLIC 8e4b4 0 regval_dword
PUBLIC 8e4f8 0 regval_sz
PUBLIC 8e54c 0 reg_split_path
PUBLIC 8e594 0 reg_split_key
PUBLIC 8e5dc 0 normalize_reg_path
PUBLIC 8e638 0 reg_remaining_path
PUBLIC 8e67c 0 dup_nt_token
PUBLIC 8e7c8 0 merge_nt_token
PUBLIC 8e924 0 token_sid_in_ace
PUBLIC 8f964 0 regdb_store_values
PUBLIC 901ac 0 regdb_fetch_keys
PUBLIC 903b0 0 regdb_store_keys
PUBLIC 90a54 0 regdb_fetch_values
PUBLIC 91620 0 init_registry_key
PUBLIC 91674 0 init_registry_data
PUBLIC 917a8 0 regdb_init
PUBLIC 91c30 0 regdb_open
PUBLIC 91e20 0 regdb_close
PUBLIC 91f6c 0 regdb_transaction_start
PUBLIC 91f94 0 regdb_transaction_commit
PUBLIC 91fbc 0 regdb_transaction_cancel
PUBLIC 91fe4 0 regdb_get_seqnum
PUBLIC 92000 0 regdb_subkeys_need_update
PUBLIC 92024 0 regdb_values_need_update
PUBLIC 92048 0 registry_init_common
PUBLIC 921a0 0 registry_init_basic
PUBLIC 92214 0 registry_create_admin_token
PUBLIC 9233c 0 reg_open_path
PUBLIC 92588 0 registry_init_smbconf
PUBLIC 9275c 0 sbcErrorString
PUBLIC 9287c 0 smbconf_backend_requires_messaging
PUBLIC 92890 0 smbconf_is_writeable
PUBLIC 928a4 0 smbconf_shutdown
PUBLIC 928b4 0 smbconf_changed
PUBLIC 928f0 0 smbconf_drop
PUBLIC 92904 0 smbconf_get_share_names
PUBLIC 92918 0 smbconf_share_exists
PUBLIC 9292c 0 smbconf_create_share
PUBLIC 929a4 0 smbconf_get_share
PUBLIC 929b8 0 smbconf_get_config
PUBLIC 92ab4 0 smbconf_delete_share
PUBLIC 92aec 0 smbconf_set_parameter
PUBLIC 92b00 0 smbconf_set_global_parameter
PUBLIC 92b3c 0 smbconf_get_parameter
PUBLIC 92b6c 0 smbconf_get_global_parameter
PUBLIC 92bb4 0 smbconf_delete_parameter
PUBLIC 92bc8 0 smbconf_delete_global_parameter
PUBLIC 92bfc 0 smbconf_get_includes
PUBLIC 92c1c 0 smbconf_get_global_includes
PUBLIC 92c64 0 smbconf_set_includes
PUBLIC 92c78 0 smbconf_set_global_includes
PUBLIC 92cb4 0 smbconf_delete_includes
PUBLIC 92cc8 0 smbconf_delete_global_includes
PUBLIC 92cf4 0 smbconf_transaction_start
PUBLIC 92d08 0 smbconf_transaction_commit
PUBLIC 92d1c 0 smbconf_transaction_cancel
PUBLIC 92d44 0 smbconf_init_internal
PUBLIC 92dd0 0 smbconf_add_string_to_array
PUBLIC 92e60 0 smbconf_find_in_array
PUBLIC 92ed0 0 smbconf_reverse_find_in_array
PUBLIC 93884 0 smbconf_init_txt
PUBLIC 95060 0 smbconf_init_reg
PUBLIC 95070 0 smbconf_init
PUBLIC 951b4 0 sec_privilege_mask
PUBLIC 951fc 0 se_priv_put_all_privileges
PUBLIC 9523c 0 se_priv_from_name
PUBLIC 952a0 0 get_privilege_dispname
PUBLIC 95308 0 num_privileges_in_short_list
PUBLIC 95310 0 se_priv_to_privilege_set
PUBLIC 95424 0 privilege_set_to_se_priv
PUBLIC 954a4 0 sec_privilege_name
PUBLIC 954ec 0 sec_privilege_display_name
PUBLIC 95534 0 sec_privilege_id
PUBLIC 95594 0 sec_right_bit
PUBLIC 955f0 0 sec_privilege_from_index
PUBLIC 9561c 0 sec_privilege_name_from_index
PUBLIC 95648 0 security_token_has_privilege
PUBLIC 9568c 0 security_token_set_privilege
PUBLIC 956b0 0 security_token_set_right_bit
PUBLIC 956c0 0 security_token_debug_privileges
PUBLIC 95874 0 replace_dummy
PUBLIC 95878 0 rep_vdprintf
PUBLIC 958e4 0 rep_dprintf
PUBLIC 9590c 0 rep_get_current_dir_name
PUBLIC 95944 0 rep_strerror_r
PUBLIC 95994 0 dummy_snprintf
PUBLIC 95a20 0 rep_getpass
PUBLIC 96c38 0 rep_strptime
PUBLIC 96ca4 0 rep_timegm
PUBLIC 96dd4 0 _ufc_dofinalperm
PUBLIC 97018 0 ufc_crypt
PUBLIC 97bec 0 rep_freeaddrinfo
PUBLIC 97d1c 0 rep_getaddrinfo
PUBLIC 97ef4 0 rep_gai_strerror
PUBLIC 97f0c 0 rep_getnameinfo
PUBLIC 980fc 0 rep_freeifaddrs
PUBLIC 9813c 0 rep_getifaddrs
PUBLIC 983b8 0 rb_insert_color
PUBLIC 984ec 0 rb_erase
PUBLIC 98840 0 rb_first
PUBLIC 98860 0 rb_last
PUBLIC 98880 0 rb_next
PUBLIC 988e0 0 rb_prev
PUBLIC 98940 0 rb_replace_node
PUBLIC 989a0 0 rb_link_node
PUBLIC 989dc 0 BlockSignals
PUBLIC 98a38 0 CatchSignal
PUBLIC 98abc 0 CatchChild
PUBLIC 98ad0 0 CatchChildLeaveStatus
PUBLIC 98b74 0 get_time_t_max
PUBLIC 98b7c 0 GetTimeOfDay
PUBLIC 98b84 0 clock_gettime_mono
PUBLIC 98bb0 0 time_mono
PUBLIC 98be8 0 convert_timespec_to_time_t
PUBLIC 98c34 0 convert_time_t_to_timespec
PUBLIC 98c44 0 unix_to_nt_time
PUBLIC 98ca4 0 null_time
PUBLIC 98cb8 0 null_nttime
PUBLIC 98cdc 0 push_dos_date
PUBLIC 98d18 0 push_dos_date2
PUBLIC 98d58 0 push_dos_date3
PUBLIC 98da0 0 interpret_dos_date
PUBLIC 98e08 0 pull_dos_date
PUBLIC 98e74 0 pull_dos_date2
PUBLIC 98ec4 0 pull_dos_date3
PUBLIC 98f00 0 timeval_string
PUBLIC 98fcc 0 current_timestring
PUBLIC 98ff8 0 http_timestring
PUBLIC 99080 0 timestring
PUBLIC 990ec 0 push_nttime
PUBLIC 99128 0 pull_nttime
PUBLIC 99188 0 usec_time_diff
PUBLIC 991b4 0 nsec_time_diff
PUBLIC 991e0 0 timeval_zero
PUBLIC 991f0 0 timeval_is_zero
PUBLIC 99214 0 timeval_current
PUBLIC 99238 0 timeval_set
PUBLIC 99240 0 timeval_add
PUBLIC 99288 0 timeval_sum
PUBLIC 992a0 0 timeval_current_ofs
PUBLIC 992d8 0 timeval_compare
PUBLIC 99318 0 timeval_expired
PUBLIC 99360 0 timeval_elapsed2
PUBLIC 993a8 0 timeval_elapsed
PUBLIC 993cc 0 timeval_min
PUBLIC 99410 0 timeval_max
PUBLIC 99454 0 timeval_until
PUBLIC 994bc 0 timeval_to_nttime
PUBLIC 994f8 0 nttime_to_timeval
PUBLIC 99570 0 get_time_zone
PUBLIC 996b0 0 nt_time_to_unix_timespec
PUBLIC 99770 0 nt_time_to_unix
PUBLIC 99798 0 nt_time_string
PUBLIC 997d4 0 nt_time_equal
PUBLIC 997f0 0 null_timespec
PUBLIC 998ac 0 x_fileno
PUBLIC 998b4 0 x_fflush
PUBLIC 99940 0 x_setvbuf
PUBLIC 999b8 0 x_fopen
PUBLIC 99a50 0 x_fclose
PUBLIC 99af8 0 x_fwrite
PUBLIC 99c04 0 x_vfprintf
PUBLIC 99c54 0 x_fprintf
PUBLIC 99c7c 0 x_setbuffer
PUBLIC 99c90 0 x_setbuf
PUBLIC 99ca4 0 x_setlinebuf
PUBLIC 99cb4 0 x_feof
PUBLIC 99cc0 0 x_ferror
PUBLIC 99ccc 0 x_fgetc
PUBLIC 99d28 0 x_fread
PUBLIC 99db4 0 x_fgets
PUBLIC 99e20 0 x_tseek
PUBLIC 99ec8 0 x_fdup
PUBLIC 99f44 0 str_list_make_empty
PUBLIC 99f70 0 str_list_make_single
PUBLIC 99fdc 0 str_list_make
PUBLIC 9a100 0 str_list_make_shell
PUBLIC 9a28c 0 str_list_join
PUBLIC 9a2e8 0 str_list_join_shell
PUBLIC 9a3cc 0 str_list_length
PUBLIC 9a3f4 0 str_list_copy
PUBLIC 9a488 0 str_list_equal
PUBLIC 9a4f8 0 str_list_add
PUBLIC 9a56c 0 str_list_remove
PUBLIC 9a5c4 0 str_list_check
PUBLIC 9a5f8 0 str_list_check_ci
PUBLIC 9a62c 0 str_list_append
PUBLIC 9a6bc 0 str_list_unique
PUBLIC 9a7ec 0 str_list_show
PUBLIC 9a920 0 str_list_append_const
PUBLIC 9a9a0 0 str_list_add_const
PUBLIC 9a9f4 0 str_list_copy_const
PUBLIC 9aa54 0 const_str_list
PUBLIC 9aa58 0 fgets_slash
PUBLIC 9ac18 0 afdgets
PUBLIC 9ad1c 0 fd_load
PUBLIC 9adc8 0 file_load
PUBLIC 9ae2c 0 map_file
PUBLIC 9b038 0 unmap_file
PUBLIC 9b0d4 0 file_lines_parse
PUBLIC 9b1f4 0 file_lines_load
PUBLIC 9b230 0 fd_lines_load
PUBLIC 9b26c 0 file_lines_slashcont
PUBLIC 9b2fc 0 file_save
PUBLIC 9b354 0 vfdprintf
PUBLIC 9b3a0 0 fdprintf
PUBLIC 9b3c8 0 large_file_support
PUBLIC 9b430 0 file_compare
PUBLIC 9b50c 0 data_blob_talloc_named
PUBLIC 9b5a8 0 data_blob_named
PUBLIC 9b5d8 0 data_blob_free
PUBLIC 9b608 0 data_blob_clear
PUBLIC 9b624 0 data_blob_talloc_zero
PUBLIC 9b670 0 data_blob_clear_free
PUBLIC 9b688 0 data_blob_cmp
PUBLIC 9b6f8 0 data_blob_hex_string_lower
PUBLIC 9b774 0 data_blob_hex_string_upper
PUBLIC 9b7f0 0 data_blob_string_const
PUBLIC 9b818 0 data_blob_string_const_null
PUBLIC 9b844 0 data_blob_const
PUBLIC 9b84c 0 data_blob_realloc
PUBLIC 9b890 0 data_blob_append
PUBLIC 9ba90 0 tmpdir
PUBLIC 9babc 0 file_exist
PUBLIC 9baf8 0 file_modtime
PUBLIC 9bb1c 0 directory_exist
PUBLIC 9bb60 0 directory_create_or_exist
PUBLIC 9bddc 0 smb_msleep
PUBLIC 9be5c 0 get_myname
PUBLIC 9bf10 0 process_exists_by_pid
PUBLIC 9bfc4 0 fcntl_lock
PUBLIC 9c2b0 0 print_asc_cb
PUBLIC 9c310 0 print_asc
PUBLIC 9c33c 0 dump_data_cb
PUBLIC 9c5e4 0 dump_data
PUBLIC 9c674 0 dump_data_skip_zeros
PUBLIC 9c704 0 smb_xmalloc
PUBLIC 9c738 0 smb_xmemdup
PUBLIC 9c75c 0 smb_xstrdup
PUBLIC 9c77c 0 smb_xstrndup
PUBLIC 9c79c 0 memdup
PUBLIC 9c7d8 0 dump_data_pw
PUBLIC 9c7dc 0 all_zero
PUBLIC 9c814 0 realloc_array
PUBLIC 9c884 0 malloc_array
PUBLIC 9c89c 0 trim_string
PUBLIC 9c990 0 count_chars
PUBLIC 9c9b4 0 strhex_to_str
PUBLIC 9ca78 0 strhex_to_data_blob
PUBLIC 9cae8 0 hex_encode
PUBLIC 9cb50 0 hex_encode_talloc
PUBLIC 9cbc8 0 strcmp_safe
PUBLIC 9cbf8 0 ascii_len_n
PUBLIC 9cc14 0 set_boolean
PUBLIC 9cd20 0 utf16_len
PUBLIC 9cd48 0 utf16_len_n
PUBLIC 9cd84 0 next_token_talloc
PUBLIC 9cd9c 0 next_token_no_ltrim_talloc
PUBLIC 9cdb4 0 next_token
PUBLIC 9ce90 0 anonymous_shared_allocate
PUBLIC 9cf2c 0 anonymous_shared_free
PUBLIC 9cf40 0 sys_fsusage
PUBLIC 9d7ac 0 pm_process
PUBLIC 9dd80 0 talloc_stackframe
PUBLIC 9dd88 0 talloc_stackframe_pool
PUBLIC 9dd8c 0 talloc_tos
PUBLIC 9dfd0 0 set_need_random_reseed
PUBLIC 9dfec 0 set_rand_reseed_callback
PUBLIC 9e004 0 generate_random_buffer
PUBLIC 9e360 0 generate_secret_buffer
PUBLIC 9e3dc 0 generate_random
PUBLIC 9e410 0 check_password_quality
PUBLIC 9e4b8 0 generate_random_str_list
PUBLIC 9e538 0 generate_random_str
PUBLIC 9e5a0 0 generate_random_password
PUBLIC 9e650 0 generate_unique_strs
PUBLIC 9e7b8 0 zero_sockaddr
PUBLIC 9e7dc 0 interpret_string_addr_internal
PUBLIC 9e9f0 0 interpret_string_addr
PUBLIC 9e9f8 0 interpret_string_addr_prefer_ipv4
PUBLIC 9ea00 0 is_zero_ip_v4
PUBLIC 9ea0c 0 same_net_v4
PUBLIC 9ea2c 0 is_ipaddress_v4
PUBLIC 9ea54 0 interpret_addr
PUBLIC 9ec38 0 interpret_addr2
PUBLIC 9ec44 0 is_ipaddress
PUBLIC 9ece0 0 is_broadcast_addr
PUBLIC 9ed20 0 is_loopback_ip_v4
PUBLIC 9ed38 0 is_loopback_addr
PUBLIC 9eda4 0 is_zero_addr
PUBLIC 9ee0c 0 zero_ip_v4
PUBLIC 9ee18 0 in_addr_to_sockaddr_storage
PUBLIC 9ee40 0 in6_addr_to_sockaddr_storage
PUBLIC 9ee80 0 same_net
PUBLIC 9ef7c 0 sockaddr_equal
PUBLIC 9efd0 0 is_address_any
PUBLIC 9f024 0 set_sockaddr_port
PUBLIC 9f044 0 get_sockaddr_port
PUBLIC 9f054 0 print_sockaddr_len
PUBLIC 9f098 0 print_sockaddr
PUBLIC 9f0a0 0 print_canonical_sockaddr
PUBLIC 9f120 0 get_socket_port
PUBLIC 9f1f8 0 client_socket_addr
PUBLIC 9f2dc 0 close_low_fds
PUBLIC 9f430 0 become_daemon
PUBLIC 9f478 0 sys_gethostbyname
PUBLIC 9f47c 0 sys_inet_makeaddr
PUBLIC 9f484 0 sys_fork
PUBLIC 9f4ac 0 sys_getpid
PUBLIC 9f4e0 0 sys_getpeereid
PUBLIC 9f540 0 sys_getnameinfo
PUBLIC 9f57c 0 sys_connect
PUBLIC 9f5a8 0 tevent_req_is_unix_error
PUBLIC 9f5f8 0 _tevent_req_nterror
PUBLIC 9f628 0 tevent_req_is_nterror
PUBLIC 9f6b8 0 tevent_req_simple_recv_ntstatus
PUBLIC 9f6d4 0 tevent_req_simple_finish_ntstatus
PUBLIC 9f750 0 _tevent_req_werror
PUBLIC 9f76c 0 tevent_req_is_werror
PUBLIC 9f7c0 0 tevent_req_simple_recv_werror
PUBLIC 9f7f8 0 tevent_req_simple_finish_werror
PUBLIC 9f874 0 smb_thread_set_functions
PUBLIC 9f994 0 smb_thread_once
PUBLIC 9fa68 0 add_gid_to_array_unique
PUBLIC 9fb10 0 add_uid_to_array_unique
PUBLIC 9fbb8 0 set_blocking
PUBLIC 9fd4c 0 rfc1738_escape
PUBLIC 9fd54 0 rfc1738_escape_unescaped
PUBLIC 9fd5c 0 rfc1738_escape_part
PUBLIC 9fd64 0 rfc1738_unescape
PUBLIC 9fe1c 0 sys_select_signal
PUBLIC 9fe88 0 sys_poll
PUBLIC a0064 0 sys_poll_intr
PUBLIC a00f4 0 sys_setpwent
PUBLIC a00f8 0 sys_getpwent
PUBLIC a0100 0 sys_endpwent
PUBLIC a0104 0 sys_getpwnam
PUBLIC a0108 0 sys_getpwuid
PUBLIC a010c 0 sys_getgrnam
PUBLIC a0110 0 sys_getgrgid
PUBLIC a0114 0 tcopy_passwd
PUBLIC a018c 0 getpwnam_alloc
PUBLIC a01b0 0 getpwuid_alloc
PUBLIC a01d4 0 crc32_calc_buffer
PUBLIC a0c38 0 MD5Init
PUBLIC a0c6c 0 MD5Update
PUBLIC a0d50 0 MD5Final
PUBLIC a0e14 0 hmac_md5_init_rfc2104
PUBLIC a0ef8 0 hmac_md5_init_limK_to_64
PUBLIC a0f04 0 hmac_md5_update
PUBLIC a0f1c 0 hmac_md5_final
PUBLIC a0f6c 0 hmac_md5
PUBLIC a0fbc 0 arcfour_init
PUBLIC a1034 0 arcfour_crypt_sbox
PUBLIC a109c 0 arcfour_crypt_blob
PUBLIC a10d4 0 arcfour_crypt
PUBLIC a1804 0 mdfour
PUBLIC a1960 0 SHA256_Init
PUBLIC a19d0 0 SHA256_Update
PUBLIC a1c7c 0 SHA256_Final
PUBLIC a1d54 0 hmac_sha256_init
PUBLIC a1e38 0 hmac_sha256_update
PUBLIC a1e50 0 hmac_sha256_final
PUBLIC a1ea0 0 samba_AES_set_encrypt_key
PUBLIC a1ed4 0 samba_AES_decrypt_key
PUBLIC a1f08 0 samba_AES_encrypt
PUBLIC a1f20 0 samba_AES_decrypt
PUBLIC a1f38 0 samba_AES_cbc_encrypt
PUBLIC a21a0 0 aes_cfb8_encrypt
PUBLIC a2258 0 _samba_rijndaelKeySetupEnc
PUBLIC a2630 0 _samba_rijndaelKeySetupDec
PUBLIC a2868 0 _samba_rijndaelEncrypt
PUBLIC a2d10 0 _samba_rijndaelDecrypt
PUBLIC a31c4 0 message_send_all
PUBLIC a3298 0 messaging_event_context
PUBLIC a32a0 0 messaging_server_id
PUBLIC a32b4 0 messaging_reinit
PUBLIC a3378 0 messaging_register
PUBLIC a3488 0 messaging_init
PUBLIC a35a4 0 messaging_deregister
PUBLIC a36dc 0 messaging_send
PUBLIC a37f8 0 messaging_send_buf
PUBLIC a393c 0 messaging_dispatch_rec
PUBLIC a39a4 0 ndr_push_messaging_type
PUBLIC a39ac 0 ndr_pull_messaging_type
PUBLIC a39d4 0 ndr_print_messaging_type
PUBLIC a3fb0 0 ndr_push_messaging_rec
PUBLIC a4068 0 ndr_pull_messaging_rec
PUBLIC a411c 0 ndr_print_messaging_rec
PUBLIC a41e4 0 ndr_push_messaging_array
PUBLIC a4270 0 ndr_pull_messaging_array
PUBLIC a43ec 0 ndr_print_messaging_array
PUBLIC a44c0 0 ndr_push_dbwrap_tdb2_changes
PUBLIC a4680 0 ndr_pull_dbwrap_tdb2_changes
PUBLIC a493c 0 ndr_print_dbwrap_tdb2_changes
PUBLIC a5630 0 messaging_tdb_init
PUBLIC a5934 0 messaging_tdb_parent_init
PUBLIC a59f8 0 messaging_ctdbd_init
PUBLIC a5a08 0 packet_init
PUBLIC a5a48 0 packet_fd_read
PUBLIC a5d04 0 packet_fd_read_sync
PUBLIC a5e88 0 packet_handler
PUBLIC a5f50 0 packet_outgoing_bytes
PUBLIC a5f58 0 packet_fd_write
PUBLIC a6024 0 packet_flush
PUBLIC a6050 0 packet_send
PUBLIC a6270 0 packet_get_fd
PUBLIC a632c 0 make_netmask
PUBLIC a63d8 0 make_bcast
PUBLIC a6454 0 make_net
PUBLIC a64c8 0 get_interfaces
PUBLIC a6988 0 memcache_init
PUBLIC a69c8 0 memcache_set_global
PUBLIC a69f8 0 memcache_lookup
PUBLIC a6b08 0 memcache_lookup_talloc
PUBLIC a6b54 0 memcache_delete
PUBLIC a6ba8 0 memcache_add
PUBLIC a6e78 0 memcache_add_talloc
PUBLIC a6eec 0 memcache_flush
PUBLIC a6fe4 0 talloc_dict_init
PUBLIC a7040 0 talloc_dict_set
PUBLIC a7178 0 talloc_dict_fetch
PUBLIC a723c 0 talloc_dict_traverse
PUBLIC a74f0 0 serverid_parent_init
PUBLIC a75b4 0 serverid_register
PUBLIC a7764 0 serverid_register_msg_flags
PUBLIC a7974 0 serverid_deregister
PUBLIC a7ae4 0 serverid_exists
PUBLIC a7b9c 0 serverid_traverse_read
PUBLIC a7be4 0 serverid_traverse
PUBLIC a7c2c 0 serverid_get_random_unique_id
PUBLIC a7c68 0 sconn_server_id
PUBLIC a7c90 0 transfer_file_internal
PUBLIC a7e24 0 transfer_file
PUBLIC a8568 0 sendto_send
PUBLIC a8668 0 sendto_recv
PUBLIC a86b4 0 recvfrom_send
PUBLIC a878c 0 recvfrom_recv
PUBLIC a87d8 0 async_connect_send
PUBLIC a89dc 0 async_connect_recv
PUBLIC a8a54 0 writev_send
PUBLIC a8bac 0 writev_recv
PUBLIC a8bf8 0 read_packet_send
PUBLIC a8cfc 0 read_packet_recv
PUBLIC a8d68 0 addrchange_context_create
PUBLIC a8d74 0 addrchange_send
PUBLIC a8d7c 0 addrchange_recv
PUBLIC a92b0 0 tdb_chainlock_with_timeout
PUBLIC a92d4 0 tdb_lock_bystring_with_timeout
PUBLIC a9300 0 tdb_read_lock_bystring_with_timeout
PUBLIC a9338 0 tdb_pack
PUBLIC a9360 0 tdb_pack_append
PUBLIC a943c 0 tdb_unpack
PUBLIC a9798 0 tdb_open_log
PUBLIC a9854 0 tdb_trans_store
PUBLIC a9a04 0 tdb_trans_store_bystring
PUBLIC a9a4c 0 tdb_trans_delete
PUBLIC a9bd0 0 map_nt_error_from_tdb
PUBLIC a9bfc 0 tdb_data_cmp
PUBLIC a9c78 0 make_tdb_data
PUBLIC a9c80 0 tdb_data_equal
PUBLIC a9cbc 0 string_tdb_data
PUBLIC a9cf4 0 string_term_tdb_data
PUBLIC a9d2c 0 tdb_lock_bystring
PUBLIC a9d50 0 tdb_unlock_bystring
PUBLIC a9d74 0 tdb_read_lock_bystring
PUBLIC a9d98 0 tdb_read_unlock_bystring
PUBLIC a9dbc 0 tdb_fetch_int32_byblob
PUBLIC a9e2c 0 tdb_fetch_int32
PUBLIC a9e50 0 tdb_store_int32_byblob
PUBLIC a9e9c 0 tdb_store_int32
PUBLIC a9ec8 0 tdb_fetch_uint32_byblob
PUBLIC a9f3c 0 tdb_fetch_uint32
PUBLIC a9f68 0 tdb_store_uint32_byblob
PUBLIC a9fbc 0 tdb_store_uint32
PUBLIC a9fe8 0 tdb_store_bystring
PUBLIC aa030 0 tdb_fetch_bystring
PUBLIC aa064 0 tdb_delete_bystring
PUBLIC aa088 0 tdb_change_int32_atomic
PUBLIC aa10c 0 tdb_change_uint32_atomic
PUBLIC aa1a4 0 tdb_traverse_delete_fn
PUBLIC aa350 0 tdb_wrap_open
PUBLIC aa614 0 db_is_local
PUBLIC aa61c 0 db_open
PUBLIC aa674 0 dbwrap_delete
PUBLIC aa6d0 0 dbwrap_store
PUBLIC aa748 0 dbwrap_fetch
PUBLIC aa7b0 0 dbwrap_delete_bystring
PUBLIC aa7d4 0 dbwrap_store_bystring
PUBLIC aa81c 0 dbwrap_fetch_bystring
PUBLIC ab1a0 0 db_open_tdb
PUBLIC abc7c 0 g_lock_ctx_init
PUBLIC abd60 0 g_lock_unlock
PUBLIC abda4 0 g_lock_lock
PUBLIC ac94c 0 g_lock_locks
PUBLIC ac978 0 g_lock_dump
PUBLIC acaf8 0 g_lock_get
PUBLIC acb44 0 g_lock_do
PUBLIC ad368 0 db_open_rbt
PUBLIC ad42c 0 samba_version_string
PUBLIC ad43c 0 lp_failed_convert_char
PUBLIC ad444 0 gfree_charcnv
PUBLIC ad484 0 init_iconv
PUBLIC ad4d8 0 lazy_initialize_conv
PUBLIC ada34 0 convert_string
PUBLIC adc84 0 convert_string_talloc
PUBLIC ae388 0 talloc_strdup_upper
PUBLIC ae4b8 0 strupper_talloc
PUBLIC ae4bc 0 unix_strlower
PUBLIC ae594 0 ucs2_align
PUBLIC ae5a8 0 push_ascii
PUBLIC ae674 0 push_ascii_fstring
PUBLIC ae680 0 push_ascii_talloc
PUBLIC ae6d0 0 pull_ascii
PUBLIC ae7b4 0 pull_ascii_fstring
PUBLIC ae7d4 0 pull_ascii_nstring
PUBLIC ae7fc 0 push_ucs2
PUBLIC ae910 0 push_ucs2_talloc
PUBLIC ae95c 0 unix_strupper
PUBLIC aea08 0 push_ascii_nstring
PUBLIC aeb24 0 push_utf8_fstring
PUBLIC aeb84 0 push_utf8_talloc
PUBLIC aebd4 0 pull_ucs2
PUBLIC aed18 0 pull_ucs2_base_talloc
PUBLIC aeeb0 0 pull_ucs2_fstring
PUBLIC aeee0 0 pull_ucs2_talloc
PUBLIC aef30 0 talloc_strdup_lower
PUBLIC aefbc 0 strlower_talloc
PUBLIC aefc0 0 pull_utf8_talloc
PUBLIC af010 0 pull_ascii_talloc
PUBLIC af060 0 push_string_check_fn
PUBLIC af098 0 push_string_base
PUBLIC af0e8 0 push_string
PUBLIC af12c 0 pull_string_fn
PUBLIC af1ac 0 pull_string_talloc_fn
PUBLIC af378 0 align_string
PUBLIC af3f4 0 gfree_debugsyms
PUBLIC af490 0 debug_list_class_names_and_levels
PUBLIC af520 0 debug_setup_talloc_log
PUBLIC af5bc 0 debug_add_class
PUBLIC af6a4 0 debug_set_settings
PUBLIC af6c0 0 debug_set_logfile
PUBLIC af710 0 debug_get_output_is_stderr
PUBLIC af734 0 force_check_log_size
PUBLIC af74c 0 debug_schedule_reopen_logs
PUBLIC af764 0 need_to_check_log_size
PUBLIC af7cc 0 dbgtext
PUBLIC af928 0 reopen_logs_internal
PUBLIC afb04 0 check_log_size
PUBLIC afd04 0 Debug1
PUBLIC afe34 0 dbgflush
PUBLIC afe38 0 dbghdrclass
PUBLIC b0058 0 debug_lookup_classname
PUBLIC b015c 0 setup_logging
PUBLIC b01a0 0 debug_parse_levels
PUBLIC b0414 0 log_suspicious_usage
PUBLIC b0438 0 print_suspicious_usage
PUBLIC b045c 0 get_task_id
PUBLIC b0488 0 log_task_id
PUBLIC b04cc 0 register_debug_handlers
PUBLIC b04ec 0 debug_message
PUBLIC b0704 0 reopen_logs
PUBLIC b0788 0 debug_register_msgs
PUBLIC b09a4 0 fault_setup
PUBLIC b09ec 0 dump_core_setup
PUBLIC b0d34 0 dump_core
PUBLIC b1930 0 ismyaddr
PUBLIC b1970 0 ismyip_v4
PUBLIC b1994 0 is_local_net
PUBLIC b19d8 0 setup_linklocal_scope_id
PUBLIC b1a24 0 is_local_net_v4
PUBLIC b1a48 0 iface_count
PUBLIC b1a70 0 iface_count_v4_nl
PUBLIC b1ab8 0 first_ipv4_iface
PUBLIC b1b04 0 get_interface
PUBLIC b1b2c 0 iface_n_sockaddr_storage
PUBLIC b1b5c 0 iface_n_ip_v4
PUBLIC b1bb0 0 iface_n_bcast_v4
PUBLIC b1c04 0 iface_n_bcast
PUBLIC b1c34 0 iface_ip
PUBLIC b1c8c 0 iface_local
PUBLIC b1ca4 0 gfree_interfaces
PUBLIC b1d1c 0 load_interfaces
PUBLIC b1f60 0 interfaces_changed
PUBLIC b1fdc 0 pidfile_pid
PUBLIC b21ec 0 pidfile_create
PUBLIC b255c 0 pidfile_unlink
PUBLIC b2750 0 sys_memalign
PUBLIC b2784 0 sys_usleep
PUBLIC b27b8 0 sys_read
PUBLIC b281c 0 sys_write
PUBLIC b2880 0 sys_writev
PUBLIC b28e4 0 sys_pread
PUBLIC b2934 0 sys_pwrite
PUBLIC b2984 0 sys_send
PUBLIC b29f0 0 sys_sendto
PUBLIC b2a6c 0 sys_recv
PUBLIC b2ad8 0 sys_recvfrom
PUBLIC b2b54 0 sys_fcntl_ptr
PUBLIC b2b98 0 sys_fcntl_long
PUBLIC b2bdc 0 update_stat_ex_mtime
PUBLIC b2c9c 0 update_stat_ex_create_time
PUBLIC b2cc4 0 sys_stat
PUBLIC b2d18 0 sys_fstat
PUBLIC b2d6c 0 sys_lstat
PUBLIC b2dc0 0 sys_posix_fallocate
PUBLIC b2dc8 0 sys_fallocate
PUBLIC b2de0 0 sys_ftruncate
PUBLIC b2de4 0 sys_lseek
PUBLIC b2de8 0 sys_fseek
PUBLIC b2dec 0 sys_ftell
PUBLIC b2dfc 0 sys_open
PUBLIC b2e00 0 sys_creat
PUBLIC b2e0c 0 sys_fopen
PUBLIC b2e10 0 kernel_flock
PUBLIC b2e14 0 sys_opendir
PUBLIC b2e18 0 sys_fdopendir
PUBLIC b2e1c 0 sys_readdir
PUBLIC b2e20 0 sys_seekdir
PUBLIC b2e24 0 sys_telldir
PUBLIC b2e2c 0 sys_rewinddir
PUBLIC b2e30 0 sys_closedir
PUBLIC b2e34 0 sys_mknod
PUBLIC b2e38 0 sys_waitpid
PUBLIC b2e3c 0 sys_getwd
PUBLIC b2e44 0 set_effective_capability
PUBLIC b2e48 0 drop_effective_capability
PUBLIC b2e4c 0 sys_random
PUBLIC b2e50 0 sys_srandom
PUBLIC b2e54 0 groups_max
PUBLIC b2e6c 0 sys_getgroups
PUBLIC b2e70 0 sys_setgroups
PUBLIC b2e7c 0 sys_popen
PUBLIC b322c 0 sys_pclose
PUBLIC b32c8 0 sys_adminlog
PUBLIC b3330 0 sys_getxattr
PUBLIC b3348 0 sys_lgetxattr
PUBLIC b3360 0 sys_fgetxattr
PUBLIC b3378 0 sys_listxattr
PUBLIC b3390 0 sys_llistxattr
PUBLIC b33a8 0 sys_flistxattr
PUBLIC b33c0 0 sys_removexattr
PUBLIC b33d8 0 sys_lremovexattr
PUBLIC b33f0 0 sys_fremovexattr
PUBLIC b3408 0 sys_setxattr
PUBLIC b3420 0 sys_lsetxattr
PUBLIC b3438 0 sys_fsetxattr
PUBLIC b3450 0 unix_dev_major
PUBLIC b3458 0 unix_dev_minor
PUBLIC b3460 0 sys_aio_read
PUBLIC b3478 0 sys_aio_write
PUBLIC b3490 0 sys_aio_return
PUBLIC b34a8 0 sys_aio_cancel
PUBLIC b34c0 0 sys_aio_error
PUBLIC b34d8 0 sys_aio_fsync
PUBLIC b34f0 0 sys_aio_suspend
PUBLIC b3508 0 sys_sendfile
PUBLIC b3614 0 sys_recvfile
PUBLIC b37e4 0 drain_socket
PUBLIC b3870 0 nttime_from_string
PUBLIC b387c 0 convert_time_t_to_uint32_t
PUBLIC b3880 0 convert_uint32_t_to_time_t
PUBLIC b3884 0 nt_time_is_zero
PUBLIC b3898 0 generalized_to_unix_time
PUBLIC b3928 0 get_server_zone_offset
PUBLIC b3938 0 set_server_zone_offset
PUBLIC b3954 0 srv_put_dos_date
PUBLIC b3968 0 srv_put_dos_date2
PUBLIC b397c 0 srv_put_dos_date3
PUBLIC b3990 0 dos_filetime_timespec
PUBLIC b39a8 0 make_unix_date
PUBLIC b3a14 0 make_unix_date2
PUBLIC b3a64 0 make_unix_date3
PUBLIC b3aa0 0 srv_make_unix_date
PUBLIC b3ab0 0 srv_make_unix_date2
PUBLIC b3ac0 0 srv_make_unix_date3
PUBLIC b3ad0 0 convert_timeval_to_timespec
PUBLIC b3af8 0 convert_timespec_to_timeval
PUBLIC b3b2c 0 timespec_current
PUBLIC b3b54 0 timespec_min
PUBLIC b3b98 0 timespec_compare
PUBLIC b3bd8 0 round_timespec_to_sec
PUBLIC b3bf8 0 round_timespec_to_usec
PUBLIC b3c60 0 round_timespec
PUBLIC b3c80 0 interpret_long_date
PUBLIC b3d10 0 TimeInit
PUBLIC b3db4 0 get_process_uptime
PUBLIC b3e0c 0 get_startup_time
PUBLIC b3e2c 0 nt_time_to_unix_abs
PUBLIC b3ea0 0 uint64s_nt_time_to_unix_abs
PUBLIC b3ec0 0 unix_timespec_to_nt_time
PUBLIC b3f60 0 put_long_date_timespec
PUBLIC b3fcc 0 put_long_date
PUBLIC b3ff8 0 unix_to_nt_time_abs
PUBLIC b4070 0 time_to_asc
PUBLIC b40b8 0 display_time
PUBLIC b41d4 0 nt_time_is_set
PUBLIC b4360 0 flush_pwnam_cache
PUBLIC b436c 0 Get_Pwnam_alloc
PUBLIC b4714 0 get_user_home_dir
PUBLIC b475c 0 ds_acb2uf
PUBLIC b4798 0 ds_uf2acb
PUBLIC b47d4 0 ds_uf2atype
PUBLIC b4800 0 ds_gtype2atype
PUBLIC b4868 0 ds_atype_map
PUBLIC b490c 0 ds_uf2prim_group_rid
PUBLIC b4cf0 0 client_match
PUBLIC b4d70 0 list_match
PUBLIC b4e30 0 allow_access
PUBLIC b553c 0 smbrun_no_sanitize
PUBLIC b5544 0 smbrun
PUBLIC b554c 0 smbrunsecret
PUBLIC b58ec 0 bitmap_talloc
PUBLIC b5970 0 bitmap_copy
PUBLIC b5a34 0 bitmap_set
PUBLIC b5ad8 0 bitmap_clear
PUBLIC b5b7c 0 bitmap_query
PUBLIC b5bb4 0 bitmap_find
PUBLIC b5c94 0 d_vfprintf
PUBLIC b5d88 0 d_fprintf
PUBLIC b5db0 0 d_printf
PUBLIC b5e0c 0 display_set_stderr
PUBLIC b5e30 0 str_regtype
PUBLIC b5e78 0 regtype_by_string
PUBLIC b5ec8 0 push_reg_sz
PUBLIC b5f0c 0 push_reg_multi_sz
PUBLIC b5f50 0 pull_reg_sz
PUBLIC b5f9c 0 pull_reg_multi_sz
PUBLIC b61d8 0 wins_srv_is_dead
PUBLIC b6294 0 wins_srv_alive
PUBLIC b6324 0 wins_srv_died
PUBLIC b6410 0 wins_srv_count
PUBLIC b6454 0 wins_srv_tags
PUBLIC b6540 0 wins_srv_tags_free
PUBLIC b6570 0 wins_srv_ip_tag
PUBLIC b66e8 0 wins_srv_count_tag
PUBLIC b6764 0 StrCaseCmp
PUBLIC b6890 0 StrnCaseCmp
PUBLIC b69e0 0 strequal
PUBLIC b6a18 0 strnequal
PUBLIC b6a64 0 strcsequal
PUBLIC b6a9c 0 strwicmp
PUBLIC b6b54 0 string_replace
PUBLIC b6bc8 0 push_skip_string
PUBLIC b6be0 0 skip_string
PUBLIC b6c3c 0 str_charnum
PUBLIC b6c98 0 str_ascii_charnum
PUBLIC b6cf8 0 trim_char
PUBLIC b6e18 0 strhasupper
PUBLIC b6e88 0 strhaslower
PUBLIC b6ef8 0 strisnormal
PUBLIC b6f1c 0 safe_strcpy_fn
PUBLIC b7058 0 safe_strcat_fn
PUBLIC b71c4 0 alpha_strcpy_fn
PUBLIC b7304 0 StrnCpy_fn
PUBLIC b73d0 0 in_list
PUBLIC b7480 0 string_free
PUBLIC b74d0 0 string_set
PUBLIC b7598 0 octal_string
PUBLIC b7660 0 string_truncate
PUBLIC b7688 0 strchr_m
PUBLIC b77b8 0 strrchr_m
PUBLIC b78f8 0 strnrchr_m
PUBLIC b79e8 0 strstr_m
PUBLIC b7cf0 0 string_sub2
PUBLIC b7ee0 0 string_sub_once
PUBLIC b7f04 0 string_sub
PUBLIC b7f28 0 fstring_sub
PUBLIC b7f30 0 realloc_string_sub2
PUBLIC b81c4 0 realloc_string_sub
PUBLIC b81e0 0 talloc_string_sub2
PUBLIC b8500 0 talloc_string_sub
PUBLIC b8524 0 talloc_all_string_sub
PUBLIC b8544 0 all_string_sub
PUBLIC b868c 0 strlower_m
PUBLIC b8710 0 strupper_m
PUBLIC b8798 0 strnorm
PUBLIC b87a8 0 strlen_m_ext
PUBLIC b8884 0 strlen_m_ext_term
PUBLIC b88a4 0 strlen_m
PUBLIC b88b0 0 strlen_m_term
PUBLIC b88d0 0 strlen_m_term_null
PUBLIC b88f8 0 fstr_sprintf
PUBLIC b8924 0 str_list_sub_basic
PUBLIC b89e8 0 str_list_substitute
PUBLIC b8be8 0 ipstr_list_make
PUBLIC b8d28 0 ipstr_list_parse
PUBLIC b8ec8 0 ipstr_list_free
PUBLIC b8ed4 0 base64_decode_data_blob
PUBLIC b8fcc 0 base64_decode_inplace
PUBLIC b9018 0 base64_encode_data_blob
PUBLIC b91f8 0 STR_TO_SMB_BIG_UINT
PUBLIC b9298 0 conv_str_size
PUBLIC b93cc 0 string_append
PUBLIC b9460 0 add_string_to_array
PUBLIC b94dc 0 sprintf_append
PUBLIC b9618 0 asprintf_strupper_m
PUBLIC b9668 0 talloc_asprintf_strupper_m
PUBLIC b96a0 0 talloc_asprintf_strlower_m
PUBLIC b96d8 0 sstring_sub
PUBLIC b97ac 0 validate_net_name
PUBLIC b97fc 0 escape_shell_string
PUBLIC b9a24 0 str_list_make_v3
PUBLIC b9c30 0 sanitize_username
PUBLIC b9c88 0 clobber_region
PUBLIC b9c8c 0 sid_to_fstring
PUBLIC b9cac 0 sid_string_talloc
PUBLIC b9d34 0 sid_string_dbg
PUBLIC b9d4c 0 sid_string_tos
PUBLIC b9d64 0 sid_linearize
PUBLIC b9e08 0 non_mappable_sid
PUBLIC b9e64 0 sid_binstring_hex
PUBLIC b9ebc 0 sid_array_from_info3
PUBLIC ba2cc 0 gfree_case_tables
PUBLIC ba310 0 dos_PutUniCode
PUBLIC ba34c 0 rpcstr_push
PUBLIC ba380 0 rpcstr_push_talloc
PUBLIC ba3a0 0 isvalid83_w
PUBLIC ba424 0 strlen_w
PUBLIC ba45c 0 strnlen_w
PUBLIC ba49c 0 strchr_w
PUBLIC ba4dc 0 strchr_wa
PUBLIC ba4e0 0 strrchr_w
PUBLIC ba540 0 strnrchr_w
PUBLIC ba5b0 0 strcmp_w
PUBLIC ba614 0 strncmp_w
PUBLIC ba6a8 0 strstr_w
PUBLIC ba720 0 strndup_w
PUBLIC ba7cc 0 strdup_w
PUBLIC ba7d4 0 strncpy_w
PUBLIC ba87c 0 strncat_w
PUBLIC ba8e8 0 strcat_w
PUBLIC ba94c 0 string_replace_w
PUBLIC ba990 0 trim_string_w
PUBLIC baaa4 0 strcmp_wa
PUBLIC baaf8 0 strncmp_wa
PUBLIC bab6c 0 strpbrk_wa
PUBLIC babc0 0 strstr_wa
PUBLIC bac20 0 toupper_w
PUBLIC bac44 0 strupper_w
PUBLIC baca4 0 isupper_w
PUBLIC bacb8 0 tolower_w
PUBLIC bacdc 0 strlower_w
PUBLIC bad3c 0 strnorm_w
PUBLIC bad4c 0 strcasecmp_w
PUBLIC badec 0 strequal_w
PUBLIC bae24 0 strncasecmp_w
PUBLIC baee0 0 strnequal_w
PUBLIC baf2c 0 islower_w
PUBLIC baf98 0 load_case_tables_library
PUBLIC bb12c 0 load_case_tables
PUBLIC bb14c 0 toupper_m
PUBLIC bb1c4 0 tolower_m
PUBLIC bb23c 0 islower_m
PUBLIC bb254 0 isupper_m
PUBLIC bb26c 0 codepoint_cmpi
PUBLIC bb2a8 0 charset_name
PUBLIC bb338 0 smb_iconv_convenience_reinit
PUBLIC bb44c 0 get_iconv_convenience
PUBLIC bb4a8 0 get_conv_handle
PUBLIC bb610 0 next_codepoint_convenience_ext
PUBLIC bb760 0 next_codepoint_convenience
PUBLIC bb76c 0 push_codepoint_convenience
PUBLIC bb858 0 next_codepoint_ext
PUBLIC bb880 0 next_codepoint
PUBLIC bb8a0 0 push_codepoint
PUBLIC bb9e0 0 file_lines_pload
PUBLIC bbd40 0 get_Protocol
PUBLIC bbd50 0 set_Protocol
PUBLIC bbd64 0 set_global_scope
PUBLIC bbdb8 0 global_scope
PUBLIC bbdf8 0 gfree_names
PUBLIC bbe30 0 gfree_all
PUBLIC bbe50 0 my_netbios_names
PUBLIC bbe68 0 set_netbios_aliases
PUBLIC bbf8c 0 file_exist_stat
PUBLIC bbfd0 0 socket_exist
PUBLIC bc00c 0 get_file_size_stat
PUBLIC bc014 0 get_file_size
PUBLIC bc058 0 attrib_string
PUBLIC bc1b8 0 show_msg
PUBLIC bc3f4 0 smb_set_enclen
PUBLIC bc430 0 smb_setlen
PUBLIC bc470 0 set_message_bcc
PUBLIC bc4c8 0 message_push_blob
PUBLIC bc5e8 0 unix_clean_name
PUBLIC bc780 0 clean_name
PUBLIC bc928 0 write_data_at_offset
PUBLIC bca58 0 memalign_array
PUBLIC bca94 0 calloc_array
PUBLIC bcad8 0 Realloc
PUBLIC bcc04 0 add_to_large_array
PUBLIC bcd14 0 get_mydnsdomname
PUBLIC bcd50 0 interpret_protocol
PUBLIC bce88 0 uidtoname
PUBLIC bceec 0 gidtoname
PUBLIC bcf2c 0 nametouid
PUBLIC bcf94 0 nametogid
PUBLIC bcfdc 0 log_stack_trace
PUBLIC bd040 0 smb_panic
PUBLIC bd1f0 0 reinit_after_fork
PUBLIC bd354 0 readdirname
PUBLIC bd384 0 free_namearray
PUBLIC bd3bc 0 fcntl_getlock
PUBLIC bd5dc 0 is_myname
PUBLIC bd690 0 is_myworkgroup
PUBLIC bd718 0 get_remote_arch_str
PUBLIC bd740 0 set_remote_arch
PUBLIC bd978 0 ra_lanman_string
PUBLIC bd9e4 0 get_remote_arch
PUBLIC bd9f8 0 tab_depth
PUBLIC bda50 0 str_checksum
PUBLIC bda70 0 zero_free
PUBLIC bda98 0 set_maxfiles
PUBLIC bdd04 0 smb_xmalloc_array
PUBLIC bddc0 0 smb_xvasprintf
PUBLIC bddfc 0 myhostname
PUBLIC bde34 0 init_names
PUBLIC bdfbc 0 lock_path
PUBLIC bdfd8 0 pid_path
PUBLIC bdff4 0 lib_path
PUBLIC be028 0 modules_path
PUBLIC be05c 0 data_path
PUBLIC be090 0 state_path
PUBLIC be0ac 0 cache_path
PUBLIC be0c8 0 shlib_ext
PUBLIC be0cc 0 parent_dirname
PUBLIC be170 0 ms_has_wild
PUBLIC be1d0 0 set_namearray
PUBLIC be390 0 ms_has_wild_w
PUBLIC be3e0 0 mask_match
PUBLIC be464 0 is_in_path
PUBLIC be668 0 mask_match_search
PUBLIC be6d4 0 mask_match_list
PUBLIC be718 0 unix_wild_match
PUBLIC be834 0 name_to_fqdn
PUBLIC bead0 0 talloc_append_blob
PUBLIC beb48 0 map_share_mode_to_deny_mode
PUBLIC beba8 0 procid_to_pid
PUBLIC bebb0 0 set_my_vnn
PUBLIC bec38 0 get_my_vnn
PUBLIC bec4c 0 set_my_unique_id
PUBLIC bec60 0 pid_to_procid
PUBLIC bec90 0 procid_self
PUBLIC becb0 0 procid_equal
PUBLIC bece0 0 cluster_id_equal
PUBLIC bece4 0 procid_is_me
PUBLIC bed28 0 interpret_pid
PUBLIC beda8 0 procid_str
PUBLIC bede0 0 procid_str_static
PUBLIC bedf8 0 procid_valid
PUBLIC bee08 0 procid_is_local
PUBLIC bee2c 0 process_exists
PUBLIC bee84 0 trans_oob
PUBLIC beeb4 0 is_offset_safe
PUBLIC bef00 0 get_safe_ptr
PUBLIC bef1c 0 get_safe_str_ptr
PUBLIC bef68 0 get_safe_SVAL
PUBLIC bef98 0 get_safe_IVAL
PUBLIC befdc 0 split_domain_user
PUBLIC bf04c 0 strip_hostname
PUBLIC bf08c 0 tevent_req_poll_ntstatus
PUBLIC bf0b8 0 any_nt_status_not_ok
PUBLIC bf0e0 0 timeval_to_msec
PUBLIC bf114 0 valid_share_pathname
PUBLIC bf190 0 is_executable
PUBLIC bf21c 0 map_open_params_to_ntcreate
PUBLIC bf5a4 0 user_auth_info_init
PUBLIC bf5cc 0 get_cmdline_auth_info_username
PUBLIC bf5e8 0 set_cmdline_auth_info_username
PUBLIC bf630 0 get_cmdline_auth_info_domain
PUBLIC bf64c 0 set_cmdline_auth_info_domain
PUBLIC bf694 0 get_cmdline_auth_info_password
PUBLIC bf6b0 0 set_cmdline_auth_info_password
PUBLIC bf710 0 set_cmdline_auth_info_signing_state
PUBLIC bf864 0 get_cmdline_auth_info_signing_state
PUBLIC bf86c 0 set_cmdline_auth_info_use_ccache
PUBLIC bf874 0 get_cmdline_auth_info_use_ccache
PUBLIC bf87c 0 set_cmdline_auth_info_use_kerberos
PUBLIC bf884 0 get_cmdline_auth_info_use_kerberos
PUBLIC bf88c 0 set_cmdline_auth_info_fallback_after_kerberos
PUBLIC bf894 0 get_cmdline_auth_info_fallback_after_kerberos
PUBLIC bf89c 0 set_cmdline_auth_info_use_krb5_ticket
PUBLIC bf8ac 0 set_cmdline_auth_info_smb_encrypt
PUBLIC bf8b8 0 set_cmdline_auth_info_use_machine_account
PUBLIC bf8c4 0 get_cmdline_auth_info_got_pass
PUBLIC bf8cc 0 get_cmdline_auth_info_smb_encrypt
PUBLIC bf8d4 0 get_cmdline_auth_info_use_machine_account
PUBLIC bf8dc 0 get_cmdline_auth_info_copy
PUBLIC bf970 0 set_cmdline_auth_info_machine_account_creds
PUBLIC bfa6c 0 set_cmdline_auth_info_getpass
PUBLIC bfae4 0 set_global_myname
PUBLIC bfb34 0 global_myname
PUBLIC bfb44 0 set_global_myworkgroup
PUBLIC bfb98 0 lp_workgroup
PUBLIC bfbac 0 get_global_sam_name
PUBLIC bfbd8 0 gfree_netbios_names
PUBLIC c01b0 0 set_smb_read_error
PUBLIC c01bc 0 cond_set_smb_read_error
PUBLIC c01d4 0 is_a_socket
PUBLIC c0208 0 set_socket_options
PUBLIC c05b4 0 read_udp_v4_socket
PUBLIC c0798 0 write_data_iov
PUBLIC c08a0 0 write_data
PUBLIC c08bc 0 send_keepalive
PUBLIC c08f8 0 open_socket_in
PUBLIC c0cfc 0 open_socket_out_send
PUBLIC c10a4 0 open_socket_out_recv
PUBLIC c11a8 0 open_socket_out
PUBLIC c1240 0 open_socket_out_defer_send
PUBLIC c1318 0 open_socket_out_defer_recv
PUBLIC c1374 0 open_udp_socket
PUBLIC c14a0 0 get_peer_name
PUBLIC c196c 0 client_name
PUBLIC c1974 0 get_peer_addr
PUBLIC c198c 0 client_addr
PUBLIC c1990 0 create_pipe_sock
PUBLIC c1e10 0 get_mydnsfullname
PUBLIC c2130 0 is_myname_or_ipaddr
PUBLIC c22d4 0 getaddrinfo_send
PUBLIC c23a0 0 getaddrinfo_recv
PUBLIC c2410 0 poll_one_fd
PUBLIC c24a8 0 poll_intr_one_fd
PUBLIC c24e4 0 read_fd_with_timeout
PUBLIC c26fc 0 read_data
PUBLIC c271c 0 read_smb_length_return_keepalive
PUBLIC c282c 0 receive_smb_raw
PUBLIC c2a14 0 sock_exec
PUBLIC c2c84 0 sec_init
PUBLIC c2cbc 0 sec_initial_uid
PUBLIC c2cd0 0 sec_initial_gid
PUBLIC c2ce4 0 non_root_mode
PUBLIC c2ebc 0 gain_root_privilege
PUBLIC c2ee4 0 gain_root_group_privilege
PUBLIC c2f0c 0 set_effective_uid
PUBLIC c2f30 0 set_effective_gid
PUBLIC c2f54 0 save_re_uid
PUBLIC c2f78 0 restore_re_uid_fromroot
PUBLIC c2fb0 0 restore_re_uid
PUBLIC c2fc4 0 save_re_gid
PUBLIC c2fe8 0 restore_re_gid
PUBLIC c3020 0 set_re_uid
PUBLIC c3064 0 become_user_permanently
PUBLIC c30bc 0 is_setuid_root
PUBLIC c3188 0 free_local_machine_name
PUBLIC c31b4 0 set_local_machine_name
PUBLIC c3294 0 get_local_machine_name
PUBLIC c3f18 0 set_remote_machine_name
PUBLIC c3ff8 0 get_remote_machine_name
PUBLIC c4020 0 sub_set_smb_name
PUBLIC c4124 0 sub_set_socket_ids
PUBLIC c41d8 0 set_current_user_info
PUBLIC c4258 0 get_current_username
PUBLIC c4298 0 standard_sub_basic
PUBLIC c42cc 0 talloc_sub_basic
PUBLIC c4314 0 talloc_sub_specified
PUBLIC c45f8 0 talloc_sub_advanced
PUBLIC c4664 0 standard_sub_advanced
PUBLIC c46b8 0 standard_sub_conn
PUBLIC c4b9c 0 dbwrap_fetch_int32
PUBLIC c4c44 0 dbwrap_store_int32
PUBLIC c4cf0 0 dbwrap_fetch_uint32
PUBLIC c4da0 0 dbwrap_store_uint32
PUBLIC c4e4c 0 dbwrap_change_uint32_atomic
PUBLIC c4e64 0 dbwrap_change_int32_atomic
PUBLIC c4e7c 0 dbwrap_trans_do
PUBLIC c4fb4 0 dbwrap_trans_change_uint32_atomic
PUBLIC c4fd8 0 dbwrap_trans_change_int32_atomic
PUBLIC c4ffc 0 dbwrap_trans_store
PUBLIC c5044 0 dbwrap_trans_store_int32
PUBLIC c50b0 0 dbwrap_trans_store_uint32
PUBLIC c511c 0 dbwrap_trans_store_bystring
PUBLIC c5164 0 dbwrap_trans_delete
PUBLIC c5188 0 dbwrap_trans_delete_bystring
PUBLIC c51ac 0 dbwrap_trans_traverse
PUBLIC c51d0 0 dbwrap_traverse
PUBLIC c5204 0 dbwrap_delete_bystring_upper
PUBLIC c5258 0 dbwrap_store_bystring_upper
PUBLIC c52c0 0 dbwrap_fetch_bystring_upper
PUBLIC c55b4 0 ms_fnmatch
PUBLIC c5818 0 gen_fnmatch
PUBLIC c5824 0 map_nt_error_from_unix
PUBLIC c5870 0 unix_to_werror
PUBLIC c5880 0 map_errno_from_nt_status
PUBLIC c5cd4 0 register_msg_pool_usage
PUBLIC c5e14 0 register_dmalloc_msgs
PUBLIC c5eb0 0 cli_simple_set_signing
PUBLIC c5f00 0 cli_temp_set_signing
PUBLIC c5f08 0 cli_calculate_sign_mac
PUBLIC c5f3c 0 cli_check_sign_mac
PUBLIC c5f44 0 cli_set_signing_negotiated
PUBLIC c5f4c 0 client_is_signing_on
PUBLIC c5f54 0 client_is_signing_allowed
PUBLIC c5f5c 0 client_is_signing_mandatory
PUBLIC c60d4 0 smb_signing_init_ex
PUBLIC c6154 0 smb_signing_init
PUBLIC c616c 0 smb_signing_next_seqnum
PUBLIC c6194 0 smb_signing_cancel_reply
PUBLIC c61b8 0 smb_signing_sign_pdu
PUBLIC c6340 0 smb_signing_check_pdu
PUBLIC c66d0 0 smb_signing_set_bsrspyl
PUBLIC c66f8 0 smb_signing_activate
PUBLIC c6924 0 smb_signing_is_active
PUBLIC c692c 0 smb_signing_is_allowed
PUBLIC c6934 0 smb_signing_is_mandatory
PUBLIC c693c 0 smb_signing_set_negotiated
PUBLIC c6954 0 smb_signing_is_negotiated
PUBLIC c73c0 0 smb_register_charset
PUBLIC c75b8 0 smb_iconv
PUBLIC c7694 0 smb_iconv_open_ex
PUBLIC c7884 0 smb_iconv_open
PUBLIC c789c 0 smb_iconv_close
PUBLIC c78b8 0 swab
PUBLIC c7988 0 lang_tdb_init
PUBLIC c7f28 0 lang_msg
PUBLIC c8000 0 lang_msg_free
PUBLIC c801c 0 lang_tdb_current
PUBLIC c811c 0 connections_fetch_entry
PUBLIC c81b0 0 connections_traverse
PUBLIC c81e8 0 connections_forall
PUBLIC c8230 0 connections_forall_read
PUBLIC c8278 0 connections_init
PUBLIC c85c4 0 pathtree_init
PUBLIC c8638 0 pathtree_add
PUBLIC c8bdc 0 pathtree_print_keys
PUBLIC c8cec 0 pathtree_find
PUBLIC c9b4c 0 gencache_parse
PUBLIC c9c30 0 gencache_stabilize
PUBLIC c9fac 0 gencache_set_data_blob
PUBLIC ca2f4 0 gencache_set
PUBLIC ca334 0 gencache_get_data_blob
PUBLIC ca3fc 0 gencache_get
PUBLIC ca488 0 gencache_del
PUBLIC ca558 0 gencache_iterate_blobs
PUBLIC ca638 0 gencache_iterate
PUBLIC ca858 0 sessionid_init
PUBLIC ca8d8 0 sessionid_fetch_record
PUBLIC ca920 0 sessionid_traverse
PUBLIC ca964 0 sessionid_traverse_read
PUBLIC cab94 0 smb_load_module
PUBLIC caba4 0 smb_load_modules
PUBLIC cac34 0 smb_probe_module
PUBLIC cadb8 0 init_modules
PUBLIC caf18 0 event_add_to_poll_args
PUBLIC cb1bc 0 run_events_poll
PUBLIC cb6f0 0 get_timed_events_timeout
PUBLIC cb7d4 0 dump_event_list
PUBLIC cb918 0 s3_tevent_context_init
PUBLIC cb9a4 0 tevent_common_context_destructor
PUBLIC cbc78 0 tevent_register_backend
PUBLIC cbd24 0 tevent_set_default_backend
PUBLIC cbd60 0 tevent_backend_list
PUBLIC cbdcc 0 tevent_context_init_byname
PUBLIC cbeb8 0 tevent_context_init
PUBLIC cbec0 0 _tevent_add_fd
PUBLIC cbef8 0 tevent_fd_set_close_fn
PUBLIC cbf20 0 tevent_fd_set_auto_close
PUBLIC cbf30 0 tevent_fd_get_flags
PUBLIC cbf60 0 tevent_fd_set_flags
PUBLIC cbf88 0 tevent_signal_support
PUBLIC cbf9c 0 tevent_set_abort_fn
PUBLIC cbfb0 0 _tevent_add_timer
PUBLIC cbff8 0 _tevent_create_immediate
PUBLIC cc04c 0 _tevent_schedule_immediate
PUBLIC cc074 0 _tevent_add_signal
PUBLIC cc0ac 0 tevent_loop_allow_nesting
PUBLIC cc0b8 0 tevent_loop_set_nesting_hook
PUBLIC cc108 0 _tevent_loop_once
PUBLIC cc1f8 0 _tevent_loop_until
PUBLIC cc308 0 tevent_common_loop_wait
PUBLIC cc3ac 0 _tevent_loop_wait
PUBLIC cc3c0 0 tevent_re_initialise
PUBLIC cc404 0 tevent_set_debug
PUBLIC cc414 0 tevent_set_debug_stderr
PUBLIC cc428 0 tevent_debug
PUBLIC cc468 0 ev_str_list_length
PUBLIC cc490 0 ev_str_list_add
PUBLIC cc504 0 ev_set_blocking
PUBLIC cc544 0 tevent_common_fd_destructor
PUBLIC cc5fc 0 tevent_common_add_fd
PUBLIC cc6c4 0 tevent_common_fd_get_flags
PUBLIC cc6cc 0 tevent_common_fd_set_flags
PUBLIC cc6dc 0 tevent_common_fd_set_close_fn
PUBLIC cc7a4 0 tevent_timeval_compare
PUBLIC cc7e4 0 tevent_timeval_zero
PUBLIC cc7f4 0 tevent_timeval_current
PUBLIC cc81c 0 tevent_timeval_set
PUBLIC cc824 0 tevent_timeval_until
PUBLIC cc88c 0 tevent_timeval_is_zero
PUBLIC cc8b0 0 tevent_timeval_add
PUBLIC cc8f8 0 tevent_timeval_current_ofs
PUBLIC cc930 0 tevent_common_add_timer
PUBLIC cca78 0 tevent_common_loop_timer_delay
PUBLIC ccd14 0 tevent_common_schedule_immediate
PUBLIC ccde8 0 tevent_common_loop_immediate
PUBLIC cd238 0 tevent_common_add_signal
PUBLIC cd62c 0 tevent_common_check_signal
PUBLIC cd87c 0 tevent_cleanup_pending_signal_handlers
PUBLIC cd8e8 0 tevent_req_default_print
PUBLIC cd950 0 tevent_req_print
PUBLIC cd97c 0 _tevent_req_create
PUBLIC cda44 0 _tevent_req_notify_callback
PUBLIC cdae8 0 _tevent_req_done
PUBLIC cdaf4 0 _tevent_req_error
PUBLIC cdb24 0 _tevent_req_nomem
PUBLIC cdb58 0 tevent_req_post
PUBLIC cdba4 0 tevent_req_is_in_progress
PUBLIC cdbb8 0 tevent_req_received
PUBLIC cdc1c 0 tevent_req_poll
PUBLIC cdc68 0 tevent_req_is_error
PUBLIC cdc98 0 tevent_req_set_endtime
PUBLIC cdd34 0 tevent_req_set_callback
PUBLIC cdd3c 0 _tevent_req_callback_data
PUBLIC cdd44 0 _tevent_req_data
PUBLIC cdd4c 0 tevent_req_set_print_fn
PUBLIC cdd54 0 tevent_req_set_cancel_fn
PUBLIC cdd5c 0 _tevent_req_cancel
PUBLIC cdd7c 0 tevent_wakeup_send
PUBLIC cde00 0 tevent_wakeup_recv
PUBLIC cdfa0 0 _tevent_queue_create
PUBLIC ce054 0 tevent_queue_add
PUBLIC ce174 0 tevent_queue_start
PUBLIC ce1e8 0 tevent_queue_stop
PUBLIC ce1f4 0 tevent_queue_length
PUBLIC cec04 0 tevent_standard_init
PUBLIC cf048 0 tevent_select_init
PUBLIC cf51c 0 tevent_poll_init
PUBLIC cfcf0 0 tevent_epoll_init
PUBLIC cfd10 0 server_event_context
PUBLIC cfd54 0 server_event_context_free
PUBLIC cfd84 0 server_messaging_context
PUBLIC cfde4 0 server_messaging_context_free
PUBLIC cfe14 0 escape_ldap_string
PUBLIC cff74 0 escape_rdn_val_string_alloc
PUBLIC d0024 0 get_sec_info
PUBLIC d00d8 0 make_sec_desc
PUBLIC d0244 0 sec_desc_merge
PUBLIC d02a4 0 dup_sec_desc
PUBLIC d02f0 0 marshall_sec_desc
PUBLIC d03b8 0 marshall_sec_desc_buf
PUBLIC d0480 0 unmarshall_sec_desc
PUBLIC d05a0 0 unmarshall_sec_desc_buf
PUBLIC d06c0 0 make_standard_sec_desc
PUBLIC d06f4 0 make_sec_desc_buf
PUBLIC d0754 0 sec_desc_merge_buf
PUBLIC d07e0 0 dup_sec_desc_buf
PUBLIC d07f8 0 sec_desc_add_sid
PUBLIC d08d8 0 sec_desc_mod_sid
PUBLIC d090c 0 sec_desc_del_sid
PUBLIC d09ec 0 sd_has_inheritable_components
PUBLIC d0a6c 0 se_create_child_secdesc
PUBLIC d0e9c 0 se_create_child_secdesc_buf
PUBLIC d0fd4 0 se_map_generic
PUBLIC d10bc 0 security_acl_map_generic
PUBLIC d1100 0 se_map_standard
PUBLIC d11b4 0 se_access_check
PUBLIC d13e4 0 sec_access_check_ds
PUBLIC d1700 0 nt_ace_inherit_comp
PUBLIC d1748 0 nt_ace_canon_comp
PUBLIC d17d8 0 sec_ace_object
PUBLIC d17ec 0 sec_ace_copy
PUBLIC d184c 0 init_sec_ace
PUBLIC d1894 0 sec_ace_add_sid
PUBLIC d1998 0 sec_ace_mod_sid
PUBLIC d1a08 0 sec_ace_del_sid
PUBLIC d1ae8 0 sec_ace_equal
PUBLIC d1b50 0 dacl_sort_into_canonical_order
PUBLIC d1cd0 0 insert_in_object_tree
PUBLIC d1e88 0 get_object_tree_by_GUID
PUBLIC d1ef8 0 object_tree_modify_access
PUBLIC d2a28 0 sddl_decode
PUBLIC d2c14 0 sddl_encode
PUBLIC d2d9c 0 make_sec_acl
PUBLIC d2e5c 0 dup_sec_acl
PUBLIC d2e7c 0 fncall_context_init
PUBLIC d2e90 0 fncall_send
PUBLIC d2eec 0 fncall_recv
PUBLIC d300c 0 getgroups_unix_user
PUBLIC d319c 0 audit_category_str
PUBLIC d31d8 0 audit_param_str
PUBLIC d320c 0 audit_description_str
PUBLIC d3240 0 get_audit_category_from_param
PUBLIC d33dc 0 audit_policy_str
PUBLIC d34c4 0 ndr_check_padding
PUBLIC d3624 0 ndr_pull_int8
PUBLIC d3694 0 ndr_pull_uint8
PUBLIC d3704 0 ndr_pull_int16
PUBLIC d3800 0 ndr_pull_uint16
PUBLIC d38fc 0 ndr_pull_int32
PUBLIC d39fc 0 ndr_pull_uint32
PUBLIC d3afc 0 ndr_pull_uint1632
PUBLIC d3ba8 0 ndr_pull_double
PUBLIC d3c88 0 ndr_pull_relative_ptr_short
PUBLIC d3cd0 0 ndr_pull_udlong
PUBLIC d3e18 0 ndr_pull_udlongr
PUBLIC d3f84 0 ndr_pull_dlong
PUBLIC d3f88 0 ndr_pull_hyper
PUBLIC d4020 0 ndr_pull_uint3264
PUBLIC d40cc 0 ndr_pull_generic_ptr
PUBLIC d4108 0 ndr_pull_ref_ptr
PUBLIC d412c 0 ndr_pull_pointer
PUBLIC d4204 0 ndr_pull_NTSTATUS
PUBLIC d422c 0 ndr_print_NTSTATUS
PUBLIC d4264 0 ndr_pull_WERROR
PUBLIC d428c 0 ndr_pull_enum_uint8
PUBLIC d4290 0 ndr_pull_enum_uint16
PUBLIC d4294 0 ndr_pull_enum_uint1632
PUBLIC d4340 0 ndr_pull_enum_uint32
PUBLIC d4344 0 ndr_print_WERROR
PUBLIC d437c 0 ndr_pull_bytes
PUBLIC d43fc 0 ndr_pull_array_uint8
PUBLIC d4418 0 ndr_push_int8
PUBLIC d4450 0 ndr_push_uint8
PUBLIC d4488 0 ndr_push_enum_uint8
PUBLIC d448c 0 ndr_push_int16
PUBLIC d454c 0 ndr_push_uint16
PUBLIC d4618 0 ndr_push_enum_uint16
PUBLIC d461c 0 ndr_push_int32
PUBLIC d4738 0 ndr_push_uint32
PUBLIC d4854 0 ndr_push_NTSTATUS
PUBLIC d4858 0 ndr_push_enum_uint32
PUBLIC d485c 0 ndr_push_enum_uint1632
PUBLIC d4870 0 ndr_push_WERROR
PUBLIC d4878 0 ndr_push_uint1632
PUBLIC d488c 0 ndr_push_udlong
PUBLIC d4a30 0 ndr_push_udlongr
PUBLIC d4bd4 0 ndr_push_dlong
PUBLIC d4bdc 0 ndr_push_hyper
PUBLIC d4c6c 0 ndr_push_uint3264
PUBLIC d4c84 0 ndr_push_double
PUBLIC d4d20 0 ndr_push_pointer
PUBLIC d4db0 0 ndr_push_align
PUBLIC d4e38 0 ndr_pull_align
PUBLIC d4ee0 0 ndr_push_union_align
PUBLIC d4ef8 0 ndr_pull_union_align
PUBLIC d4f10 0 ndr_push_trailer_align
PUBLIC d4f28 0 ndr_pull_trailer_align
PUBLIC d4f40 0 ndr_push_bytes
PUBLIC d4f8c 0 ndr_push_zero
PUBLIC d4fd0 0 ndr_push_array_uint8
PUBLIC d4fec 0 ndr_push_unique_ptr
PUBLIC d5010 0 ndr_push_full_ptr
PUBLIC d506c 0 ndr_push_ref_ptr
PUBLIC d507c 0 ndr_push_NTTIME
PUBLIC d5080 0 ndr_pull_NTTIME
PUBLIC d5084 0 ndr_push_NTTIME_1sec
PUBLIC d50c0 0 ndr_pull_NTTIME_1sec
PUBLIC d50f4 0 ndr_pull_NTTIME_hyper
PUBLIC d50f8 0 ndr_push_NTTIME_hyper
PUBLIC d50fc 0 ndr_push_time_t
PUBLIC d5100 0 ndr_pull_time_t
PUBLIC d5124 0 ndr_push_uid_t
PUBLIC d5130 0 ndr_pull_uid_t
PUBLIC d51d0 0 ndr_push_gid_t
PUBLIC d51dc 0 ndr_pull_gid_t
PUBLIC d527c 0 ndr_pull_ipv4address
PUBLIC d52cc 0 ndr_push_ipv4address
PUBLIC d532c 0 ndr_print_ipv4address
PUBLIC d5354 0 ndr_pull_ipv6address
PUBLIC d5410 0 ndr_push_ipv6address
PUBLIC d548c 0 ndr_print_ipv6address
PUBLIC d54b4 0 ndr_print_struct
PUBLIC d54dc 0 ndr_print_null
PUBLIC d54f8 0 ndr_print_enum
PUBLIC d5564 0 ndr_print_bitmap_flag
PUBLIC d55c8 0 ndr_print_int8
PUBLIC d55f0 0 ndr_print_uint8
PUBLIC d5620 0 ndr_print_int16
PUBLIC d5648 0 ndr_print_uint16
PUBLIC d5678 0 ndr_print_int32
PUBLIC d56a0 0 ndr_print_uint32
PUBLIC d56d0 0 ndr_print_int3264
PUBLIC d56f8 0 ndr_print_uint3264
PUBLIC d5728 0 ndr_print_udlong
PUBLIC d5758 0 ndr_print_udlongr
PUBLIC d575c 0 ndr_print_dlong
PUBLIC d578c 0 ndr_print_double
PUBLIC d57b8 0 ndr_print_hyper
PUBLIC d57bc 0 ndr_print_pointer
PUBLIC d57e4 0 ndr_print_ptr
PUBLIC d5818 0 ndr_print_NTTIME
PUBLIC d584c 0 ndr_print_NTTIME_1sec
PUBLIC d5850 0 ndr_print_NTTIME_hyper
PUBLIC d5854 0 ndr_print_time_t
PUBLIC d58a8 0 ndr_print_uid_t
PUBLIC d58b0 0 ndr_print_gid_t
PUBLIC d58b8 0 ndr_print_union
PUBLIC d58f8 0 ndr_print_bad_level
PUBLIC d5914 0 ndr_print_array_uint8
PUBLIC d5a70 0 ndr_print_DATA_BLOB
PUBLIC d5c7c 0 ndr_push_DATA_BLOB
PUBLIC d5d6c 0 ndr_pull_DATA_BLOB
PUBLIC d5ea8 0 ndr_size_DATA_BLOB
PUBLIC d5eb8 0 ndr_print_bool
PUBLIC d5ef8 0 ndr_map_error2ntstatus
PUBLIC d5f98 0 ndr_print_debug_helper
PUBLIC d6068 0 ndr_print_string_helper
PUBLIC d60fc 0 ndr_align_size
PUBLIC d610c 0 ndr_pull_init_blob
PUBLIC d614c 0 ndr_push_init_ctx
PUBLIC d61ac 0 ndr_push_blob
PUBLIC d61e4 0 ndr_print_printf_helper
PUBLIC d625c 0 ndr_print_debug
PUBLIC d6324 0 ndr_print_function_debug
PUBLIC d63f8 0 ndr_print_struct_string
PUBLIC d64b0 0 ndr_print_function_string
PUBLIC d656c 0 ndr_set_flags
PUBLIC d65cc 0 ndr_pull_error
PUBLIC d6680 0 ndr_pull_advance
PUBLIC d66b8 0 ndr_push_error
PUBLIC d676c 0 ndr_push_expand
PUBLIC d6808 0 ndr_pull_subcontext_start
PUBLIC d6b58 0 ndr_pull_subcontext_end
PUBLIC d6b74 0 ndr_push_subcontext_start
PUBLIC d6bd0 0 ndr_push_subcontext_end
PUBLIC d6d90 0 ndr_token_store
PUBLIC d6e04 0 ndr_token_retrieve_cmp_fn
PUBLIC d6f04 0 ndr_token_retrieve
PUBLIC d6fd4 0 ndr_token_peek
PUBLIC d7000 0 ndr_pull_array_size
PUBLIC d703c 0 ndr_get_array_size
PUBLIC d7044 0 ndr_check_array_size
PUBLIC d708c 0 ndr_pull_array_length
PUBLIC d7100 0 ndr_get_array_length
PUBLIC d7108 0 ndr_check_array_length
PUBLIC d7150 0 ndr_push_pipe_chunk_trailer
PUBLIC d7174 0 ndr_check_pipe_chunk_trailer
PUBLIC d71f4 0 ndr_push_set_switch_value
PUBLIC d7208 0 ndr_pull_set_switch_value
PUBLIC d721c 0 ndr_print_set_switch_value
PUBLIC d7230 0 ndr_print_union_debug
PUBLIC d7310 0 ndr_print_union_string
PUBLIC d73dc 0 ndr_push_get_switch_value
PUBLIC d73e4 0 ndr_pull_get_switch_value
PUBLIC d73ec 0 ndr_print_get_switch_value
PUBLIC d73f4 0 ndr_pull_struct_blob
PUBLIC d744c 0 ndr_pull_struct_blob_all
PUBLIC d74fc 0 ndr_pull_union_blob
PUBLIC d7588 0 ndr_pull_union_blob_all
PUBLIC d766c 0 ndr_push_struct_blob
PUBLIC d76f4 0 ndr_push_union_blob
PUBLIC d7798 0 ndr_size_struct
PUBLIC d781c 0 ndr_size_union
PUBLIC d78c8 0 ndr_push_get_relative_base_offset
PUBLIC d78d0 0 ndr_push_restore_relative_base_offset
PUBLIC d78d8 0 ndr_push_setup_relative_base_offset1
PUBLIC d78fc 0 ndr_push_setup_relative_base_offset2
PUBLIC d790c 0 ndr_push_relative_ptr1
PUBLIC d7964 0 ndr_push_short_relative_ptr1
PUBLIC d79bc 0 ndr_push_short_relative_ptr2
PUBLIC d7a74 0 ndr_push_relative_ptr2_start
PUBLIC d7b70 0 ndr_push_relative_ptr2_end
PUBLIC d7d74 0 ndr_pull_get_relative_base_offset
PUBLIC d7d7c 0 ndr_pull_restore_relative_base_offset
PUBLIC d7d84 0 ndr_pull_setup_relative_base_offset1
PUBLIC d7da8 0 ndr_pull_setup_relative_base_offset2
PUBLIC d7db8 0 ndr_pull_relative_ptr1
PUBLIC d7e08 0 ndr_pull_relative_ptr2
PUBLIC d7e58 0 ndr_map_error2string
PUBLIC d7ea4 0 ndr_print_GUID
PUBLIC d7edc 0 ndr_syntax_id_equal
PUBLIC d7f10 0 ndr_push_GUID
PUBLIC d7fcc 0 ndr_pull_GUID
PUBLIC d8088 0 ndr_size_GUID
PUBLIC d8098 0 ndr_push_ndr_syntax_id
PUBLIC d8104 0 ndr_pull_ndr_syntax_id
PUBLIC d8170 0 ndr_print_ndr_syntax_id
PUBLIC d81ec 0 ndr_push_policy_handle
PUBLIC d8258 0 ndr_pull_policy_handle
PUBLIC d82c4 0 ndr_print_policy_handle
PUBLIC d8340 0 ndr_push_netr_SchannelType
PUBLIC d834c 0 ndr_pull_netr_SchannelType
PUBLIC d8374 0 ndr_print_netr_SchannelType
PUBLIC d8444 0 ndr_push_KRB5_EDATA_NTSTATUS
PUBLIC d84c8 0 ndr_pull_KRB5_EDATA_NTSTATUS
PUBLIC d854c 0 ndr_print_KRB5_EDATA_NTSTATUS
PUBLIC d85e0 0 ndr_push_winreg_Type
PUBLIC d85e8 0 ndr_pull_winreg_Type
PUBLIC d8610 0 ndr_print_winreg_Type
PUBLIC d8730 0 ndr_push_winreg_Data
PUBLIC d887c 0 ndr_pull_winreg_Data
PUBLIC d8a08 0 ndr_print_winreg_Data
PUBLIC d8ec4 0 ndr_push_security_token
PUBLIC d8f98 0 ndr_push_security_unix_token
PUBLIC d9068 0 ndr_print_se_privilege
PUBLIC d93b8 0 ndr_print_lsa_SystemAccessModeFlags
PUBLIC d9588 0 ndr_push_security_ace_flags
PUBLIC d9590 0 ndr_pull_security_ace_flags
PUBLIC d95b8 0 ndr_print_security_ace_flags
PUBLIC d96e8 0 ndr_push_security_ace_type
PUBLIC d96f4 0 ndr_pull_security_ace_type
PUBLIC d971c 0 ndr_print_security_ace_type
PUBLIC d9800 0 ndr_print_security_ace_object_flags
PUBLIC d9870 0 ndr_print_security_ace_object_type
PUBLIC d98cc 0 ndr_print_security_ace_object_inherited_type
PUBLIC d9928 0 ndr_print_security_ace_object
PUBLIC d99ec 0 ndr_push_security_ace_object_ctr
PUBLIC d9b00 0 ndr_pull_security_ace_object_ctr
PUBLIC d9c08 0 ndr_print_security_ace_object_ctr
PUBLIC d9cbc 0 ndr_push_security_ace
PUBLIC d9dd4 0 ndr_print_security_ace
PUBLIC d9edc 0 ndr_print_security_acl_revision
PUBLIC d9f30 0 ndr_push_security_acl
PUBLIC da044 0 ndr_pull_security_acl
PUBLIC da2c4 0 ndr_print_security_acl
PUBLIC da3e0 0 ndr_push_security_descriptor_revision
PUBLIC da3ec 0 ndr_pull_security_descriptor_revision
PUBLIC da414 0 ndr_print_security_descriptor_revision
PUBLIC da448 0 ndr_push_security_descriptor_type
PUBLIC da450 0 ndr_pull_security_descriptor_type
PUBLIC da478 0 ndr_print_security_descriptor_type
PUBLIC da6a8 0 ndr_push_security_descriptor
PUBLIC da8c0 0 ndr_pull_security_descriptor
PUBLIC dafa8 0 ndr_print_security_descriptor
PUBLIC db15c 0 ndr_push_sec_desc_buf
PUBLIC db23c 0 ndr_pull_sec_desc_buf
PUBLIC db42c 0 ndr_print_sec_desc_buf
PUBLIC db4e8 0 ndr_pull_security_token
PUBLIC db6e8 0 ndr_print_security_token
PUBLIC db7f8 0 ndr_size_security_token
PUBLIC db808 0 ndr_pull_security_unix_token
PUBLIC db9f8 0 ndr_print_security_unix_token
PUBLIC dbaf8 0 ndr_size_security_unix_token
PUBLIC dbb08 0 ndr_push_security_secinfo
PUBLIC dbb10 0 ndr_pull_security_secinfo
PUBLIC dbb38 0 ndr_print_security_secinfo
PUBLIC dbc88 0 ndr_push_kerb_EncTypes
PUBLIC dbc90 0 ndr_pull_kerb_EncTypes
PUBLIC dbcb8 0 ndr_print_kerb_EncTypes
PUBLIC dbd88 0 ndr_push_security_autoinherit
PUBLIC dbd90 0 ndr_pull_security_autoinherit
PUBLIC dbdb8 0 ndr_print_security_autoinherit
PUBLIC dbe88 0 ndr_size_dom_sid
PUBLIC dbe9c 0 ndr_size_security_ace
PUBLIC dbeec 0 ndr_size_security_acl
PUBLIC dbf40 0 ndr_size_security_descriptor
PUBLIC dbf9c 0 ndr_size_dom_sid28
PUBLIC dbff4 0 ndr_size_dom_sid0
PUBLIC dbff8 0 ndr_print_dom_sid
PUBLIC dc030 0 ndr_print_dom_sid2
PUBLIC dc034 0 ndr_print_dom_sid28
PUBLIC dc038 0 ndr_print_dom_sid0
PUBLIC dc03c 0 ndr_push_dom_sid
PUBLIC dc0ec 0 ndr_push_dom_sid2
PUBLIC dc134 0 ndr_push_dom_sid28
PUBLIC dc19c 0 ndr_push_dom_sid0
PUBLIC dc210 0 ndr_pull_dom_sid
PUBLIC dc2e4 0 ndr_pull_security_ace
PUBLIC dc460 0 ndr_pull_dom_sid2
PUBLIC dc4e0 0 ndr_pull_dom_sid28
PUBLIC dc5c0 0 ndr_pull_dom_sid0
PUBLIC dc608 0 ndr_pull_string
PUBLIC dd218 0 ndr_push_string
PUBLIC dd430 0 ndr_string_array_size
PUBLIC dd470 0 ndr_print_string
PUBLIC dd4b4 0 ndr_size_string
PUBLIC dd4e0 0 ndr_pull_string_array
PUBLIC dd6ec 0 ndr_push_string_array
PUBLIC dd838 0 ndr_print_string_array
PUBLIC dd904 0 ndr_size_string_array
PUBLIC dd988 0 ndr_string_length
PUBLIC dd9cc 0 ndr_check_string_terminator
PUBLIC dda8c 0 ndr_pull_charset
PUBLIC ddb90 0 ndr_pull_charset_to_null
PUBLIC ddcb8 0 ndr_push_charset
PUBLIC ddda0 0 ndr_charset_length
PUBLIC ddde8 0 GUID_to_ndr_blob
PUBLIC dde10 0 GUID_from_ndr_blob
PUBLIC dde84 0 GUID_from_data_blob
PUBLIC de0ec 0 GUID_from_string
PUBLIC de118 0 NS_GUID_from_string
PUBLIC de1ec 0 GUID_random
PUBLIC de23c 0 GUID_zero
PUBLIC de26c 0 GUID_all_zero
PUBLIC de2a4 0 GUID_equal
PUBLIC de2fc 0 GUID_compare
PUBLIC de370 0 GUID_string
PUBLIC de3e4 0 GUID_string2
PUBLIC de42c 0 GUID_hexstring
PUBLIC de4c0 0 NS_GUID_string
PUBLIC de534 0 policy_handle_empty
PUBLIC de558 0 is_valid_policy_hnd
PUBLIC de56c 0 policy_handle_equal
PUBLIC de598 0 ndr_print_sockaddr_storage
PUBLIC de5dc 0 ndr_push_server_id
PUBLIC de660 0 ndr_pull_server_id
PUBLIC de6e4 0 ndr_print_server_id
PUBLIC df160 0 ndr_print_dcerpc_ctx_list
PUBLIC df264 0 ndr_push_dcerpc_bind
PUBLIC df400 0 ndr_pull_dcerpc_bind
PUBLIC df790 0 ndr_print_dcerpc_bind
PUBLIC df8d4 0 ndr_print_dcerpc_empty
PUBLIC df904 0 ndr_print_dcerpc_object
PUBLIC df978 0 ndr_print_dcerpc_request
PUBLIC dfa74 0 ndr_print_dcerpc_ack_ctx
PUBLIC dfb08 0 ndr_print_dcerpc_bind_ack
PUBLIC dfcb4 0 ndr_print_dcerpc_bind_nak_versions
PUBLIC dfd84 0 ndr_print_dcerpc_bind_nak_versions_ctr
PUBLIC dfde0 0 ndr_print_dcerpc_bind_nak
PUBLIC dfe70 0 ndr_print_dcerpc_response
PUBLIC dff3c 0 ndr_print_dcerpc_nca_status
PUBLIC e04fc 0 ndr_print_dcerpc_fault
PUBLIC e05c4 0 ndr_print_dcerpc_AuthType
PUBLIC e06fc 0 ndr_print_dcerpc_AuthLevel
PUBLIC e07a8 0 ndr_push_dcerpc_auth
PUBLIC e088c 0 ndr_pull_dcerpc_auth
PUBLIC e0980 0 ndr_print_dcerpc_auth
PUBLIC e0a60 0 ndr_push_dcerpc_auth3
PUBLIC e0ae4 0 ndr_pull_dcerpc_auth3
PUBLIC e0b64 0 ndr_print_dcerpc_auth3
PUBLIC e0bec 0 ndr_push_dcerpc_orphaned
PUBLIC e0c70 0 ndr_pull_dcerpc_orphaned
PUBLIC e0cf0 0 ndr_print_dcerpc_orphaned
PUBLIC e0d78 0 ndr_push_dcerpc_co_cancel
PUBLIC e0dfc 0 ndr_pull_dcerpc_co_cancel
PUBLIC e0e7c 0 ndr_print_dcerpc_co_cancel
PUBLIC e0f04 0 ndr_push_dcerpc_cl_cancel
PUBLIC e0f70 0 ndr_pull_dcerpc_cl_cancel
PUBLIC e0fdc 0 ndr_print_dcerpc_cl_cancel
PUBLIC e1058 0 ndr_push_dcerpc_cancel_ack
PUBLIC e10dc 0 ndr_pull_dcerpc_cancel_ack
PUBLIC e1160 0 ndr_print_dcerpc_cancel_ack
PUBLIC e11f4 0 ndr_push_dcerpc_fack
PUBLIC e130c 0 ndr_pull_dcerpc_fack
PUBLIC e1518 0 ndr_print_dcerpc_fack
PUBLIC e1678 0 ndr_push_dcerpc_ack
PUBLIC e16b0 0 ndr_pull_dcerpc_ack
PUBLIC e16e8 0 ndr_print_dcerpc_ack
PUBLIC e1718 0 ndr_push_dcerpc_ping
PUBLIC e1750 0 ndr_pull_dcerpc_ping
PUBLIC e1788 0 ndr_print_dcerpc_ping
PUBLIC e17b8 0 ndr_push_dcerpc_shutdown
PUBLIC e17f0 0 ndr_pull_dcerpc_shutdown
PUBLIC e1828 0 ndr_print_dcerpc_shutdown
PUBLIC e1858 0 ndr_push_dcerpc_working
PUBLIC e1890 0 ndr_pull_dcerpc_working
PUBLIC e18c8 0 ndr_print_dcerpc_working
PUBLIC e18f8 0 ndr_push_RTSCookie
PUBLIC e194c 0 ndr_pull_RTSCookie
PUBLIC e19a0 0 ndr_print_RTSCookie
PUBLIC e1a04 0 ndr_push_AddressType
PUBLIC e1a0c 0 ndr_pull_AddressType
PUBLIC e1a34 0 ndr_print_AddressType
PUBLIC e1a88 0 ndr_print_ClientAddressType
PUBLIC e1b1c 0 ndr_push_ClientAddress
PUBLIC e1c40 0 ndr_pull_ClientAddress
PUBLIC e1d64 0 ndr_print_ClientAddress
PUBLIC e1e0c 0 ndr_push_ForwardDestination
PUBLIC e1e14 0 ndr_pull_ForwardDestination
PUBLIC e1e3c 0 ndr_print_ForwardDestination
PUBLIC e1ebc 0 ndr_push_FlowControlAcknowledgment
PUBLIC e1f40 0 ndr_pull_FlowControlAcknowledgment
PUBLIC e1fc4 0 ndr_print_FlowControlAcknowledgment
PUBLIC e2058 0 ndr_push_dcerpc_rts_cmd_ReceiveWindowSize
PUBLIC e20ac 0 ndr_pull_dcerpc_rts_cmd_ReceiveWindowSize
PUBLIC e2124 0 ndr_print_dcerpc_rts_cmd_ReceiveWindowSize
PUBLIC e2188 0 ndr_push_dcerpc_rts_cmd_FlowControlAck
PUBLIC e21dc 0 ndr_pull_dcerpc_rts_cmd_FlowControlAck
PUBLIC e2230 0 ndr_print_dcerpc_rts_cmd_FlowControlAck
PUBLIC e2294 0 ndr_push_dcerpc_rts_cmd_ConnectionTimeout
PUBLIC e22e8 0 ndr_pull_dcerpc_rts_cmd_ConnectionTimeout
PUBLIC e2368 0 ndr_print_dcerpc_rts_cmd_ConnectionTimeout
PUBLIC e23cc 0 ndr_push_dcerpc_rts_cmd_Cookie
PUBLIC e2420 0 ndr_pull_dcerpc_rts_cmd_Cookie
PUBLIC e2474 0 ndr_print_dcerpc_rts_cmd_Cookie
PUBLIC e24d8 0 ndr_push_dcerpc_rts_cmd_ChannelLifetime
PUBLIC e252c 0 ndr_pull_dcerpc_rts_cmd_ChannelLifetime
PUBLIC e25a4 0 ndr_print_dcerpc_rts_cmd_ChannelLifetime
PUBLIC e2608 0 ndr_push_dcerpc_rts_cmd_ClientKeepalive
PUBLIC e265c 0 ndr_pull_dcerpc_rts_cmd_ClientKeepalive
PUBLIC e26b0 0 ndr_print_dcerpc_rts_cmd_ClientKeepalive
PUBLIC e2714 0 ndr_push_dcerpc_rts_cmd_Version
PUBLIC e2768 0 ndr_pull_dcerpc_rts_cmd_Version
PUBLIC e27bc 0 ndr_print_dcerpc_rts_cmd_Version
PUBLIC e2820 0 ndr_push_dcerpc_rts_cmd_Empty
PUBLIC e2858 0 ndr_pull_dcerpc_rts_cmd_Empty
PUBLIC e2890 0 ndr_print_dcerpc_rts_cmd_Empty
PUBLIC e28c0 0 ndr_push_dcerpc_rts_cmd_Padding
PUBLIC e2930 0 ndr_pull_dcerpc_rts_cmd_Padding
PUBLIC e2a88 0 ndr_print_dcerpc_rts_cmd_Padding
PUBLIC e2b08 0 ndr_push_dcerpc_rts_cmd_NegativeANCE
PUBLIC e2b40 0 ndr_pull_dcerpc_rts_cmd_NegativeANCE
PUBLIC e2b78 0 ndr_print_dcerpc_rts_cmd_NegativeANCE
PUBLIC e2ba8 0 ndr_push_dcerpc_rts_cmd_ANCE
PUBLIC e2be0 0 ndr_pull_dcerpc_rts_cmd_ANCE
PUBLIC e2c18 0 ndr_print_dcerpc_rts_cmd_ANCE
PUBLIC e2c48 0 ndr_push_dcerpc_rts_cmd_ClientAddress
PUBLIC e2c9c 0 ndr_pull_dcerpc_rts_cmd_ClientAddress
PUBLIC e2cf0 0 ndr_print_dcerpc_rts_cmd_ClientAddress
PUBLIC e2d54 0 ndr_push_dcerpc_rts_cmd_AssociationGroupId
PUBLIC e2da8 0 ndr_pull_dcerpc_rts_cmd_AssociationGroupId
PUBLIC e2dfc 0 ndr_print_dcerpc_rts_cmd_AssociationGroupId
PUBLIC e2e60 0 ndr_push_dcerpc_rts_cmd_Destination
PUBLIC e2eb4 0 ndr_pull_dcerpc_rts_cmd_Destination
PUBLIC e2f08 0 ndr_print_dcerpc_rts_cmd_Destination
PUBLIC e2f6c 0 ndr_push_dcerpc_rts_cmd_PingTrafficSentNotify
PUBLIC e2fc0 0 ndr_pull_dcerpc_rts_cmd_PingTrafficSentNotify
PUBLIC e3014 0 ndr_print_dcerpc_rts_cmd_PingTrafficSentNotify
PUBLIC e3078 0 ndr_print_dcerpc_rts_cmds
PUBLIC e3274 0 ndr_push_dcerpc_rts_cmd
PUBLIC e34b8 0 ndr_pull_dcerpc_rts_cmd
PUBLIC e36fc 0 ndr_print_dcerpc_rts_cmd
PUBLIC e378c 0 ndr_push_dcerpc_rts_flags
PUBLIC e3794 0 ndr_pull_dcerpc_rts_flags
PUBLIC e37bc 0 ndr_print_dcerpc_rts_flags
PUBLIC e38ec 0 ndr_push_dcerpc_rts
PUBLIC e3e04 0 ndr_pull_dcerpc_rts
PUBLIC e43f0 0 ndr_print_dcerpc_rts
PUBLIC e44dc 0 ndr_print_dcerpc_pkt_type
PUBLIC e46b0 0 ndr_print_dcerpc_payload
PUBLIC e4934 0 ndr_push_ncacn_packet
PUBLIC e4a8c 0 ndr_pull_ncacn_packet
PUBLIC e4bec 0 ndr_print_ncacn_packet
PUBLIC e4d28 0 ndr_push_ncadg_packet
PUBLIC e4f88 0 ndr_pull_ncadg_packet
PUBLIC e51e8 0 ndr_print_ncadg_packet
PUBLIC e542c 0 file_id_equal
PUBLIC e5480 0 file_id_string_tos
PUBLIC e5534 0 push_file_id_16
PUBLIC e55c8 0 push_file_id_24
PUBLIC e56a4 0 pull_file_id_24
PUBLIC e5c4c 0 idmap_cache_find_sid2uid
PUBLIC e5d30 0 idmap_cache_find_uid2sid
PUBLIC e5e10 0 idmap_cache_set_sid2uid
PUBLIC e5f40 0 idmap_cache_find_sid2gid
PUBLIC e6024 0 idmap_cache_find_gid2sid
PUBLIC e6104 0 idmap_cache_set_sid2gid
PUBLIC e6234 0 idmap_cache_del_uid
PUBLIC e6240 0 idmap_cache_del_gid
PUBLIC e624c 0 idmap_cache_del_sid
PUBLIC e6344 0 dom_sid_compare_auth
PUBLIC e63c0 0 dom_sid_compare
PUBLIC e6468 0 dom_sid_equal
PUBLIC e647c 0 sid_append_rid
PUBLIC e64a8 0 dom_sid_compare_domain
PUBLIC e6518 0 dom_sid_parse_endp
PUBLIC e674c 0 dom_sid_parse
PUBLIC e6754 0 string_to_sid
PUBLIC e6764 0 dom_sid_parse_talloc
PUBLIC e67c4 0 dom_sid_parse_length
PUBLIC e6810 0 dom_sid_dup
PUBLIC e68a8 0 dom_sid_add_rid
PUBLIC e68f4 0 dom_sid_split_rid
PUBLIC e6960 0 dom_sid_in_domain
PUBLIC e69ec 0 dom_sid_string_buf
PUBLIC e6ab0 0 dom_sid_string
PUBLIC e6d0c 0 security_descriptor_initialise
PUBLIC e6d54 0 security_acl_dup
PUBLIC e6df4 0 security_acl_concatenate
PUBLIC e6f60 0 security_descriptor_copy
PUBLIC e7040 0 security_descriptor_sacl_add
PUBLIC e7054 0 security_descriptor_dacl_add
PUBLIC e71f4 0 security_descriptor_dacl_del
PUBLIC e7208 0 security_descriptor_sacl_del
PUBLIC e721c 0 security_ace_equal
PUBLIC e7288 0 security_acl_equal
PUBLIC e731c 0 security_descriptor_equal
PUBLIC e73b8 0 security_descriptor_mask_equal
PUBLIC e7470 0 security_descriptor_append
PUBLIC e749c 0 security_descriptor_dacl_create
PUBLIC e74d0 0 security_descriptor_sacl_create
PUBLIC e7504 0 security_ace_create
PUBLIC e7584 0 security_token_initialise
PUBLIC e7598 0 security_token_debug
PUBLIC e7740 0 security_token_is_sid
PUBLIC e7750 0 security_token_is_sid_string
PUBLIC e779c 0 security_token_is_system
PUBLIC e77ac 0 security_token_is_anonymous
PUBLIC e77bc 0 security_token_has_sid
PUBLIC e7804 0 security_token_has_sid_string
PUBLIC e7850 0 security_token_has_builtin_administrators
PUBLIC e7860 0 security_token_has_nt_authenticated_users
PUBLIC e7870 0 security_token_has_enterprise_dcs
PUBLIC e7880 0 sid_type_lookup
PUBLIC e78c8 0 get_system_token
PUBLIC e78dc 0 sid_split_rid
PUBLIC e791c 0 sid_peek_rid
PUBLIC e7958 0 sid_copy
PUBLIC e79c0 0 sid_compose
PUBLIC e79e0 0 sid_blob_parse
PUBLIC e7a10 0 sid_parse
PUBLIC e7a44 0 sid_compare_domain
PUBLIC e7ab4 0 sid_peek_check_rid
PUBLIC e7b14 0 sid_equal
PUBLIC e7b28 0 add_sid_to_array
PUBLIC e7b9c 0 add_sid_to_array_unique
PUBLIC e7bfc 0 del_sid_from_array
PUBLIC e7c7c 0 add_rid_to_array_unique
PUBLIC e7d04 0 is_null_sid
PUBLIC e7d14 0 find_service
PUBLIC e7d1c 0 conn_snum_used
PUBLIC e7d24 0 cancel_pending_lock_requests_by_fid
PUBLIC e7d28 0 send_stat_cache_delete_message
PUBLIC e7d2c 0 can_delete_directory_fsp
PUBLIC e7d34 0 change_to_root_user
PUBLIC e7d3c 0 smbd_event_context
PUBLIC e7d44 0 contend_level2_oplocks_begin
PUBLIC e7d48 0 contend_level2_oplocks_end
PUBLIC e7d4c 0 become_root
PUBLIC e7d50 0 unbecome_root
PUBLIC e7e88 0 cli_set_message
PUBLIC e7eec 0 cli_set_timeout
PUBLIC e7efc 0 cli_set_port
PUBLIC e7f04 0 cli_ucs2
PUBLIC e7f10 0 cli_state_seqnum_persistent
PUBLIC e7f44 0 cli_state_seqnum_remove
PUBLIC e7ffc 0 cli_receive_smb
PUBLIC e84a8 0 cli_send_smb
PUBLIC e8904 0 cli_setup_packet_buf
PUBLIC e89e0 0 cli_setup_packet
PUBLIC e89e8 0 cli_setup_bcc
PUBLIC e8a00 0 cli_set_domain
PUBLIC e8a58 0 cli_set_username
PUBLIC e8ab0 0 cli_set_password
PUBLIC e8b08 0 cli_init_creds
PUBLIC e8bb0 0 cli_initialise_ex
PUBLIC e8e24 0 cli_initialise
PUBLIC e8e2c 0 cli_nt_pipes_close
PUBLIC e8f2c 0 cli_shutdown
PUBLIC e9044 0 cli_sockopt
PUBLIC e904c 0 cli_setpid
PUBLIC e905c 0 cli_set_case_sensitive
PUBLIC e906c 0 cli_echo_send
PUBLIC e9154 0 cli_echo_recv
PUBLIC e9160 0 cli_echo
PUBLIC e922c 0 is_andx_req
PUBLIC e926c 0 cli_smb
PUBLIC eb75c 0 cli_session_setup_guest_create
PUBLIC eb9d4 0 cli_session_setup_guest_send
PUBLIC eba2c 0 cli_session_setup_guest_recv
PUBLIC eba38 0 cli_session_setup_spnego
PUBLIC ec044 0 cli_session_setup
PUBLIC ed2e0 0 cli_ulogoff_send
PUBLIC ed3c0 0 cli_ulogoff_recv
PUBLIC ed3cc 0 cli_ulogoff
PUBLIC ed450 0 cli_tcon_andx_create
PUBLIC ed928 0 cli_tcon_andx_send
PUBLIC ed9a8 0 cli_tcon_andx_recv
PUBLIC ed9b4 0 cli_tcon_andx
PUBLIC eda78 0 cli_tdis_send
PUBLIC edb40 0 cli_tdis_recv
PUBLIC edb4c 0 cli_tdis
PUBLIC edbd0 0 cli_negprot_send
PUBLIC edd98 0 cli_negprot_recv
PUBLIC edda4 0 cli_negprot
PUBLIC ede40 0 cli_session_request
PUBLIC ee15c 0 cli_connect
PUBLIC ee664 0 cli_start_connection
PUBLIC ee9d4 0 cli_full_connection
PUBLIC eec88 0 attempt_netbios_session_request
PUBLIC eee58 0 cli_raw_tcon
PUBLIC ef064 0 get_ipc_connect
PUBLIC ef174 0 get_ipc_connect_master_ip
PUBLIC ef3cc 0 get_ipc_connect_master_ip_bcast
PUBLIC f12e0 0 smb_bytes_push_str
PUBLIC f1538 0 smb_bytes_push_bytes
PUBLIC f15ac 0 cli_setpathinfo_send
PUBLIC f1af8 0 cli_setpathinfo_recv
PUBLIC f1b58 0 cli_setpathinfo
PUBLIC f1c10 0 cli_posix_symlink_send
PUBLIC f1c30 0 cli_posix_symlink_recv
PUBLIC f1c3c 0 cli_posix_symlink
PUBLIC f1cec 0 cli_posix_readlink_recv
PUBLIC f1dcc 0 cli_posix_hardlink_send
PUBLIC f1dec 0 cli_posix_hardlink_recv
PUBLIC f1df8 0 cli_posix_hardlink
PUBLIC f1ea8 0 unix_perms_to_wire
PUBLIC f21b8 0 wire_perms_to_unix
PUBLIC f21e4 0 cli_posix_getfacl_recv
PUBLIC f2258 0 cli_posix_stat_recv
PUBLIC f2458 0 cli_posix_chmod_send
PUBLIC f24a4 0 cli_posix_chmod_recv
PUBLIC f24b0 0 cli_posix_chmod
PUBLIC f2560 0 cli_posix_chown_send
PUBLIC f2588 0 cli_posix_chown_recv
PUBLIC f2594 0 cli_posix_chown
PUBLIC f264c 0 cli_rename_send
PUBLIC f2870 0 cli_rename_recv
PUBLIC f287c 0 cli_rename
PUBLIC f292c 0 cli_ntrename_send
PUBLIC f294c 0 cli_ntrename_recv
PUBLIC f2958 0 cli_ntrename
PUBLIC f2a08 0 cli_nt_hardlink_send
PUBLIC f2a28 0 cli_nt_hardlink_recv
PUBLIC f2a34 0 cli_nt_hardlink
PUBLIC f2ae4 0 cli_unlink_send
PUBLIC f2c60 0 cli_unlink_recv
PUBLIC f2c6c 0 cli_unlink
PUBLIC f2d1c 0 cli_mkdir_send
PUBLIC f2e80 0 cli_mkdir_recv
PUBLIC f2e8c 0 cli_mkdir
PUBLIC f2f30 0 cli_rmdir_send
PUBLIC f3094 0 cli_rmdir_recv
PUBLIC f30a0 0 cli_rmdir
PUBLIC f3144 0 cli_nt_delete_on_close_send
PUBLIC f3270 0 cli_nt_delete_on_close_recv
PUBLIC f327c 0 cli_nt_delete_on_close
PUBLIC f332c 0 cli_ntcreate_send
PUBLIC f37a8 0 cli_ntcreate_recv
PUBLIC f38a4 0 cli_ntcreate
PUBLIC f398c 0 cli_open_create
PUBLIC f3c0c 0 cli_open_send
PUBLIC f3c80 0 cli_open_recv
PUBLIC f3cd4 0 cli_open
PUBLIC f3d90 0 cli_close_create
PUBLIC f3e80 0 cli_close_send
PUBLIC f3ee4 0 cli_close_recv
PUBLIC f3ef0 0 cli_close
PUBLIC f3f94 0 cli_ftruncate_send
PUBLIC f4104 0 cli_ftruncate_recv
PUBLIC f4110 0 cli_ftruncate
PUBLIC f41c4 0 cli_locktype
PUBLIC f42f0 0 cli_lock
PUBLIC f4320 0 cli_unlock_send
PUBLIC f4488 0 cli_unlock_recv
PUBLIC f4494 0 cli_unlock
PUBLIC f4558 0 cli_lock64
PUBLIC f4700 0 cli_unlock64_send
PUBLIC f48bc 0 cli_unlock64_recv
PUBLIC f48c8 0 cli_unlock64
PUBLIC f49b0 0 cli_posix_lock_send
PUBLIC f49c4 0 cli_posix_lock_recv
PUBLIC f49d0 0 cli_posix_lock
PUBLIC f4aac 0 cli_posix_unlock_send
PUBLIC f4ae0 0 cli_posix_unlock_recv
PUBLIC f4aec 0 cli_posix_unlock
PUBLIC f4bac 0 cli_getattrE_send
PUBLIC f4c94 0 cli_getattrE_recv
PUBLIC f4d34 0 cli_getattrE
PUBLIC f4e00 0 cli_getatr_send
PUBLIC f4f6c 0 cli_getatr_recv
PUBLIC f4fec 0 cli_getatr
PUBLIC f50a4 0 cli_setattrE_send
PUBLIC f51cc 0 cli_setattrE_recv
PUBLIC f51d8 0 cli_setattrE
PUBLIC f529c 0 cli_setatr_send
PUBLIC f54d8 0 cli_setatr_recv
PUBLIC f54e4 0 cli_setatr
PUBLIC f559c 0 cli_chkpath_send
PUBLIC f5700 0 cli_chkpath_recv
PUBLIC f570c 0 cli_chkpath
PUBLIC f57f8 0 cli_dskattr_send
PUBLIC f58bc 0 cli_dskattr_recv
PUBLIC f5928 0 cli_dskattr
PUBLIC f59dc 0 cli_ctemp_send
PUBLIC f5b6c 0 cli_ctemp_recv
PUBLIC f5be8 0 cli_ctemp
PUBLIC f5ca0 0 cli_raw_ioctl
PUBLIC f5d40 0 cli_set_ea_path
PUBLIC f5e04 0 cli_set_ea_fnum
PUBLIC f5e4c 0 cli_get_ea_list_path_recv
PUBLIC f5ed0 0 cli_posix_open_send
PUBLIC f5ef8 0 cli_posix_open_recv
PUBLIC f5f4c 0 cli_posix_open
PUBLIC f6008 0 cli_posix_mkdir_send
PUBLIC f6030 0 cli_posix_mkdir_recv
PUBLIC f603c 0 cli_posix_mkdir
PUBLIC f60ec 0 cli_posix_unlink_send
PUBLIC f6104 0 cli_posix_unlink_recv
PUBLIC f6110 0 cli_posix_unlink
PUBLIC f61b4 0 cli_posix_rmdir_send
PUBLIC f61cc 0 cli_posix_rmdir_recv
PUBLIC f61d8 0 cli_posix_rmdir
PUBLIC f6280 0 cli_notify_send
PUBLIC f63a8 0 cli_notify_recv
PUBLIC f641c 0 cli_qpathinfo_send
PUBLIC f65fc 0 cli_posix_readlink_send
PUBLIC f670c 0 cli_posix_readlink
PUBLIC f67cc 0 cli_posix_getfacl_send
PUBLIC f6890 0 cli_posix_getfacl
PUBLIC f6948 0 cli_posix_stat_send
PUBLIC f6a10 0 cli_posix_stat
PUBLIC f6abc 0 cli_get_ea_list_path_send
PUBLIC f6b7c 0 cli_get_ea_list_path
PUBLIC f6c30 0 cli_qpathinfo_recv
PUBLIC f6fbc 0 cli_qpathinfo
PUBLIC f7088 0 cli_qfileinfo_send
PUBLIC f71b8 0 cli_qfileinfo_recv
PUBLIC f7254 0 cli_qfileinfo
PUBLIC f7320 0 cli_flush_send
PUBLIC f73fc 0 cli_flush_recv
PUBLIC f7408 0 cli_flush
PUBLIC f74a8 0 cli_shadow_copy_data_send
PUBLIC f75ec 0 cli_shadow_copy_data_recv
PUBLIC f7754 0 cli_shadow_copy_data
PUBLIC f7810 0 cli_krb5_get_ticket
PUBLIC f7874 0 unwrap_pac
PUBLIC f78dc 0 spnego_gen_negTokenInit
PUBLIC f7adc 0 spnego_parse_negTokenInit
PUBLIC f7df0 0 spnego_gen_krb5_wrap
PUBLIC f7f18 0 spnego_parse_krb5_wrap
PUBLIC f801c 0 spnego_gen_krb5_negTokenInit
PUBLIC f8100 0 spnego_parse_challenge
PUBLIC f825c 0 spnego_gen_auth
PUBLIC f831c 0 spnego_parse_auth_and_mic
PUBLIC f84a8 0 spnego_parse_auth
PUBLIC f84cc 0 spnego_gen_auth_response_and_mic
PUBLIC f8630 0 spnego_gen_auth_response
PUBLIC f865c 0 spnego_parse_auth_response
PUBLIC f88b8 0 spnego_mech_list_blob
PUBLIC f8a4c 0 spnego_read_data
PUBLIC f8ec8 0 spnego_write_data
PUBLIC f91a4 0 spnego_free_data
PUBLIC f926c 0 spnego_write_mech_types
PUBLIC f943c 0 asn1_init
PUBLIC f94b8 0 asn1_free
PUBLIC f94c8 0 asn1_write
PUBLIC f95a8 0 asn1_write_uint8
PUBLIC f9674 0 asn1_push_tag
PUBLIC f96d0 0 asn1_pop_tag
PUBLIC f996c 0 asn1_write_implicit_Integer
PUBLIC f9984 0 asn1_write_Integer
PUBLIC f99c8 0 asn1_write_BitString
PUBLIC f9a2c 0 ber_write_OID_String
PUBLIC f9c28 0 ber_write_partial_OID_String
PUBLIC f9d04 0 asn1_write_OID
PUBLIC f9d7c 0 asn1_write_OctetString
PUBLIC f9db8 0 asn1_write_LDAPString
PUBLIC f9de8 0 asn1_write_DATA_BLOB_LDAPString
PUBLIC f9e04 0 asn1_write_GeneralString
PUBLIC f9e38 0 asn1_write_ContextSimple
PUBLIC f9e6c 0 asn1_write_BOOLEAN
PUBLIC f9ea4 0 asn1_write_BOOLEAN_context
PUBLIC f9ee0 0 asn1_load
PUBLIC f9f40 0 asn1_peek
PUBLIC f9fc4 0 asn1_read
PUBLIC f9ffc 0 asn1_read_uint8
PUBLIC fa004 0 asn1_check_BOOLEAN
PUBLIC fa068 0 asn1_peek_uint8
PUBLIC fa070 0 asn1_peek_tag_needed_size
PUBLIC fa180 0 asn1_tag_remaining
PUBLIC fa1ec 0 asn1_peek_tag
PUBLIC fa238 0 asn1_start_tag
PUBLIC fa348 0 asn1_end_tag
PUBLIC fa3a0 0 asn1_read_BOOLEAN
PUBLIC fa3f8 0 asn1_read_BOOLEAN_context
PUBLIC fa454 0 ber_read_OID_String
PUBLIC fa494 0 ber_read_partial_OID_String
PUBLIC fa578 0 asn1_read_OID
PUBLIC fa658 0 asn1_check_OID
PUBLIC fa6d0 0 asn1_read_LDAPString
PUBLIC fa74c 0 asn1_read_GeneralString
PUBLIC fa798 0 asn1_read_OctetString
PUBLIC fa898 0 asn1_read_ContextSimple
PUBLIC fa950 0 asn1_read_implicit_Integer
PUBLIC fa9e0 0 asn1_read_Integer
PUBLIC faa2c 0 asn1_read_BitString
PUBLIC fab44 0 asn1_read_enumerated
PUBLIC fabbc 0 asn1_check_enumerated
PUBLIC fac0c 0 asn1_write_enumerated
PUBLIC fac48 0 asn1_blob
PUBLIC fac80 0 asn1_load_nocopy
PUBLIC facac 0 asn1_full_tag
PUBLIC fad48 0 asn1_peek_full_tag
PUBLIC fb07c 0 cli_api
PUBLIC fb204 0 cli_NetWkstaUserLogon
PUBLIC fb460 0 cli_RNetShareEnum
PUBLIC fb850 0 cli_NetServerEnum
PUBLIC fbe78 0 cli_oem_change_password
PUBLIC fc118 0 cli_qpathinfo1_send
PUBLIC fc1e4 0 cli_qpathinfo1_recv
PUBLIC fc30c 0 cli_qpathinfo1
PUBLIC fc3d4 0 cli_setpathinfo_basic
PUBLIC fc46c 0 cli_qpathinfo2_send
PUBLIC fc534 0 cli_qpathinfo2_recv
PUBLIC fc6c4 0 cli_qpathinfo2
PUBLIC fc79c 0 cli_qpathinfo_streams_send
PUBLIC fc860 0 cli_qpathinfo_streams_recv
PUBLIC fcadc 0 cli_qpathinfo_streams
PUBLIC fcb90 0 cli_qfilename
PUBLIC fcc54 0 cli_qfileinfo_basic
PUBLIC fce2c 0 cli_qpathinfo_basic_send
PUBLIC fcef4 0 cli_qpathinfo_basic_recv
PUBLIC fcfc4 0 cli_qpathinfo_basic
PUBLIC fd074 0 cli_qpathinfo_alt_name
PUBLIC fd224 0 cli_nt_error
PUBLIC fd28c 0 cli_dos_error
PUBLIC fd320 0 cli_errstr
PUBLIC fd5bc 0 cli_is_error
PUBLIC fd620 0 cli_is_nt_error
PUBLIC fd660 0 cli_is_dos_error
PUBLIC fd6a4 0 cli_errno
PUBLIC fd70c 0 cli_get_nt_error
PUBLIC fd760 0 cli_set_nt_error
PUBLIC fd7a0 0 cli_reset_error
PUBLIC fd7d8 0 cli_state_is_connected
PUBLIC fe064 0 cli_message_send
PUBLIC fe348 0 cli_message_recv
PUBLIC fe354 0 cli_message
PUBLIC fea2c 0 cli_read_andx_create
PUBLIC fecc4 0 cli_read_andx_send
PUBLIC ff25c 0 cli_read_andx_recv
PUBLIC ff4ac 0 cli_pull_send
PUBLIC ff6ec 0 cli_pull_recv
PUBLIC ff740 0 cli_pull
PUBLIC ff81c 0 cli_read
PUBLIC ff878 0 cli_smbwrite
PUBLIC ffa80 0 cli_write_andx_create
PUBLIC ffcb8 0 cli_write_andx_send
PUBLIC 1000b0 0 cli_write_andx_recv
PUBLIC 100270 0 cli_writeall
PUBLIC 100340 0 cli_push_send
PUBLIC 100500 0 cli_push_recv
PUBLIC 10050c 0 cli_push
PUBLIC 101d24 0 cli_list_old
PUBLIC 101e34 0 cli_list_trans
PUBLIC 101f58 0 cli_list_send
PUBLIC 10205c 0 cli_list_recv
PUBLIC 1020dc 0 cli_list
PUBLIC 1022b4 0 cli_print_queue
PUBLIC 102638 0 cli_printjob_del
PUBLIC 1036e4 0 cli_trans_send
PUBLIC 103a48 0 cli_trans_recv
PUBLIC 103bbc 0 cli_trans
PUBLIC 103d20 0 cli_query_secdesc
PUBLIC 103efc 0 cli_set_secdesc
PUBLIC 104c24 0 nbt_getdc_send
PUBLIC 104ebc 0 nbt_getdc_recv
PUBLIC 104f58 0 nbt_getdc
PUBLIC 105038 0 clistr_push_fn
PUBLIC 10515c 0 clistr_pull_fn
PUBLIC 10519c 0 clistr_pull_talloc_fn
PUBLIC 1051a8 0 clistr_align_out
PUBLIC 10537c 0 cli_get_quota_handle
PUBLIC 1053c0 0 free_ntquota_list
PUBLIC 1053f8 0 cli_get_user_quota
PUBLIC 105694 0 cli_set_user_quota
PUBLIC 105924 0 cli_list_user_quota
PUBLIC 10612c 0 cli_get_fs_quota_info
PUBLIC 10637c 0 cli_set_fs_quota_info
PUBLIC 1068e0 0 cli_unix_extensions_version_send
PUBLIC 1069ec 0 cli_unix_extensions_version_recv
PUBLIC 106a74 0 cli_unix_extensions_version
PUBLIC 106b34 0 cli_set_unix_extensions_capabilities_send
PUBLIC 106cb0 0 cli_set_unix_extensions_capabilities_recv
PUBLIC 106cbc 0 cli_set_unix_extensions_capabilities
PUBLIC 106d64 0 cli_get_fs_attr_info_send
PUBLIC 106e74 0 cli_get_fs_attr_info_recv
PUBLIC 106ec8 0 cli_get_fs_attr_info
PUBLIC 106f54 0 cli_get_fs_volume_info
PUBLIC 1070d4 0 cli_get_fs_full_size_info
PUBLIC 10733c 0 cli_get_posix_fs_info
PUBLIC 1076b4 0 cli_raw_ntlm_smb_encryption_start
PUBLIC 107a14 0 cli_gss_smb_encryption_start
PUBLIC 107a20 0 cli_force_encryption
PUBLIC 107cb8 0 cli_cm_force_encryption
PUBLIC 107d4c 0 cli_cm_display
PUBLIC 107d90 0 cli_dfs_get_referral
PUBLIC 1080e8 0 cli_check_msdfs_proxy
PUBLIC 108940 0 cli_cm_open
PUBLIC 108afc 0 cli_resolve_path
PUBLIC 109120 0 cli_oplock_ack_send
PUBLIC 109248 0 cli_oplock_ack_recv
PUBLIC 109254 0 cli_oplock_ack
PUBLIC 109304 0 cli_oplock_handler
PUBLIC 1094d0 0 cli_NetGroupDelete
PUBLIC 109764 0 cli_NetGroupAdd
PUBLIC 109af4 0 cli_RNetGroupEnum
PUBLIC 109ecc 0 cli_RNetGroupEnum0
PUBLIC 10a220 0 cli_NetGroupDelUser
PUBLIC 10a634 0 cli_NetGroupAddUser
PUBLIC 10a9e4 0 cli_NetGroupGetUsers
PUBLIC 10ad00 0 cli_NetUserGetGroups
PUBLIC 10b01c 0 cli_NetUserDelete
PUBLIC 10b2c0 0 cli_NetUserAdd
PUBLIC 10b73c 0 cli_RNetUserEnum
PUBLIC 10bb50 0 cli_RNetUserEnum0
PUBLIC 10be3c 0 cli_NetFileClose
PUBLIC 10c07c 0 cli_NetFileGetInfo
PUBLIC 10c380 0 cli_NetFileEnum
PUBLIC 10c758 0 cli_NetShareAdd
PUBLIC 10ca9c 0 cli_NetShareDelete
PUBLIC 10cc94 0 cli_get_pdc_name
PUBLIC 10cf38 0 cli_get_server_domain
PUBLIC 10d0d0 0 cli_get_server_type
PUBLIC 10d228 0 cli_get_server_name
PUBLIC 10d4c0 0 cli_ns_check_server_type
PUBLIC 10d73c 0 cli_NetWkstaUserLogoff
PUBLIC 10d94c 0 cli_NetPrintQEnum
PUBLIC 10e058 0 cli_NetPrintQGetInfo
PUBLIC 10e774 0 cli_RNetServiceEnum
PUBLIC 10eb08 0 cli_NetSessionEnum
PUBLIC 10efc0 0 cli_NetSessionGetInfo
PUBLIC 10f43c 0 cli_NetSessionDel
PUBLIC 10f64c 0 cli_NetConnectionEnum
PUBLIC 10fab0 0 get_enc_ctx_num
PUBLIC 10fb44 0 common_encryption_on
PUBLIC 10fb54 0 common_ntlm_decrypt_buffer
PUBLIC 10fc34 0 common_ntlm_encrypt_buffer
PUBLIC 10fd70 0 common_encrypt_buffer
PUBLIC 10fdc4 0 common_decrypt_buffer
PUBLIC 10fe04 0 common_free_encryption_state
PUBLIC 10fe58 0 common_free_enc_buffer
PUBLIC 10feb0 0 cli_encryption_on
PUBLIC 10feb8 0 cli_free_encryption_context
PUBLIC 10fec0 0 cli_free_enc_buffer
PUBLIC 10fed4 0 cli_decrypt_message
PUBLIC 10ff28 0 cli_encrypt_message
PUBLIC 11048c 0 cli_pull_error
PUBLIC 1104cc 0 cli_set_error
PUBLIC 110568 0 cli_smb_req_unset_pending
PUBLIC 110680 0 cli_smb_req_set_pending
PUBLIC 1108c4 0 cli_smb_req_mid
PUBLIC 11124c 0 cli_smb_req_set_mid
PUBLIC 11127c 0 cli_smb_req_seqnum
PUBLIC 1112a8 0 cli_smb_req_set_seqnum
PUBLIC 1112d8 0 cli_smb_req_create
PUBLIC 111478 0 cli_smb_req_send
PUBLIC 1114b8 0 cli_smb_send
PUBLIC 111544 0 cli_smb_recv
PUBLIC 1118e0 0 cli_smb_wct_ofs
PUBLIC 111954 0 cli_smb_chain_send
PUBLIC 111cd0 0 cli_smb_inbuf
PUBLIC 111cfc 0 cli_has_async_calls
PUBLIC 111d34 0 cli_smb_oplock_break_waiter_send
PUBLIC 111e4c 0 cli_smb_oplock_break_waiter_recv
PUBLIC 111eac 0 cli_session_request_send
PUBLIC 112064 0 cli_session_request_recv
PUBLIC 1136b8 0 tstream_cli_np_open_send
PUBLIC 1137cc 0 _tstream_cli_np_open_recv
PUBLIC 113914 0 tstream_is_cli_np
PUBLIC 113938 0 tstream_cli_np_use_trans
PUBLIC 11399c 0 tstream_cli_np_set_timeout
PUBLIC 1139f0 0 tstream_cli_np_get_cli_state
PUBLIC 113a1c 0 _tstream_cli_np_existing
PUBLIC 1140d0 0 smbsock_connect_send
PUBLIC 114560 0 smbsock_connect_recv
PUBLIC 114720 0 smbsock_connect
PUBLIC 11480c 0 smbsock_any_connect_send
PUBLIC 114988 0 smbsock_any_connect_recv
PUBLIC 114a04 0 smbsock_any_connect
PUBLIC 115128 0 hash_password_check
PUBLIC 115358 0 ntlm_password_check
PUBLIC 11703c 0 ntlmssp_set_username
PUBLIC 117070 0 ntlmssp_set_hashes
PUBLIC 11710c 0 ntlmssp_set_password
PUBLIC 117160 0 ntlmssp_set_domain
PUBLIC 117194 0 ntlmssp_want_feature_list
PUBLIC 11723c 0 ntlmssp_want_feature
PUBLIC 11727c 0 ntlmssp_update
PUBLIC 117580 0 ntlmssp_server_start
PUBLIC 1176f8 0 ntlmssp_client_start
PUBLIC 1177c8 0 auth_ntlmssp_sign_packet
PUBLIC 1177f4 0 auth_ntlmssp_check_packet
PUBLIC 117818 0 auth_ntlmssp_seal_packet
PUBLIC 117844 0 auth_ntlmssp_unseal_packet
PUBLIC 117868 0 auth_ntlmssp_negotiated_sign
PUBLIC 117878 0 auth_ntlmssp_negotiated_seal
PUBLIC 117888 0 auth_ntlmssp_get_ntlmssp_state
PUBLIC 117890 0 auth_ntlmssp_get_username
PUBLIC 11789c 0 auth_ntlmssp_get_domain
PUBLIC 1178a8 0 auth_ntlmssp_get_client
PUBLIC 1178b4 0 auth_ntlmssp_get_nt_hash
PUBLIC 1178c0 0 auth_ntlmssp_set_username
PUBLIC 1178d0 0 auth_ntlmssp_set_domain
PUBLIC 1178e0 0 auth_ntlmssp_set_password
PUBLIC 1178f0 0 auth_ntlmssp_and_flags
PUBLIC 117904 0 auth_ntlmssp_or_flags
PUBLIC 117918 0 auth_ntlmssp_get_session_key
PUBLIC 117934 0 auth_ntlmssp_update
PUBLIC 117950 0 auth_ntlmssp_client_start
PUBLIC 1179a4 0 debug_ntlmssp_flags
PUBLIC 117d2c 0 ntlmssp_handle_neg_flags
PUBLIC 1181c4 0 ntlmssp_sign_packet
PUBLIC 1182e4 0 ntlmssp_check_packet
PUBLIC 1187e8 0 ntlmssp_seal_packet
PUBLIC 118aa4 0 ntlmssp_unseal_packet
PUBLIC 118c70 0 ntlmssp_wrap
PUBLIC 118e24 0 ntlmssp_unwrap
PUBLIC 11903c 0 ntlmssp_sign_init
PUBLIC 119a58 0 ndr_print_ntlmssp_MessageType
PUBLIC 119abc 0 ndr_print_NEGOTIATE
PUBLIC 119e2c 0 ndr_print_ntlmssp_WindowsMajorVersion
PUBLIC 119e80 0 ndr_print_ntlmssp_WindowsMinorVersion
PUBLIC 119ee8 0 ndr_print_ntlmssp_NTLMRevisionCurrent
PUBLIC 119f3c 0 ndr_push_ntlmssp_VERSION
PUBLIC 11a068 0 ndr_pull_ntlmssp_VERSION
PUBLIC 11a190 0 ndr_print_ntlmssp_VERSION
PUBLIC 11a258 0 ndr_push_NEGOTIATE_MESSAGE
PUBLIC 11a5f8 0 ndr_pull_NEGOTIATE_MESSAGE
PUBLIC 11ab6c 0 ndr_print_NEGOTIATE_MESSAGE
PUBLIC 11ada8 0 ndr_print_decode_NEGOTIATE_MESSAGE
PUBLIC 11ae88 0 ndr_print_ntlmssp_AvId
PUBLIC 11af94 0 ndr_print_Restriction_Encoding
PUBLIC 11b068 0 ndr_print_ntlmssp_AvFlags
PUBLIC 11b0d8 0 ndr_print_ntlmssp_AvValue
PUBLIC 11b26c 0 ndr_push_AV_PAIR
PUBLIC 11b3b8 0 ndr_pull_AV_PAIR
PUBLIC 11b65c 0 ndr_print_AV_PAIR
PUBLIC 11b744 0 ndr_print_AV_PAIR_LIST
PUBLIC 11b82c 0 ndr_push_CHALLENGE_MESSAGE
PUBLIC 11bbd0 0 ndr_pull_CHALLENGE_MESSAGE
PUBLIC 11c16c 0 ndr_print_CHALLENGE_MESSAGE
PUBLIC 11c3e0 0 ndr_print_decode_CHALLENGE_MESSAGE
PUBLIC 11c4c0 0 ndr_push_LM_RESPONSE
PUBLIC 11c538 0 ndr_pull_LM_RESPONSE
PUBLIC 11c5b0 0 ndr_print_LM_RESPONSE
PUBLIC 11c62c 0 ndr_push_LMv2_RESPONSE
PUBLIC 11c6c0 0 ndr_pull_LMv2_RESPONSE
PUBLIC 11c754 0 ndr_print_LMv2_RESPONSE
PUBLIC 11c7ec 0 ndr_print_ntlmssp_LM_RESPONSE
PUBLIC 11c848 0 ndr_push_NTLM_RESPONSE
PUBLIC 11c8c0 0 ndr_pull_NTLM_RESPONSE
PUBLIC 11c938 0 ndr_print_NTLM_RESPONSE
PUBLIC 11c9b4 0 ndr_print_NTLMv2_CLIENT_CHALLENGE
PUBLIC 11caf0 0 ndr_print_decode_NTLMv2_CLIENT_CHALLENGE
PUBLIC 11cbd0 0 ndr_push_NTLMv2_RESPONSE
PUBLIC 11cca0 0 ndr_pull_NTLMv2_RESPONSE
PUBLIC 11cd70 0 ndr_print_NTLMv2_RESPONSE
PUBLIC 11ce04 0 ndr_print_decode_NTLMv2_RESPONSE
PUBLIC 11cee4 0 ndr_push_ntlmssp_NTLM_RESPONSE
PUBLIC 11cf94 0 ndr_pull_ntlmssp_NTLM_RESPONSE
PUBLIC 11d038 0 ndr_print_ntlmssp_NTLM_RESPONSE
PUBLIC 11d0b4 0 ndr_push_AUTHENTICATE_MESSAGE
PUBLIC 11d850 0 ndr_pull_AUTHENTICATE_MESSAGE
PUBLIC 11e664 0 ndr_print_AUTHENTICATE_MESSAGE
PUBLIC 11eb14 0 ndr_print_decode_AUTHENTICATE_MESSAGE
PUBLIC 11ebf4 0 ndr_push_NTLMSSP_MESSAGE_SIGNATURE
PUBLIC 11ec90 0 ndr_pull_NTLMSSP_MESSAGE_SIGNATURE
PUBLIC 11ed2c 0 ndr_print_NTLMSSP_MESSAGE_SIGNATURE
PUBLIC 11ede4 0 ndr_push_NTLMSSP_MESSAGE_SIGNATURE_NTLMv2
PUBLIC 11ee8c 0 ndr_pull_NTLMSSP_MESSAGE_SIGNATURE_NTLMv2
PUBLIC 11ef34 0 ndr_print_NTLMSSP_MESSAGE_SIGNATURE_NTLMv2
PUBLIC 11efec 0 ndr_ntlmssp_string_length
PUBLIC 11f018 0 ndr_ntlmssp_negotiated_string_flags
PUBLIC 11f034 0 ndr_push_AV_PAIR_LIST
PUBLIC 11f0dc 0 ndr_pull_AV_PAIR_LIST
PUBLIC 11f380 0 ndr_print_ntlmssp_nt_response
PUBLIC 11f43c 0 ndr_print_ntlmssp_lm_response
PUBLIC 11f4f8 0 ndr_print_ntlmssp_Version
PUBLIC 11f52c 0 ntlmssp_pull_NEGOTIATE_MESSAGE
PUBLIC 11f57c 0 ntlmssp_pull_CHALLENGE_MESSAGE
PUBLIC 11f5cc 0 ntlmssp_pull_AUTHENTICATE_MESSAGE
PUBLIC 11f61c 0 ntlmssp_push_NEGOTIATE_MESSAGE
PUBLIC 11f648 0 ntlmssp_push_CHALLENGE_MESSAGE
PUBLIC 11f674 0 ntlmssp_push_AUTHENTICATE_MESSAGE
PUBLIC 11f6a0 0 ntlmssp_target_name
PUBLIC 11f6f4 0 ntlmssp_server_negotiate
PUBLIC 11fc08 0 ntlmssp_server_auth
PUBLIC 1207c8 0 nt_errstr
PUBLIC 1208b8 0 get_friendly_nt_error_msg
PUBLIC 1208f8 0 get_nt_error_c_code
PUBLIC 1209d4 0 nt_status_string_to_code
PUBLIC 120a28 0 nt_status_squash
PUBLIC 120a60 0 smb_dos_err_name
PUBLIC 120c1c 0 get_dos_error_msg
PUBLIC 120c28 0 smb_dos_err_class
PUBLIC 120d04 0 smb_dos_errstr
PUBLIC 120ea8 0 map_werror_from_unix
PUBLIC 120eb8 0 win_errstr
PUBLIC 120f20 0 get_friendly_werror_msg
PUBLIC 120f64 0 dos_to_ntstatus
PUBLIC 120fd4 0 ntstatus_to_dos
PUBLIC 121054 0 werror_to_ntstatus
PUBLIC 1210c8 0 ntstatus_to_werror
PUBLIC 121118 0 dcerpc_errstr
PUBLIC 12115c 0 dcerpc_fault_to_nt_status
PUBLIC 1212b0 0 des_crypt56
PUBLIC 12179c 0 E_P16
PUBLIC 1217f4 0 E_P24
PUBLIC 121840 0 D_P16
PUBLIC 121878 0 E_old_pw_hash
PUBLIC 1218b0 0 des_crypt128
PUBLIC 1218e4 0 des_crypt64
PUBLIC 121930 0 des_crypt112
PUBLIC 121964 0 des_crypt112_16
PUBLIC 121994 0 sam_rid_crypt
PUBLIC 121a18 0 E_md4hash
PUBLIC 121aa0 0 E_md5hash
PUBLIC 121af0 0 E_deshash
PUBLIC 121b64 0 nt_lm_owf_gen
PUBLIC 121ba0 0 ntv2_owf_gen
PUBLIC 121ea0 0 SMBOWFencrypt
PUBLIC 121f08 0 SMBencrypt_hash
PUBLIC 121f70 0 SMBencrypt
PUBLIC 121fa8 0 SMBNTencrypt_hash
PUBLIC 122010 0 SMBNTencrypt
PUBLIC 12203c 0 SMBOWFencrypt_ntv2
PUBLIC 12208c 0 SMBsesskeygen_ntv2
PUBLIC 1220d0 0 SMBsesskeygen_ntv1
PUBLIC 1220e4 0 SMBsesskeygen_lm_sess_key
PUBLIC 122178 0 NTLMv2_generate_names_blob
PUBLIC 122208 0 SMBNTLMv2encrypt_hash
PUBLIC 122564 0 SMBNTLMv2encrypt
PUBLIC 1225d4 0 encode_pw_buffer
PUBLIC 122658 0 decode_pw_buffer
PUBLIC 1227d4 0 encode_or_decode_arc4_passwd_buffer
PUBLIC 122830 0 set_pw_in_buffer
PUBLIC 12289c 0 extract_pw_from_buffer
PUBLIC 122914 0 encode_wkssvc_join_password_buffer
PUBLIC 122a18 0 decode_wkssvc_join_password_buffer
PUBLIC 122b80 0 msrpc_gen
PUBLIC 123048 0 msrpc_parse
PUBLIC 123504 0 sess_crypt_blob
PUBLIC 1235dc 0 sess_encrypt_string
PUBLIC 123744 0 sess_decrypt_string
PUBLIC 123958 0 sess_encrypt_blob
PUBLIC 123ad0 0 sess_decrypt_blob
PUBLIC 1240f0 0 secrets_init
PUBLIC 12421c 0 secrets_db_ctx
PUBLIC 12423c 0 secrets_shutdown
PUBLIC 12426c 0 secrets_fetch
PUBLIC 124318 0 secrets_store
PUBLIC 124394 0 secrets_delete
PUBLIC 1243dc 0 secrets_fetch_trusted_domain_password
PUBLIC 124508 0 secrets_store_trusted_domain_password
PUBLIC 1245c0 0 trusted_domain_password_delete
PUBLIC 1245d0 0 secrets_store_ldap_pw
PUBLIC 1246ac 0 fetch_ldap_pw
PUBLIC 124a20 0 secrets_trusted_domains
PUBLIC 124ab4 0 secrets_store_afs_keyfile
PUBLIC 124b30 0 secrets_fetch_afs_key
PUBLIC 124be4 0 secrets_fetch_ipc_userpass
PUBLIC 124d90 0 secrets_store_generic
PUBLIC 124e68 0 secrets_delete_generic
PUBLIC 124f28 0 secrets_fetch_generic
PUBLIC 1254b4 0 secrets_store_domain_sid
PUBLIC 1254e0 0 secrets_fetch_domain_sid
PUBLIC 125548 0 secrets_store_domain_guid
PUBLIC 1255a0 0 secrets_fetch_domain_guid
PUBLIC 1256e8 0 secrets_get_trust_account_lock
PUBLIC 125738 0 get_default_sec_channel
PUBLIC 125764 0 secrets_fetch_trust_account_password_legacy
PUBLIC 125908 0 secrets_delete_machine_password
PUBLIC 12592c 0 secrets_delete_machine_password_ex
PUBLIC 125980 0 secrets_delete_domain_sid
PUBLIC 125990 0 secrets_store_machine_password
PUBLIC 125ab0 0 secrets_fetch_prev_machine_password
PUBLIC 125ac4 0 secrets_fetch_machine_password
PUBLIC 125b88 0 secrets_fetch_trust_account_password
PUBLIC 125c44 0 get_global_sam_sid
PUBLIC 126254 0 reset_global_sam_sid
PUBLIC 126280 0 sid_check_is_domain
PUBLIC 12629c 0 sid_check_is_in_our_domain
PUBLIC 1262d0 0 ndr_push_TRUSTED_DOM_PASS
PUBLIC 1263f4 0 ndr_pull_TRUSTED_DOM_PASS
PUBLIC 126508 0 ndr_print_TRUSTED_DOM_PASS
PUBLIC 12768c 0 nb_packet_server_create
PUBLIC 127788 0 nb_packet_dispatch
PUBLIC 127b10 0 nb_packet_reader_send
PUBLIC 127d1c 0 nb_packet_reader_recv
PUBLIC 127d84 0 nb_packet_read_send
PUBLIC 127e3c 0 nb_packet_read_recv
PUBLIC 127f68 0 namecache_store
PUBLIC 128184 0 namecache_fetch
PUBLIC 128308 0 namecache_delete
PUBLIC 128364 0 namecache_flush
PUBLIC 1283e8 0 namecache_status_store
PUBLIC 128538 0 namecache_status_fetch
PUBLIC 128ad8 0 put_name
PUBLIC 128d88 0 nmb_namestr
PUBLIC 129030 0 debug_nmb_packet
PUBLIC 1292cc 0 copy_packet
PUBLIC 129574 0 free_packet
PUBLIC 1295f4 0 packet_trn_id
PUBLIC 129620 0 parse_packet
PUBLIC 129a54 0 read_packet
PUBLIC 129b5c 0 make_nmb_name
PUBLIC 129be8 0 nmb_name_equal
PUBLIC 129c2c 0 build_packet
PUBLIC 12a19c 0 send_packet
PUBLIC 12a370 0 match_mailslot_name
PUBLIC 12a3a8 0 matching_len_bits
PUBLIC 12a440 0 sort_query_replies
PUBLIC 12a490 0 name_mangle
PUBLIC 12a5f8 0 name_extract
PUBLIC 12a7bc 0 name_len
PUBLIC 12c390 0 ip_service_compare
PUBLIC 12c614 0 saf_store
PUBLIC 12c7e0 0 saf_join_store
PUBLIC 12c9ac 0 saf_delete
PUBLIC 12cb7c 0 saf_fetch
PUBLIC 12cda0 0 node_status_query_send
PUBLIC 12d0ac 0 node_status_query_recv
PUBLIC 12d260 0 node_status_query
PUBLIC 12d300 0 name_status_find
PUBLIC 12d658 0 name_query_send
PUBLIC 12d9e0 0 name_query_recv
PUBLIC 12daf8 0 name_query
PUBLIC 12dbe0 0 name_resolve_bcast
PUBLIC 12dd58 0 resolve_wins
PUBLIC 12e14c 0 internal_resolve_name
PUBLIC 12ec50 0 resolve_name
PUBLIC 12f80c 0 resolve_name_list
PUBLIC 12fa2c 0 find_master_ip
PUBLIC 12fb78 0 get_pdc_ip
PUBLIC 12fcb4 0 get_sorted_dc_list
PUBLIC 12fe84 0 get_kdc_list
PUBLIC 12ff00 0 startlmhosts
PUBLIC 12ff9c 0 getlmhostsent
PUBLIC 1303e8 0 endlmhosts
PUBLIC 1303ec 0 resolve_lmhosts_file_as_sockaddr
PUBLIC 13074c 0 check_negative_conn_cache
PUBLIC 1308b4 0 add_failed_connection_entry
PUBLIC 130ae8 0 flush_negative_conn_cache_for_domain
PUBLIC 131b78 0 ads_dns_lookup_ns
PUBLIC 132280 0 ads_dns_query_dcs
PUBLIC 132334 0 ads_dns_query_gcs
PUBLIC 1323e8 0 ads_dns_query_kdcs
PUBLIC 13249c 0 ads_dns_query_pdc
PUBLIC 1324d4 0 ads_dns_query_dcs_guid
PUBLIC 132564 0 sitename_store
PUBLIC 132700 0 sitename_fetch
PUBLIC 13283c 0 stored_sitename_changed
PUBLIC 132a30 0 ndr_print_nbt_string
PUBLIC 132a34 0 ndr_pull_nbt_string
PUBLIC 132c24 0 ndr_pull_nbt_name
PUBLIC 132d9c 0 ndr_push_nbt_string
PUBLIC 132f44 0 ndr_push_nbt_name
PUBLIC 1330bc 0 nbt_name_dup
PUBLIC 133120 0 nbt_name_to_blob
PUBLIC 133158 0 nbt_name_from_blob
PUBLIC 133190 0 nbt_choose_called_name
PUBLIC 133234 0 nbt_name_string
PUBLIC 1332e4 0 ndr_pull_wrepl_nbt_name
PUBLIC 133614 0 ndr_push_wrepl_nbt_name
PUBLIC 1337ac 0 ndr_print_wrepl_nbt_name
PUBLIC 1337ec 0 ndr_push_nbt_res_rec
PUBLIC 1338e0 0 push_netlogon_samlogon_response
PUBLIC 133a10 0 pull_netlogon_samlogon_response
PUBLIC 133cec 0 map_netlogon_samlogon_response
PUBLIC 133dfc 0 push_nbt_netlogon_response
PUBLIC 133f58 0 pull_nbt_netlogon_response
PUBLIC 1340f4 0 ndr_push_NETLOGON_SAM_LOGON_REQUEST
PUBLIC 1342fc 0 ndr_pull_NETLOGON_SAM_LOGON_REQUEST
PUBLIC 1344d4 0 ndr_push_NETLOGON_SAM_LOGON_RESPONSE_EX_with_flags
PUBLIC 134780 0 ndr_pull_NETLOGON_SAM_LOGON_RESPONSE_EX_with_flags
PUBLIC 134a1c 0 ndr_push_nbt_sockaddr
PUBLIC 135148 0 ndr_print_nbt_operation
PUBLIC 135278 0 ndr_print_nbt_name_type
PUBLIC 135358 0 ndr_print_nbt_name
PUBLIC 1353ec 0 ndr_push_nbt_qclass
PUBLIC 1353f8 0 ndr_pull_nbt_qclass
PUBLIC 135420 0 ndr_print_nbt_qclass
PUBLIC 135454 0 ndr_push_nbt_qtype
PUBLIC 135460 0 ndr_pull_nbt_qtype
PUBLIC 135488 0 ndr_print_nbt_qtype
PUBLIC 135528 0 ndr_print_nbt_name_question
PUBLIC 1355bc 0 ndr_print_nb_flags
PUBLIC 1356ac 0 ndr_print_nbt_rdata_address
PUBLIC 135728 0 ndr_print_nbt_rdata_netbios
PUBLIC 135810 0 ndr_print_nbt_statistics
PUBLIC 135a40 0 ndr_print_nbt_status_name
PUBLIC 135ad4 0 ndr_print_nbt_rdata_status
PUBLIC 135bfc 0 ndr_print_nbt_rdata_data
PUBLIC 135c7c 0 ndr_push_nbt_rdata
PUBLIC 136118 0 ndr_pull_nbt_rdata
PUBLIC 1368ec 0 ndr_print_nbt_rdata
PUBLIC 136988 0 ndr_print_nbt_res_rec
PUBLIC 136a74 0 ndr_push_nbt_name_packet
PUBLIC 136cd0 0 ndr_pull_nbt_name_packet
PUBLIC 1371ac 0 ndr_print_nbt_name_packet
PUBLIC 1374ac 0 ndr_print_dgram_msg_type
PUBLIC 13756c 0 ndr_print_dgram_flags
PUBLIC 1375fc 0 ndr_print_smb_command
PUBLIC 137630 0 ndr_print_smb_trans_body
PUBLIC 1378cc 0 ndr_print_smb_body
PUBLIC 137938 0 ndr_push_dgram_smb_packet
PUBLIC 137f0c 0 ndr_pull_dgram_smb_packet
PUBLIC 138510 0 ndr_print_dgram_smb_packet
PUBLIC 1386dc 0 ndr_print_dgram_message_body
PUBLIC 138750 0 ndr_print_dgram_message
PUBLIC 138840 0 ndr_print_dgram_err_code
PUBLIC 1388a4 0 ndr_print_dgram_data
PUBLIC 1389a4 0 ndr_push_nbt_dgram_packet
PUBLIC 138b58 0 ndr_pull_nbt_dgram_packet
PUBLIC 138d30 0 ndr_print_nbt_dgram_packet
PUBLIC 138e38 0 ndr_pull_nbt_sockaddr
PUBLIC 138ee0 0 ndr_print_nbt_sockaddr
PUBLIC 138f78 0 ndr_size_nbt_sockaddr
PUBLIC 138f88 0 ndr_push_nbt_server_type
PUBLIC 138f90 0 ndr_pull_nbt_server_type
PUBLIC 138fb8 0 ndr_print_nbt_server_type
PUBLIC 1391e8 0 ndr_push_netlogon_nt_version_flags
PUBLIC 13953c 0 ndr_pull_netlogon_nt_version_flags
PUBLIC 13989c 0 ndr_print_netlogon_nt_version_flags
PUBLIC 139a0c 0 ndr_push_netlogon_command
PUBLIC 139a18 0 ndr_pull_netlogon_command
PUBLIC 139a40 0 ndr_print_netlogon_command
PUBLIC 139b98 0 ndr_print_NETLOGON_SAM_LOGON_REQUEST
PUBLIC 139d0c 0 ndr_print_NETLOGON_LOGON_REQUEST
PUBLIC 139de8 0 ndr_push_NETLOGON_SAM_LOGON_RESPONSE_NT40
PUBLIC 139f24 0 ndr_pull_NETLOGON_SAM_LOGON_RESPONSE_NT40
PUBLIC 13a060 0 ndr_print_NETLOGON_SAM_LOGON_RESPONSE_NT40
PUBLIC 13a168 0 ndr_push_NETLOGON_SAM_LOGON_RESPONSE
PUBLIC 13a34c 0 ndr_pull_NETLOGON_SAM_LOGON_RESPONSE
PUBLIC 13a530 0 ndr_print_NETLOGON_SAM_LOGON_RESPONSE
PUBLIC 13a6e0 0 ndr_push_NETLOGON_SAM_LOGON_RESPONSE_EX
PUBLIC 13a95c 0 ndr_pull_NETLOGON_SAM_LOGON_RESPONSE_EX
PUBLIC 13aba4 0 ndr_print_NETLOGON_SAM_LOGON_RESPONSE_EX
PUBLIC 13add0 0 ndr_print_nbt_netlogon_query_for_pdc
PUBLIC 13aec8 0 ndr_push_nbt_netlogon_response_from_pdc
PUBLIC 13b010 0 ndr_pull_nbt_netlogon_response_from_pdc
PUBLIC 13b154 0 ndr_print_nbt_netlogon_response_from_pdc
PUBLIC 13b264 0 ndr_push_nbt_netlogon_response2
PUBLIC 13b31c 0 ndr_pull_nbt_netlogon_response2
PUBLIC 13b3d4 0 ndr_print_nbt_netlogon_response2
PUBLIC 13b47c 0 ndr_print_nbt_db_change_info
PUBLIC 13b510 0 ndr_print_NETLOGON_DB_CHANGE
PUBLIC 13b748 0 ndr_print_nbt_netlogon_request
PUBLIC 13b828 0 ndr_push_nbt_netlogon_packet
PUBLIC 13b910 0 ndr_pull_nbt_netlogon_packet
PUBLIC 13b9f8 0 ndr_print_nbt_netlogon_packet
PUBLIC 13ba9c 0 ndr_print_decode_nbt_netlogon_packet
PUBLIC 13bb7c 0 ndr_print_nbt_browse_opcode
PUBLIC 13bc8c 0 ndr_print_nbt_browse_host_announcement
PUBLIC 13bdc8 0 ndr_print_nbt_browse_announcement_request
PUBLIC 13be44 0 ndr_print_nbt_browse_election_request
PUBLIC 13bf08 0 ndr_print_nbt_browse_backup_list_request
PUBLIC 13bf84 0 ndr_print_nbt_browse_backup_list_response
PUBLIC 13c070 0 ndr_print_nbt_browse_become_backup
PUBLIC 13c0d4 0 ndr_print_nbt_browse_domain_announcement
PUBLIC 13c1e0 0 ndr_print_nbt_browse_master_announcement
PUBLIC 13c244 0 ndr_print_nbt_browse_reset_state
PUBLIC 13c2a8 0 ndr_print_nbt_browse_local_master_announcement
PUBLIC 13c3e4 0 ndr_print_nbt_browse_payload
PUBLIC 13c56c 0 ndr_push_nbt_browse_packet
PUBLIC 13caf0 0 ndr_pull_nbt_browse_packet
PUBLIC 13d16c 0 ndr_print_nbt_browse_packet
PUBLIC 13d210 0 ndr_print_svcctl_SetServiceStatus
PUBLIC 13d2f0 0 ndr_print_svcctl_NotifyBootConfigStatus
PUBLIC 13d3d0 0 ndr_print_svcctl_GetCurrentGroupeStateW
PUBLIC 13d4b0 0 ndr_print_svcctl_EnumServiceGroupW
PUBLIC 13d590 0 ndr_print_svcctl_SCSendTSMessage
PUBLIC 13d8c0 0 ndr_print_svcctl_CloseServiceHandle
PUBLIC 13da34 0 ndr_print_svcctl_DeleteService
PUBLIC 13db64 0 ndr_print_svcctl_LockServiceDatabase
PUBLIC 13dcd8 0 ndr_print_svcctl_UnlockServiceDatabase
PUBLIC 13de4c 0 ndr_print_svcctl_SCSetServiceBitsW
PUBLIC 13dfd0 0 ndr_print_svcctl_GetServiceDisplayNameW
PUBLIC 13e25c 0 ndr_print_svcctl_GetServiceKeyNameW
PUBLIC 13e4e8 0 ndr_print_svcctl_SCSetServiceBitsA
PUBLIC 13e66c 0 ndr_print_svcctl_OpenSCManagerA
PUBLIC 13e858 0 ndr_print_svcctl_OpenServiceA
PUBLIC 13e9f8 0 ndr_print_svcctl_StartServiceA
PUBLIC 13eb8c 0 ndr_print_svcctl_GetServiceDisplayNameA
PUBLIC 13ee18 0 ndr_print_svcctl_GetServiceKeyNameA
PUBLIC 13f0a4 0 ndr_print_svcctl_QueryServiceObjectSecurity
PUBLIC 13f2a0 0 ndr_print_svcctl_SetServiceObjectSecurity
PUBLIC 13f454 0 ndr_print_svcctl_QueryServiceConfigA
PUBLIC 13f60c 0 ndr_print_svcctl_ChangeServiceConfig2A
PUBLIC 13f7a4 0 ndr_print_svcctl_ChangeServiceConfig2W
PUBLIC 146948 0 ndr_push_QUERY_SERVICE_CONFIG
PUBLIC 1513f0 0 ndr_push_SERVICE_DESCRIPTION
PUBLIC 151b14 0 ndr_push_SERVICE_FAILURE_ACTIONS
PUBLIC 1527b4 0 ndr_push_ENUM_SERVICE_STATUSA
PUBLIC 152a6c 0 ndr_push_ENUM_SERVICE_STATUSW
PUBLIC 15423c 0 ndr_print_SERVICE_LOCK_STATUS
PUBLIC 154304 0 ndr_print_svcctl_QueryServiceLockStatusW
PUBLIC 1544e4 0 ndr_print_svcctl_QueryServiceLockStatusA
PUBLIC 1546c4 0 ndr_print_svcctl_ServiceStatus
PUBLIC 154794 0 ndr_print_svcctl_ControlsAccepted
PUBLIC 1548a4 0 ndr_print_SERVICE_STATUS
PUBLIC 154998 0 ndr_print_svcctl_QueryServiceStatus
PUBLIC 154b0c 0 ndr_push_SERVICE_STATUS_PROCESS
PUBLIC 154b8c 0 ndr_pull_SERVICE_STATUS_PROCESS
PUBLIC 154c0c 0 ndr_print_SERVICE_STATUS_PROCESS
PUBLIC 154ca0 0 ndr_pull_ENUM_SERVICE_STATUSW
PUBLIC 155088 0 ndr_print_ENUM_SERVICE_STATUSW
PUBLIC 155184 0 ndr_size_ENUM_SERVICE_STATUSW
PUBLIC 155194 0 ndr_pull_ENUM_SERVICE_STATUSA
PUBLIC 155bdc 0 ndr_print_ENUM_SERVICE_STATUSA
PUBLIC 155cd8 0 ndr_size_ENUM_SERVICE_STATUSA
PUBLIC 155ce8 0 ndr_push_svcctl_ServerType
PUBLIC 155cf0 0 ndr_pull_svcctl_ServerType
PUBLIC 155d18 0 ndr_print_svcctl_ServerType
PUBLIC 1560a8 0 ndr_print_SERVICE_CONTROL
PUBLIC 156140 0 ndr_print_svcctl_ControlService
PUBLIC 1562d8 0 ndr_print_svcctl_ErrorControl
PUBLIC 156358 0 ndr_print_svcctl_StartType
PUBLIC 1563ec 0 ndr_print_svcctl_ChangeServiceConfigW
PUBLIC 156774 0 ndr_print_svcctl_CreateServiceW
PUBLIC 156bd8 0 ndr_print_svcctl_ChangeServiceConfigA
PUBLIC 156f60 0 ndr_print_svcctl_CreateServiceA
PUBLIC 157354 0 ndr_print_svcctl_ServiceState
PUBLIC 1573b8 0 ndr_print_svcctl_EnumDependentServicesW
PUBLIC 1575fc 0 ndr_print_svcctl_EnumServicesStatusW
PUBLIC 1578ec 0 ndr_print_svcctl_EnumDependentServicesA
PUBLIC 157b34 0 ndr_print_svcctl_EnumServicesStatusA
PUBLIC 157df8 0 ndr_print_EnumServicesStatusExA
PUBLIC 158144 0 ndr_print_EnumServicesStatusExW
PUBLIC 158498 0 ndr_print_svcctl_MgrAccessMask
PUBLIC 158588 0 ndr_print_svcctl_OpenSCManagerW
PUBLIC 158774 0 ndr_print_svcctl_ServiceAccessMask
PUBLIC 1588c4 0 ndr_print_svcctl_OpenServiceW
PUBLIC 158a74 0 ndr_pull_QUERY_SERVICE_CONFIG
PUBLIC 159a60 0 ndr_print_QUERY_SERVICE_CONFIG
PUBLIC 159c7c 0 ndr_print_svcctl_QueryServiceConfigW
PUBLIC 159e5c 0 ndr_size_QUERY_SERVICE_CONFIG
PUBLIC 159e6c 0 ndr_print_svcctl_ArgumentString
PUBLIC 159ef8 0 ndr_print_svcctl_StartServiceW
PUBLIC 15a0f0 0 ndr_print_svcctl_ConfigLevel
PUBLIC 15a144 0 ndr_print_svcctl_QueryServiceConfig2A
PUBLIC 15a314 0 ndr_print_svcctl_QueryServiceConfig2W
PUBLIC 15a510 0 ndr_pull_SERVICE_DESCRIPTION
PUBLIC 15a730 0 ndr_print_SERVICE_DESCRIPTION
PUBLIC 15a7bc 0 ndr_size_SERVICE_DESCRIPTION
PUBLIC 15a7cc 0 ndr_print_SC_ACTION_TYPE
PUBLIC 15a84c 0 ndr_print_SC_ACTION
PUBLIC 15a8c8 0 ndr_pull_SERVICE_FAILURE_ACTIONS
PUBLIC 15b028 0 ndr_print_SERVICE_FAILURE_ACTIONS
PUBLIC 15b1e0 0 ndr_size_SERVICE_FAILURE_ACTIONS
PUBLIC 15b1f0 0 ndr_print_svcctl_StatusLevel
PUBLIC 15b224 0 ndr_print_svcctl_QueryServiceStatusEx
PUBLIC 15b420 0 ndr_push_ENUM_SERVICE_STATUSW_array
PUBLIC 15b498 0 ndr_pull_ENUM_SERVICE_STATUSW_array
PUBLIC 15b510 0 ads_cldap_netlogon
PUBLIC 15b84c 0 ads_cldap_netlogon_5
PUBLIC 15c150 0 cldap_socket_init
PUBLIC 15c360 0 cldap_set_incoming_handler
PUBLIC 15c3c8 0 cldap_reply_send
PUBLIC 15c610 0 cldap_search_send
PUBLIC 15ca1c 0 cldap_search_recv
PUBLIC 15cc48 0 cldap_search
PUBLIC 15cd00 0 cldap_netlogon_send
PUBLIC 15d09c 0 cldap_netlogon_recv
PUBLIC 15d198 0 cldap_netlogon
PUBLIC 15d250 0 cldap_empty_reply
PUBLIC 15d28c 0 cldap_error_reply
PUBLIC 15d2d8 0 cldap_netlogon_reply
PUBLIC 15d6f0 0 idr_init
PUBLIC 15d704 0 idr_find
PUBLIC 15d75c 0 idr_remove
PUBLIC 15d94c 0 idr_get_new
PUBLIC 15d980 0 idr_get_new_above
PUBLIC 15d9b0 0 idr_get_new_random
PUBLIC 15de54 0 new_ldap_message
PUBLIC 15de68 0 ldap_encode
PUBLIC 15e834 0 asn1_read_OctetString_talloc
PUBLIC 15f1bc 0 ldap_decode_attribs_bare
PUBLIC 15f2a0 0 ldap_decode
PUBLIC 160070 0 ldap_full_packet
PUBLIC 16009c 0 ldap_encode_ndr_uint32
PUBLIC 1600e0 0 ldap_encode_ndr_dom_sid
PUBLIC 160134 0 ldap_encode_ndr_GUID
PUBLIC 160180 0 ldap_decode_ndr_GUID
PUBLIC 160da0 0 ldb_binary_encode
PUBLIC 160eac 0 ldb_parse_tree
PUBLIC 161424 0 tsocket_simple_int_recv
PUBLIC 161478 0 _tsocket_address_create
PUBLIC 161508 0 tsocket_address_string
PUBLIC 16153c 0 _tsocket_address_copy
PUBLIC 161550 0 _tdgram_context_create
PUBLIC 1615f4 0 _tdgram_context_data
PUBLIC 1615fc 0 tdgram_recvfrom_send
PUBLIC 161704 0 tdgram_recvfrom_recv
PUBLIC 161790 0 tdgram_sendto_send
PUBLIC 1618c4 0 tdgram_sendto_recv
PUBLIC 161918 0 tdgram_disconnect_send
PUBLIC 161a08 0 tdgram_disconnect_recv
PUBLIC 161a28 0 _tstream_context_create
PUBLIC 161acc 0 _tstream_context_data
PUBLIC 161ad4 0 tstream_pending_bytes
PUBLIC 161ae8 0 tstream_readv_send
PUBLIC 161c6c 0 tstream_readv_recv
PUBLIC 161cc0 0 tstream_writev_send
PUBLIC 161e44 0 tstream_writev_recv
PUBLIC 161e98 0 tstream_disconnect_send
PUBLIC 161f88 0 tstream_disconnect_recv
PUBLIC 1624c4 0 tdgram_sendto_queue_send
PUBLIC 162588 0 tdgram_sendto_queue_recv
PUBLIC 1625dc 0 tstream_readv_pdu_send
PUBLIC 1626f4 0 tstream_readv_pdu_recv
PUBLIC 16280c 0 tstream_readv_pdu_queue_send
PUBLIC 1628cc 0 tstream_readv_pdu_queue_recv
PUBLIC 162920 0 tstream_writev_queue_send
PUBLIC 1629e0 0 tstream_writev_queue_recv
PUBLIC 164ec8 0 _tsocket_address_bsd_from_sockaddr
PUBLIC 165020 0 tsocket_address_bsd_sockaddr
PUBLIC 165098 0 tsocket_address_is_inet
PUBLIC 165150 0 _tsocket_address_inet_from_strings
PUBLIC 1652dc 0 tsocket_address_inet_addr_string
PUBLIC 165364 0 tsocket_address_inet_port
PUBLIC 1654c8 0 tsocket_address_inet_set_port
PUBLIC 165528 0 tsocket_address_is_unix
PUBLIC 16555c 0 _tsocket_address_unix_from_path
PUBLIC 1655f0 0 tsocket_address_unix_path
PUBLIC 165644 0 tdgram_bsd_optimize_recvfrom
PUBLIC 165674 0 _tdgram_inet_udp_socket
PUBLIC 1656f0 0 _tdgram_unix_socket
PUBLIC 165764 0 tstream_bsd_optimize_readv
PUBLIC 165794 0 _tstream_bsd_existing_socket
PUBLIC 1658e4 0 tstream_inet_tcp_connect_send
PUBLIC 165954 0 _tstream_inet_tcp_connect_recv
PUBLIC 165958 0 tstream_unix_connect_send
PUBLIC 1659bc 0 _tstream_unix_connect_recv
PUBLIC 1659dc 0 _tstream_unix_socketpair
PUBLIC 165da4 0 ndr_print_drsuapi_DsReplicaObjectListItem
PUBLIC 165e30 0 ndr_print_drsuapi_DsReplicaObjectListItemEx
PUBLIC 165f68 0 ndr_print_drsuapi_DsReplicaOID
PUBLIC 16609c 0 ndr_print_drsuapi_DsReplicaAttribute
PUBLIC 166244 0 ndr_push_drsuapi_DsGetNCChangesMSZIPCtr1
PUBLIC 1663ec 0 ndr_push_drsuapi_DsGetNCChangesMSZIPCtr6
PUBLIC 166594 0 ndr_push_drsuapi_DsGetNCChangesXPRESSCtr1
PUBLIC 16673c 0 ndr_push_drsuapi_DsGetNCChangesXPRESSCtr6
PUBLIC 1668e4 0 ndr_size_drsuapi_DsReplicaObjectIdentifier3Binary_without_Binary
PUBLIC 1668f4 0 ndr_print_drsuapi_SecBufferType
PUBLIC 166a14 0 ndr_print_drsuapi_DsAddEntry_AttrErrListItem_V1
PUBLIC 166ac8 0 ndr_pull_compression_start
PUBLIC 1670bc 0 ndr_pull_compression_end
PUBLIC 1670c4 0 ndr_push_compression_start
PUBLIC 167118 0 ndr_push_compression_end
PUBLIC 168074 0 ndr_print_DRSUAPI_VERIFY_NAMES
PUBLIC 168154 0 ndr_print_DRSUAPI_INTER_DOMAIN_MOVE
PUBLIC 168234 0 ndr_print_DRSUAPI_REMOVE_DS_DOMAIN
PUBLIC 168314 0 ndr_print_DRSUAPI_ADD_SID_HISTORY
PUBLIC 1683f4 0 ndr_print_DRSUAPI_REPLICA_VERIFY_OBJECTS
PUBLIC 1684d4 0 ndr_print_DRSUAPI_GET_OBJECT_EXISTENCE
PUBLIC 168950 0 ndr_print_drsuapi_DsUnbind
PUBLIC 179380 0 ndr_pull_drsuapi_DsBind
PUBLIC 179bd4 0 ndr_push_drsuapi_DsBind
PUBLIC 17b28c 0 ndr_push_drsuapi_DrsOptions
PUBLIC 17babc 0 ndr_pull_drsuapi_DrsOptions
PUBLIC 17cc10 0 ndr_print_drsuapi_DrsOptions
PUBLIC 17d120 0 ndr_print_drsuapi_SupportedExtensions
PUBLIC 17d590 0 ndr_print_drsuapi_SupportedExtensionsExt
PUBLIC 17d620 0 ndr_print_drsuapi_DsBindInfo24
PUBLIC 17d6b8 0 ndr_print_drsuapi_DsBindInfo28
PUBLIC 17d768 0 ndr_print_drsuapi_DsBindInfo48
PUBLIC 17d848 0 ndr_print_drsuapi_DsBindInfoFallBack
PUBLIC 17d8ac 0 ndr_print_drsuapi_DsBindInfo
PUBLIC 17d960 0 ndr_print_drsuapi_DsBindInfoCtr
PUBLIC 17d9f0 0 ndr_print_drsuapi_DsBind
PUBLIC 17dc04 0 ndr_pull_drsuapi_DsReplicaObjectIdentifier
PUBLIC 1833e8 0 ndr_size_drsuapi_DsReplicaObjectIdentifier
PUBLIC 1833f8 0 ndr_push_drsuapi_DsReplicaObjectIdentifier
PUBLIC 185824 0 ndr_print_drsuapi_DsReplicaObjectIdentifier
PUBLIC 18594c 0 ndr_print_drsuapi_DsReplicaSyncRequest1
PUBLIC 185a5c 0 ndr_print_drsuapi_DsReplicaSyncRequest
PUBLIC 185ac8 0 ndr_print_drsuapi_DsReplicaSync
PUBLIC 185c64 0 ndr_push_drsuapi_DsReplicaHighWaterMark
PUBLIC 185ce8 0 ndr_pull_drsuapi_DsReplicaHighWaterMark
PUBLIC 185d6c 0 ndr_print_drsuapi_DsReplicaHighWaterMark
PUBLIC 185e00 0 ndr_push_drsuapi_DsReplicaCursor
PUBLIC 1860d0 0 ndr_pull_drsuapi_DsReplicaCursor
PUBLIC 1866ac 0 ndr_print_drsuapi_DsReplicaCursor
PUBLIC 186728 0 ndr_print_drsuapi_DsReplicaCursorCtrEx
PUBLIC 186868 0 ndr_print_drsuapi_DsExtendedOperation
PUBLIC 18695c 0 ndr_print_drsuapi_DsExtendedError
PUBLIC 186b04 0 ndr_print_drsuapi_DsGetNCChangesRequest5
PUBLIC 186ca0 0 ndr_print_drsuapi_DsReplicaOIDMapping
PUBLIC 186d1c 0 ndr_push_drsuapi_DsReplicaOIDMapping_Ctr
PUBLIC 186e30 0 ndr_pull_drsuapi_DsReplicaOIDMapping_Ctr
PUBLIC 187164 0 ndr_print_drsuapi_DsReplicaOIDMapping_Ctr
PUBLIC 187270 0 ndr_push_drsuapi_DsAttributeId
PUBLIC 187f5c 0 ndr_pull_drsuapi_DsAttributeId
PUBLIC 189b2c 0 ndr_print_drsuapi_DsAttributeId
PUBLIC 18a658 0 ndr_print_drsuapi_DsPartialAttributeSet
PUBLIC 18a770 0 ndr_print_drsuapi_DsGetNCChangesRequest8
PUBLIC 18a9bc 0 ndr_print_drsuapi_DsGetNCChangesRequest10
PUBLIC 18ac20 0 ndr_print_drsuapi_DsGetNCChangesRequest
PUBLIC 18accc 0 ndr_push_drsuapi_DsReplicaCursor2
PUBLIC 18bab4 0 ndr_pull_drsuapi_DsReplicaCursor2
PUBLIC 18edf0 0 ndr_print_drsuapi_DsReplicaCursor2
PUBLIC 18ee84 0 ndr_print_drsuapi_DsReplicaCursor2CtrEx
PUBLIC 18efc0 0 ndr_print_drsuapi_DsAttributeValue
PUBLIC 18f088 0 ndr_print_drsuapi_DsAttributeValueCtr
PUBLIC 18f190 0 ndr_pull_drsuapi_DsReplicaObjectIdentifier3
PUBLIC 18f298 0 ndr_size_drsuapi_DsReplicaObjectIdentifier3
PUBLIC 18f2a8 0 ndr_push_drsuapi_DsReplicaObjectIdentifier3
PUBLIC 18f3e0 0 ndr_print_drsuapi_DsReplicaObjectIdentifier3
PUBLIC 18f508 0 ndr_push_drsuapi_DsReplicaObjectIdentifier3Binary
PUBLIC 18f68c 0 ndr_pull_drsuapi_DsReplicaObjectIdentifier3Binary
PUBLIC 18f7d8 0 ndr_print_drsuapi_DsReplicaObjectIdentifier3Binary
PUBLIC 18f944 0 ndr_push_drsuapi_DsReplicaAttribute
PUBLIC 18fae8 0 ndr_pull_drsuapi_DsReplicaAttribute
PUBLIC 18feac 0 ndr_print_drsuapi_DsReplicaAttributeCtr
PUBLIC 18ffb8 0 ndr_push_drsuapi_DsReplicaObjectFlags
PUBLIC 18ffc0 0 ndr_pull_drsuapi_DsReplicaObjectFlags
PUBLIC 18ffe8 0 ndr_print_drsuapi_DsReplicaObjectFlags
PUBLIC 190078 0 ndr_push_drsuapi_DsReplicaObject
PUBLIC 190140 0 ndr_pull_drsuapi_DsReplicaObject
PUBLIC 1902fc 0 ndr_print_drsuapi_DsReplicaObject
PUBLIC 1903c4 0 ndr_print_drsuapi_DsReplicaMetaData
PUBLIC 190470 0 ndr_push_drsuapi_DsReplicaMetaDataCtr
PUBLIC 190510 0 ndr_pull_drsuapi_DsReplicaMetaDataCtr
PUBLIC 1906f8 0 ndr_print_drsuapi_DsReplicaMetaDataCtr
PUBLIC 1907cc 0 ndr_push_drsuapi_DsReplicaObjectListItemEx
PUBLIC 19090c 0 ndr_pull_drsuapi_DsReplicaObjectListItemEx
PUBLIC 190d0c 0 ndr_pull_drsuapi_DsGetNCChangesCtr1
PUBLIC 1911ac 0 ndr_size_drsuapi_DsGetNCChangesCtr1
PUBLIC 1911bc 0 ndr_push_drsuapi_DsGetNCChangesCtr1
PUBLIC 1913c8 0 ndr_print_drsuapi_DsGetNCChangesCtr1
PUBLIC 1915e8 0 ndr_push_drsuapi_DsLinkedAttributeFlags
PUBLIC 1915f0 0 ndr_pull_drsuapi_DsLinkedAttributeFlags
PUBLIC 191618 0 ndr_print_drsuapi_DsLinkedAttributeFlags
PUBLIC 191668 0 ndr_push_drsuapi_DsReplicaLinkedAttribute
PUBLIC 191774 0 ndr_pull_drsuapi_DsReplicaLinkedAttribute
PUBLIC 191974 0 ndr_print_drsuapi_DsReplicaLinkedAttribute
PUBLIC 191a84 0 ndr_pull_drsuapi_DsGetNCChangesCtr6
PUBLIC 192444 0 ndr_size_drsuapi_DsGetNCChangesCtr6
PUBLIC 192454 0 ndr_push_drsuapi_DsGetNCChangesCtr6
PUBLIC 192c98 0 ndr_print_drsuapi_DsGetNCChangesCtr6
PUBLIC 192fcc 0 ndr_push_drsuapi_DsGetNCChangesCtr1TS
PUBLIC 19305c 0 ndr_pull_drsuapi_DsGetNCChangesCtr1TS
PUBLIC 19359c 0 ndr_print_drsuapi_DsGetNCChangesCtr1TS
PUBLIC 193600 0 ndr_push_drsuapi_DsGetNCChangesCtr6TS
PUBLIC 193690 0 ndr_pull_drsuapi_DsGetNCChangesCtr6TS
PUBLIC 1947cc 0 ndr_print_drsuapi_DsGetNCChangesCtr6TS
PUBLIC 194830 0 ndr_print_drsuapi_DsGetNCChangesMSZIPCtr1
PUBLIC 1948ec 0 ndr_print_drsuapi_DsGetNCChangesMSZIPCtr6
PUBLIC 1949a8 0 ndr_print_drsuapi_DsGetNCChangesXPRESSCtr1
PUBLIC 194a64 0 ndr_print_drsuapi_DsGetNCChangesXPRESSCtr6
PUBLIC 194b20 0 ndr_print_drsuapi_DsGetNCChangesCompressionType
PUBLIC 194b74 0 ndr_print_drsuapi_DsGetNCChangesCompressedCtr
PUBLIC 194c80 0 ndr_print_drsuapi_DsGetNCChangesCtr2
PUBLIC 194ce4 0 ndr_print_drsuapi_DsGetNCChangesCtr7
PUBLIC 194d94 0 ndr_print_drsuapi_DsGetNCChangesCtr
PUBLIC 194e6c 0 ndr_print_drsuapi_DsGetNCChanges
PUBLIC 1950a8 0 ndr_print_drsuapi_DsReplicaUpdateRefsRequest1
PUBLIC 1951ac 0 ndr_print_drsuapi_DsReplicaUpdateRefsRequest
PUBLIC 195218 0 ndr_print_drsuapi_DsReplicaUpdateRefs
PUBLIC 195398 0 ndr_print_drsuapi_DsReplicaAddRequest1
PUBLIC 1954a8 0 ndr_print_drsuapi_DsReplicaAddRequest2
PUBLIC 195650 0 ndr_print_drsuapi_DsReplicaAddRequest
PUBLIC 1956e4 0 ndr_print_drsuapi_DsReplicaAdd
PUBLIC 195864 0 ndr_print_drsuapi_DsReplicaDelRequest1
PUBLIC 195958 0 ndr_print_drsuapi_DsReplicaDelRequest
PUBLIC 1959c4 0 ndr_print_drsuapi_DsReplicaDel
PUBLIC 195b44 0 ndr_print_drsuapi_DsReplicaModRequest1
PUBLIC 195ca0 0 ndr_print_drsuapi_DsReplicaModRequest
PUBLIC 195d0c 0 ndr_print_drsuapi_DsReplicaMod
PUBLIC 195e8c 0 ndr_print_drsuapi_DsMembershipType
PUBLIC 195f4c 0 ndr_print_drsuapi_DsGetMembershipsCtr1
PUBLIC 19624c 0 ndr_print_drsuapi_DsGetMembershipsCtr
PUBLIC 1962b8 0 ndr_print_drsuapi_DsGetMembershipsRequest1
PUBLIC 196470 0 ndr_print_drsuapi_DsGetMembershipsRequest
PUBLIC 1964dc 0 ndr_print_drsuapi_DsGetMemberships
PUBLIC 196718 0 ndr_print_drsuapi_DsGetNT4ChangeLogFlags
PUBLIC 196788 0 ndr_print_drsuapi_DsGetNT4ChangeLogRequest1
PUBLIC 196860 0 ndr_print_drsuapi_DsGetNT4ChangeLogRequest
PUBLIC 1968cc 0 ndr_print_drsuapi_DsGetNT4ChangeLogInfo1
PUBLIC 196a84 0 ndr_print_drsuapi_DsGetNT4ChangeLogInfo
PUBLIC 196af0 0 ndr_print_drsuapi_DsGetNT4ChangeLog
PUBLIC 196d2c 0 ndr_print_drsuapi_DsNameStatus
PUBLIC 196dfc 0 ndr_print_drsuapi_DsNameFlags
PUBLIC 196ea0 0 ndr_print_drsuapi_DsNameFormat
PUBLIC 19710c 0 ndr_print_drsuapi_DsNameString
PUBLIC 197198 0 ndr_print_drsuapi_DsNameRequest1
PUBLIC 197318 0 ndr_print_drsuapi_DsNameRequest
PUBLIC 197384 0 ndr_print_drsuapi_DsNameInfo1
PUBLIC 197474 0 ndr_print_drsuapi_DsNameCtr1
PUBLIC 197580 0 ndr_print_drsuapi_DsNameCtr
PUBLIC 197624 0 ndr_print_drsuapi_DsCrackNames
PUBLIC 197860 0 ndr_print_drsuapi_DsSpnOperation
PUBLIC 1978c8 0 ndr_print_drsuapi_DsWriteAccountSpnRequest1
PUBLIC 197a4c 0 ndr_print_drsuapi_DsWriteAccountSpnRequest
PUBLIC 197ab8 0 ndr_print_drsuapi_DsWriteAccountSpnResult1
PUBLIC 197b1c 0 ndr_print_drsuapi_DsWriteAccountSpnResult
PUBLIC 197b88 0 ndr_print_drsuapi_DsWriteAccountSpn
PUBLIC 197dc4 0 ndr_print_drsuapi_DsRemoveDSServerRequest1
PUBLIC 197ec0 0 ndr_print_drsuapi_DsRemoveDSServerRequest
PUBLIC 197f2c 0 ndr_print_drsuapi_DsRemoveDSServerResult1
PUBLIC 197f90 0 ndr_print_drsuapi_DsRemoveDSServerResult
PUBLIC 197ffc 0 ndr_print_drsuapi_DsRemoveDSServer
PUBLIC 198238 0 ndr_print_drsuapi_DsGetDCInfoRequest1
PUBLIC 1982e8 0 ndr_print_drsuapi_DsGetDCInfoRequest
PUBLIC 198354 0 ndr_print_drsuapi_DsGetDCInfo1
PUBLIC 19854c 0 ndr_print_drsuapi_DsGetDCInfoCtr1
PUBLIC 198658 0 ndr_print_drsuapi_DsGetDCInfo2
PUBLIC 198960 0 ndr_print_drsuapi_DsGetDCInfoCtr2
PUBLIC 198a6c 0 ndr_print_drsuapi_DsGetDCInfo3
PUBLIC 198d8c 0 ndr_print_drsuapi_DsGetDCInfoCtr3
PUBLIC 198e98 0 ndr_print_drsuapi_DsGetDCConnection01
PUBLIC 198fb4 0 ndr_print_drsuapi_DsGetDCConnectionCtr01
PUBLIC 1990c0 0 ndr_print_drsuapi_DsGetDCInfoCtr
PUBLIC 1991a0 0 ndr_print_drsuapi_DsGetDomainControllerInfo
PUBLIC 1993dc 0 ndr_push_drsuapi_DsReplicaObjectListItem
PUBLIC 1996ac 0 ndr_push_drsuapi_DsAddEntry
PUBLIC 199a50 0 ndr_pull_drsuapi_DsReplicaObjectListItem
PUBLIC 19a130 0 ndr_pull_drsuapi_DsAddEntry
PUBLIC 19aa0c 0 ndr_print_drsuapi_DsAddEntry_DirErr
PUBLIC 19aadc 0 ndr_print_drsuapi_DsAddEntryRequest2
PUBLIC 19ab40 0 ndr_print_drsuapi_SecBuffer
PUBLIC 19ac00 0 ndr_print_drsuapi_SecBufferDesc
PUBLIC 19ad30 0 ndr_print_drsuapi_DsAddEntryRequest3
PUBLIC 19add4 0 ndr_print_drsuapi_DsAddEntryRequest
PUBLIC 19ae68 0 ndr_print_drsuapi_DsAddEntryErrorInfoX
PUBLIC 19af14 0 ndr_print_drsuapi_DsAddEntry_AttrErr_V1
PUBLIC 19b008 0 ndr_print_drsuapi_DsAddEntryErrorInfo_Attr_V1
PUBLIC 19b0d0 0 ndr_print_drsuapi_DsAddEntryErrorInfo_Name_V1
PUBLIC 19b1bc 0 ndr_print_drsuapi_NameResOp_V1
PUBLIC 19b274 0 ndr_print_drsuapi_DsAddEntry_RefType
PUBLIC 19b2f4 0 ndr_print_drsuapi_DsAddEntry_ChoiceType
PUBLIC 19b35c 0 ndr_print_drsuapi_DsaAddressListItem_V1
PUBLIC 19b434 0 ndr_print_drsuapi_DsAddEntry_RefErrListItem_V1
PUBLIC 19b624 0 ndr_print_drsuapi_DsAddEntryErrorInfo_Referr_V1
PUBLIC 19b6d0 0 ndr_print_drsuapi_DsAddEntryErrorInfo
PUBLIC 19b7d8 0 ndr_print_drsuapi_DsAddEntry_ErrData_V1
PUBLIC 19b8a4 0 ndr_print_drsuapi_DsAddEntry_ErrData
PUBLIC 19b910 0 ndr_print_drsuapi_DsReplicaObjectIdentifier2
PUBLIC 19b98c 0 ndr_print_drsuapi_DsAddEntryCtr2
PUBLIC 19bb5c 0 ndr_print_drsuapi_DsAddEntryCtr3
PUBLIC 19bd28 0 ndr_print_drsuapi_DsAddEntryCtr
PUBLIC 19bdbc 0 ndr_print_drsuapi_DsAddEntry
PUBLIC 19bff8 0 ndr_print_drsuapi_DsExecuteKCCFlags
PUBLIC 19c068 0 ndr_print_drsuapi_DsExecuteKCC1
PUBLIC 19c0e4 0 ndr_print_drsuapi_DsExecuteKCCRequest
PUBLIC 19c150 0 ndr_print_drsuapi_DsExecuteKCC
PUBLIC 19c2ec 0 ndr_print_drsuapi_DsReplicaGetInfoLevel
PUBLIC 19c340 0 ndr_print_drsuapi_DsReplicaInfoType
PUBLIC 19c4a8 0 ndr_print_drsuapi_DsReplicaGetInfoRequest1
PUBLIC 19c570 0 ndr_print_drsuapi_DsReplicaGetInfoRequest2
PUBLIC 19c700 0 ndr_print_drsuapi_DsReplicaGetInfoRequest
PUBLIC 19c794 0 ndr_print_drsuapi_DsReplicaNeighbour
PUBLIC 19ca30 0 ndr_print_drsuapi_DsReplicaNeighbourCtr
PUBLIC 19cb18 0 ndr_print_drsuapi_DsReplicaCursorCtr
PUBLIC 19cc04 0 ndr_print_drsuapi_DsReplicaObjMetaData
PUBLIC 19cd14 0 ndr_print_drsuapi_DsReplicaObjMetaDataCtr
PUBLIC 19ce00 0 ndr_print_drsuapi_DsReplicaKccDsaFailure
PUBLIC 19cef8 0 ndr_print_drsuapi_DsReplicaKccDsaFailuresCtr
PUBLIC 19cfe4 0 ndr_print_drsuapi_DsReplicaOpType
PUBLIC 19d078 0 ndr_print_drsuapi_DsReplicaOp
PUBLIC 19d250 0 ndr_print_drsuapi_DsReplicaOpCtr
PUBLIC 19d33c 0 ndr_print_drsuapi_DsReplicaAttrValMetaData
PUBLIC 19d550 0 ndr_print_drsuapi_DsReplicaAttrValMetaDataCtr
PUBLIC 19d63c 0 ndr_print_drsuapi_DsReplicaCursor2Ctr
PUBLIC 19d724 0 ndr_print_drsuapi_DsReplicaCursor3
PUBLIC 19d7f8 0 ndr_print_drsuapi_DsReplicaCursor3Ctr
PUBLIC 19d8e4 0 ndr_print_drsuapi_DsReplicaObjMetaData2
PUBLIC 19da34 0 ndr_print_drsuapi_DsReplicaObjMetaData2Ctr
PUBLIC 19db20 0 ndr_print_drsuapi_DsReplicaAttrValMetaData2
PUBLIC 19dd74 0 ndr_print_drsuapi_DsReplicaAttrValMetaData2Ctr
PUBLIC 19de60 0 ndr_print_drsuapi_DsReplicaConnection04
PUBLIC 19df54 0 ndr_print_drsuapi_DsReplicaConnection04Ctr
PUBLIC 19e040 0 ndr_print_drsuapi_DsReplica06
PUBLIC 19e180 0 ndr_print_drsuapi_DsReplica06Ctr
PUBLIC 19e26c 0 ndr_print_drsuapi_DsReplicaInfo
PUBLIC 19e6c4 0 ndr_print_drsuapi_DsReplicaGetInfo
PUBLIC 19e900 0 ndr_print_drsuapi_DsGetMemberships2Ctr
PUBLIC 19e96c 0 ndr_print_drsuapi_DsGetMemberships2Request1
PUBLIC 19eaa8 0 ndr_print_drsuapi_DsGetMemberships2Request
PUBLIC 19eb14 0 ndr_print_drsuapi_DsGetMemberships2
PUBLIC 19ed50 0 ndr_print_drsuapi_DsSiteCostInfo
PUBLIC 19edcc 0 ndr_print_drsuapi_QuerySitesByCostCtr1
PUBLIC 19ef04 0 ndr_print_drsuapi_QuerySitesByCostCtr
PUBLIC 19ef70 0 ndr_print_drsuapi_QuerySitesByCostRequest1
PUBLIC 19f11c 0 ndr_print_drsuapi_QuerySitesByCostRequest
PUBLIC 19f188 0 ndr_print_drsuapi_QuerySitesByCost
PUBLIC 19f3c4 0 ndr_push_AuthenticationInformationArray
PUBLIC 19f438 0 ndr_pull_AuthenticationInformationArray
PUBLIC 19f5a4 0 ndr_push_trustAuthInOutBlob
PUBLIC 19f778 0 ndr_pull_trustDomainPasswords
PUBLIC 19f95c 0 ndr_print_drsuapi_MSPrefixMap_Entry
PUBLIC 1a1fbc 0 ndr_push_repsFromTo1OtherInfo
PUBLIC 1a2d98 0 ndr_push_ForestTrustInfoRecord
PUBLIC 1a3288 0 ndr_print_replPropertyMetaData1
PUBLIC 1a3364 0 ndr_print_replPropertyMetaDataCtr1
PUBLIC 1a345c 0 ndr_print_replPropertyMetaDataCtr
PUBLIC 1a34c8 0 ndr_push_replPropertyMetaDataBlob
PUBLIC 1a3708 0 ndr_pull_replPropertyMetaDataBlob
PUBLIC 1a3a24 0 ndr_print_replPropertyMetaDataBlob
PUBLIC 1a3ad8 0 ndr_print_decode_replPropertyMetaData
PUBLIC 1a3bb8 0 ndr_print_replUpToDateVectorCtr1
PUBLIC 1a3cb0 0 ndr_print_replUpToDateVectorCtr2
PUBLIC 1a3da4 0 ndr_print_replUpToDateVectorCtr
PUBLIC 1a3e38 0 ndr_push_replUpToDateVectorBlob
PUBLIC 1a40c8 0 ndr_pull_replUpToDateVectorBlob
PUBLIC 1a44f4 0 ndr_print_replUpToDateVectorBlob
PUBLIC 1a45a8 0 ndr_print_decode_replUpToDateVector
PUBLIC 1a4688 0 ndr_pull_repsFromTo1OtherInfo
PUBLIC 1a4708 0 ndr_print_repsFromTo1OtherInfo
PUBLIC 1a479c 0 ndr_size_repsFromTo1OtherInfo
PUBLIC 1a47ac 0 ndr_pull_repsFromTo1
PUBLIC 1a4af0 0 ndr_size_repsFromTo1
PUBLIC 1a4b04 0 ndr_push_repsFromTo1
PUBLIC 1a4d24 0 ndr_print_repsFromTo1
PUBLIC 1a4f48 0 ndr_pull_repsFromTo2OtherInfo
PUBLIC 1a53b0 0 ndr_size_repsFromTo2OtherInfo
PUBLIC 1a53c0 0 ndr_push_repsFromTo2OtherInfo
PUBLIC 1a55c4 0 ndr_print_repsFromTo2OtherInfo
PUBLIC 1a5708 0 ndr_pull_repsFromTo2
PUBLIC 1a5b80 0 ndr_size_repsFromTo2
PUBLIC 1a5b94 0 ndr_push_repsFromTo2
PUBLIC 1a5ef8 0 ndr_print_repsFromTo2
PUBLIC 1a6134 0 ndr_print_repsFromTo
PUBLIC 1a61c8 0 ndr_push_repsFromToBlob
PUBLIC 1a62a8 0 ndr_pull_repsFromToBlob
PUBLIC 1a6384 0 ndr_print_repsFromToBlob
PUBLIC 1a6438 0 ndr_print_decode_repsFromTo
PUBLIC 1a6518 0 ndr_print_partialAttributeSetCtr1
PUBLIC 1a65e8 0 ndr_print_partialAttributeSetCtr
PUBLIC 1a6654 0 ndr_push_partialAttributeSetBlob
PUBLIC 1a67cc 0 ndr_pull_partialAttributeSetBlob
PUBLIC 1a6a2c 0 ndr_print_partialAttributeSetBlob
PUBLIC 1a6ae0 0 ndr_print_decode_partialAttributeSet
PUBLIC 1a6bc0 0 ndr_push_schemaInfoBlob
PUBLIC 1a6c78 0 ndr_pull_schemaInfoBlob
PUBLIC 1a6d30 0 ndr_print_schemaInfoBlob
PUBLIC 1a6de4 0 ndr_pull_drsuapi_MSPrefixMap_Ctr
PUBLIC 1a70e0 0 ndr_size_drsuapi_MSPrefixMap_Ctr
PUBLIC 1a70f0 0 ndr_push_drsuapi_MSPrefixMap_Ctr
PUBLIC 1a7214 0 ndr_print_drsuapi_MSPrefixMap_Ctr
PUBLIC 1a7314 0 ndr_print_prefixMapVersion
PUBLIC 1a7350 0 ndr_print_prefixMapCtr
PUBLIC 1a73c4 0 ndr_push_prefixMapBlob
PUBLIC 1a74a4 0 ndr_pull_prefixMapBlob
PUBLIC 1a7588 0 ndr_print_prefixMapBlob
PUBLIC 1a763c 0 ndr_print_decode_prefixMap
PUBLIC 1a771c 0 ndr_print_ldapControlDirSyncExtra
PUBLIC 1a7778 0 ndr_print_ldapControlDirSyncBlob
PUBLIC 1a78d0 0 ndr_push_ldapControlDirSyncCookie
PUBLIC 1a7b40 0 ndr_pull_ldapControlDirSyncCookie
PUBLIC 1a7d78 0 ndr_print_ldapControlDirSyncCookie
PUBLIC 1a7e08 0 ndr_print_decode_ldapControlDirSync
PUBLIC 1a7ee8 0 ndr_print_supplementalCredentialsPackage
PUBLIC 1a7fe0 0 ndr_print_supplementalCredentialsSignature
PUBLIC 1a8038 0 ndr_print_supplementalCredentialsSubBlob
PUBLIC 1a8158 0 ndr_push_supplementalCredentialsBlob
PUBLIC 1a82a4 0 ndr_pull_supplementalCredentialsBlob
PUBLIC 1a860c 0 ndr_print_supplementalCredentialsBlob
PUBLIC 1a871c 0 ndr_print_decode_supplementalCredentials
PUBLIC 1a87fc 0 ndr_push_package_PackagesBlob
PUBLIC 1a8880 0 ndr_pull_package_PackagesBlob
PUBLIC 1a8904 0 ndr_print_package_PackagesBlob
PUBLIC 1a8968 0 ndr_print_decode_Packages
PUBLIC 1a8a48 0 ndr_print_package_PrimaryKerberosString
PUBLIC 1a8b3c 0 ndr_print_package_PrimaryKerberosKey3
PUBLIC 1a8c80 0 ndr_print_package_PrimaryKerberosCtr3
PUBLIC 1a8ec0 0 ndr_print_package_PrimaryKerberosKey4
PUBLIC 1a901c 0 ndr_print_package_PrimaryKerberosCtr4
PUBLIC 1a92e8 0 ndr_print_package_PrimaryKerberosCtr
PUBLIC 1a937c 0 ndr_push_package_PrimaryKerberosBlob
PUBLIC 1a945c 0 ndr_pull_package_PrimaryKerberosBlob
PUBLIC 1a9538 0 ndr_print_package_PrimaryKerberosBlob
PUBLIC 1a95ec 0 ndr_print_decode_PrimaryKerberos
PUBLIC 1a96cc 0 ndr_push_package_PrimaryCLEARTEXTBlob
PUBLIC 1a974c 0 ndr_pull_package_PrimaryCLEARTEXTBlob
PUBLIC 1a97cc 0 ndr_print_package_PrimaryCLEARTEXTBlob
PUBLIC 1a9830 0 ndr_print_decode_PrimaryCLEARTEXT
PUBLIC 1a9910 0 ndr_print_package_PrimaryWDigestHash
PUBLIC 1a998c 0 ndr_push_package_PrimaryWDigestBlob
PUBLIC 1a9ad4 0 ndr_pull_package_PrimaryWDigestBlob
PUBLIC 1a9d04 0 ndr_print_package_PrimaryWDigestBlob
PUBLIC 1a9e68 0 ndr_print_decode_PrimaryWDigest
PUBLIC 1a9f48 0 ndr_print_AuthInfoNone
PUBLIC 1a9fb8 0 ndr_print_AuthInfoNT4Owf
PUBLIC 1aa040 0 ndr_print_AuthInfoClear
PUBLIC 1aa0c0 0 ndr_print_AuthInfoVersion
PUBLIC 1aa148 0 ndr_print_AuthInfo
PUBLIC 1aa210 0 ndr_push_AuthenticationInformation
PUBLIC 1aa440 0 ndr_pull_AuthenticationInformation
PUBLIC 1aa720 0 ndr_print_AuthenticationInformation
PUBLIC 1aa7e4 0 ndr_print_AuthenticationInformationArray
PUBLIC 1aa8b8 0 ndr_size_AuthenticationInformationArray
PUBLIC 1aa8c8 0 ndr_pull_trustAuthInOutBlob
PUBLIC 1aaa30 0 ndr_print_trustAuthInOutBlob
PUBLIC 1aab38 0 ndr_print_decode_trustAuthInOut
PUBLIC 1aac18 0 ndr_size_trustAuthInOutBlob
PUBLIC 1aac28 0 ndr_push_trustDomainPasswords
PUBLIC 1aadd8 0 ndr_print_trustDomainPasswords
PUBLIC 1aaed8 0 ndr_print_decode_trustDomainPasswords
PUBLIC 1aafb8 0 ndr_push_DsCompressedChunk
PUBLIC 1ab024 0 ndr_pull_DsCompressedChunk
PUBLIC 1ab090 0 ndr_print_DsCompressedChunk
PUBLIC 1ab10c 0 ndr_print_ExtendedErrorAString
PUBLIC 1ab1b0 0 ndr_print_ExtendedErrorUString
PUBLIC 1ab254 0 ndr_print_ExtendedErrorBlob
PUBLIC 1ab2fc 0 ndr_print_ExtendedErrorComputerNamePresent
PUBLIC 1ab350 0 ndr_print_ExtendedErrorComputerNameU
PUBLIC 1ab3c8 0 ndr_print_ExtendedErrorComputerName
PUBLIC 1ab458 0 ndr_print_ExtendedErrorParamType
PUBLIC 1ab518 0 ndr_print_ExtendedErrorParamU
PUBLIC 1ab63c 0 ndr_print_ExtendedErrorParam
PUBLIC 1ab6cc 0 ndr_push_ExtendedErrorInfo
PUBLIC 1ab964 0 ndr_pull_ExtendedErrorInfo
PUBLIC 1abf64 0 ndr_print_ExtendedErrorInfo
PUBLIC 1ac128 0 ndr_print_ExtendedErrorInfoPtr
PUBLIC 1ac1b4 0 ndr_print_decode_ExtendedErrorInfo
PUBLIC 1ac294 0 ndr_print_ForestTrustString
PUBLIC 1ac328 0 ndr_print_ForestTrustDataDomainInfo
PUBLIC 1ac404 0 ndr_print_ForestTrustDataBinaryData
PUBLIC 1ac498 0 ndr_print_ForestTrustData
PUBLIC 1ac54c 0 ndr_print_ForestTrustInfoRecordType
PUBLIC 1ac5b4 0 ndr_pull_ForestTrustInfoRecord
PUBLIC 1ac8a8 0 ndr_print_ForestTrustInfoRecord
PUBLIC 1ac97c 0 ndr_size_ForestTrustInfoRecord
PUBLIC 1ac990 0 ndr_print_ForestTrustInfoRecordArmor
PUBLIC 1aca3c 0 ndr_push_ForestTrustInfo
PUBLIC 1acb80 0 ndr_pull_ForestTrustInfo
PUBLIC 1acdb4 0 ndr_print_ForestTrustInfo
PUBLIC 1aceb4 0 ndr_print_decode_ForestTrustInfo
PUBLIC 1ad8b4 0 ZIPdecomp_state
PUBLIC 1ad8cc 0 ZIPdecompress
PUBLIC 1ae1a0 0 lzxpress_compress
PUBLIC 1ae504 0 lzxpress_decompress
PUBLIC 1ae64c 0 ads_build_error
PUBLIC 1ae6d8 0 ads_build_nt_error
PUBLIC 1ae768 0 ads_ntstatus
PUBLIC 1ae7a8 0 ads_errstr
PUBLIC 1aee4c 0 netlogon_creds_des_encrypt_LMKey
PUBLIC 1aee7c 0 netlogon_creds_des_decrypt_LMKey
PUBLIC 1aeeac 0 netlogon_creds_des_encrypt
PUBLIC 1aeefc 0 netlogon_creds_des_decrypt
PUBLIC 1aef4c 0 netlogon_creds_arcfour_crypt
PUBLIC 1aef94 0 netlogon_creds_client_init
PUBLIC 1af128 0 netlogon_creds_client_init_session_key
PUBLIC 1af16c 0 netlogon_creds_client_authenticator
PUBLIC 1af1a0 0 netlogon_creds_client_check
PUBLIC 1af230 0 netlogon_creds_server_init
PUBLIC 1af37c 0 netlogon_creds_server_step_check
PUBLIC 1af400 0 netlogon_creds_decrypt_samlogon
PUBLIC 1af4cc 0 netlogon_creds_copy
PUBLIC 1af808 0 netsec_incoming_packet
PUBLIC 1af9b0 0 netsec_outgoing_sig_size
PUBLIC 1af9b8 0 netsec_outgoing_packet
PUBLIC 1affe8 0 open_schannel_session_store
PUBLIC 1b00e4 0 schannel_get_creds_state
PUBLIC 1b018c 0 schannel_save_creds_state
PUBLIC 1b0200 0 schannel_check_creds_state
PUBLIC 1b0318 0 ndr_push_netlogon_creds_CredentialState
PUBLIC 1b0594 0 ndr_pull_netlogon_creds_CredentialState
PUBLIC 1b0938 0 ndr_print_netlogon_creds_CredentialState
PUBLIC 1b0ab8 0 ndr_print_NL_AUTH_MESSAGE_TYPE
PUBLIC 1b0b0c 0 ndr_print_NL_AUTH_MESSAGE_FLAGS
PUBLIC 1b0bdc 0 ndr_push_NL_AUTH_MESSAGE_BUFFER
PUBLIC 1b0d00 0 ndr_pull_NL_AUTH_MESSAGE_BUFFER
PUBLIC 1b0dd4 0 ndr_push_NL_AUTH_MESSAGE_BUFFER_REPLY
PUBLIC 1b0e48 0 ndr_pull_NL_AUTH_MESSAGE_BUFFER_REPLY
PUBLIC 1b0e9c 0 ndr_push_NL_AUTH_MESSAGE
PUBLIC 1b1118 0 ndr_pull_NL_AUTH_MESSAGE
PUBLIC 1b13a4 0 ndr_print_NL_AUTH_MESSAGE
PUBLIC 1b1554 0 ndr_print_NL_SIGNATURE_ALGORITHM
PUBLIC 1b15a8 0 ndr_print_NL_SEAL_ALGORITHM
PUBLIC 1b1610 0 ndr_push_NL_AUTH_SIGNATURE
PUBLIC 1b1720 0 ndr_pull_NL_AUTH_SIGNATURE
PUBLIC 1b1848 0 ndr_print_NL_AUTH_SIGNATURE
PUBLIC 1b1968 0 ndr_push_NL_AUTH_SHA2_SIGNATURE
PUBLIC 1b1a78 0 ndr_pull_NL_AUTH_SHA2_SIGNATURE
PUBLIC 1b1ba0 0 ndr_print_NL_AUTH_SHA2_SIGNATURE
PUBLIC 1b1cc0 0 ndr_print_NL_AUTH_MESSAGE_BUFFER
PUBLIC 1b1d54 0 ndr_print_NL_AUTH_MESSAGE_BUFFER_REPLY
PUBLIC 1b1d88 0 dump_NL_AUTH_SIGNATURE
PUBLIC 1b4838 0 rpc_api_pipe_req_send
PUBLIC 1b49bc 0 rpc_api_pipe_req_recv
PUBLIC 1b4afc 0 rpc_pipe_bind_send
PUBLIC 1b5084 0 rpc_pipe_bind_recv
PUBLIC 1b5090 0 rpc_pipe_bind
PUBLIC 1b511c 0 rpccli_set_timeout
PUBLIC 1b5190 0 rpccli_is_connected
PUBLIC 1b53e0 0 rpccli_bh_create
PUBLIC 1b55e0 0 rpccli_get_pwd_hash
PUBLIC 1b56e4 0 rpccli_ncalrpc_bind_data
PUBLIC 1b5778 0 rpccli_anon_bind_data
PUBLIC 1b5810 0 rpccli_schannel_bind_data
PUBLIC 1b58f0 0 rpc_pipe_open_tcp
PUBLIC 1b5d58 0 rpc_pipe_open_ncalrpc
PUBLIC 1b5f84 0 cli_rpc_pipe_open_noauth_transport
PUBLIC 1b6260 0 cli_rpc_pipe_open_noauth
PUBLIC 1b627c 0 cli_rpc_pipe_open_ntlmssp
PUBLIC 1b6578 0 cli_rpc_pipe_open_schannel_with_key
PUBLIC 1b67c0 0 cli_rpc_pipe_open_krb5
PUBLIC 1b69e0 0 cli_rpc_pipe_open_spnego_krb5
PUBLIC 1b6c08 0 cli_rpc_pipe_open_spnego_ntlmssp
PUBLIC 1b6e18 0 cli_get_session_key
PUBLIC 1b6fd8 0 gse_init_client
PUBLIC 1b6fe0 0 gse_get_client_auth_token
PUBLIC 1b6fe8 0 gse_init_server
PUBLIC 1b6ff0 0 gse_get_server_auth_token
PUBLIC 1b6ff8 0 gse_verify_server_auth_flags
PUBLIC 1b7000 0 gse_require_more_processing
PUBLIC 1b7008 0 gse_get_session_key
PUBLIC 1b7028 0 gse_get_client_name
PUBLIC 1b7030 0 gse_get_authz_data
PUBLIC 1b7038 0 gse_get_pac_blob
PUBLIC 1b7040 0 gse_get_signature_length
PUBLIC 1b7048 0 gse_seal
PUBLIC 1b7050 0 gse_unseal
PUBLIC 1b7058 0 gse_sign
PUBLIC 1b7060 0 gse_sigcheck
PUBLIC 1b7068 0 spnego_gssapi_init_client
PUBLIC 1b7130 0 spnego_ntlmssp_init_client
PUBLIC 1b727c 0 spnego_get_client_auth_token
PUBLIC 1b74d4 0 spnego_require_more_processing
PUBLIC 1b7578 0 spnego_get_negotiated_mech
PUBLIC 1b75ac 0 spnego_get_session_key
PUBLIC 1b768c 0 spnego_sign
PUBLIC 1b76f0 0 spnego_sigcheck
PUBLIC 1b7748 0 spnego_seal
PUBLIC 1b77ac 0 spnego_unseal
PUBLIC 1b7804 0 smb_register_ndr_interface
PUBLIC 1b7910 0 get_iface_from_syntax
PUBLIC 1b7b28 0 get_pipe_name_from_syntax
PUBLIC 1b7d48 0 rpc_transport_np_init_send
PUBLIC 1b7e20 0 rpc_transport_np_init_recv
PUBLIC 1b7e88 0 rpc_transport_np_init
PUBLIC 1b7f24 0 rpc_transport_sock_init
PUBLIC 1b8b68 0 rpc_transport_tstream_init
PUBLIC 1b8cf8 0 rpc_pipe_np_smb_conn
PUBLIC 1b8f0c 0 dcerpc_parse_binding
PUBLIC 1b93a0 0 dcerpc_floor_get_lhs_data
PUBLIC 1b9494 0 epm_floor_string
PUBLIC 1b96fc 0 dcerpc_floor_get_rhs_data
PUBLIC 1b9888 0 dcerpc_transport_by_endpoint_protocol
PUBLIC 1b98e4 0 dcerpc_transport_by_tower
PUBLIC 1b9980 0 derpc_transport_string_by_transport
PUBLIC 1b99c4 0 dcerpc_binding_string
PUBLIC 1b9bec 0 dcerpc_binding_from_tower
PUBLIC 1b9d60 0 dcerpc_binding_dup
PUBLIC 1b9f88 0 dcerpc_binding_build_tower
PUBLIC 1ba42c 0 dcerpc_set_frag_length
PUBLIC 1ba468 0 dcerpc_get_frag_length
PUBLIC 1ba5ac 0 dcerpc_set_auth_length
PUBLIC 1ba5e8 0 dcerpc_get_endian_flag
PUBLIC 1ba5f4 0 dcerpc_pull_auth_trailer
PUBLIC 1ba7bc 0 dcerpc_read_ncacn_packet_send
PUBLIC 1ba8d4 0 dcerpc_read_ncacn_packet_recv
PUBLIC 1baaf0 0 _dcerpc_binding_handle_create
PUBLIC 1bab98 0 _dcerpc_binding_handle_data
PUBLIC 1baba0 0 dcerpc_binding_handle_set_sync_ev
PUBLIC 1baba8 0 dcerpc_binding_handle_is_connected
PUBLIC 1babbc 0 dcerpc_binding_handle_set_timeout
PUBLIC 1babd0 0 dcerpc_binding_handle_raw_call_send
PUBLIC 1bacb4 0 dcerpc_binding_handle_raw_call_recv
PUBLIC 1baf3c 0 dcerpc_binding_handle_raw_call
PUBLIC 1bb050 0 dcerpc_binding_handle_disconnect_send
PUBLIC 1bb104 0 dcerpc_binding_handle_disconnect_recv
PUBLIC 1bb13c 0 dcerpc_binding_handle_call_send
PUBLIC 1bb410 0 dcerpc_binding_handle_call_recv
PUBLIC 1bb448 0 dcerpc_binding_handle_call
PUBLIC 1bb54c 0 dcerpc_push_ncacn_packet
PUBLIC 1bb63c 0 dcerpc_pull_ncacn_packet
PUBLIC 1bb704 0 dcerpc_push_schannel_bind
PUBLIC 1bb780 0 dcerpc_push_dcerpc_auth
PUBLIC 1bb828 0 dcerpc_pull_dcerpc_auth
PUBLIC 1bb8f0 0 dcerpc_guess_sizes
PUBLIC 1bbb08 0 dcerpc_add_auth_footer
PUBLIC 1bc16c 0 dcerpc_check_auth
PUBLIC 1bca80 0 dcerpc_epm_Insert_r_send
PUBLIC 1bcb50 0 dcerpc_epm_Insert_r_recv
PUBLIC 1bcca0 0 dcerpc_epm_Insert_r
PUBLIC 1bcccc 0 dcerpc_epm_Insert_send
PUBLIC 1bcdb4 0 dcerpc_epm_Insert_recv
PUBLIC 1bce40 0 dcerpc_epm_Insert
PUBLIC 1bce70 0 dcerpc_epm_Delete_r_send
PUBLIC 1bcf44 0 dcerpc_epm_Delete_r_recv
PUBLIC 1bd094 0 dcerpc_epm_Delete_r
PUBLIC 1bd0c0 0 dcerpc_epm_Delete_send
PUBLIC 1bd19c 0 dcerpc_epm_Delete_recv
PUBLIC 1bd228 0 dcerpc_epm_Delete
PUBLIC 1bd250 0 dcerpc_epm_Lookup_r_send
PUBLIC 1bd360 0 dcerpc_epm_Lookup_r_recv
PUBLIC 1bd510 0 dcerpc_epm_Lookup_r
PUBLIC 1bd53c 0 dcerpc_epm_Lookup_send
PUBLIC 1bd6ac 0 dcerpc_epm_Lookup_recv
PUBLIC 1bd738 0 dcerpc_epm_Lookup
PUBLIC 1bd7dc 0 dcerpc_epm_Map_r_send
PUBLIC 1bd8ec 0 dcerpc_epm_Map_r_recv
PUBLIC 1bda9c 0 dcerpc_epm_Map_r
PUBLIC 1bdac8 0 dcerpc_epm_Map_send
PUBLIC 1bdc20 0 dcerpc_epm_Map_recv
PUBLIC 1bdcac 0 dcerpc_epm_Map
PUBLIC 1bdd40 0 dcerpc_epm_LookupHandleFree_r_send
PUBLIC 1bde50 0 dcerpc_epm_LookupHandleFree_r_recv
PUBLIC 1bdfb8 0 dcerpc_epm_LookupHandleFree_r
PUBLIC 1bdfe4 0 dcerpc_epm_LookupHandleFree_send
PUBLIC 1be100 0 dcerpc_epm_LookupHandleFree_recv
PUBLIC 1be18c 0 dcerpc_epm_LookupHandleFree
PUBLIC 1be1d8 0 dcerpc_epm_InqObject_r_send
PUBLIC 1be2ac 0 dcerpc_epm_InqObject_r_recv
PUBLIC 1be3fc 0 dcerpc_epm_InqObject_r
PUBLIC 1be428 0 dcerpc_epm_InqObject_send
PUBLIC 1be4f8 0 dcerpc_epm_InqObject_recv
PUBLIC 1be584 0 dcerpc_epm_InqObject
PUBLIC 1be5b0 0 dcerpc_epm_MgmtDelete_r_send
PUBLIC 1be684 0 dcerpc_epm_MgmtDelete_r_recv
PUBLIC 1be7d4 0 dcerpc_epm_MgmtDelete_r
PUBLIC 1be800 0 dcerpc_epm_MgmtDelete_send
PUBLIC 1be8e8 0 dcerpc_epm_MgmtDelete_recv
PUBLIC 1be974 0 dcerpc_epm_MgmtDelete
PUBLIC 1be9a4 0 ndr_print_wkssvc_NetrWkstaTransportDel
PUBLIC 1beb4c 0 ndr_print_wkssvc_NetrUseDel
PUBLIC 1becec 0 ndr_print_wkssvc_NetrMessageBufferSend
PUBLIC 1bef20 0 ndr_print_wkssvc_NetrLogonDomainNameAdd
PUBLIC 1bf050 0 ndr_print_wkssvc_NetrLogonDomainNameDel
PUBLIC 1bf180 0 ndr_print_wkssvc_NetrGetJoinableOus
PUBLIC 1ddafc 0 ndr_print_wkssvc_NetWkstaInfo100
PUBLIC 1ddc28 0 ndr_print_wkssvc_NetWkstaInfo101
PUBLIC 1ddd94 0 ndr_print_wkssvc_NetWkstaInfo102
PUBLIC 1ddf24 0 ndr_print_wkssvc_NetWkstaInfo502
PUBLIC 1de2b8 0 ndr_print_wkssvc_NetWkstaInfo1010
PUBLIC 1de31c 0 ndr_print_wkssvc_NetWkstaInfo1011
PUBLIC 1de380 0 ndr_print_wkssvc_NetWkstaInfo1012
PUBLIC 1de3e4 0 ndr_print_wkssvc_NetWkstaInfo1013
PUBLIC 1de448 0 ndr_print_wkssvc_NetWkstaInfo1018
PUBLIC 1de4ac 0 ndr_print_wkssvc_NetWkstaInfo1023
PUBLIC 1de510 0 ndr_print_wkssvc_NetWkstaInfo1027
PUBLIC 1de574 0 ndr_print_wkssvc_NetWkstaInfo1028
PUBLIC 1de5d8 0 ndr_print_wkssvc_NetWkstaInfo1032
PUBLIC 1de63c 0 ndr_print_wkssvc_NetWkstaInfo1033
PUBLIC 1de6a0 0 ndr_print_wkssvc_NetWkstaInfo1041
PUBLIC 1de704 0 ndr_print_wkssvc_NetWkstaInfo1042
PUBLIC 1de768 0 ndr_print_wkssvc_NetWkstaInfo1043
PUBLIC 1de7cc 0 ndr_print_wkssvc_NetWkstaInfo1044
PUBLIC 1de830 0 ndr_print_wkssvc_NetWkstaInfo1045
PUBLIC 1de894 0 ndr_print_wkssvc_NetWkstaInfo1046
PUBLIC 1de8f8 0 ndr_print_wkssvc_NetWkstaInfo1047
PUBLIC 1de95c 0 ndr_print_wkssvc_NetWkstaInfo1048
PUBLIC 1de9c0 0 ndr_print_wkssvc_NetWkstaInfo1049
PUBLIC 1dea24 0 ndr_print_wkssvc_NetWkstaInfo1050
PUBLIC 1dea88 0 ndr_print_wkssvc_NetWkstaInfo1051
PUBLIC 1deaec 0 ndr_print_wkssvc_NetWkstaInfo1052
PUBLIC 1deb50 0 ndr_print_wkssvc_NetWkstaInfo1053
PUBLIC 1debb4 0 ndr_print_wkssvc_NetWkstaInfo1054
PUBLIC 1dec18 0 ndr_print_wkssvc_NetWkstaInfo1055
PUBLIC 1dec7c 0 ndr_print_wkssvc_NetWkstaInfo1056
PUBLIC 1dece0 0 ndr_print_wkssvc_NetWkstaInfo1057
PUBLIC 1ded44 0 ndr_print_wkssvc_NetWkstaInfo1058
PUBLIC 1deda8 0 ndr_print_wkssvc_NetWkstaInfo1059
PUBLIC 1dee0c 0 ndr_print_wkssvc_NetWkstaInfo1060
PUBLIC 1dee70 0 ndr_print_wkssvc_NetWkstaInfo1061
PUBLIC 1deed4 0 ndr_print_wkssvc_NetWkstaInfo1062
PUBLIC 1def38 0 ndr_print_wkssvc_NetWkstaInfo
PUBLIC 1dfaec 0 ndr_print_wkssvc_NetWkstaGetInfo
PUBLIC 1dfc9c 0 ndr_print_wkssvc_NetWkstaSetInfo
PUBLIC 1dfed0 0 ndr_print_wkssvc_NetrWkstaUserInfo0
PUBLIC 1dff5c 0 ndr_print_wkssvc_NetWkstaEnumUsersCtr0
PUBLIC 1e0064 0 ndr_print_wkssvc_NetrWkstaUserInfo1
PUBLIC 1e01d4 0 ndr_print_wkssvc_NetWkstaEnumUsersCtr1
PUBLIC 1e02dc 0 ndr_print_wkssvc_NetWkstaEnumUsersCtr
PUBLIC 1e03d0 0 ndr_print_wkssvc_NetWkstaEnumUsersInfo
PUBLIC 1e0460 0 ndr_print_wkssvc_NetWkstaEnumUsers
PUBLIC 1e0720 0 ndr_print_wkssvc_NetrWkstaUserInfo1101
PUBLIC 1e07ac 0 ndr_print_wkssvc_NetrWkstaUserInfo
PUBLIC 1e08ec 0 ndr_print_wkssvc_NetrWkstaUserGetInfo
PUBLIC 1e0a9c 0 ndr_print_wkssvc_NetrWkstaUserSetInfo
PUBLIC 1e0ce0 0 ndr_print_wkssvc_NetWkstaTransportInfo0
PUBLIC 1e0e0c 0 ndr_print_wkssvc_NetrWkstaTransportAdd
PUBLIC 1e1040 0 ndr_print_wkssvc_NetWkstaTransportCtr0
PUBLIC 1e114c 0 ndr_print_wkssvc_NetWkstaTransportCtr
PUBLIC 1e11f0 0 ndr_print_wkssvc_NetWkstaTransportInfo
PUBLIC 1e1280 0 ndr_print_wkssvc_NetWkstaTransportEnum
PUBLIC 1e1540 0 ndr_print_wkssvc_NetrUseInfo3
PUBLIC 1e1618 0 ndr_print_wkssvc_NetrUseInfo2
PUBLIC 1e1834 0 ndr_print_wkssvc_NetrUseInfo1
PUBLIC 1e19c4 0 ndr_print_wkssvc_NetrUseInfo0
PUBLIC 1e1a9c 0 ndr_print_wkssvc_NetrUseGetInfoCtr
PUBLIC 1e1c20 0 ndr_print_wkssvc_NetrUseAdd
PUBLIC 1e1e64 0 ndr_print_wkssvc_NetrUseGetInfo
PUBLIC 1e2058 0 ndr_print_wkssvc_NetrUseEnumCtr2
PUBLIC 1e2164 0 ndr_print_wkssvc_NetrUseEnumCtr1
PUBLIC 1e2270 0 ndr_print_wkssvc_NetrUseEnumCtr0
PUBLIC 1e2378 0 ndr_print_wkssvc_NetrUseEnumCtr
PUBLIC 1e24b4 0 ndr_print_wkssvc_NetrUseEnumInfo
PUBLIC 1e2544 0 ndr_print_wkssvc_NetrUseEnum
PUBLIC 1e2804 0 ndr_print_wkssvc_NetrWorkstationStatistics
PUBLIC 1e2c10 0 ndr_print_wkssvc_NetrWorkstationStatisticsGet
PUBLIC 1e2e40 0 ndr_print_wkssvc_renameflags
PUBLIC 1e2e90 0 ndr_print_wkssvc_NetrRenameMachineInDomain
PUBLIC 1e30d0 0 ndr_print_wkssvc_NetValidateNameType
PUBLIC 1e3178 0 ndr_print_wkssvc_NetrValidateName
PUBLIC 1e33b0 0 ndr_print_wkssvc_NetJoinStatus
PUBLIC 1e3430 0 ndr_print_wkssvc_NetrGetJoinInformation
PUBLIC 1e3690 0 ndr_print_wkssvc_PasswordBuffer
PUBLIC 1e370c 0 ndr_print_wkssvc_NetrRenameMachineInDomain2
PUBLIC 1e394c 0 ndr_print_wkssvc_NetrValidateName2
PUBLIC 1e3b84 0 ndr_print_wkssvc_NetrGetJoinableOus2
PUBLIC 1e3f40 0 ndr_print_wkssvc_NetrAddAlternateComputerName
PUBLIC 1e4180 0 ndr_print_wkssvc_NetrRemoveAlternateComputerName
PUBLIC 1e43c0 0 ndr_print_wkssvc_NetrSetPrimaryComputername
PUBLIC 1e4600 0 ndr_print_wkssvc_joinflags
PUBLIC 1e4790 0 ndr_print_wkssvc_NetrJoinDomain
PUBLIC 1e4a14 0 ndr_print_wkssvc_NetrUnjoinDomain
PUBLIC 1e4c08 0 ndr_print_wkssvc_NetrJoinDomain2
PUBLIC 1e4e8c 0 ndr_print_wkssvc_NetrUnjoinDomain2
PUBLIC 1e5080 0 ndr_print_wkssvc_ComputerNameType
PUBLIC 1e5100 0 ndr_print_wkssvc_ComputerNamesCtr
PUBLIC 1e5208 0 ndr_print_wkssvc_NetrEnumerateComputerNames
PUBLIC 1e5730 0 ndr_print_samr_Close
PUBLIC 1e58a4 0 ndr_print_samr_Shutdown
PUBLIC 1e59d4 0 ndr_print_samr_AddGroupMember
PUBLIC 1e5b40 0 ndr_print_samr_DeleteDomainGroup
PUBLIC 1e5cb4 0 ndr_print_samr_DeleteGroupMember
PUBLIC 1e5e08 0 ndr_print_samr_SetMemberAttributesOfGroup
PUBLIC 1e5f74 0 ndr_print_samr_DeleteDomAlias
PUBLIC 1e60e8 0 ndr_print_samr_DeleteUser
PUBLIC 1e625c 0 ndr_print_samr_GetDisplayEnumerationIndex
PUBLIC 1e6430 0 ndr_print_samr_TestPrivateFunctionsDomain
PUBLIC 1e6560 0 ndr_print_samr_TestPrivateFunctionsUser
PUBLIC 1e6690 0 ndr_print_samr_GetDisplayEnumerationIndex2
PUBLIC 1e6864 0 ndr_print_samr_SetBootKeyInformation
PUBLIC 1e69e8 0 ndr_print_samr_GetBootKeyInformation
PUBLIC 1e6d58 0 ndr_pull_samr_Close
PUBLIC 1e8aec 0 ndr_print_samr_SetSecurity
PUBLIC 1e8c78 0 ndr_print_samr_QuerySecurity
PUBLIC 1e8e3c 0 ndr_print_samr_LookupDomain
PUBLIC 1e9020 0 ndr_print_samr_AddAliasMember
PUBLIC 1e9194 0 ndr_print_samr_DeleteAliasMember
PUBLIC 1e9308 0 ndr_print_samr_RemoveMemberFromForeignDomain
PUBLIC 1e947c 0 ndr_print_samr_RidToSid
PUBLIC 1ea434 0 ndr_print_samr_GetMembersInAlias
PUBLIC 1ea5a8 0 ndr_print_samr_AddMultipleMembersToAlias
PUBLIC 1ea71c 0 ndr_print_samr_RemoveMultipleMembersFromAlias
PUBLIC 1ee00c 0 ndr_push_samr_OpenDomain
PUBLIC 1ee100 0 ndr_push_samr_OpenUser
PUBLIC 1eedbc 0 ndr_pull_samr_OpenDomain
PUBLIC 1ef2d0 0 ndr_pull_samr_OpenUser
PUBLIC 1f1f68 0 ndr_push_samr_Close
PUBLIC 1f55d0 0 ndr_pull_samr_LookupNames
PUBLIC 1f5fd4 0 ndr_push_samr_LookupNames
PUBLIC 1f84fc 0 ndr_push_samr_Connect5
PUBLIC 1f8850 0 ndr_pull_samr_Connect5
PUBLIC 1f9d2c 0 ndr_push_netr_SamDatabaseID
PUBLIC 1f9d34 0 ndr_pull_netr_SamDatabaseID
PUBLIC 1f9d5c 0 ndr_print_netr_SamDatabaseID
PUBLIC 1f9dc4 0 ndr_push_samr_AcctFlags
PUBLIC 1fa500 0 ndr_pull_samr_AcctFlags
PUBLIC 1fbe00 0 ndr_print_samr_AcctFlags
PUBLIC 1fc0f0 0 ndr_print_samr_ConnectAccessMask
PUBLIC 1fc1e0 0 ndr_print_samr_Connect
PUBLIC 1fc384 0 ndr_print_samr_Connect2
PUBLIC 1fc524 0 ndr_print_samr_Connect3
PUBLIC 1fc6dc 0 ndr_print_samr_UserAccessMask
PUBLIC 1fc86c 0 ndr_print_samr_CreateUser
PUBLIC 1fca90 0 ndr_print_samr_OpenUser
PUBLIC 1fcc40 0 ndr_print_samr_CreateUser2
PUBLIC 1fcec4 0 ndr_print_samr_DomainAccessMask
PUBLIC 1fd054 0 ndr_print_samr_OpenDomain
PUBLIC 1fd224 0 ndr_print_samr_GroupAccessMask
PUBLIC 1fd2f4 0 ndr_print_samr_CreateDomainGroup
PUBLIC 1fd518 0 ndr_print_samr_OpenGroup
PUBLIC 1fd6c8 0 ndr_print_samr_AliasAccessMask
PUBLIC 1fd798 0 ndr_print_samr_CreateDomAlias
PUBLIC 1fd9bc 0 ndr_print_samr_OpenAlias
PUBLIC 1fdb6c 0 ndr_print_samr_SamEntry
PUBLIC 1fdbe8 0 ndr_print_samr_SamArray
PUBLIC 1fdcf4 0 ndr_print_samr_EnumDomains
PUBLIC 1fdf90 0 ndr_print_samr_EnumDomainGroups
PUBLIC 1fe22c 0 ndr_print_samr_EnumDomainUsers
PUBLIC 1fe4e0 0 ndr_print_samr_EnumDomainAliases
PUBLIC 1fe77c 0 ndr_print_samr_DomainInfoClass
PUBLIC 1fe8b4 0 ndr_print_samr_Role
PUBLIC 1fe934 0 ndr_push_samr_PasswordProperties
PUBLIC 1ff134 0 ndr_push_samr_GetUserPwInfo
PUBLIC 1ff1d0 0 ndr_pull_samr_PasswordProperties
PUBLIC 1ff5b0 0 ndr_pull_samr_GetUserPwInfo
PUBLIC 2009dc 0 ndr_print_samr_PasswordProperties
PUBLIC 200acc 0 ndr_print_samr_DomainServerState
PUBLIC 200b20 0 ndr_print_samr_DomInfo1
PUBLIC 200be4 0 ndr_print_samr_DomGeneralInformation
PUBLIC 200d3c 0 ndr_print_samr_DomInfo3
PUBLIC 200da0 0 ndr_print_samr_DomOEMInformation
PUBLIC 200e04 0 ndr_print_samr_DomInfo5
PUBLIC 200e68 0 ndr_print_samr_DomInfo6
PUBLIC 200ecc 0 ndr_print_samr_DomInfo7
PUBLIC 200f30 0 ndr_print_samr_DomInfo8
PUBLIC 200fac 0 ndr_print_samr_DomInfo9
PUBLIC 201010 0 ndr_print_samr_DomGeneralInformation2
PUBLIC 2010bc 0 ndr_print_samr_DomInfo12
PUBLIC 201150 0 ndr_print_samr_DomInfo13
PUBLIC 2011e4 0 ndr_print_samr_DomainInfo
PUBLIC 201394 0 ndr_print_samr_QueryDomainInfo
PUBLIC 20156c 0 ndr_print_samr_SetDomainInfo
PUBLIC 201708 0 ndr_print_samr_QueryDomainInfo2
PUBLIC 2018e0 0 ndr_print_samr_Ids
PUBLIC 2019e8 0 ndr_print_samr_GetAliasMembership
PUBLIC 201ba0 0 ndr_print_samr_LookupNames
PUBLIC 201de8 0 ndr_print_samr_LookupRids
PUBLIC 202030 0 ndr_push_samr_GroupAttrs
PUBLIC 202e78 0 ndr_pull_samr_GroupAttrs
PUBLIC 205d88 0 ndr_print_samr_GroupAttrs
PUBLIC 205e98 0 ndr_print_samr_GroupInfoAll
PUBLIC 205f44 0 ndr_print_samr_GroupInfoAttributes
PUBLIC 205fa8 0 ndr_print_samr_GroupInfoEnum
PUBLIC 206040 0 ndr_print_samr_GroupInfo
PUBLIC 206118 0 ndr_print_samr_QueryGroupInfo
PUBLIC 2062f0 0 ndr_print_samr_SetGroupInfo
PUBLIC 20648c 0 ndr_print_samr_RidAttrArray
PUBLIC 206644 0 ndr_print_samr_QueryGroupMember
PUBLIC 2067e4 0 ndr_print_samr_AliasInfoAll
PUBLIC 206878 0 ndr_print_samr_AliasInfoEnum
PUBLIC 2068dc 0 ndr_print_samr_AliasInfo
PUBLIC 206980 0 ndr_print_samr_QueryAliasInfo
PUBLIC 206b58 0 ndr_print_samr_SetAliasInfo
PUBLIC 206cf4 0 ndr_print_samr_UserInfoLevel
PUBLIC 206f00 0 ndr_print_samr_UserInfo1
PUBLIC 206fc4 0 ndr_print_samr_UserInfo2
PUBLIC 207070 0 ndr_push_samr_LogonHours
PUBLIC 207d18 0 ndr_pull_samr_LogonHours
PUBLIC 208da8 0 ndr_print_samr_LogonHours
PUBLIC 208e68 0 ndr_print_samr_UserInfo3
PUBLIC 209064 0 ndr_print_samr_UserInfo4
PUBLIC 2090c8 0 ndr_print_samr_UserInfo5
PUBLIC 2092c4 0 ndr_print_samr_UserInfo6
PUBLIC 209340 0 ndr_print_samr_UserInfo7
PUBLIC 2093a4 0 ndr_print_samr_UserInfo8
PUBLIC 209408 0 ndr_print_samr_UserInfo9
PUBLIC 20946c 0 ndr_print_samr_UserInfo10
PUBLIC 2094e8 0 ndr_print_samr_UserInfo11
PUBLIC 20954c 0 ndr_print_samr_UserInfo12
PUBLIC 2095b0 0 ndr_print_samr_UserInfo13
PUBLIC 209614 0 ndr_print_samr_UserInfo14
PUBLIC 209678 0 ndr_print_samr_UserInfo16
PUBLIC 2096dc 0 ndr_print_samr_UserInfo17
PUBLIC 209740 0 ndr_push_samr_Password
PUBLIC 209aa8 0 ndr_pull_samr_Password
PUBLIC 20a63c 0 ndr_print_samr_Password
PUBLIC 20a6b8 0 ndr_print_samr_ChangePasswordUser
PUBLIC 20aa10 0 ndr_print_samr_SetDsrmPassword
PUBLIC 20abac 0 ndr_print_samr_UserInfo18
PUBLIC 20ac70 0 ndr_print_samr_UserInfo20
PUBLIC 20acd4 0 ndr_print_samr_FieldsPresent
PUBLIC 20b0c4 0 ndr_print_samr_UserInfo21
PUBLIC 20b478 0 ndr_push_samr_CryptPassword
PUBLIC 20bf80 0 ndr_push_samr_SetUserInfo2
PUBLIC 20c048 0 ndr_push_samr_SetUserInfo
PUBLIC 20c110 0 ndr_push_samr_QueryUserInfo
PUBLIC 20c204 0 ndr_pull_samr_CryptPassword
PUBLIC 20d99c 0 ndr_pull_samr_SetUserInfo2
PUBLIC 20dc94 0 ndr_pull_samr_SetUserInfo
PUBLIC 20df8c 0 ndr_pull_samr_QueryUserInfo
PUBLIC 20e458 0 ndr_print_samr_CryptPassword
PUBLIC 20e4d4 0 ndr_print_samr_OemChangePasswordUser2
PUBLIC 20e6e8 0 ndr_print_samr_ChangePasswordUser2
PUBLIC 20e9ac 0 ndr_print_samr_UserInfo23
PUBLIC 20ea28 0 ndr_print_samr_UserInfo24
PUBLIC 20eaa4 0 ndr_print_samr_CryptPasswordEx
PUBLIC 20eb20 0 ndr_print_samr_UserInfo25
PUBLIC 20eb9c 0 ndr_print_samr_UserInfo26
PUBLIC 20ec18 0 ndr_print_samr_UserInfo
PUBLIC 20ef04 0 ndr_print_samr_QueryUserInfo
PUBLIC 20f0dc 0 ndr_print_samr_SetUserInfo
PUBLIC 20f278 0 ndr_print_samr_QueryUserInfo2
PUBLIC 20f450 0 ndr_print_samr_SetUserInfo2
PUBLIC 20f5ec 0 ndr_push_samr_RidWithAttribute
PUBLIC 20f658 0 ndr_pull_samr_RidWithAttribute
PUBLIC 20f6c4 0 ndr_print_samr_RidWithAttribute
PUBLIC 20f740 0 ndr_push_samr_RidWithAttributeArray
PUBLIC 20f8e0 0 ndr_pull_samr_RidWithAttributeArray
PUBLIC 21005c 0 ndr_print_samr_RidWithAttributeArray
PUBLIC 210164 0 ndr_print_samr_GetGroupsForUser
PUBLIC 210304 0 ndr_print_samr_DispEntryGeneral
PUBLIC 2103e0 0 ndr_print_samr_DispInfoGeneral
PUBLIC 2104ec 0 ndr_print_samr_DispEntryFull
PUBLIC 2105b0 0 ndr_print_samr_DispInfoFull
PUBLIC 2106bc 0 ndr_print_samr_DispEntryFullGroup
PUBLIC 210780 0 ndr_print_samr_DispInfoFullGroups
PUBLIC 21088c 0 ndr_print_samr_DispEntryAscii
PUBLIC 210908 0 ndr_print_samr_DispInfoAscii
PUBLIC 210a14 0 ndr_print_samr_DispInfo
PUBLIC 210af4 0 ndr_print_samr_QueryDisplayInfo
PUBLIC 210d74 0 ndr_print_samr_QueryDisplayInfo2
PUBLIC 210ff4 0 ndr_print_samr_QueryDisplayInfo3
PUBLIC 211274 0 ndr_print_samr_PwInfo
PUBLIC 2112f0 0 ndr_print_samr_GetUserPwInfo
PUBLIC 211464 0 ndr_print_samr_GetDomPwInfo
PUBLIC 2115e0 0 ndr_print_samr_ConnectVersion
PUBLIC 211644 0 ndr_print_samr_Connect4
PUBLIC 2117fc 0 ndr_push_samPwdChangeReason
PUBLIC 211804 0 ndr_push_samr_ChangePasswordUser3
PUBLIC 211b04 0 ndr_pull_samPwdChangeReason
PUBLIC 211b2c 0 ndr_pull_samr_ChangePasswordUser3
PUBLIC 21299c 0 ndr_print_samPwdChangeReason
PUBLIC 212a80 0 ndr_print_userPwdChangeFailureInformation
PUBLIC 212afc 0 ndr_print_samr_ChangePasswordUser3
PUBLIC 212eec 0 ndr_print_samr_ConnectInfo1
PUBLIC 212f68 0 ndr_print_samr_ConnectInfo
PUBLIC 212fd4 0 ndr_print_samr_Connect5
PUBLIC 213274 0 ndr_print_samr_ValidateFieldsPresent
PUBLIC 213364 0 ndr_print_samr_ValidatePasswordLevel
PUBLIC 2133c8 0 ndr_print_samr_ValidationStatus
PUBLIC 2134d4 0 ndr_print_samr_ValidationBlob
PUBLIC 21357c 0 ndr_print_samr_ValidatePasswordInfo
PUBLIC 2136fc 0 ndr_print_samr_ValidatePasswordRepCtr
PUBLIC 213778 0 ndr_print_samr_ValidatePasswordRep
PUBLIC 213814 0 ndr_print_samr_ValidatePasswordReq3
PUBLIC 2138f0 0 ndr_print_samr_ValidatePasswordReq2
PUBLIC 2139b4 0 ndr_print_samr_ValidatePasswordReq1
PUBLIC 213a30 0 ndr_print_samr_ValidatePasswordReq
PUBLIC 213adc 0 ndr_print_samr_ValidatePassword
PUBLIC 214890 0 ndr_print_lsa_Close
PUBLIC 214a04 0 ndr_print_lsa_Delete
PUBLIC 214b34 0 ndr_print_lsa_ChangePassword
PUBLIC 214c14 0 ndr_print_lsa_ClearAuditLog
PUBLIC 214cf4 0 ndr_print_lsa_GetQuotasForAccount
PUBLIC 214dd4 0 ndr_print_lsa_SetQuotasForAccount
PUBLIC 214eb4 0 ndr_print_lsa_DeleteObject
PUBLIC 215028 0 ndr_print_lsa_DeleteTrustedDomain
PUBLIC 21519c 0 ndr_print_lsa_CloseTrustedDomainEx
PUBLIC 215310 0 ndr_print_lsa_TestCall
PUBLIC 2153f0 0 ndr_print_lsa_CREDRWRITE
PUBLIC 2154d0 0 ndr_print_lsa_CREDRREAD
PUBLIC 2155b0 0 ndr_print_lsa_CREDRENUMERATE
PUBLIC 215690 0 ndr_print_lsa_CREDRWRITEDOMAINCREDENTIALS
PUBLIC 215770 0 ndr_print_lsa_CREDRREADDOMAINCREDENTIALS
PUBLIC 215850 0 ndr_print_lsa_CREDRDELETE
PUBLIC 215930 0 ndr_print_lsa_CREDRGETTARGETINFO
PUBLIC 215a10 0 ndr_print_lsa_CREDRPROFILELOADED
PUBLIC 215af0 0 ndr_print_lsa_CREDRGETSESSIONTYPES
PUBLIC 215bd0 0 ndr_print_lsa_LSARREGISTERAUDITEVENT
PUBLIC 215cb0 0 ndr_print_lsa_LSARGENAUDITEVENT
PUBLIC 215d90 0 ndr_print_lsa_LSARUNREGISTERAUDITEVENT
PUBLIC 215e70 0 ndr_print_lsa_CREDRRENAME
PUBLIC 215f50 0 ndr_print_lsa_LSAROPENPOLICYSCE
PUBLIC 216030 0 ndr_print_lsa_LSARADTREGISTERSECURITYEVENTSOURCE
PUBLIC 216110 0 ndr_print_lsa_LSARADTUNREGISTERSECURITYEVENTSOURCE
PUBLIC 2161f0 0 ndr_print_lsa_LSARADTREPORTSECURITYEVENT
PUBLIC 216370 0 ndr_pull_lsa_Delete
PUBLIC 217244 0 ndr_print_lsa_QuerySecurity
PUBLIC 217408 0 ndr_print_lsa_SetSecObj
PUBLIC 218420 0 ndr_push_lsa_Delete
PUBLIC 219dbc 0 ndr_pull_lsa_QuerySecret
PUBLIC 21a824 0 ndr_pull_lsa_SetSecret
PUBLIC 21af74 0 ndr_push_lsa_SetSecret
PUBLIC 21b164 0 ndr_push_lsa_QuerySecret
PUBLIC 21cb9c 0 ndr_push_lsa_String
PUBLIC 21d414 0 ndr_pull_lsa_String
PUBLIC 21f4e0 0 ndr_print_lsa_String
PUBLIC 21f5d4 0 ndr_print_lsa_GetUserName
PUBLIC 21f8f4 0 ndr_push_lsa_StringLarge
PUBLIC 21ffa4 0 ndr_push_lsa_EnumPrivs
PUBLIC 2211f8 0 ndr_pull_lsa_StringLarge
PUBLIC 2222ec 0 ndr_pull_lsa_EnumPrivs
PUBLIC 2260a8 0 ndr_print_lsa_StringLarge
PUBLIC 22619c 0 ndr_print_lsa_LookupPrivDisplayName
PUBLIC 226404 0 ndr_push_lsa_Strings
PUBLIC 226510 0 ndr_pull_lsa_Strings
PUBLIC 22681c 0 ndr_print_lsa_Strings
PUBLIC 226924 0 ndr_push_lsa_AsciiString
PUBLIC 226a58 0 ndr_pull_lsa_AsciiString
PUBLIC 226ccc 0 ndr_print_lsa_AsciiString
PUBLIC 226db8 0 ndr_push_lsa_AsciiStringLarge
PUBLIC 226eec 0 ndr_pull_lsa_AsciiStringLarge
PUBLIC 227160 0 ndr_print_lsa_AsciiStringLarge
PUBLIC 22724c 0 ndr_push_lsa_BinaryString
PUBLIC 22737c 0 ndr_pull_lsa_BinaryString
PUBLIC 2276ec 0 ndr_print_lsa_BinaryString
PUBLIC 227814 0 ndr_print_lsa_LUID
PUBLIC 227890 0 ndr_print_lsa_LookupPrivValue
PUBLIC 227a48 0 ndr_print_lsa_LookupPrivName
PUBLIC 227c2c 0 ndr_print_lsa_PrivEntry
PUBLIC 227ca8 0 ndr_print_lsa_PrivArray
PUBLIC 227db0 0 ndr_print_lsa_EnumPrivs
PUBLIC 227fd8 0 ndr_print_lsa_QosInfo
PUBLIC 228084 0 ndr_print_lsa_ObjectAttribute
PUBLIC 228228 0 ndr_push_lsa_PolicyAccessMask
PUBLIC 228230 0 ndr_push_lsa_OpenPolicy
PUBLIC 228328 0 ndr_push_lsa_OpenPolicy2
PUBLIC 2284b0 0 ndr_pull_lsa_PolicyAccessMask
PUBLIC 2284d8 0 ndr_pull_lsa_OpenPolicy
PUBLIC 228990 0 ndr_pull_lsa_OpenPolicy2
PUBLIC 228ee4 0 ndr_print_lsa_PolicyAccessMask
PUBLIC 2290b4 0 ndr_print_lsa_OpenPolicy
PUBLIC 22929c 0 ndr_print_lsa_OpenPolicy2
PUBLIC 229480 0 ndr_push_lsa_AccountAccessMask
PUBLIC 229488 0 ndr_push_lsa_CreateAccount
PUBLIC 229784 0 ndr_pull_lsa_AccountAccessMask
PUBLIC 2297ac 0 ndr_pull_lsa_CreateAccount
PUBLIC 22a600 0 ndr_print_lsa_AccountAccessMask
PUBLIC 22a6b0 0 ndr_print_lsa_CreateAccount
PUBLIC 22a88c 0 ndr_print_lsa_OpenAccount
PUBLIC 22aa68 0 ndr_print_lsa_GetSystemAccessAccount
PUBLIC 22abe0 0 ndr_print_lsa_SetSystemAccessAccount
PUBLIC 22ad34 0 ndr_push_lsa_SecretAccessMask
PUBLIC 22ad3c 0 ndr_push_lsa_CreateSecret
PUBLIC 22ae0c 0 ndr_push_lsa_OpenSecret
PUBLIC 22aedc 0 ndr_pull_lsa_SecretAccessMask
PUBLIC 22af04 0 ndr_pull_lsa_CreateSecret
PUBLIC 22b2c4 0 ndr_pull_lsa_OpenSecret
PUBLIC 22b684 0 ndr_print_lsa_SecretAccessMask
PUBLIC 22b6f4 0 ndr_print_lsa_CreateSecret
PUBLIC 22b8a8 0 ndr_print_lsa_OpenSecret
PUBLIC 22ba5c 0 ndr_push_lsa_TrustedAccessMask
PUBLIC 22ba64 0 ndr_push_lsa_CreateTrustedDomain
PUBLIC 22bd04 0 ndr_pull_lsa_TrustedAccessMask
PUBLIC 22bd2c 0 ndr_pull_lsa_CreateTrustedDomain
PUBLIC 22ca0c 0 ndr_print_lsa_TrustedAccessMask
PUBLIC 22cb1c 0 ndr_print_lsa_OpenTrustedDomain
PUBLIC 22ccf8 0 ndr_print_lsa_OpenTrustedDomainByName
PUBLIC 22ceac 0 ndr_print_lsa_AuditLogInfo
PUBLIC 22cf88 0 ndr_print_lsa_PolicyAuditPolicy
PUBLIC 22d01c 0 ndr_print_lsa_AuditEventsInfo
PUBLIC 22d148 0 ndr_print_lsa_DomainInfo
PUBLIC 22d1ec 0 ndr_print_lsa_CreateTrustedDomain
PUBLIC 22d3c8 0 ndr_print_lsa_PDAccountInfo
PUBLIC 22d42c 0 ndr_print_lsa_Role
PUBLIC 22d480 0 ndr_print_lsa_ServerRole
PUBLIC 22d4e4 0 ndr_print_lsa_ReplicaSourceInfo
PUBLIC 22d560 0 ndr_print_lsa_DefaultQuotaInfo
PUBLIC 22d63c 0 ndr_print_lsa_ModificationInfo
PUBLIC 22d6b8 0 ndr_print_lsa_AuditFullSetInfo
PUBLIC 22d71c 0 ndr_print_lsa_AuditFullQueryInfo
PUBLIC 22d798 0 ndr_print_lsa_DnsDomainInfo
PUBLIC 22d884 0 ndr_print_lsa_PolicyInfo
PUBLIC 22d9d0 0 ndr_print_lsa_PolicyInformation
PUBLIC 22db9c 0 ndr_print_lsa_QueryInfoPolicy
PUBLIC 22dd74 0 ndr_print_lsa_SetInfoPolicy
PUBLIC 22df10 0 ndr_print_lsa_QueryInfoPolicy2
PUBLIC 22e0e8 0 ndr_print_lsa_SetInfoPolicy2
PUBLIC 22e284 0 ndr_print_lsa_SidPtr
PUBLIC 22e310 0 ndr_push_lsa_SidArray
PUBLIC 22e41c 0 ndr_push_lsa_EnumAccounts
PUBLIC 22e610 0 ndr_pull_lsa_SidArray
PUBLIC 22e940 0 ndr_pull_lsa_EnumAccounts
PUBLIC 22f434 0 ndr_print_lsa_SidArray
PUBLIC 22f53c 0 ndr_print_lsa_EnumAccounts
PUBLIC 22f764 0 ndr_print_lsa_EnumAccountsWithUserRight
PUBLIC 22f924 0 ndr_print_lsa_DomainList
PUBLIC 22fa30 0 ndr_print_lsa_EnumTrustDom
PUBLIC 22fc58 0 ndr_push_lsa_SidType
PUBLIC 2302d0 0 ndr_pull_lsa_SidType
PUBLIC 2312cc 0 ndr_print_lsa_SidType
PUBLIC 2313c4 0 ndr_print_lsa_TranslatedSid
PUBLIC 231458 0 ndr_print_lsa_TransSidArray
PUBLIC 231564 0 ndr_push_lsa_RefDomainList
PUBLIC 231690 0 ndr_pull_lsa_RefDomainList
PUBLIC 2319dc 0 ndr_print_lsa_RefDomainList
PUBLIC 231b0c 0 ndr_push_lsa_LookupNamesLevel
PUBLIC 231b18 0 ndr_push_lsa_LookupNames
PUBLIC 231d58 0 ndr_push_lsa_LookupSids2
PUBLIC 231f58 0 ndr_push_lsa_LookupNames2
PUBLIC 2321c0 0 ndr_push_lsa_LookupNames3
PUBLIC 232428 0 ndr_push_lsa_LookupSids3
PUBLIC 232830 0 ndr_pull_lsa_LookupNamesLevel
PUBLIC 232858 0 ndr_pull_lsa_LookupNames
PUBLIC 233440 0 ndr_pull_lsa_LookupSids2
PUBLIC 233f58 0 ndr_pull_lsa_LookupNames2
PUBLIC 234b68 0 ndr_pull_lsa_LookupNames3
PUBLIC 235778 0 ndr_pull_lsa_LookupSids3
PUBLIC 236c74 0 ndr_print_lsa_LookupNamesLevel
PUBLIC 236d34 0 ndr_print_lsa_LookupNames
PUBLIC 237094 0 ndr_print_lsa_TranslatedName
PUBLIC 23712c 0 ndr_push_lsa_TransNameArray
PUBLIC 237238 0 ndr_push_lsa_LookupSids
PUBLIC 237418 0 ndr_pull_lsa_TransNameArray
PUBLIC 237748 0 ndr_pull_lsa_LookupSids
PUBLIC 238240 0 ndr_print_lsa_TransNameArray
PUBLIC 238348 0 ndr_print_lsa_LookupSids
PUBLIC 23865c 0 ndr_print_lsa_LUIDAttribute
PUBLIC 2386d8 0 ndr_print_lsa_PrivilegeSet
PUBLIC 2387c4 0 ndr_print_lsa_EnumPrivsAccount
PUBLIC 238964 0 ndr_print_lsa_AddPrivilegesToAccount
PUBLIC 238ad8 0 ndr_print_lsa_RemovePrivilegesFromAccount
PUBLIC 238c6c 0 ndr_print_lsa_DATA_BUF
PUBLIC 238d40 0 ndr_print_lsa_SetSecret
PUBLIC 238f08 0 ndr_print_lsa_StorePrivateData
PUBLIC 2390c8 0 ndr_print_lsa_RetrievePrivateData
PUBLIC 23931c 0 ndr_print_lsa_DATA_BUF2
PUBLIC 2393d8 0 ndr_print_lsa_TrustDomInfoEnum
PUBLIC 239510 0 ndr_push_lsa_TrustDirection
PUBLIC 239518 0 ndr_pull_lsa_TrustDirection
PUBLIC 239540 0 ndr_print_lsa_TrustDirection
PUBLIC 2395b0 0 ndr_print_lsa_TrustType
PUBLIC 239614 0 ndr_push_lsa_TrustAttributes
PUBLIC 239d0c 0 ndr_pull_lsa_TrustAttributes
PUBLIC 23b6b0 0 ndr_print_lsa_TrustAttributes
PUBLIC 23b7e0 0 ndr_print_lsa_TrustDomainInfoName
PUBLIC 23b844 0 ndr_print_lsa_TrustDomainInfoControllers
PUBLIC 23b94c 0 ndr_print_lsa_TrustDomainInfoPosixOffset
PUBLIC 23b9b0 0 ndr_print_lsa_TrustDomainInfoPassword
PUBLIC 23ba88 0 ndr_print_lsa_TrustDomainInfoBasic
PUBLIC 23bb2c 0 ndr_print_lsa_TrustDomainInfoInfoEx
PUBLIC 23bc3c 0 ndr_push_lsa_TrustAuthType
PUBLIC 23bcd4 0 ndr_pull_lsa_TrustAuthType
PUBLIC 23bd8c 0 ndr_print_lsa_TrustAuthType
PUBLIC 23be0c 0 ndr_print_lsa_TrustDomainInfoBuffer
PUBLIC 23bea0 0 ndr_push_lsa_TrustDomainInfoAuthInfo
PUBLIC 23c9ec 0 ndr_push_lsa_SetTrustedDomainInfoByName
PUBLIC 23cae4 0 ndr_pull_lsa_TrustDomainInfoAuthInfo
PUBLIC 23eb98 0 ndr_pull_lsa_SetTrustedDomainInfoByName
PUBLIC 23ef78 0 ndr_print_lsa_TrustDomainInfoAuthInfo
PUBLIC 23f118 0 ndr_print_lsa_TrustDomainInfoFullInfo
PUBLIC 23f1ac 0 ndr_print_lsa_TrustDomainInfoAuthInfoInternal
PUBLIC 23f210 0 ndr_print_lsa_CreateTrustedDomainEx
PUBLIC 23f430 0 ndr_print_lsa_CreateTrustedDomainEx2
PUBLIC 23f650 0 ndr_print_lsa_TrustDomainInfoFullInfoInternal
PUBLIC 23f6e4 0 ndr_print_lsa_TrustDomainInfoInfoEx2Internal
PUBLIC 23f7a4 0 ndr_print_lsa_TrustDomainInfoFullInfo2Internal
PUBLIC 23f838 0 ndr_print_lsa_TrustDomainInfoSupportedEncTypes
PUBLIC 23f89c 0 ndr_print_lsa_TrustedDomainInfo
PUBLIC 23fa64 0 ndr_print_lsa_QueryTrustedDomainInfo
PUBLIC 23fc3c 0 ndr_print_lsa_SetInformationTrustedDomain
PUBLIC 23fdd8 0 ndr_print_lsa_QueryTrustedDomainInfoBySid
PUBLIC 23fff4 0 ndr_print_lsa_SetTrustedDomainInfo
PUBLIC 2401d4 0 ndr_print_lsa_QueryTrustedDomainInfoByName
PUBLIC 2403f0 0 ndr_print_lsa_SetTrustedDomainInfoByName
PUBLIC 2405d0 0 ndr_print_lsa_DATA_BUF_PTR
PUBLIC 24065c 0 ndr_print_lsa_QuerySecret
PUBLIC 2409fc 0 ndr_print_lsa_RightSet
PUBLIC 240b04 0 ndr_print_lsa_EnumAccountRights
PUBLIC 240cbc 0 ndr_print_lsa_AddAccountRights
PUBLIC 240e74 0 ndr_print_lsa_RemoveAccountRights
PUBLIC 241044 0 ndr_print_lsa_DomainListEx
PUBLIC 24114c 0 ndr_print_lsa_EnumTrustedDomainsEx
PUBLIC 241374 0 ndr_print_lsa_krbAuthenticationOptions
PUBLIC 2413c4 0 ndr_print_lsa_DomainInfoKerberos
PUBLIC 2414a0 0 ndr_print_lsa_DomainInfoEfs
PUBLIC 241548 0 ndr_print_lsa_DomainInformationPolicy
PUBLIC 2415dc 0 ndr_print_lsa_QueryDomainInformationPolicy
PUBLIC 2417b4 0 ndr_print_lsa_SetDomainInformationPolicy
PUBLIC 241958 0 ndr_print_lsa_TranslatedName2
PUBLIC 241a08 0 ndr_print_lsa_TransNameArray2
PUBLIC 241b14 0 ndr_print_lsa_LookupOptions
PUBLIC 241b60 0 ndr_print_lsa_ClientRevision
PUBLIC 241bb4 0 ndr_print_lsa_LookupSids2
PUBLIC 241f04 0 ndr_print_lsa_LookupSids3
PUBLIC 242210 0 ndr_print_lsa_TranslatedSid2
PUBLIC 2422bc 0 ndr_print_lsa_TransSidArray2
PUBLIC 2423c4 0 ndr_print_lsa_LookupNames2
PUBLIC 242760 0 ndr_print_lsa_TranslatedSid3
PUBLIC 242840 0 ndr_print_lsa_TransSidArray3
PUBLIC 242948 0 ndr_print_lsa_LookupNames3
PUBLIC 242ce4 0 ndr_print_lsa_LookupNames4
PUBLIC 24303c 0 ndr_print_lsa_ForestTrustBinaryData
PUBLIC 2430e4 0 ndr_print_lsa_ForestTrustDomainInfo
PUBLIC 2431ac 0 ndr_print_lsa_ForestTrustData
PUBLIC 243260 0 ndr_print_lsa_ForestTrustRecordType
PUBLIC 2432e0 0 ndr_print_lsa_ForestTrustRecord
PUBLIC 2433a0 0 ndr_push_lsa_ForestTrustInformation
PUBLIC 243558 0 ndr_push_lsa_lsaRSetForestTrustInformation
PUBLIC 243974 0 ndr_pull_lsa_ForestTrustInformation
PUBLIC 243e78 0 ndr_pull_lsa_lsaRSetForestTrustInformation
PUBLIC 245048 0 ndr_print_lsa_ForestTrustInformation
PUBLIC 245184 0 ndr_print_lsa_lsaRQueryForestTrustInformation
PUBLIC 24538c 0 ndr_print_lsa_ForestTrustCollisionRecordType
PUBLIC 2453f4 0 ndr_print_lsa_ForestTrustCollisionTDOFlags
PUBLIC 245484 0 ndr_print_lsa_ForestTrustCollisionXrefFlags
PUBLIC 245534 0 ndr_print_lsa_ForestTrustCollisionFlags
PUBLIC 2455d0 0 ndr_print_lsa_ForestTrustCollisionRecord
PUBLIC 245690 0 ndr_print_lsa_ForestTrustCollisionInfo
PUBLIC 2457cc 0 ndr_print_lsa_lsaRSetForestTrustInformation
PUBLIC 245a30 0 ndr_print_dfs_Add
PUBLIC 245c60 0 ndr_print_dfs_Remove
PUBLIC 245e28 0 ndr_print_dfs_Rename
PUBLIC 245f08 0 ndr_print_dfs_Move
PUBLIC 245fe8 0 ndr_print_dfs_ManagerGetConfigInfo
PUBLIC 2460c8 0 ndr_print_dfs_ManagerSendSiteInfo
PUBLIC 2461a8 0 ndr_print_dfs_AddStdRoot
PUBLIC 246300 0 ndr_print_dfs_RemoveStdRoot
PUBLIC 246440 0 ndr_print_dfs_ManagerInitialize
PUBLIC 246594 0 ndr_print_dfs_AddStdRootForced
PUBLIC 2466ec 0 ndr_print_dfs_SetDcAddress
PUBLIC 246844 0 ndr_print_dfs_FlushFtTable
PUBLIC 24696c 0 ndr_print_dfs_Add2
PUBLIC 246a4c 0 ndr_print_dfs_Remove2
PUBLIC 246b2c 0 ndr_print_dfs_SetInfo2
PUBLIC 246c0c 0 ndr_print_dfs_GetDcAddress
PUBLIC 24a84c 0 ndr_push_dfs_GetManagerVersion
PUBLIC 24a888 0 ndr_pull_dfs_GetManagerVersion
PUBLIC 24ce34 0 ndr_print_dfs_ManagerVersion
PUBLIC 24cec0 0 ndr_print_dfs_GetManagerVersion
PUBLIC 24cfc4 0 ndr_print_dfs_Info0
PUBLIC 24cff4 0 ndr_print_dfs_Info1
PUBLIC 24d080 0 ndr_push_dfs_VolumeState
PUBLIC 24d278 0 ndr_pull_dfs_VolumeState
PUBLIC 24d6a0 0 ndr_print_dfs_VolumeState
PUBLIC 24d790 0 ndr_print_dfs_Info2
PUBLIC 24d8a4 0 ndr_push_dfs_StorageState
PUBLIC 24e080 0 ndr_pull_dfs_StorageState
PUBLIC 24f288 0 ndr_print_dfs_StorageState
PUBLIC 24f318 0 ndr_print_dfs_StorageInfo
PUBLIC 24f408 0 ndr_print_dfs_Info3
PUBLIC 24f5c4 0 ndr_print_dfs_Info4
PUBLIC 24f7b0 0 ndr_push_dfs_PropertyFlags
PUBLIC 2507dc 0 ndr_push_dfs_EnumEx
PUBLIC 251480 0 ndr_pull_dfs_PropertyFlags
PUBLIC 254638 0 ndr_pull_dfs_EnumEx
PUBLIC 257164 0 ndr_print_dfs_PropertyFlags
PUBLIC 257234 0 ndr_print_dfs_Info5
PUBLIC 2573a8 0 ndr_print_dfs_Target_PriorityClass
PUBLIC 257454 0 ndr_print_dfs_Target_Priority
PUBLIC 2574e8 0 ndr_print_dfs_StorageInfo2
PUBLIC 257564 0 ndr_print_dfs_Info6
PUBLIC 257780 0 ndr_print_dfs_Info7
PUBLIC 2577e4 0 ndr_print_dfs_Info100
PUBLIC 257870 0 ndr_print_dfs_Info101
PUBLIC 2578d4 0 ndr_print_dfs_Info102
PUBLIC 257938 0 ndr_print_dfs_Info103
PUBLIC 25799c 0 ndr_print_dfs_Info104
PUBLIC 257a00 0 ndr_print_dfs_Info105
PUBLIC 257af8 0 ndr_print_dfs_Info106
PUBLIC 257b74 0 ndr_print_dfs_Info200
PUBLIC 257c00 0 ndr_print_dfs_VolumeFlavor
PUBLIC 257c54 0 ndr_print_dfs_Info300
PUBLIC 257cf8 0 ndr_print_dfs_Info
PUBLIC 2581c0 0 ndr_print_dfs_SetInfo
PUBLIC 2583c8 0 ndr_print_dfs_GetInfo
PUBLIC 2585dc 0 ndr_print_dfs_EnumArray1
PUBLIC 2586e4 0 ndr_print_dfs_EnumArray2
PUBLIC 2587ec 0 ndr_print_dfs_EnumArray3
PUBLIC 2588f8 0 ndr_print_dfs_EnumArray4
PUBLIC 258a04 0 ndr_print_dfs_EnumArray5
PUBLIC 258b10 0 ndr_print_dfs_EnumArray6
PUBLIC 258c1c 0 ndr_print_dfs_EnumArray200
PUBLIC 258d24 0 ndr_print_dfs_EnumArray300
PUBLIC 258e2c 0 ndr_print_dfs_EnumInfo
PUBLIC 2590e8 0 ndr_print_dfs_EnumStruct
PUBLIC 259178 0 ndr_print_dfs_Enum
PUBLIC 2593cc 0 ndr_print_dfs_EnumEx
PUBLIC 259638 0 ndr_print_dfs_UnknownStruct
PUBLIC 2596dc 0 ndr_print_dfs_AddFtRoot
PUBLIC 259990 0 ndr_print_dfs_RemoveFtRoot
PUBLIC 259bfc 0 ndr_print_echo_TestSleep
PUBLIC 259d0c 0 ndr_print_echo_AddOne
PUBLIC 259e40 0 ndr_print_echo_TestDoublePointer
PUBLIC 259fdc 0 ndr_print_echo_EchoData
PUBLIC 25a10c 0 ndr_print_echo_SinkData
PUBLIC 25a208 0 ndr_print_echo_SourceData
PUBLIC 25a31c 0 ndr_print_echo_TestCall
PUBLIC 25cd24 0 ndr_push_echo_info1
PUBLIC 25d038 0 ndr_pull_echo_info1
PUBLIC 25d544 0 ndr_print_echo_info1
PUBLIC 25d5a8 0 ndr_print_echo_info2
PUBLIC 25d60c 0 ndr_print_echo_info3
PUBLIC 25d670 0 ndr_print_STRUCT_echo_info4
PUBLIC 25d6d4 0 ndr_print_echo_info5
PUBLIC 25d750 0 ndr_print_echo_info6
PUBLIC 25d7cc 0 ndr_print_echo_info7
PUBLIC 25d848 0 ndr_print_echo_Info
PUBLIC 25d968 0 ndr_print_echo_TestCall2
PUBLIC 25dacc 0 ndr_print_echo_Enum1
PUBLIC 25db20 0 ndr_print_echo_Enum1_32
PUBLIC 25db74 0 ndr_print_echo_Enum2
PUBLIC 25dbf0 0 ndr_print_echo_Enum3
PUBLIC 25dc84 0 ndr_print_echo_TestEnum
PUBLIC 25df14 0 ndr_print_echo_Surrounding
PUBLIC 25dfe8 0 ndr_print_echo_TestSurrounding
PUBLIC 25e138 0 ndr_print_winreg_CloseKey
PUBLIC 25e2ac 0 ndr_print_winreg_FlushKey
PUBLIC 25e3dc 0 ndr_print_winreg_AbortSystemShutdown
PUBLIC 25e518 0 ndr_print_winreg_GetVersion
PUBLIC 25e690 0 ndr_pull_winreg_CloseKey
PUBLIC 25ea2c 0 ndr_pull_winreg_FlushKey
PUBLIC 25ebb8 0 ndr_pull_winreg_GetVersion
PUBLIC 25f4c0 0 ndr_push_winreg_GetKeySecurity
PUBLIC 25f660 0 ndr_pull_winreg_GetKeySecurity
PUBLIC 25fe38 0 ndr_print_winreg_InitiateSystemShutdown
PUBLIC 260014 0 ndr_print_winreg_InitiateSystemShutdownEx
PUBLIC 2609ec 0 ndr_pull_winreg_OpenHKLM
PUBLIC 262900 0 ndr_push_winreg_OpenHKLM
PUBLIC 2629c0 0 ndr_push_winreg_CloseKey
PUBLIC 262a60 0 ndr_push_winreg_FlushKey
PUBLIC 262ad0 0 ndr_push_winreg_GetVersion
PUBLIC 26372c 0 ndr_pull_winreg_QueryMultipleValues
PUBLIC 26465c 0 ndr_pull_winreg_QueryMultipleValues2
PUBLIC 26558c 0 ndr_pull_winreg_EnumValue
PUBLIC 2668fc 0 ndr_push_winreg_QueryMultipleValues
PUBLIC 266cb0 0 ndr_push_winreg_QueryMultipleValues2
PUBLIC 267064 0 ndr_push_winreg_EnumValue
PUBLIC 267664 0 ndr_pull_winreg_EnumKey
PUBLIC 2680c8 0 ndr_push_winreg_EnumKey
PUBLIC 26828c 0 ndr_print_winreg_AccessMask
PUBLIC 2683bc 0 ndr_print_winreg_OpenHKCR
PUBLIC 268560 0 ndr_print_winreg_OpenHKCU
PUBLIC 268704 0 ndr_print_winreg_OpenHKLM
PUBLIC 2688a8 0 ndr_print_winreg_OpenHKPD
PUBLIC 268a4c 0 ndr_print_winreg_OpenHKU
PUBLIC 268bf0 0 ndr_print_winreg_OpenHKCC
PUBLIC 268d94 0 ndr_print_winreg_OpenHKDD
PUBLIC 268f38 0 ndr_print_winreg_OpenHKPT
PUBLIC 2690dc 0 ndr_print_winreg_OpenHKPN
PUBLIC 269280 0 ndr_push_winreg_String
PUBLIC 2693d4 0 ndr_push_winreg_CreateKey
PUBLIC 2695f8 0 ndr_push_winreg_DeleteKey
PUBLIC 269680 0 ndr_push_winreg_OpenKey
PUBLIC 269764 0 ndr_push_winreg_QueryInfoKey
PUBLIC 2699d4 0 ndr_push_winreg_QueryValue
PUBLIC 26a3c8 0 ndr_pull_winreg_String
PUBLIC 26a60c 0 ndr_pull_winreg_CreateKey
PUBLIC 26ade0 0 ndr_pull_winreg_DeleteKey
PUBLIC 26af84 0 ndr_pull_winreg_OpenKey
PUBLIC 26b358 0 ndr_pull_winreg_QueryInfoKey
PUBLIC 26c474 0 ndr_pull_winreg_QueryValue
PUBLIC 26ec68 0 ndr_print_winreg_String
PUBLIC 26ed5c 0 ndr_print_winreg_DeleteKey
PUBLIC 26eeb4 0 ndr_print_winreg_DeleteValue
PUBLIC 26f00c 0 ndr_print_winreg_LoadKey
PUBLIC 26f1d4 0 ndr_print_winreg_QueryInfoKey
PUBLIC 26f5cc 0 ndr_print_winreg_QueryValue
PUBLIC 26f9d8 0 ndr_print_winreg_ReplaceKey
PUBLIC 26fbd4 0 ndr_print_winreg_SetValue
PUBLIC 26fda4 0 ndr_print_winreg_UnLoadKey
PUBLIC 26ff18 0 ndr_print_winreg_DeleteKeyEx
PUBLIC 2700c8 0 ndr_print_KeySecurityData
PUBLIC 270194 0 ndr_print_winreg_GetKeySecurity
PUBLIC 270364 0 ndr_print_winreg_SetKeySecurity
PUBLIC 2704f0 0 ndr_print_winreg_SecBuf
PUBLIC 270588 0 ndr_print_winreg_KeyOptions
PUBLIC 270638 0 ndr_print_winreg_OpenKey
PUBLIC 270804 0 ndr_print_winreg_CreateAction
PUBLIC 27086c 0 ndr_print_winreg_CreateKey
PUBLIC 270b30 0 ndr_print_winreg_StringBuf
PUBLIC 270c08 0 ndr_print_winreg_EnumKey
PUBLIC 270f10 0 ndr_print_winreg_ValNameBuf
PUBLIC 270fe8 0 ndr_print_winreg_EnumValue
PUBLIC 271450 0 ndr_push_winreg_NotifyChangeType
PUBLIC 271458 0 ndr_push_winreg_NotifyChangeKeyValue
PUBLIC 271558 0 ndr_pull_winreg_NotifyChangeType
PUBLIC 271580 0 ndr_pull_winreg_NotifyChangeKeyValue
PUBLIC 27179c 0 ndr_print_winreg_NotifyChangeType
PUBLIC 27184c 0 ndr_print_winreg_NotifyChangeKeyValue
PUBLIC 271a18 0 ndr_push_winreg_RestoreKeyFlags
PUBLIC 271ad8 0 ndr_pull_winreg_RestoreKeyFlags
PUBLIC 271d8c 0 ndr_print_winreg_RestoreKeyFlags
PUBLIC 271e3c 0 ndr_print_winreg_RestoreKey
PUBLIC 271fd4 0 ndr_print_KeySecurityAttribute
PUBLIC 27206c 0 ndr_print_winreg_SaveKey
PUBLIC 27222c 0 ndr_print_winreg_SaveKeyEx
PUBLIC 272410 0 ndr_print_QueryMultipleValue
PUBLIC 2724f0 0 ndr_print_winreg_QueryMultipleValues
PUBLIC 27289c 0 ndr_print_winreg_QueryMultipleValues2
PUBLIC 272c48 0 ndr_print_initshutdown_Init
PUBLIC 272e24 0 ndr_print_initshutdown_Abort
PUBLIC 272f60 0 ndr_print_initshutdown_InitEx
PUBLIC 278144 0 ndr_print_srvsvc_NetCharDevControl
PUBLIC 2782b8 0 ndr_print_srvsvc_NetCharDevQPurge
PUBLIC 278414 0 ndr_print_srvsvc_NetCharDevQPurgeSelf
PUBLIC 278588 0 ndr_print_srvsvc_NetFileClose
PUBLIC 2786e4 0 ndr_print_srvsvc_NetSessDel
PUBLIC 2788b4 0 ndr_print_srvsvc_NetShareDel
PUBLIC 278a28 0 ndr_print_srvsvc_NetShareDelSticky
PUBLIC 278b9c 0 ndr_print_srvsvc_NetSetServiceBits
PUBLIC 278d5c 0 ndr_print_srvsvc_NetPathType
PUBLIC 278f18 0 ndr_print_srvsvc_NetPathCanonicalize
PUBLIC 279168 0 ndr_print_srvsvc_NetPathCompare
PUBLIC 27930c 0 ndr_print_srvsvc_NetNameValidate
PUBLIC 279498 0 ndr_print_srvsvc_NETRPRNAMECANONICALIZE
PUBLIC 279578 0 ndr_print_srvsvc_NetPRNameCompare
PUBLIC 27971c 0 ndr_print_srvsvc_NetServerSetServiceBitsEx
PUBLIC 279940 0 ndr_print_srvsvc_NETRDFSGETVERSION
PUBLIC 279a20 0 ndr_print_srvsvc_NETRDFSCREATELOCALPARTITION
PUBLIC 279b00 0 ndr_print_srvsvc_NETRDFSDELETELOCALPARTITION
PUBLIC 279be0 0 ndr_print_srvsvc_NETRDFSSETLOCALVOLUMESTATE
PUBLIC 279cc0 0 ndr_print_srvsvc_NETRDFSSETSERVERINFO
PUBLIC 279da0 0 ndr_print_srvsvc_NETRDFSCREATEEXITPOINT
PUBLIC 279e80 0 ndr_print_srvsvc_NETRDFSDELETEEXITPOINT
PUBLIC 279f60 0 ndr_print_srvsvc_NETRDFSMODIFYPREFIX
PUBLIC 27a040 0 ndr_print_srvsvc_NETRDFSFIXLOCALVOLUME
PUBLIC 27a120 0 ndr_print_srvsvc_NETRDFSMANAGERREPORTSITEINFO
PUBLIC 27a200 0 ndr_print_srvsvc_NETRSERVERTRANSPORTDELEX
PUBLIC 27a2e0 0 ndr_print_srvsvc_NetShareDelStart
PUBLIC 27a4a0 0 ndr_print_srvsvc_NetShareDelCommit
PUBLIC 27a624 0 ndr_print_srvsvc_NetGetFileSecurity
PUBLIC 27a854 0 ndr_print_srvsvc_NetSetFileSecurity
PUBLIC 2a0e24 0 ndr_print_srvsvc_NetCharDevInfo0
PUBLIC 2a0eb0 0 ndr_print_srvsvc_NetCharDevCtr0
PUBLIC 2a0fb8 0 ndr_print_srvsvc_NetCharDevInfo1
PUBLIC 2a10cc 0 ndr_print_srvsvc_NetCharDevCtr1
PUBLIC 2a11d4 0 ndr_print_srvsvc_NetCharDevInfo
PUBLIC 2a12b4 0 ndr_print_srvsvc_NetCharDevGetInfo
PUBLIC 2a147c 0 ndr_print_srvsvc_NetCharDevCtr
PUBLIC 2a155c 0 ndr_print_srvsvc_NetCharDevInfoCtr
PUBLIC 2a15ec 0 ndr_print_srvsvc_NetCharDevEnum
PUBLIC 2a18ac 0 ndr_print_srvsvc_NetCharDevQInfo0
PUBLIC 2a1938 0 ndr_print_srvsvc_NetCharDevQCtr0
PUBLIC 2a1a40 0 ndr_print_srvsvc_NetCharDevQInfo1
PUBLIC 2a1b6c 0 ndr_print_srvsvc_NetCharDevQCtr1
PUBLIC 2a1c78 0 ndr_print_srvsvc_NetCharDevQInfo
PUBLIC 2a1d58 0 ndr_print_srvsvc_NetCharDevQGetInfo
PUBLIC 2a1f38 0 ndr_print_srvsvc_NetCharDevQSetInfo
PUBLIC 2a216c 0 ndr_print_srvsvc_NetCharDevQCtr
PUBLIC 2a224c 0 ndr_print_srvsvc_NetCharDevQInfoCtr
PUBLIC 2a22dc 0 ndr_print_srvsvc_NetCharDevQEnum
PUBLIC 2a25e8 0 ndr_print_srvsvc_NetConnInfo0
PUBLIC 2a264c 0 ndr_print_srvsvc_NetConnCtr0
PUBLIC 2a2754 0 ndr_print_srvsvc_NetConnInfo1
PUBLIC 2a28a4 0 ndr_print_srvsvc_NetConnCtr1
PUBLIC 2a29b0 0 ndr_print_srvsvc_NetConnCtr
PUBLIC 2a2a90 0 ndr_print_srvsvc_NetConnInfoCtr
PUBLIC 2a2b20 0 ndr_print_srvsvc_NetConnEnum
PUBLIC 2a2e2c 0 ndr_print_srvsvc_NetFileInfo2
PUBLIC 2a2e90 0 ndr_print_srvsvc_NetFileCtr2
PUBLIC 2a2f98 0 ndr_print_srvsvc_NetFileInfo3
PUBLIC 2a30b8 0 ndr_print_srvsvc_NetFileCtr3
PUBLIC 2a31c4 0 ndr_print_srvsvc_NetFileInfo
PUBLIC 2a32a4 0 ndr_print_srvsvc_NetFileGetInfo
PUBLIC 2a346c 0 ndr_print_srvsvc_NetFileCtr
PUBLIC 2a354c 0 ndr_print_srvsvc_NetFileInfoCtr
PUBLIC 2a35dc 0 ndr_print_srvsvc_NetFileEnum
PUBLIC 2a3934 0 ndr_print_srvsvc_NetSessInfo0
PUBLIC 2a39c0 0 ndr_print_srvsvc_NetSessCtr0
PUBLIC 2a3ac8 0 ndr_print_srvsvc_NetSessInfo1
PUBLIC 2a3c0c 0 ndr_print_srvsvc_NetSessCtr1
PUBLIC 2a3d18 0 ndr_print_srvsvc_NetSessInfo2
PUBLIC 2a3e9c 0 ndr_print_srvsvc_NetSessCtr2
PUBLIC 2a3fa8 0 ndr_print_srvsvc_NetSessInfo10
PUBLIC 2a40bc 0 ndr_print_srvsvc_NetSessCtr10
PUBLIC 2a41c4 0 ndr_print_srvsvc_NetSessInfo502
PUBLIC 2a4394 0 ndr_print_srvsvc_NetSessCtr502
PUBLIC 2a449c 0 ndr_print_srvsvc_NetSessCtr
PUBLIC 2a466c 0 ndr_print_srvsvc_NetSessInfoCtr
PUBLIC 2a46fc 0 ndr_print_srvsvc_NetSessEnum
PUBLIC 2a4a54 0 ndr_print_srvsvc_ShareType
PUBLIC 2a4bc4 0 ndr_print_srvsvc_NetShareCheck
PUBLIC 2a4d68 0 ndr_print_srvsvc_NetShareInfo0
PUBLIC 2a4df4 0 ndr_print_srvsvc_NetShareCtr0
PUBLIC 2a4efc 0 ndr_print_srvsvc_NetShareInfo1
PUBLIC 2a4fec 0 ndr_print_srvsvc_NetShareCtr1
PUBLIC 2a50f8 0 ndr_print_srvsvc_NetShareInfo2
PUBLIC 2a52c8 0 ndr_print_srvsvc_NetShareCtr2
PUBLIC 2a53d0 0 ndr_print_srvsvc_NetShareInfo501
PUBLIC 2a54e4 0 ndr_print_srvsvc_NetShareCtr501
PUBLIC 2a55ec 0 ndr_print_srvsvc_NetShareInfo502
PUBLIC 2a57e0 0 ndr_print_srvsvc_NetShareCtr502
PUBLIC 2a58ec 0 ndr_print_srvsvc_NetShareInfo1004
PUBLIC 2a5978 0 ndr_print_srvsvc_NetShareCtr1004
PUBLIC 2a5a80 0 ndr_print_NetShareInfo1005Flags
PUBLIC 2a5af0 0 ndr_print_srvsvc_NetShareInfo1005
PUBLIC 2a5b54 0 ndr_print_srvsvc_NetShareCtr1005
PUBLIC 2a5c5c 0 ndr_print_srvsvc_NetShareInfo1006
PUBLIC 2a5cc0 0 ndr_print_srvsvc_NetShareCtr1006
PUBLIC 2a5dc8 0 ndr_print_srvsvc_NetShareInfo1007
PUBLIC 2a5e6c 0 ndr_print_srvsvc_NetShareCtr1007
PUBLIC 2a5f74 0 ndr_print_srvsvc_NetShareCtr1501
PUBLIC 2a607c 0 ndr_print_srvsvc_NetShareInfo
PUBLIC 2a63e0 0 ndr_print_srvsvc_NetShareAdd
PUBLIC 2a6624 0 ndr_print_srvsvc_NetShareGetInfo
PUBLIC 2a67ec 0 ndr_print_srvsvc_NetShareSetInfo
PUBLIC 2a6a48 0 ndr_print_srvsvc_NetShareCtr
PUBLIC 2a6dac 0 ndr_print_srvsvc_NetShareInfoCtr
PUBLIC 2a6e3c 0 ndr_print_srvsvc_NetShareEnumAll
PUBLIC 2a70fc 0 ndr_print_srvsvc_NetShareEnum
PUBLIC 2a73bc 0 ndr_push_srvsvc_PlatformId
PUBLIC 2a73c4 0 ndr_pull_srvsvc_PlatformId
PUBLIC 2a73ec 0 ndr_print_srvsvc_PlatformId
PUBLIC 2a748c 0 ndr_push_srvsvc_NetSrvInfo100
PUBLIC 2a75b0 0 ndr_pull_srvsvc_NetSrvInfo100
PUBLIC 2a77dc 0 ndr_print_srvsvc_NetSrvInfo100
PUBLIC 2a7880 0 ndr_push_srvsvc_NetSrvInfo101
PUBLIC 2a8ef0 0 ndr_pull_srvsvc_NetSrvInfo101
PUBLIC 2b1ae8 0 ndr_print_srvsvc_NetSrvInfo101
PUBLIC 2b1c20 0 ndr_print_srvsvc_NetSrvInfo102
PUBLIC 2b1e34 0 ndr_print_srvsvc_NetSrvInfo402
PUBLIC 2b21f8 0 ndr_print_srvsvc_NetSrvInfo403
PUBLIC 2b2638 0 ndr_print_srvsvc_NetSrvInfo502
PUBLIC 2b2834 0 ndr_print_srvsvc_NetSrvInfo503
PUBLIC 2b2ca4 0 ndr_print_srvsvc_NetSrvInfo599
PUBLIC 2b324c 0 ndr_print_srvsvc_NetSrvInfo1005
PUBLIC 2b32d8 0 ndr_print_srvsvc_NetSrvInfo1010
PUBLIC 2b333c 0 ndr_print_srvsvc_NetSrvInfo1016
PUBLIC 2b33a0 0 ndr_print_srvsvc_NetSrvInfo1017
PUBLIC 2b3404 0 ndr_print_srvsvc_NetSrvInfo1018
PUBLIC 2b3468 0 ndr_print_srvsvc_NetSrvInfo1107
PUBLIC 2b34cc 0 ndr_print_srvsvc_NetSrvInfo1501
PUBLIC 2b3530 0 ndr_print_srvsvc_NetSrvInfo1502
PUBLIC 2b3594 0 ndr_print_srvsvc_NetSrvInfo1503
PUBLIC 2b35f8 0 ndr_print_srvsvc_NetSrvInfo1506
PUBLIC 2b365c 0 ndr_print_srvsvc_NetSrvInfo1509
PUBLIC 2b36c0 0 ndr_print_srvsvc_NetSrvInfo1510
PUBLIC 2b3724 0 ndr_print_srvsvc_NetSrvInfo1511
PUBLIC 2b3788 0 ndr_print_srvsvc_NetSrvInfo1512
PUBLIC 2b37ec 0 ndr_print_srvsvc_NetSrvInfo1513
PUBLIC 2b3850 0 ndr_print_srvsvc_NetSrvInfo1514
PUBLIC 2b38b4 0 ndr_print_srvsvc_NetSrvInfo1515
PUBLIC 2b3918 0 ndr_print_srvsvc_NetSrvInfo1516
PUBLIC 2b397c 0 ndr_print_srvsvc_NetSrvInfo1518
PUBLIC 2b39e0 0 ndr_print_srvsvc_NetSrvInfo1520
PUBLIC 2b3a44 0 ndr_print_srvsvc_NetSrvInfo1521
PUBLIC 2b3aa8 0 ndr_print_srvsvc_NetSrvInfo1522
PUBLIC 2b3b0c 0 ndr_print_srvsvc_NetSrvInfo1523
PUBLIC 2b3b70 0 ndr_print_srvsvc_NetSrvInfo1524
PUBLIC 2b3bd4 0 ndr_print_srvsvc_NetSrvInfo1525
PUBLIC 2b3c38 0 ndr_print_srvsvc_NetSrvInfo1528
PUBLIC 2b3c9c 0 ndr_print_srvsvc_NetSrvInfo1529
PUBLIC 2b3d00 0 ndr_print_srvsvc_NetSrvInfo1530
PUBLIC 2b3d64 0 ndr_print_srvsvc_NetSrvInfo1533
PUBLIC 2b3dc8 0 ndr_print_srvsvc_NetSrvInfo1534
PUBLIC 2b3e2c 0 ndr_print_srvsvc_NetSrvInfo1535
PUBLIC 2b3e90 0 ndr_print_srvsvc_NetSrvInfo1536
PUBLIC 2b3ef4 0 ndr_print_srvsvc_NetSrvInfo1537
PUBLIC 2b3f58 0 ndr_print_srvsvc_NetSrvInfo1538
PUBLIC 2b3fbc 0 ndr_print_srvsvc_NetSrvInfo1539
PUBLIC 2b4020 0 ndr_print_srvsvc_NetSrvInfo1540
PUBLIC 2b4084 0 ndr_print_srvsvc_NetSrvInfo1541
PUBLIC 2b40e8 0 ndr_print_srvsvc_NetSrvInfo1542
PUBLIC 2b414c 0 ndr_print_srvsvc_NetSrvInfo1543
PUBLIC 2b41b0 0 ndr_print_srvsvc_NetSrvInfo1544
PUBLIC 2b4214 0 ndr_print_srvsvc_NetSrvInfo1545
PUBLIC 2b4278 0 ndr_print_srvsvc_NetSrvInfo1546
PUBLIC 2b42dc 0 ndr_print_srvsvc_NetSrvInfo1547
PUBLIC 2b4340 0 ndr_print_srvsvc_NetSrvInfo1548
PUBLIC 2b43a4 0 ndr_print_srvsvc_NetSrvInfo1549
PUBLIC 2b4408 0 ndr_print_srvsvc_NetSrvInfo1550
PUBLIC 2b446c 0 ndr_print_srvsvc_NetSrvInfo1552
PUBLIC 2b44d0 0 ndr_print_srvsvc_NetSrvInfo1553
PUBLIC 2b4534 0 ndr_print_srvsvc_NetSrvInfo1554
PUBLIC 2b4598 0 ndr_print_srvsvc_NetSrvInfo1555
PUBLIC 2b45fc 0 ndr_print_srvsvc_NetSrvInfo1556
PUBLIC 2b4660 0 ndr_print_srvsvc_NetSrvInfo
PUBLIC 2b5940 0 ndr_print_srvsvc_NetSrvGetInfo
PUBLIC 2b5af0 0 ndr_print_srvsvc_NetSrvSetInfo
PUBLIC 2b5d34 0 ndr_print_srvsvc_NetDiskInfo0
PUBLIC 2b5dec 0 ndr_print_srvsvc_NetDiskInfo
PUBLIC 2b5ef8 0 ndr_print_srvsvc_NetDiskEnum
PUBLIC 2b61d0 0 ndr_print_srvsvc_Statistics
PUBLIC 2b63b4 0 ndr_print_srvsvc_NetServerStatisticsGet
PUBLIC 2b65e4 0 ndr_print_srvsvc_NetTransportInfo0
PUBLIC 2b673c 0 ndr_print_srvsvc_NetTransportDel
PUBLIC 2b68d0 0 ndr_print_srvsvc_NetTransportCtr0
PUBLIC 2b69dc 0 ndr_print_srvsvc_NetTransportInfo1
PUBLIC 2b6b80 0 ndr_print_srvsvc_NetTransportCtr1
PUBLIC 2b6c8c 0 ndr_print_srvsvc_NetTransportInfo2
PUBLIC 2b6e54 0 ndr_print_srvsvc_NetTransportCtr2
PUBLIC 2b6f60 0 ndr_print_srvsvc_NetTransportInfo3
PUBLIC 2b715c 0 ndr_print_srvsvc_NetTransportCtr3
PUBLIC 2b7268 0 ndr_print_srvsvc_NetTransportCtr
PUBLIC 2b73d8 0 ndr_print_srvsvc_NetTransportInfoCtr
PUBLIC 2b7468 0 ndr_print_srvsvc_NetTransportEnum
PUBLIC 2b7728 0 ndr_print_srvsvc_NetRemoteTODInfo
PUBLIC 2b7894 0 ndr_print_srvsvc_NetRemoteTOD
PUBLIC 2b7a3c 0 ndr_print_srvsvc_NetTransportInfo
PUBLIC 2b7b04 0 ndr_print_srvsvc_NetTransportAdd
PUBLIC 2b7c8c 0 ndr_print_srvsvc_NetServerTransportAddEx
PUBLIC 2b7e14 0 ndr_print_eventlog_ClearEventLogW
PUBLIC 2b7f90 0 ndr_print_eventlog_BackupEventLogW
PUBLIC 2b8104 0 ndr_print_eventlog_CloseEventLog
PUBLIC 2b8278 0 ndr_print_eventlog_DeregisterEventSource
PUBLIC 2b83ec 0 ndr_print_eventlog_GetNumRecords
PUBLIC 2b8564 0 ndr_print_eventlog_GetOldestRecord
PUBLIC 2b86dc 0 ndr_print_eventlog_ChangeNotify
PUBLIC 2b87bc 0 ndr_print_eventlog_ClearEventLogA
PUBLIC 2b889c 0 ndr_print_eventlog_BackupEventLogA
PUBLIC 2b897c 0 ndr_print_eventlog_OpenEventLogA
PUBLIC 2b8a5c 0 ndr_print_eventlog_RegisterEventSourceA
PUBLIC 2b8b3c 0 ndr_print_eventlog_OpenBackupEventLogA
PUBLIC 2b8c1c 0 ndr_print_eventlog_ReadEventLogA
PUBLIC 2b8cfc 0 ndr_print_eventlog_ReportEventA
PUBLIC 2b8ddc 0 ndr_print_eventlog_RegisterClusterSvc
PUBLIC 2b8ebc 0 ndr_print_eventlog_DeregisterClusterSvc
PUBLIC 2b8f9c 0 ndr_print_eventlog_WriteClusterEvents
PUBLIC 2b907c 0 ndr_print_eventlog_GetLogInformation
PUBLIC 2b9278 0 ndr_print_eventlog_FlushEventLog
PUBLIC 2bd354 0 ndr_print_eventlogReadFlags
PUBLIC 2bd404 0 ndr_print_eventlog_ReadEventLogW
PUBLIC 2bd660 0 ndr_push_eventlogEventTypes
PUBLIC 2bd66c 0 ndr_push_EVENTLOGRECORD
PUBLIC 2be194 0 ndr_pull_eventlogEventTypes
PUBLIC 2c015c 0 ndr_print_eventlogEventTypes
PUBLIC 2c0230 0 ndr_print_eventlog_ReportEventW
PUBLIC 2c070c 0 ndr_print_eventlog_ReportEventAndSourceW
PUBLIC 2c0c2c 0 ndr_print_eventlog_OpenUnknown0
PUBLIC 2c0ca8 0 ndr_print_eventlog_OpenEventLogW
PUBLIC 2c0ee8 0 ndr_print_eventlog_RegisterEventSourceW
PUBLIC 2c1128 0 ndr_print_eventlog_OpenBackupEventLogW
PUBLIC 2c1324 0 ndr_push_eventlog_Record_tdb
PUBLIC 2c169c 0 ndr_pull_eventlog_Record_tdb
PUBLIC 2c1af0 0 ndr_print_eventlog_Record_tdb
PUBLIC 2c1ea8 0 ndr_print_EVENTLOG_HEADER_FLAGS
PUBLIC 2c1f3c 0 ndr_push_EVENTLOGHEADER
PUBLIC 2c20bc 0 ndr_pull_EVENTLOGHEADER
PUBLIC 2c2234 0 ndr_print_EVENTLOGHEADER
PUBLIC 2c23e4 0 ndr_pull_EVENTLOGRECORD
PUBLIC 2c28e0 0 ndr_print_EVENTLOGRECORD
PUBLIC 2c2c98 0 ndr_size_EVENTLOGRECORD
PUBLIC 2c2ca8 0 ndr_push_EVENTLOGEOF
PUBLIC 2c2de4 0 ndr_pull_EVENTLOGEOF
PUBLIC 2c2f10 0 ndr_print_EVENTLOGEOF
PUBLIC 2c30a4 0 ndr_push_EVENTLOG_EVT_FILE
PUBLIC 2c31a4 0 ndr_pull_EVENTLOG_EVT_FILE
PUBLIC 2c33f8 0 ndr_print_EVENTLOG_EVT_FILE
PUBLIC 2c3500 0 ndr_push_EVENTLOG_FULL_INFORMATION
PUBLIC 2c3554 0 ndr_pull_EVENTLOG_FULL_INFORMATION
PUBLIC 2c35a8 0 ndr_print_EVENTLOG_FULL_INFORMATION
PUBLIC 2c473c 0 ndr_print_netr_GetDcName
PUBLIC 2c4928 0 ndr_print_netr_GetAnyDCName
PUBLIC 2c4b1c 0 ndr_print_netr_NETRLOGONSETSERVICEBITS
PUBLIC 2c4bfc 0 ndr_print_netr_LogonGetTrustRid
PUBLIC 2c4dc8 0 ndr_print_netr_NETRLOGONCOMPUTESERVERDIGEST
PUBLIC 2c4ea8 0 ndr_print_netr_NETRLOGONCOMPUTECLIENTDIGEST
PUBLIC 2c4f88 0 ndr_print_netr_DsRGetSiteName
PUBLIC 2c5130 0 ndr_print_netr_NETRLOGONSENDTOSAM
PUBLIC 2c5210 0 ndr_print_netr_NETRLOGONGETTIMESERVICEPARENTDOMAIN
PUBLIC 2c5de8 0 ndr_print_netr_DsrDeregisterDNSHostRecords
PUBLIC 2c6420 0 ndr_print_netr_Unused47
PUBLIC 2c6500 0 ndr_print_netr_DsRGetForestTrustInformation
PUBLIC 2ca008 0 ndr_push_netr_ChangeLogEntry
PUBLIC 2dc320 0 ndr_print_netr_UasInfo
PUBLIC 2dc5bc 0 ndr_print_netr_LogonUasLogon
PUBLIC 2dc7ec 0 ndr_print_netr_UasLogoffInfo
PUBLIC 2dc868 0 ndr_print_netr_LogonUasLogoff
PUBLIC 2dca6c 0 ndr_push_netr_AcctLockStr
PUBLIC 2dcb08 0 ndr_pull_netr_AcctLockStr
PUBLIC 2dcba4 0 ndr_print_netr_AcctLockStr
PUBLIC 2dcc50 0 ndr_push_netr_LogonParameterControl
PUBLIC 2dcefc 0 ndr_pull_netr_LogonParameterControl
PUBLIC 2dd1c8 0 ndr_print_netr_LogonParameterControl
PUBLIC 2dd458 0 ndr_print_netr_IdentityInfo
PUBLIC 2dd534 0 ndr_print_netr_PasswordInfo
PUBLIC 2dd5c8 0 ndr_print_netr_ChallengeResponse
PUBLIC 2dd6a8 0 ndr_print_netr_NetworkInfo
PUBLIC 2dd76c 0 ndr_print_netr_GenericInfo
PUBLIC 2dd858 0 ndr_print_netr_LogonInfoClass
PUBLIC 2dd918 0 ndr_push_netr_LogonLevel
PUBLIC 2ddbe0 0 ndr_pull_netr_LogonLevel
PUBLIC 2de768 0 ndr_print_netr_LogonLevel
PUBLIC 2de8e4 0 ndr_push_netr_UserSessionKey
PUBLIC 2de95c 0 ndr_pull_netr_UserSessionKey
PUBLIC 2de9d4 0 ndr_print_netr_UserSessionKey
PUBLIC 2dea50 0 ndr_push_netr_LMSessionKey
PUBLIC 2deac8 0 ndr_pull_netr_LMSessionKey
PUBLIC 2deb40 0 ndr_print_netr_LMSessionKey
PUBLIC 2debbc 0 ndr_push_netr_UserFlags
PUBLIC 2def74 0 ndr_pull_netr_UserFlags
PUBLIC 2df444 0 ndr_print_netr_UserFlags
PUBLIC 2df5d4 0 ndr_print_netr_SamBaseInfo
PUBLIC 2df8ec 0 ndr_print_netr_SamInfo2
PUBLIC 2df950 0 ndr_print_netr_SidAttr
PUBLIC 2dfa00 0 ndr_push_netr_SamInfo3
PUBLIC 2dfb3c 0 ndr_pull_netr_SamInfo3
PUBLIC 2dfe78 0 ndr_print_netr_SamInfo3
PUBLIC 2dff98 0 ndr_print_netr_SamInfo6
PUBLIC 2e014c 0 ndr_print_netr_PacInfo
PUBLIC 2e0390 0 ndr_print_netr_GenericInfo2
PUBLIC 2e044c 0 ndr_push_netr_Validation
PUBLIC 2e0e04 0 ndr_pull_netr_Validation
PUBLIC 2e2d00 0 ndr_print_netr_Validation
PUBLIC 2e2ebc 0 ndr_print_netr_LogonSamLogonEx
PUBLIC 2e31f0 0 ndr_push_netr_Credential
PUBLIC 2e3268 0 ndr_push_netr_ServerReqChallenge
PUBLIC 2e3758 0 ndr_pull_netr_Credential
PUBLIC 2e37d0 0 ndr_pull_netr_ServerReqChallenge
PUBLIC 2e4478 0 ndr_print_netr_Credential
PUBLIC 2e44f4 0 ndr_print_netr_ServerReqChallenge
PUBLIC 2e46f8 0 ndr_print_netr_ServerAuthenticate
PUBLIC 2e4958 0 ndr_push_netr_Authenticator
PUBLIC 2e49c4 0 ndr_push_netr_LogonSamLogon
PUBLIC 2e78ac 0 ndr_pull_netr_Authenticator
PUBLIC 2e7918 0 ndr_pull_netr_LogonSamLogon
PUBLIC 2f178c 0 ndr_print_netr_Authenticator
PUBLIC 2f1808 0 ndr_print_netr_LogonSamLogon
PUBLIC 2f1b9c 0 ndr_print_netr_LogonSamLogoff
PUBLIC 2f1e54 0 ndr_print_netr_ServerPasswordSet
PUBLIC 2f20f8 0 ndr_print_netr_ServerPasswordGet
PUBLIC 2f239c 0 ndr_print_netr_ServerTrustPasswordsGet
PUBLIC 2f2684 0 ndr_print_netr_GetForestTrustInformation
PUBLIC 2f291c 0 ndr_print_netr_LogonSamLogonWithFlags
PUBLIC 2f2d34 0 ndr_print_netr_DELTA_DELETE_USER
PUBLIC 2f2e8c 0 ndr_print_netr_USER_KEY16
PUBLIC 2f2f44 0 ndr_print_netr_PasswordHistory
PUBLIC 2f3070 0 ndr_print_netr_USER_KEYS2
PUBLIC 2f3104 0 ndr_print_netr_USER_KEY_UNION
PUBLIC 2f3168 0 ndr_push_netr_USER_KEYS
PUBLIC 2f3324 0 ndr_pull_netr_USER_KEYS
PUBLIC 2f3644 0 ndr_print_netr_USER_KEYS
PUBLIC 2f36c0 0 ndr_print_netr_USER_PRIVATE_INFO
PUBLIC 2f3780 0 ndr_print_netr_DELTA_USER
PUBLIC 2f3b44 0 ndr_print_netr_DELTA_DOMAIN
PUBLIC 2f3d58 0 ndr_print_netr_DELTA_GROUP
PUBLIC 2f3ef4 0 ndr_print_netr_DELTA_RENAME
PUBLIC 2f4030 0 ndr_print_netr_DELTA_GROUP_MEMBER
PUBLIC 2f4254 0 ndr_print_netr_DELTA_ALIAS
PUBLIC 2f43c0 0 ndr_print_netr_DELTA_ALIAS_MEMBER
PUBLIC 2f4484 0 ndr_print_netr_QUOTA_LIMITS
PUBLIC 2f4560 0 ndr_print_netr_DELTA_POLICY
PUBLIC 2f4860 0 ndr_print_netr_DELTA_TRUSTED_DOMAIN
PUBLIC 2f4a7c 0 ndr_print_netr_DELTA_ACCOUNT
PUBLIC 2f4d78 0 ndr_print_netr_CIPHER_VALUE
PUBLIC 2f4e38 0 ndr_print_netr_DELTA_SECRET
PUBLIC 2f4fd4 0 ndr_print_netr_DeltaEnum
PUBLIC 2f51c0 0 ndr_print_netr_DELTA_UNION
PUBLIC 2f5614 0 ndr_print_netr_DELTA_ID_UNION
PUBLIC 2f58b8 0 ndr_print_netr_DELTA_ENUM
PUBLIC 2f5974 0 ndr_print_netr_DELTA_ENUM_ARRAY
PUBLIC 2f5a80 0 ndr_print_netr_DatabaseDeltas
PUBLIC 2f5dfc 0 ndr_print_netr_DatabaseSync
PUBLIC 2f6178 0 ndr_print_netr_UAS_INFO_0
PUBLIC 2f6224 0 ndr_print_netr_AccountBuffer
PUBLIC 2f6288 0 ndr_print_netr_AccountDeltas
PUBLIC 2f6628 0 ndr_print_netr_AccountSync
PUBLIC 2f6a30 0 ndr_print_netr_InfoFlags
PUBLIC 2f6b60 0 ndr_print_netr_NETLOGON_INFO_1
PUBLIC 2f6bdc 0 ndr_print_netr_NETLOGON_INFO_2
PUBLIC 2f6cbc 0 ndr_print_netr_NETLOGON_INFO_3
PUBLIC 2f6db0 0 ndr_print_netr_NETLOGON_INFO_4
PUBLIC 2f6e88 0 ndr_print_netr_CONTROL_QUERY_INFORMATION
PUBLIC 2f6ffc 0 ndr_print_netr_LogonControlCode
PUBLIC 2f71a4 0 ndr_print_netr_LogonControl
PUBLIC 2f736c 0 ndr_print_netr_CONTROL_DATA_INFORMATION
PUBLIC 2f7498 0 ndr_print_netr_LogonControl2
PUBLIC 2f76a8 0 ndr_print_netr_LogonControl2Ex
PUBLIC 2f78b8 0 ndr_push_netr_NegotiateFlags
PUBLIC 2f78c0 0 ndr_push_netr_ServerAuthenticate3
PUBLIC 2f82b4 0 ndr_pull_netr_NegotiateFlags
PUBLIC 2f82dc 0 ndr_pull_netr_ServerAuthenticate3
PUBLIC 2fa038 0 ndr_print_netr_NegotiateFlags
PUBLIC 2fa3a8 0 ndr_print_netr_ServerAuthenticate2
PUBLIC 2fa698 0 ndr_print_netr_ServerAuthenticate3
PUBLIC 2fa9d0 0 ndr_print_SyncStateEnum
PUBLIC 2faab4 0 ndr_print_netr_DatabaseSync2
PUBLIC 2fae48 0 ndr_print_netr_ChangeLogFlags
PUBLIC 2faf18 0 ndr_print_netr_ChangeLogObject
PUBLIC 2faf98 0 ndr_pull_netr_ChangeLogEntry
PUBLIC 2fb9b0 0 ndr_print_netr_ChangeLogEntry
PUBLIC 2fbabc 0 ndr_size_netr_ChangeLogEntry
PUBLIC 2fbacc 0 ndr_print_netr_DatabaseRedo
PUBLIC 2fc0d8 0 ndr_print_netr_Blob
PUBLIC 2fc180 0 ndr_print_netr_NetrEnumerateTrustedDomains
PUBLIC 2fc2fc 0 ndr_print_netr_DsRGetDCName_flags
PUBLIC 2fc5ac 0 ndr_print_netr_DsRGetDCNameInfo_AddressType
PUBLIC 2fc600 0 ndr_print_netr_DsR_DcFlags
PUBLIC 2fc810 0 ndr_push_netr_DsRGetDCNameInfo
PUBLIC 2fd62c 0 ndr_pull_netr_DsRGetDCNameInfo
PUBLIC 2fffa0 0 ndr_print_netr_DsRGetDCNameInfo
PUBLIC 3001f0 0 ndr_print_netr_DsRGetDCName
PUBLIC 3004a0 0 ndr_print_netr_DsRGetDCNameEx
PUBLIC 300750 0 ndr_print_netr_DsRGetDCNameEx2
PUBLIC 300a64 0 ndr_print_netr_Capabilities
PUBLIC 300ad0 0 ndr_print_netr_LogonGetCapabilities
PUBLIC 300d90 0 ndr_print_netr_TrustFlags
PUBLIC 300ec0 0 ndr_print_netr_WorkstationFlags
PUBLIC 300f30 0 ndr_print_netr_SuiteMask
PUBLIC 301100 0 ndr_print_netr_ProductType
PUBLIC 301190 0 ndr_print_netr_LsaPolicyInformation
PUBLIC 301238 0 ndr_print_netr_OsVersionInfoEx
PUBLIC 301398 0 ndr_print_netr_OsVersion
PUBLIC 301468 0 ndr_print_netr_OsVersionContainer
PUBLIC 30155c 0 ndr_print_netr_WorkstationInformation
PUBLIC 301848 0 ndr_print_netr_WorkstationInfo
PUBLIC 301904 0 ndr_print_netr_trust_extension
PUBLIC 301a1c 0 ndr_print_netr_trust_extension_container
PUBLIC 301ae4 0 ndr_print_netr_OneDomainInfo
PUBLIC 301c9c 0 ndr_push_netr_SupportedEncTypes
PUBLIC 302448 0 ndr_pull_netr_SupportedEncTypes
PUBLIC 303934 0 ndr_print_netr_SupportedEncTypes
PUBLIC 303a04 0 ndr_print_netr_DomainInformation
PUBLIC 303c0c 0 ndr_print_netr_DomainInfo
PUBLIC 303d00 0 ndr_print_netr_LogonGetDomainInfo
PUBLIC 304008 0 ndr_print_netr_CryptPassword
PUBLIC 30409c 0 ndr_print_netr_ServerPasswordSet2
PUBLIC 304340 0 ndr_print_netr_DsRAddressToSitenamesWCtr
PUBLIC 304448 0 ndr_print_netr_DsRAddress
PUBLIC 3044fc 0 ndr_print_netr_DsRAddressToSitenamesW
PUBLIC 304754 0 ndr_print_netr_TrustType
PUBLIC 3047d8 0 ndr_print_netr_TrustAttributes
PUBLIC 3048e8 0 ndr_print_netr_DomainTrust
PUBLIC 304a90 0 ndr_print_netr_DomainTrustList
PUBLIC 304b9c 0 ndr_print_netr_NetrEnumerateTrustedDomainsEx
PUBLIC 304d18 0 ndr_print_netr_DsrEnumerateDomainTrusts
PUBLIC 304eb8 0 ndr_print_netr_DsRAddressToSitenamesExWCtr
PUBLIC 305070 0 ndr_print_netr_DsRAddressToSitenamesExW
PUBLIC 3052c8 0 ndr_print_DcSitesCtr
PUBLIC 3053d0 0 ndr_print_netr_DsrGetDcSiteCoverageW
PUBLIC 305578 0 ndr_print_netr_TrustInfo
PUBLIC 305748 0 ndr_print_netr_ServerGetTrustInfo
PUBLIC 305aa0 0 ndr_print_netr_DnsType
PUBLIC 305b80 0 ndr_print_netr_DnsDomainInfoType
PUBLIC 305c3c 0 ndr_print_NL_DNS_NAME_INFO
PUBLIC 305d7c 0 ndr_push_NL_DNS_NAME_INFO_ARRAY
PUBLIC 3061c8 0 ndr_pull_NL_DNS_NAME_INFO_ARRAY
PUBLIC 306f70 0 ndr_print_NL_DNS_NAME_INFO_ARRAY
PUBLIC 307078 0 ndr_print_netr_DsrUpdateReadOnlyServerDnsRecords
PUBLIC 307368 0 ndr_push_netr_SamDatabaseID8Bit
PUBLIC 307384 0 ndr_pull_netr_SamDatabaseID8Bit
PUBLIC 3073ac 0 ndr_print_netr_SamDatabaseID8Bit
PUBLIC 3073b0 0 ndr_push_netr_DeltaEnum8Bit
PUBLIC 3073cc 0 ndr_pull_netr_DeltaEnum8Bit
PUBLIC 3073f4 0 ndr_print_netr_DeltaEnum8Bit
PUBLIC 3073f8 0 ndr_print_dssetup_DsRoleDnsNameToFlatName
PUBLIC 3074d8 0 ndr_print_dssetup_DsRoleDcAsDc
PUBLIC 3075b8 0 ndr_print_dssetup_DsRoleDcAsReplica
PUBLIC 307698 0 ndr_print_dssetup_DsRoleDemoteDc
PUBLIC 307778 0 ndr_print_dssetup_DsRoleGetDcOperationProgress
PUBLIC 307858 0 ndr_print_dssetup_DsRoleGetDcOperationResults
PUBLIC 307938 0 ndr_print_dssetup_DsRoleCancel
PUBLIC 307a18 0 ndr_print_dssetup_DsRoleServerSaveStateForUpgrade
PUBLIC 307af8 0 ndr_print_dssetup_DsRoleUpgradeDownlevelServer
PUBLIC 307bd8 0 ndr_print_dssetup_DsRoleAbortDownlevelServerUpgrade
PUBLIC 308cf0 0 ndr_print_dssetup_DsRole
PUBLIC 308d98 0 ndr_print_dssetup_DsRoleFlags
PUBLIC 308e48 0 ndr_print_dssetup_DsRolePrimaryDomInfoBasic
PUBLIC 308fc0 0 ndr_print_dssetup_DsUpgrade
PUBLIC 309014 0 ndr_print_dssetup_DsPrevious
PUBLIC 30907c 0 ndr_print_dssetup_DsRoleUpgradeStatus
PUBLIC 3090f8 0 ndr_print_dssetup_DsRoleOp
PUBLIC 309160 0 ndr_print_dssetup_DsRoleOpStatus
PUBLIC 3091c4 0 ndr_print_dssetup_DsRoleInfoLevel
PUBLIC 309228 0 ndr_print_dssetup_DsRoleInfo
PUBLIC 3092d4 0 ndr_print_dssetup_DsRoleGetPrimaryDomainInformation
PUBLIC 309440 0 ndr_print_epm_MapAuth
PUBLIC 309520 0 ndr_print_epm_InqObject
PUBLIC 309650 0 ndr_print_epm_LookupHandleFree
PUBLIC 30b78c 0 ndr_pull_epm_Map
PUBLIC 30cc5c 0 ndr_push_epm_Map
PUBLIC 30ce80 0 ndr_print_epm_protocol
PUBLIC 30d0cc 0 ndr_print_epm_rhs_dnet_nsp
PUBLIC 30d0fc 0 ndr_print_epm_rhs_osi_tp4
PUBLIC 30d12c 0 ndr_print_epm_rhs_osi_clns
PUBLIC 30d15c 0 ndr_print_epm_rhs_udp
PUBLIC 30d1c0 0 ndr_print_epm_rhs_tcp
PUBLIC 30d224 0 ndr_print_epm_rhs_ip
PUBLIC 30d288 0 ndr_print_epm_rhs_ncadg
PUBLIC 30d2ec 0 ndr_print_epm_rhs_ncacn
PUBLIC 30d350 0 ndr_print_epm_rhs_uuid
PUBLIC 30d3b4 0 ndr_print_epm_rhs_ipx
PUBLIC 30d3e4 0 ndr_print_epm_rhs_smb
PUBLIC 30d448 0 ndr_print_epm_rhs_named_pipe
PUBLIC 30d4ac 0 ndr_print_epm_rhs_netbios
PUBLIC 30d510 0 ndr_print_epm_rhs_netbeui
PUBLIC 30d540 0 ndr_print_epm_rhs_spx
PUBLIC 30d570 0 ndr_print_epm_rhs_nb_ipx
PUBLIC 30d5a0 0 ndr_print_epm_rhs_http
PUBLIC 30d604 0 ndr_print_epm_rhs_unix_ds
PUBLIC 30d668 0 ndr_print_epm_rhs_null
PUBLIC 30d698 0 ndr_print_epm_rhs_ncalrpc
PUBLIC 30d6fc 0 ndr_print_epm_rhs_appletalk
PUBLIC 30d72c 0 ndr_print_epm_rhs_atalk_stream
PUBLIC 30d75c 0 ndr_print_epm_rhs_atalk_datagram
PUBLIC 30d78c 0 ndr_print_epm_rhs_vines_spp
PUBLIC 30d7f0 0 ndr_print_epm_rhs_vines_ipc
PUBLIC 30d854 0 ndr_print_epm_rhs_streettalk
PUBLIC 30d8b8 0 ndr_print_epm_rhs
PUBLIC 30dc18 0 ndr_print_epm_lhs
PUBLIC 30dc94 0 ndr_print_epm_floor
PUBLIC 30dd24 0 ndr_print_epm_tower
PUBLIC 30de0c 0 ndr_print_epm_twr_t
PUBLIC 30deb4 0 ndr_print_epm_MgmtDelete
PUBLIC 30e050 0 ndr_print_epm_entry_t
PUBLIC 30e16c 0 ndr_print_epm_Insert
PUBLIC 30e30c 0 ndr_print_epm_Delete
PUBLIC 30e488 0 ndr_print_rpc_if_id_t
PUBLIC 30e51c 0 ndr_print_epm_InquiryType
PUBLIC 30e59c 0 ndr_print_epm_VersionOption
PUBLIC 30e630 0 ndr_print_epm_Lookup
PUBLIC 30e958 0 ndr_print_epm_twr_p_t
PUBLIC 30e9e4 0 ndr_print_epm_Map
PUBLIC 30ecdc 0 ndr_print_PNP_Disconnect
PUBLIC 30edbc 0 ndr_print_PNP_Connect
PUBLIC 30ee9c 0 ndr_print_PNP_GetGlobalState
PUBLIC 30ef7c 0 ndr_print_PNP_InitDetection
PUBLIC 30f05c 0 ndr_print_PNP_ReportLogOn
PUBLIC 30f13c 0 ndr_print_PNP_GetRootDeviceInstance
PUBLIC 30f21c 0 ndr_print_PNP_GetRelatedDeviceInstance
PUBLIC 30f2fc 0 ndr_print_PNP_EnumerateSubKeys
PUBLIC 30f3dc 0 ndr_print_PNP_GetDepth
PUBLIC 30f4bc 0 ndr_print_PNP_SetDeviceRegProp
PUBLIC 30f59c 0 ndr_print_PNP_GetClassInstance
PUBLIC 30f67c 0 ndr_print_PNP_CreateKey
PUBLIC 30f75c 0 ndr_print_PNP_DeleteRegistryKey
PUBLIC 30f83c 0 ndr_print_PNP_GetClassCount
PUBLIC 30f91c 0 ndr_print_PNP_GetClassName
PUBLIC 30f9fc 0 ndr_print_PNP_DeleteClassKey
PUBLIC 30fadc 0 ndr_print_PNP_GetInterfaceDeviceAlias
PUBLIC 30fbbc 0 ndr_print_PNP_GetInterfaceDeviceList
PUBLIC 30fc9c 0 ndr_print_PNP_GetInterfaceDeviceListSize
PUBLIC 30fd7c 0 ndr_print_PNP_RegisterDeviceClassAssociation
PUBLIC 30fe5c 0 ndr_print_PNP_UnregisterDeviceClassAssociation
PUBLIC 30ff3c 0 ndr_print_PNP_GetClassRegProp
PUBLIC 31001c 0 ndr_print_PNP_SetClassRegProp
PUBLIC 3100fc 0 ndr_print_PNP_CreateDevInst
PUBLIC 3101dc 0 ndr_print_PNP_DeviceInstanceAction
PUBLIC 3102bc 0 ndr_print_PNP_GetDeviceStatus
PUBLIC 31039c 0 ndr_print_PNP_SetDeviceProblem
PUBLIC 31047c 0 ndr_print_PNP_DisableDevInst
PUBLIC 31055c 0 ndr_print_PNP_UninstallDevInst
PUBLIC 31063c 0 ndr_print_PNP_AddID
PUBLIC 31071c 0 ndr_print_PNP_RegisterDriver
PUBLIC 3107fc 0 ndr_print_PNP_QueryRemove
PUBLIC 3108dc 0 ndr_print_PNP_RequestDeviceEject
PUBLIC 3109bc 0 ndr_print_PNP_IsDockStationPresent
PUBLIC 310a9c 0 ndr_print_PNP_RequestEjectPC
PUBLIC 310b7c 0 ndr_print_PNP_AddEmptyLogConf
PUBLIC 310c5c 0 ndr_print_PNP_FreeLogConf
PUBLIC 310d3c 0 ndr_print_PNP_GetFirstLogConf
PUBLIC 310e1c 0 ndr_print_PNP_GetNextLogConf
PUBLIC 310efc 0 ndr_print_PNP_GetLogConfPriority
PUBLIC 310fdc 0 ndr_print_PNP_AddResDes
PUBLIC 3110bc 0 ndr_print_PNP_FreeResDes
PUBLIC 31119c 0 ndr_print_PNP_GetNextResDes
PUBLIC 31127c 0 ndr_print_PNP_GetResDesData
PUBLIC 31135c 0 ndr_print_PNP_GetResDesDataSize
PUBLIC 31143c 0 ndr_print_PNP_ModifyResDes
PUBLIC 31151c 0 ndr_print_PNP_DetectResourceLimit
PUBLIC 3115fc 0 ndr_print_PNP_QueryResConfList
PUBLIC 3116dc 0 ndr_print_PNP_SetHwProf
PUBLIC 3117bc 0 ndr_print_PNP_QueryArbitratorFreeData
PUBLIC 31189c 0 ndr_print_PNP_QueryArbitratorFreeSize
PUBLIC 31197c 0 ndr_print_PNP_RunDetection
PUBLIC 311a5c 0 ndr_print_PNP_RegisterNotification
PUBLIC 311b3c 0 ndr_print_PNP_UnregisterNotification
PUBLIC 311c1c 0 ndr_print_PNP_GetCustomDevProp
PUBLIC 311cfc 0 ndr_print_PNP_GetVersionInternal
PUBLIC 311ddc 0 ndr_print_PNP_GetBlockedDriverInfo
PUBLIC 311ebc 0 ndr_print_PNP_GetServerSideDeviceInstallFlags
PUBLIC 311f9c 0 ndr_print_PNP_GetVersion
PUBLIC 3120c4 0 ndr_print_PNP_ValidateDeviceInstance
PUBLIC 312218 0 ndr_print_PNP_HwProfFlags
PUBLIC 3125b4 0 ndr_print_PNP_GetDeviceRegProp
PUBLIC 316d60 0 ndr_print_PNP_GetIdListFlags
PUBLIC 316ed4 0 ndr_print_PNP_GetDeviceList
PUBLIC 317160 0 ndr_print_PNP_GetDeviceListSize
PUBLIC 317304 0 ndr_print_PNP_HwProfInfo
PUBLIC 3173e8 0 ndr_print_PNP_GetHwProfInfo
PUBLIC 3175b0 0 ndr_push_spoolss_MonitorInfo2
PUBLIC 317798 0 ndr_print_spoolss_DeletePrinterDriver
PUBLIC 31790c 0 ndr_print_spoolss_AddPrintProcessor
PUBLIC 317a98 0 ndr_print_spoolss_WaitForPrinterChange
PUBLIC 317b78 0 ndr_print_spoolss_AddPort
PUBLIC 317cec 0 ndr_print_spoolss_ConfigurePort
PUBLIC 317dcc 0 ndr_print_spoolss_DeletePort
PUBLIC 317f60 0 ndr_print_spoolss_PlayGDIScriptOnPrinterIC
PUBLIC 318040 0 ndr_print_spoolss_AddPrinterConnection
PUBLIC 318120 0 ndr_print_spoolss_DeletePrinterConnection
PUBLIC 318200 0 ndr_print_spoolss_PrinterMessageBox
PUBLIC 3182e0 0 ndr_print_spoolss_AddMonitor
PUBLIC 3183c0 0 ndr_print_spoolss_DeleteMonitor
PUBLIC 3184a0 0 ndr_print_spoolss_DeletePrintProcessor
PUBLIC 318580 0 ndr_print_spoolss_AddPrintProvidor
PUBLIC 318660 0 ndr_print_spoolss_DeletePrintProvidor
PUBLIC 318740 0 ndr_print_spoolss_FindFirstPrinterChangeNotification
PUBLIC 318820 0 ndr_print_spoolss_FindNextPrinterChangeNotification
PUBLIC 318900 0 ndr_print_spoolss_RouterFindFirstPrinterChangeNotificationOld
PUBLIC 3189e0 0 ndr_print_spoolss_RouterFindFirstPrinterChangeNotification
PUBLIC 318ac0 0 ndr_print_spoolss_SpoolerInit
PUBLIC 318ba0 0 ndr_print_spoolss_ResetPrinterEx
PUBLIC 318c80 0 ndr_print_spoolss_44
PUBLIC 318d60 0 ndr_print_spoolss_4a
PUBLIC 318e40 0 ndr_print_spoolss_4b
PUBLIC 318f20 0 ndr_print_spoolss_4c
PUBLIC 319000 0 ndr_print_spoolss_53
PUBLIC 3190e0 0 ndr_print_spoolss_AddPerMachineConnection
PUBLIC 3192e4 0 ndr_print_spoolss_DeletePerMachineConnection
PUBLIC 319460 0 ndr_print_spoolss_EnumPerMachineConnections
PUBLIC 319540 0 ndr_print_spoolss_5a
PUBLIC 319620 0 ndr_print_spoolss_5b
PUBLIC 319700 0 ndr_print_spoolss_5c
PUBLIC 3197e0 0 ndr_print_spoolss_5d
PUBLIC 3198c0 0 ndr_print_spoolss_5e
PUBLIC 3199a0 0 ndr_print_spoolss_5f
PUBLIC 319a80 0 ndr_print_spoolss_60
PUBLIC 319b60 0 ndr_print_spoolss_61
PUBLIC 319c40 0 ndr_print_spoolss_62
PUBLIC 319d20 0 ndr_print_spoolss_63
PUBLIC 319e00 0 ndr_print_spoolss_64
PUBLIC 319ee0 0 ndr_print_spoolss_65
PUBLIC 319fc0 0 ndr_print_spoolss_67
PUBLIC 31a0a0 0 ndr_print_spoolss_GetPrinterDriverPackagePath
PUBLIC 31a3b0 0 ndr_print_spoolss_69
PUBLIC 31a490 0 ndr_print_spoolss_6a
PUBLIC 31a570 0 ndr_print_spoolss_6b
PUBLIC 31a650 0 ndr_print_spoolss_6c
PUBLIC 31a730 0 ndr_print_spoolss_6d
PUBLIC 31a810 0 ndr_push_spoolss_PortInfoFF
PUBLIC 31a908 0 ndr_push_spoolss_SetPortInfoFF
PUBLIC 31c4f0 0 ndr_push_spoolss_PrinterEnumValues
PUBLIC 31d7b4 0 ndr_pull_spoolss_ClosePrinter
PUBLIC 31db50 0 ndr_pull_spoolss_FindClosePrinterNotify
PUBLIC 31dcdc 0 ndr_pull_spoolss_ReplyClosePrinter
PUBLIC 31fae4 0 ndr_print_spoolss_DeletePrinter
PUBLIC 31fc14 0 ndr_print_spoolss_StartPagePrinter
PUBLIC 31fd44 0 ndr_print_spoolss_WritePrinter
PUBLIC 31ff08 0 ndr_print_spoolss_EndPagePrinter
PUBLIC 320038 0 ndr_print_spoolss_AbortPrinter
PUBLIC 320168 0 ndr_print_spoolss_ReadPrinter
PUBLIC 32034c 0 ndr_print_spoolss_EndDocPrinter
PUBLIC 32047c 0 ndr_print_spoolss_AddJob
PUBLIC 3206d0 0 ndr_print_spoolss_ScheduleJob
PUBLIC 320824 0 ndr_print_spoolss_GetPrinterData
PUBLIC 320a68 0 ndr_print_spoolss_SetPrinterData
PUBLIC 320c34 0 ndr_print_spoolss_ClosePrinter
PUBLIC 320da8 0 ndr_print_spoolss_DeleteForm
PUBLIC 320efc 0 ndr_print_spoolss_DeletePrinterIC
PUBLIC 321070 0 ndr_print_spoolss_FindClosePrinterNotify
PUBLIC 3211a0 0 ndr_print_spoolss_ReplyOpenPrinter
PUBLIC 321380 0 ndr_print_spoolss_ReplyClosePrinter
PUBLIC 3214f4 0 ndr_print_spoolss_EnumPrinterData
PUBLIC 3217b0 0 ndr_print_spoolss_DeletePrinterData
PUBLIC 321904 0 ndr_print_spoolss_SetPrinterDataEx
PUBLIC 321ae8 0 ndr_print_spoolss_GetPrinterDataEx
PUBLIC 321d44 0 ndr_print_spoolss_DeletePrinterDataEx
PUBLIC 321eb0 0 ndr_print_spoolss_DeletePrinterKey
PUBLIC 322004 0 ndr_print_spoolss_XcvData
PUBLIC 3222c4 0 ndr_push_spoolss_GetPrinterData
PUBLIC 3224b0 0 ndr_push_spoolss_ReplyOpenPrinter
PUBLIC 323294 0 ndr_pull_spoolss_GetPrinterData
PUBLIC 323abc 0 ndr_pull_spoolss_ReplyOpenPrinter
PUBLIC 327e98 0 ndr_push_spoolss_JobInfo1
PUBLIC 3282b0 0 ndr_push_spoolss_JobInfo3
PUBLIC 328334 0 ndr_push_spoolss_SetPortInfo2
PUBLIC 328f8c 0 ndr_push_spoolss_DriverDirectoryInfo1
PUBLIC 328ff8 0 ndr_push_spoolss_DriverDirectoryInfo
PUBLIC 329124 0 ndr_push_spoolss_GetPrinterDriverDirectory
PUBLIC 329400 0 ndr_push_spoolss_PrintProcessorDirectoryInfo1
PUBLIC 32946c 0 ndr_push_spoolss_PrintProcessorDirectoryInfo
PUBLIC 329874 0 ndr_push_spoolss_DriverInfo1
PUBLIC 329954 0 ndr_push_spoolss_PrintProcessorInfo1
PUBLIC 329a34 0 ndr_push_spoolss_PortInfo1
PUBLIC 329b14 0 ndr_push_spoolss_MonitorInfo1
PUBLIC 329bf4 0 ndr_push_spoolss_PrintProcDataTypesInfo1
PUBLIC 329ce0 0 ndr_push_spoolss_SetPortInfo3
PUBLIC 32a250 0 ndr_push_spoolss_DeviceMode
PUBLIC 32a654 0 ndr_push_spoolss_JobInfo2
PUBLIC 32ae04 0 ndr_push_spoolss_JobInfo4
PUBLIC 32b5cc 0 ndr_push_spoolss_JobInfo
PUBLIC 32bad0 0 ndr_push_spoolss_PrinterInfo3
PUBLIC 32bf24 0 ndr_push_spoolss_SetPortInfo1
PUBLIC 32c030 0 ndr_push_spoolss_ClosePrinter
PUBLIC 32c0d0 0 ndr_push_spoolss_FindClosePrinterNotify
PUBLIC 32c140 0 ndr_push_spoolss_ReplyClosePrinter
PUBLIC 32cfc0 0 ndr_pull_spoolss_EnumPrinterKey
PUBLIC 32d7ec 0 ndr_push_spoolss_EnumPrinterKey
PUBLIC 32e150 0 ndr_pull_spoolss_RemoteFindFirstPrinterChangeNotifyEx
PUBLIC 32e8b8 0 ndr_push_spoolss_RemoteFindFirstPrinterChangeNotifyEx
PUBLIC 32f3b0 0 ndr_push_spoolss_FormInfo1
PUBLIC 331c28 0 ndr_push_spoolss_PrinterInfo7
PUBLIC 331d20 0 ndr_push_spoolss_PortInfo3
PUBLIC 332250 0 ndr_push_spoolss_RouterRefreshPrinterChangeNotify
PUBLIC 33235c 0 ndr_push_spoolss_OpenPrinter
PUBLIC 332578 0 ndr_push_spoolss_PortInfo2
PUBLIC 332d30 0 ndr_push_spoolss_OpenPrinterEx
PUBLIC 333cf0 0 ndr_push_spoolss_FormInfo2
PUBLIC 334004 0 ndr_push_spoolss_FormInfo
PUBLIC 3354ec 0 ndr_print_spoolss_TimeCtr
PUBLIC 3355b4 0 ndr_print_spoolss_ProcessorArchitecture
PUBLIC 335618 0 ndr_print_spoolss_ProcessorType
PUBLIC 3356cc 0 ndr_print_spoolss_MajorVersion
PUBLIC 335730 0 ndr_print_spoolss_MinorVersion
PUBLIC 3357d0 0 ndr_push_spoolss_PrinterStatus
PUBLIC 3357d8 0 ndr_push_spoolss_PrinterInfo0
PUBLIC 335bbc 0 ndr_push_spoolss_PrinterInfo6
PUBLIC 335c10 0 ndr_pull_spoolss_PrinterStatus
PUBLIC 335c38 0 ndr_print_spoolss_PrinterStatus
PUBLIC 335f88 0 ndr_print_spoolss_JobStatus
PUBLIC 336158 0 ndr_print_spoolss_Build
PUBLIC 3361ac 0 ndr_pull_spoolss_PrinterInfo0
PUBLIC 336814 0 ndr_print_spoolss_PrinterInfo0
PUBLIC 336b80 0 ndr_size_spoolss_PrinterInfo0
PUBLIC 336b90 0 ndr_print_spoolss_DM_Signature
PUBLIC 336c0c 0 ndr_print_spoolss_DM_Layout
PUBLIC 336cc8 0 ndr_print_spoolss_DM_NupDirection
PUBLIC 336d5c 0 ndr_print_spoolss_DM_NupBorderFlags
PUBLIC 336db0 0 ndr_print_spoolss_DM_BookletFlags
PUBLIC 336e04 0 ndr_print_spoolss_DMUNI_Quality
PUBLIC 336e6c 0 ndr_print_spoolss_DMUNI_Flags
PUBLIC 336efc 0 ndr_pull_spoolss_UNIDRVEXTRA
PUBLIC 33711c 0 ndr_size_spoolss_UNIDRVEXTRA
PUBLIC 33712c 0 ndr_push_spoolss_UNIDRVEXTRA
PUBLIC 337330 0 ndr_print_spoolss_UNIDRVEXTRA
PUBLIC 3375d8 0 ndr_print_spoolss_DeviceModeFields
PUBLIC 337988 0 ndr_print_spoolss_DeviceModeSpecVersion
PUBLIC 3379f0 0 ndr_print_spoolss_DeviceModeOrientation
PUBLIC 337a44 0 ndr_print_spoolss_DeviceModePaperSize
PUBLIC 338200 0 ndr_print_spoolss_DeviceModeDefaultSource
PUBLIC 338340 0 ndr_print_spoolss_DeviceModePrintQuality
PUBLIC 3383c8 0 ndr_print_spoolss_DeviceModeColor
PUBLIC 33841c 0 ndr_print_spoolss_DeviceModeDuplex
PUBLIC 338480 0 ndr_print_spoolss_DeviceModeTTOption
PUBLIC 338504 0 ndr_print_spoolss_DeviceModeCollate
PUBLIC 338558 0 ndr_print_spoolss_DeviceModeNUp
PUBLIC 3385ac 0 ndr_print_spoolss_DeviceModeICMMethod
PUBLIC 338630 0 ndr_print_spoolss_DeviceModeICMIntent
PUBLIC 3386b4 0 ndr_print_spoolss_DeviceModeMediaType
PUBLIC 338718 0 ndr_print_spoolss_DeviceModeDitherType
PUBLIC 338814 0 ndr_pull_spoolss_DeviceMode
PUBLIC 3390ac 0 ndr_pull_spoolss_OpenPrinter
PUBLIC 33a248 0 ndr_pull_spoolss_RouterRefreshPrinterChangeNotify
PUBLIC 33a814 0 ndr_pull_spoolss_OpenPrinterEx
PUBLIC 33b748 0 ndr_print_spoolss_DeviceMode
PUBLIC 33baec 0 ndr_size_spoolss_DeviceMode
PUBLIC 33bafc 0 ndr_push_spoolss_EnumPrinterFlags
PUBLIC 33bb04 0 ndr_push_spoolss_PrinterInfo1
PUBLIC 33bd04 0 ndr_pull_spoolss_EnumPrinterFlags
PUBLIC 33bd2c 0 ndr_print_spoolss_EnumPrinterFlags
PUBLIC 33bfbc 0 ndr_push_spoolss_PrinterAttributes
PUBLIC 33bfc4 0 ndr_push_spoolss_PrinterInfo4
PUBLIC 33c140 0 ndr_push_spoolss_PrinterInfo5
PUBLIC 33c2ec 0 ndr_push_spoolss_PrinterInfo
PUBLIC 33c7b0 0 ndr_push_spoolss_GetPrinter
PUBLIC 33eaec 0 ndr_pull_spoolss_PrinterAttributes
PUBLIC 3443e0 0 ndr_print_spoolss_PrinterAttributes
PUBLIC 344610 0 ndr_pull_spoolss_PrinterInfo1
PUBLIC 344bb4 0 ndr_print_spoolss_PrinterInfo1
PUBLIC 344cf0 0 ndr_size_spoolss_PrinterInfo1
PUBLIC 344d00 0 ndr_pull_spoolss_PrinterInfo2
PUBLIC 3465c4 0 ndr_print_spoolss_PrinterInfo2
PUBLIC 346aac 0 ndr_size_spoolss_PrinterInfo2
PUBLIC 346abc 0 ndr_pull_spoolss_PrinterInfo3
PUBLIC 346d10 0 ndr_print_spoolss_PrinterInfo3
PUBLIC 346d9c 0 ndr_size_spoolss_PrinterInfo3
PUBLIC 346dac 0 ndr_pull_spoolss_PrinterInfo4
PUBLIC 347198 0 ndr_print_spoolss_PrinterInfo4
PUBLIC 347294 0 ndr_size_spoolss_PrinterInfo4
PUBLIC 3472a4 0 ndr_pull_spoolss_PrinterInfo5
PUBLIC 3476c0 0 ndr_print_spoolss_PrinterInfo5
PUBLIC 3477ec 0 ndr_size_spoolss_PrinterInfo5
PUBLIC 3477fc 0 ndr_pull_spoolss_PrinterInfo6
PUBLIC 347850 0 ndr_print_spoolss_PrinterInfo6
PUBLIC 3478b4 0 ndr_size_spoolss_PrinterInfo6
PUBLIC 3478c4 0 ndr_print_spoolss_DsPrintAction
PUBLIC 347994 0 ndr_pull_spoolss_PrinterInfo7
PUBLIC 347bd4 0 ndr_print_spoolss_PrinterInfo7
PUBLIC 347c84 0 ndr_size_spoolss_PrinterInfo7
PUBLIC 347c94 0 ndr_print_spoolss_DeviceModeInfo
PUBLIC 347d20 0 ndr_pull_spoolss_PrinterInfo
PUBLIC 3481d4 0 ndr_pull_spoolss_GetPrinter
PUBLIC 348818 0 ndr_print_spoolss_PrinterInfo
PUBLIC 3489a8 0 ndr_print_spoolss_EnumPrinters
PUBLIC 348d10 0 ndr_print_spoolss_GetPrinter
PUBLIC 348f70 0 ndr_size_spoolss_PrinterInfo
PUBLIC 348f8c 0 ndr_print_spoolss_DevmodeContainer
PUBLIC 349048 0 ndr_print_spoolss_CreatePrinterIC
PUBLIC 349200 0 ndr_print_spoolss_ResetPrinter
PUBLIC 3493c0 0 ndr_pull_spoolss_JobInfo1
PUBLIC 349f2c 0 ndr_print_spoolss_JobInfo1
PUBLIC 34a1e8 0 ndr_size_spoolss_JobInfo1
PUBLIC 34a1f8 0 ndr_pull_spoolss_JobInfo2
PUBLIC 34b938 0 ndr_print_spoolss_JobInfo2
PUBLIC 34be1c 0 ndr_size_spoolss_JobInfo2
PUBLIC 34be2c 0 ndr_pull_spoolss_JobInfo3
PUBLIC 34beb0 0 ndr_print_spoolss_JobInfo3
PUBLIC 34bf44 0 ndr_size_spoolss_JobInfo3
PUBLIC 34bf54 0 ndr_pull_spoolss_JobInfo4
PUBLIC 34d6ac 0 ndr_print_spoolss_JobInfo4
PUBLIC 34dba8 0 ndr_size_spoolss_JobInfo4
PUBLIC 34dbb8 0 ndr_pull_spoolss_JobInfo
PUBLIC 34e440 0 ndr_print_spoolss_JobInfo
PUBLIC 34e51c 0 ndr_print_spoolss_GetJob
PUBLIC 34e794 0 ndr_print_spoolss_EnumJobs
PUBLIC 34eb10 0 ndr_size_spoolss_JobInfo
PUBLIC 34eb2c 0 ndr_print_spoolss_SetJobInfo1
PUBLIC 34ede8 0 ndr_print_spoolss_SetJobInfo2
PUBLIC 34f264 0 ndr_print_spoolss_SetJobInfo4
PUBLIC 34f6f8 0 ndr_push_spoolss_SetJobInfo
PUBLIC 351094 0 ndr_pull_spoolss_SetJobInfo
PUBLIC 3537f8 0 ndr_print_spoolss_SetJobInfo
PUBLIC 35396c 0 ndr_print_spoolss_JobInfoContainer
PUBLIC 3539fc 0 ndr_print_spoolss_JobControl
PUBLIC 353ae4 0 ndr_print_spoolss_SetJob
PUBLIC 353c9c 0 ndr_print_spoolss_PrinterControl
PUBLIC 353d30 0 ndr_print_spoolss_SetPrinterInfo0
PUBLIC 35409c 0 ndr_print_spoolss_SetPrinterInfo1
PUBLIC 3541d8 0 ndr_print_spoolss_SetPrinterInfo2
PUBLIC 354658 0 ndr_print_spoolss_SetPrinterInfo3
PUBLIC 3546bc 0 ndr_print_spoolss_SetPrinterInfo4
PUBLIC 3547b8 0 ndr_print_spoolss_SetPrinterInfo5
PUBLIC 3548e4 0 ndr_print_spoolss_SetPrinterInfo6
PUBLIC 354948 0 ndr_print_spoolss_SetPrinterInfo7
PUBLIC 3549f8 0 ndr_print_spoolss_SetPrinterInfo8
PUBLIC 354a5c 0 ndr_print_spoolss_SetPrinterInfo9
PUBLIC 354ac0 0 ndr_print_spoolss_SetPrinterInfo
PUBLIC 354de0 0 ndr_print_spoolss_SetPrinterInfoCtr
PUBLIC 354e70 0 ndr_print_spoolss_AddPrinter
PUBLIC 3550b8 0 ndr_print_spoolss_SetPrinter
PUBLIC 3552d8 0 ndr_push_spoolss_StringArray
PUBLIC 35536c 0 ndr_pull_spoolss_StringArray
PUBLIC 3553f0 0 ndr_print_spoolss_StringArray
PUBLIC 355488 0 ndr_print_spoolss_AddDriverInfo1
PUBLIC 355514 0 ndr_push_spoolss_DriverOSVersion
PUBLIC 35551c 0 ndr_push_spoolss_DriverInfo2
PUBLIC 355824 0 ndr_push_spoolss_DriverInfo3
PUBLIC 355d3c 0 ndr_push_spoolss_DriverInfo4
PUBLIC 3562d8 0 ndr_push_spoolss_DriverInfo5
PUBLIC 356628 0 ndr_push_spoolss_DriverInfo6
PUBLIC 356e08 0 ndr_push_spoolss_DriverInfo7
PUBLIC 357020 0 ndr_push_spoolss_DriverInfo8
PUBLIC 357ae0 0 ndr_push_spoolss_DriverInfo
PUBLIC 357fa4 0 ndr_push_spoolss_GetPrinterDriver2
PUBLIC 35b1d8 0 ndr_push_spoolss_AddPrinterDriverEx
PUBLIC 35b328 0 ndr_pull_spoolss_DriverOSVersion
PUBLIC 3622c8 0 ndr_pull_spoolss_AddPrinterDriverEx
PUBLIC 362624 0 ndr_print_spoolss_DriverOSVersion
PUBLIC 3626a4 0 ndr_print_spoolss_AddDriverInfo2
PUBLIC 362878 0 ndr_print_spoolss_AddDriverInfo3
PUBLIC 362bb0 0 ndr_print_spoolss_AddDriverInfo4
PUBLIC 362f68 0 ndr_print_spoolss_DriverAttributes
PUBLIC 362fb8 0 ndr_print_spoolss_AddDriverInfo6
PUBLIC 3634d0 0 ndr_print_spoolss_AddDriverInfo8
PUBLIC 363c20 0 ndr_print_spoolss_AddDriverInfo
PUBLIC 363e40 0 ndr_print_spoolss_AddDriverInfoCtr
PUBLIC 363ed0 0 ndr_print_spoolss_AddPrinterDriver
PUBLIC 36404c 0 ndr_pull_spoolss_DriverInfo1
PUBLIC 36426c 0 ndr_print_spoolss_DriverInfo1
PUBLIC 3642f8 0 ndr_size_spoolss_DriverInfo1
PUBLIC 364308 0 ndr_pull_spoolss_DriverInfo2
PUBLIC 364c14 0 ndr_print_spoolss_DriverInfo2
PUBLIC 364de8 0 ndr_size_spoolss_DriverInfo2
PUBLIC 364df8 0 ndr_pull_spoolss_DriverInfo3
PUBLIC 365dd4 0 ndr_print_spoolss_DriverInfo3
PUBLIC 3660d8 0 ndr_size_spoolss_DriverInfo3
PUBLIC 3660e8 0 ndr_pull_spoolss_DriverInfo4
PUBLIC 367278 0 ndr_print_spoolss_DriverInfo4
PUBLIC 3675c8 0 ndr_size_spoolss_DriverInfo4
PUBLIC 3675d8 0 ndr_pull_spoolss_DriverInfo5
PUBLIC 367f34 0 ndr_print_spoolss_DriverInfo5
PUBLIC 36815c 0 ndr_size_spoolss_DriverInfo5
PUBLIC 36816c 0 ndr_pull_spoolss_DriverInfo6
PUBLIC 369adc 0 ndr_print_spoolss_DriverInfo6
PUBLIC 369f8c 0 ndr_size_spoolss_DriverInfo6
PUBLIC 369f9c 0 ndr_pull_spoolss_DriverInfo7
PUBLIC 36a558 0 ndr_print_spoolss_DriverInfo7
PUBLIC 36a6ac 0 ndr_size_spoolss_DriverInfo7
PUBLIC 36a6bc 0 ndr_pull_spoolss_DriverInfo8
PUBLIC 36c94c 0 ndr_print_spoolss_DriverInfo8
PUBLIC 36cfcc 0 ndr_size_spoolss_DriverInfo8
PUBLIC 36cfdc 0 ndr_print_spoolss_DriverFileType
PUBLIC 36d070 0 ndr_push_spoolss_DriverFileInfo
PUBLIC 36d180 0 ndr_pull_spoolss_DriverFileInfo
PUBLIC 36d3d8 0 ndr_print_spoolss_DriverFileInfo
PUBLIC 36d4a0 0 ndr_print_spoolss_DriverInfo101
PUBLIC 36d8a0 0 ndr_size_spoolss_DriverInfo101
PUBLIC 36d8b0 0 ndr_pull_spoolss_DriverInfo
PUBLIC 36dd64 0 ndr_pull_spoolss_GetPrinterDriver2
PUBLIC 36f0bc 0 ndr_print_spoolss_DriverInfo
PUBLIC 36f250 0 ndr_print_spoolss_EnumPrinterDrivers
PUBLIC 36f5f0 0 ndr_print_spoolss_GetPrinterDriver
PUBLIC 36f89c 0 ndr_print_spoolss_GetPrinterDriver2
PUBLIC 36fc08 0 ndr_size_spoolss_DriverInfo
PUBLIC 36fc24 0 ndr_pull_spoolss_DriverDirectoryInfo1
PUBLIC 36fc90 0 ndr_print_spoolss_DriverDirectoryInfo1
PUBLIC 36fcf4 0 ndr_size_spoolss_DriverDirectoryInfo1
PUBLIC 36fd04 0 ndr_pull_spoolss_DriverDirectoryInfo
PUBLIC 36fe24 0 ndr_pull_spoolss_GetPrinterDriverDirectory
PUBLIC 370698 0 ndr_print_spoolss_DriverDirectoryInfo
PUBLIC 370710 0 ndr_print_spoolss_GetPrinterDriverDirectory
PUBLIC 3709c4 0 ndr_size_spoolss_DriverDirectoryInfo
PUBLIC 3709e0 0 ndr_pull_spoolss_PrintProcessorInfo1
PUBLIC 370c00 0 ndr_print_spoolss_PrintProcessorInfo1
PUBLIC 370c8c 0 ndr_size_spoolss_PrintProcessorInfo1
PUBLIC 370c9c 0 ndr_push_spoolss_PrintProcessorInfo
PUBLIC 370da0 0 ndr_pull_spoolss_PrintProcessorInfo
PUBLIC 370e94 0 ndr_print_spoolss_PrintProcessorInfo
PUBLIC 370f04 0 ndr_print_spoolss_EnumPrintProcessors
PUBLIC 3712a0 0 ndr_pull_spoolss_PrintProcessorDirectoryInfo1
PUBLIC 37130c 0 ndr_print_spoolss_PrintProcessorDirectoryInfo1
PUBLIC 371370 0 ndr_size_spoolss_PrintProcessorDirectoryInfo1
PUBLIC 371380 0 ndr_pull_spoolss_PrintProcessorDirectoryInfo
PUBLIC 371d14 0 ndr_print_spoolss_PrintProcessorDirectoryInfo
PUBLIC 371d8c 0 ndr_print_spoolss_GetPrintProcessorDirectory
PUBLIC 372040 0 ndr_size_spoolss_PrintProcessorDirectoryInfo
PUBLIC 37205c 0 ndr_print_spoolss_DocumentInfo1
PUBLIC 372180 0 ndr_print_spoolss_DocumentInfo
PUBLIC 372210 0 ndr_print_spoolss_StartDocPrinter
PUBLIC 3723d8 0 ndr_pull_spoolss_OSVersion
PUBLIC 372500 0 ndr_size_spoolss_OSVersion
PUBLIC 372510 0 ndr_push_spoolss_OSVersion
PUBLIC 372644 0 ndr_print_spoolss_OSVersion
PUBLIC 372744 0 ndr_pull_spoolss_OSVersionEx
PUBLIC 3728e8 0 ndr_size_spoolss_OSVersionEx
PUBLIC 3728f8 0 ndr_push_spoolss_OSVersionEx
PUBLIC 372aa8 0 ndr_print_spoolss_OSVersionEx
PUBLIC 372c20 0 ndr_push_spoolss_PrinterData
PUBLIC 372d34 0 ndr_pull_spoolss_PrinterData
PUBLIC 372e30 0 ndr_print_spoolss_PrinterData
PUBLIC 372f1c 0 ndr_print_spoolss_FormFlags
PUBLIC 372f84 0 ndr_print_spoolss_FormSize
PUBLIC 373000 0 ndr_print_spoolss_FormArea
PUBLIC 3730ac 0 ndr_pull_spoolss_FormInfo1
PUBLIC 373308 0 ndr_print_spoolss_FormInfo1
PUBLIC 3733e8 0 ndr_size_spoolss_FormInfo1
PUBLIC 3733f8 0 ndr_print_spoolss_FormStringType
PUBLIC 373488 0 ndr_pull_spoolss_FormInfo2
PUBLIC 373c7c 0 ndr_print_spoolss_FormInfo2
PUBLIC 373ea0 0 ndr_size_spoolss_FormInfo2
PUBLIC 373eb0 0 ndr_pull_spoolss_FormInfo
PUBLIC 374718 0 ndr_print_spoolss_FormInfo
PUBLIC 3747ac 0 ndr_print_spoolss_GetForm
PUBLIC 374a24 0 ndr_print_spoolss_EnumForms
PUBLIC 374d70 0 ndr_size_spoolss_FormInfo
PUBLIC 374d8c 0 ndr_print_spoolss_AddFormInfo1
PUBLIC 374e6c 0 ndr_print_spoolss_AddFormInfo2
PUBLIC 375078 0 ndr_print_spoolss_AddFormInfo
PUBLIC 37516c 0 ndr_print_spoolss_AddForm
PUBLIC 3752ec 0 ndr_print_spoolss_SetForm
PUBLIC 375484 0 ndr_pull_spoolss_PortInfo1
PUBLIC 3756a4 0 ndr_print_spoolss_PortInfo1
PUBLIC 375730 0 ndr_size_spoolss_PortInfo1
PUBLIC 375740 0 ndr_print_spoolss_PortType
PUBLIC 3757f0 0 ndr_pull_spoolss_PortInfo2
PUBLIC 375db4 0 ndr_print_spoolss_PortInfo2
PUBLIC 375f14 0 ndr_size_spoolss_PortInfo2
PUBLIC 375f24 0 ndr_print_spoolss_PortStatus
PUBLIC 376058 0 ndr_print_spoolss_PortSeverity
PUBLIC 3760bc 0 ndr_pull_spoolss_PortInfo3
PUBLIC 376324 0 ndr_print_spoolss_PortInfo3
PUBLIC 3763ec 0 ndr_size_spoolss_PortInfo3
PUBLIC 3763fc 0 ndr_pull_spoolss_PortInfoFF
PUBLIC 376634 0 ndr_print_spoolss_PortInfoFF
PUBLIC 3766e4 0 ndr_size_spoolss_PortInfoFF
PUBLIC 3766f4 0 ndr_push_spoolss_PortInfo
PUBLIC 37696c 0 ndr_pull_spoolss_PortInfo
PUBLIC 376bd4 0 ndr_print_spoolss_PortInfo
PUBLIC 376cb4 0 ndr_print_spoolss_EnumPorts
PUBLIC 377008 0 ndr_pull_spoolss_MonitorInfo1
PUBLIC 377228 0 ndr_print_spoolss_MonitorInfo1
PUBLIC 3772b4 0 ndr_size_spoolss_MonitorInfo1
PUBLIC 3772c4 0 ndr_pull_spoolss_MonitorInfo2
PUBLIC 377850 0 ndr_print_spoolss_MonitorInfo2
PUBLIC 377974 0 ndr_size_spoolss_MonitorInfo2
PUBLIC 377984 0 ndr_push_spoolss_MonitorInfo
PUBLIC 377b04 0 ndr_pull_spoolss_MonitorInfo
PUBLIC 377c74 0 ndr_print_spoolss_MonitorInfo
PUBLIC 377d08 0 ndr_print_spoolss_EnumMonitors
PUBLIC 37805c 0 ndr_pull_spoolss_SetPortInfo1
PUBLIC 37826c 0 ndr_print_spoolss_SetPortInfo1
PUBLIC 3782f8 0 ndr_size_spoolss_SetPortInfo1
PUBLIC 378308 0 ndr_pull_spoolss_SetPortInfo2
PUBLIC 3788d0 0 ndr_print_spoolss_SetPortInfo2
PUBLIC 378a30 0 ndr_size_spoolss_SetPortInfo2
PUBLIC 378a40 0 ndr_pull_spoolss_SetPortInfo3
PUBLIC 378c98 0 ndr_print_spoolss_SetPortInfo3
PUBLIC 378d60 0 ndr_size_spoolss_SetPortInfo3
PUBLIC 378d70 0 ndr_pull_spoolss_SetPortInfoFF
PUBLIC 378f98 0 ndr_print_spoolss_SetPortInfoFF
PUBLIC 379048 0 ndr_size_spoolss_SetPortInfoFF
PUBLIC 379058 0 ndr_print_spoolss_SetPortInfoContainer
PUBLIC 3790e8 0 ndr_print_spoolss_SetPort
PUBLIC 3792b0 0 ndr_pull_spoolss_PrintProcDataTypesInfo1
PUBLIC 3794d0 0 ndr_print_spoolss_PrintProcDataTypesInfo1
PUBLIC 37955c 0 ndr_size_spoolss_PrintProcDataTypesInfo1
PUBLIC 37956c 0 ndr_push_spoolss_PrintProcDataTypesInfo
PUBLIC 379670 0 ndr_pull_spoolss_PrintProcDataTypesInfo
PUBLIC 379764 0 ndr_print_spoolss_PrintProcDataTypesInfo
PUBLIC 3797d4 0 ndr_print_spoolss_EnumPrintProcDataTypes
PUBLIC 379b70 0 ndr_print_spoolss_PrinterChangeFlags
PUBLIC 379e40 0 ndr_print_spoolss_RouterReplyPrinter
PUBLIC 379ff0 0 ndr_print_spoolss_PortVarContainer
PUBLIC 37a098 0 ndr_print_spoolss_AddPortEx
PUBLIC 37a2a4 0 ndr_push_spoolss_JobNotifyField
PUBLIC 37a2b0 0 ndr_pull_spoolss_JobNotifyField
PUBLIC 37a2d8 0 ndr_print_spoolss_JobNotifyField
PUBLIC 37a4e8 0 ndr_push_spoolss_PrintNotifyField
PUBLIC 37a4f4 0 ndr_pull_spoolss_PrintNotifyField
PUBLIC 37a51c 0 ndr_print_spoolss_PrintNotifyField
PUBLIC 37a77c 0 ndr_print_spoolss_NotifyType
PUBLIC 37a7d0 0 ndr_print_spoolss_NotifyOptionType
PUBLIC 37a950 0 ndr_print_spoolssNotifyOptionFlags
PUBLIC 37a9a0 0 ndr_print_spoolss_NotifyOption
PUBLIC 37aae8 0 ndr_print_spoolss_RemoteFindFirstPrinterChangeNotifyEx
PUBLIC 37acf8 0 ndr_print_spoolss_NotifyString
PUBLIC 37ad9c 0 ndr_print_spoolss_NotifyTable
PUBLIC 37ae34 0 ndr_print_spoolss_NotifyData
PUBLIC 37af7c 0 ndr_print_spoolss_Notify
PUBLIC 37b068 0 ndr_print_spoolss_NotifyInfo
PUBLIC 37b178 0 ndr_print_spoolss_RouterRefreshPrinterChangeNotify
PUBLIC 37b37c 0 ndr_print_spoolss_ReplyPrinterInfo
PUBLIC 37b420 0 ndr_print_spoolss_PrinterNotifyFlags
PUBLIC 37b4b0 0 ndr_print_spoolss_RouterReplyPrinterEx
PUBLIC 37b6a8 0 ndr_print_spoolss_UserLevel1
PUBLIC 37b804 0 ndr_print_spoolss_UserLevel2
PUBLIC 37b868 0 ndr_print_spoolss_UserLevel3
PUBLIC 37ba0c 0 ndr_print_spoolss_UserLevel
PUBLIC 37bb48 0 ndr_print_spoolss_UserLevelCtr
PUBLIC 37bbd8 0 ndr_print_spoolss_AddPrinterEx
PUBLIC 37be64 0 ndr_print_spoolss_AccessRights
PUBLIC 37bf54 0 ndr_print_spoolss_OpenPrinter
PUBLIC 37c158 0 ndr_print_spoolss_OpenPrinterEx
PUBLIC 37c3a0 0 ndr_pull_spoolss_PrinterEnumValues
PUBLIC 37c850 0 ndr_print_spoolss_PrinterEnumValues
PUBLIC 37c9b0 0 ndr_print_spoolss_EnumPrinterDataEx
PUBLIC 37cc90 0 ndr_size_spoolss_PrinterEnumValues
PUBLIC 37cca0 0 ndr_print_spoolss_KeyNames
PUBLIC 37ccfc 0 ndr_print_spoolss_EnumPrinterKey
PUBLIC 37cf50 0 ndr_push_spoolss_DeleteDriverFlags
PUBLIC 37d1a0 0 ndr_pull_spoolss_DeleteDriverFlags
PUBLIC 37d550 0 ndr_print_spoolss_DeleteDriverFlags
PUBLIC 37d5e0 0 ndr_print_spoolss_DeletePrinterDriverEx
PUBLIC 37d784 0 ndr_print_spoolss_PortProtocol
PUBLIC 37d7d8 0 ndr_push_spoolss_PortData1
PUBLIC 37d9e0 0 ndr_pull_spoolss_PortData1
PUBLIC 37dbe4 0 ndr_print_spoolss_PortData1
PUBLIC 37ddb0 0 ndr_push_spoolss_PortData2
PUBLIC 37df88 0 ndr_pull_spoolss_PortData2
PUBLIC 37e15c 0 ndr_print_spoolss_PortData2
PUBLIC 37e310 0 ndr_push_spoolss_MonitorUi
PUBLIC 37e37c 0 ndr_pull_spoolss_MonitorUi
PUBLIC 37e3e8 0 ndr_print_spoolss_MonitorUi
PUBLIC 37e44c 0 ndr_print_spoolss_AddPrinterDriverExFlags
PUBLIC 37e57c 0 ndr_print_spoolss_AddPrinterDriverEx
PUBLIC 37e71c 0 ndr_print_spoolss_CorePrinterDriver
PUBLIC 37e7c8 0 ndr_print_spoolss_GetCorePrinterDrivers
PUBLIC 37ea60 0 ndr_push__spoolss_EnumPrinters
PUBLIC 37eca0 0 ndr_pull__spoolss_EnumPrinters
PUBLIC 37f4b4 0 ndr_push___spoolss_EnumPrinters
PUBLIC 37f594 0 ndr_pull___spoolss_EnumPrinters
PUBLIC 37f774 0 ndr_push__spoolss_EnumJobs
PUBLIC 37f92c 0 ndr_pull__spoolss_EnumJobs
PUBLIC 3800e0 0 ndr_push___spoolss_EnumJobs
PUBLIC 3801c8 0 ndr_pull___spoolss_EnumJobs
PUBLIC 3803b0 0 ndr_push__spoolss_EnumPrinterDrivers
PUBLIC 380684 0 ndr_pull__spoolss_EnumPrinterDrivers
PUBLIC 381038 0 ndr_push___spoolss_EnumPrinterDrivers
PUBLIC 381120 0 ndr_pull___spoolss_EnumPrinterDrivers
PUBLIC 381308 0 ndr_push__spoolss_EnumPrintProcessors
PUBLIC 3815dc 0 ndr_pull__spoolss_EnumPrintProcessors
PUBLIC 381f90 0 ndr_push___spoolss_EnumPrintProcessors
PUBLIC 382070 0 ndr_pull___spoolss_EnumPrintProcessors
PUBLIC 382250 0 ndr_push__spoolss_EnumForms
PUBLIC 3823d8 0 ndr_pull__spoolss_EnumForms
PUBLIC 382b5c 0 ndr_push___spoolss_EnumForms
PUBLIC 382c44 0 ndr_pull___spoolss_EnumForms
PUBLIC 382e2c 0 ndr_push__spoolss_EnumPorts
PUBLIC 383054 0 ndr_pull__spoolss_EnumPorts
PUBLIC 38384c 0 ndr_push___spoolss_EnumPorts
PUBLIC 383934 0 ndr_pull___spoolss_EnumPorts
PUBLIC 383b1c 0 ndr_push__spoolss_EnumMonitors
PUBLIC 383d44 0 ndr_pull__spoolss_EnumMonitors
PUBLIC 38453c 0 ndr_push___spoolss_EnumMonitors
PUBLIC 384624 0 ndr_pull___spoolss_EnumMonitors
PUBLIC 38480c 0 ndr_push__spoolss_EnumPrintProcDataTypes
PUBLIC 384ae0 0 ndr_pull__spoolss_EnumPrintProcDataTypes
PUBLIC 385494 0 ndr_push___spoolss_EnumPrintProcDataTypes
PUBLIC 385574 0 ndr_pull___spoolss_EnumPrintProcDataTypes
PUBLIC 385754 0 ndr_push__spoolss_EnumPrinterDataEx
PUBLIC 38590c 0 ndr_pull__spoolss_EnumPrinterDataEx
PUBLIC 385f14 0 ndr_push___spoolss_EnumPrinterDataEx
PUBLIC 385fc4 0 ndr_pull___spoolss_EnumPrinterDataEx
PUBLIC 386174 0 ndr_push_spoolss_EnumPrinters
PUBLIC 3863e4 0 ndr_pull_spoolss_EnumPrinters
PUBLIC 3867f4 0 ndr_size_spoolss_EnumPrinters_info
PUBLIC 386860 0 ndr_push_spoolss_EnumJobs
PUBLIC 386ae0 0 ndr_pull_spoolss_EnumJobs
PUBLIC 386f08 0 ndr_size_spoolss_EnumJobs_info
PUBLIC 386f74 0 ndr_push_spoolss_EnumPrinterDrivers
PUBLIC 3871e4 0 ndr_pull_spoolss_EnumPrinterDrivers
PUBLIC 3875f4 0 ndr_size_spoolss_EnumPrinterDrivers_info
PUBLIC 387660 0 ndr_push_spoolss_EnumForms
PUBLIC 3878c0 0 ndr_pull_spoolss_EnumForms
PUBLIC 387cbc 0 ndr_size_spoolss_EnumForms_info
PUBLIC 387d28 0 ndr_push_spoolss_EnumPorts
PUBLIC 387f88 0 ndr_pull_spoolss_EnumPorts
PUBLIC 388384 0 ndr_size_spoolss_EnumPorts_info
PUBLIC 3883f0 0 ndr_push_spoolss_EnumMonitors
PUBLIC 388650 0 ndr_pull_spoolss_EnumMonitors
PUBLIC 388a4c 0 ndr_size_spoolss_EnumMonitors_info
PUBLIC 388ab8 0 ndr_push_spoolss_EnumPrintProcessors
PUBLIC 388d28 0 ndr_pull_spoolss_EnumPrintProcessors
PUBLIC 389138 0 ndr_size_spoolss_EnumPrintProcessors_info
PUBLIC 3891a4 0 ndr_push_spoolss_EnumPrintProcDataTypes
PUBLIC 389414 0 ndr_pull_spoolss_EnumPrintProcDataTypes
PUBLIC 389824 0 ndr_size_spoolss_EnumPrintProcDataTypes_info
PUBLIC 389890 0 ndr_push_spoolss_EnumPrinterDataEx
PUBLIC 389a30 0 ndr_pull_spoolss_EnumPrinterDataEx
PUBLIC 389dcc 0 ndr_size_spoolss_EnumPrinterDataEx_info
PUBLIC 389e28 0 _ndr_size_spoolss_DeviceMode
PUBLIC 389e34 0 ndr_size_spoolss_StringArray
PUBLIC 389e54 0 ndr_push_spoolss_DriverInfo101
PUBLIC 38a478 0 ndr_pull_spoolss_DriverInfo101
PUBLIC 38b7c4 0 ndr_print_spoolss_Field
PUBLIC 38b858 0 ndr_size_spoolss_PrinterData
PUBLIC 38b87c 0 ndr_print_spoolss_security_descriptor
PUBLIC 38b880 0 ndr_pull_spoolss_security_descriptor
PUBLIC 38b8b8 0 ndr_push_spoolss_security_descriptor
PUBLIC 38bad4 0 ndr_push_spoolss_PrinterInfo2
PUBLIC 38c2b0 0 ndr_print_spoolss_Time
PUBLIC 38c390 0 ndr_spoolss_PrinterEnumValues_align
PUBLIC 38c3b8 0 pdb_is_password_change_time_max
PUBLIC 38c3e4 0 pdb_password_change_time_max
PUBLIC 38c3ec 0 pdb_get_acct_ctrl
PUBLIC 38c3f4 0 pdb_get_logon_time
PUBLIC 38c3fc 0 pdb_get_logoff_time
PUBLIC 38c404 0 pdb_get_kickoff_time
PUBLIC 38c40c 0 pdb_get_bad_password_time
PUBLIC 38c414 0 pdb_get_pass_last_set_time
PUBLIC 38c41c 0 pdb_get_pass_can_change_time_noncalc
PUBLIC 38c424 0 pdb_get_pass_must_change_time
PUBLIC 38c484 0 pdb_get_pass_can_change
PUBLIC 38c49c 0 pdb_get_logon_divs
PUBLIC 38c4a4 0 pdb_get_hours_len
PUBLIC 38c4ac 0 pdb_get_hours
PUBLIC 38c4b4 0 pdb_get_nt_passwd
PUBLIC 38c550 0 pdb_get_lanman_passwd
PUBLIC 38c5f0 0 pdb_get_pw_history
PUBLIC 38c6a0 0 pdb_get_plaintext_passwd
PUBLIC 38c6a8 0 pdb_get_user_sid
PUBLIC 38c6b0 0 pdb_get_init_flags
PUBLIC 38c848 0 pdb_get_pass_can_change_time
PUBLIC 38c8ac 0 pdb_get_username
PUBLIC 38c8b4 0 pdb_get_group_sid
PUBLIC 38c8f8 0 pdb_get_domain
PUBLIC 38c900 0 pdb_get_nt_username
PUBLIC 38c908 0 pdb_get_fullname
PUBLIC 38c910 0 pdb_get_homedir
PUBLIC 38c918 0 pdb_get_dir_drive
PUBLIC 38c920 0 pdb_get_logon_script
PUBLIC 38c928 0 pdb_get_profile_path
PUBLIC 38c930 0 pdb_get_acct_desc
PUBLIC 38c938 0 pdb_get_workstations
PUBLIC 38c940 0 pdb_get_comment
PUBLIC 38c948 0 pdb_get_munged_dial
PUBLIC 38c950 0 pdb_get_bad_password_count
PUBLIC 38c958 0 pdb_get_logon_count
PUBLIC 38c960 0 pdb_get_country_code
PUBLIC 38c968 0 pdb_get_code_page
PUBLIC 38c970 0 pdb_get_unknown_6
PUBLIC 38c978 0 pdb_get_backend_private_data
PUBLIC 38c98c 0 pdb_set_init_flags
PUBLIC 38cd34 0 pdb_set_acct_ctrl
PUBLIC 38cd40 0 pdb_set_logon_time
PUBLIC 38cd4c 0 pdb_set_logoff_time
PUBLIC 38cd58 0 pdb_set_kickoff_time
PUBLIC 38cd64 0 pdb_set_bad_password_time
PUBLIC 38cd70 0 pdb_set_pass_can_change_time
PUBLIC 38cd7c 0 pdb_set_pass_must_change_time
PUBLIC 38cd88 0 pdb_set_pass_last_set_time
PUBLIC 38cd94 0 pdb_set_hours_len
PUBLIC 38cda0 0 pdb_set_logon_divs
PUBLIC 38cdac 0 pdb_set_user_sid
PUBLIC 38ce48 0 pdb_set_user_sid_from_string
PUBLIC 38cfac 0 pdb_set_group_sid
PUBLIC 38d0c0 0 pdb_set_username
PUBLIC 38d1e4 0 pdb_set_domain
PUBLIC 38d308 0 pdb_set_nt_username
PUBLIC 38d42c 0 pdb_set_fullname
PUBLIC 38d550 0 pdb_set_logon_script
PUBLIC 38d674 0 pdb_set_profile_path
PUBLIC 38d798 0 pdb_set_dir_drive
PUBLIC 38d8bc 0 pdb_set_homedir
PUBLIC 38d9e8 0 pdb_set_acct_desc
PUBLIC 38da98 0 pdb_set_workstations
PUBLIC 38dbbc 0 pdb_set_comment
PUBLIC 38dc6c 0 pdb_set_munged_dial
PUBLIC 38dd1c 0 pdb_set_nt_passwd
PUBLIC 38dd9c 0 pdb_set_lanman_passwd
PUBLIC 38de28 0 pdb_set_pw_history
PUBLIC 38df48 0 pdb_set_plaintext_pw_only
PUBLIC 38e014 0 pdb_set_bad_password_count
PUBLIC 38e020 0 pdb_set_logon_count
PUBLIC 38e02c 0 pdb_set_country_code
PUBLIC 38e038 0 pdb_set_code_page
PUBLIC 38e044 0 pdb_set_unknown_6
PUBLIC 38e050 0 pdb_set_hours
PUBLIC 38e098 0 pdb_set_backend_private_data
PUBLIC 38e0f0 0 pdb_set_pass_can_change
PUBLIC 38e11c 0 pdb_set_plaintext_passwd
PUBLIC 38e334 0 pdb_build_fields_present
PUBLIC 38f64c 0 my_sam_name
PUBLIC 38f66c 0 samu_new
PUBLIC 38f7ac 0 pdb_encode_acct_ctrl
PUBLIC 38fa18 0 pdb_decode_acct_ctrl
PUBLIC 38fb04 0 pdb_sethexpwd
PUBLIC 38fba0 0 pdb_gethexpwd
PUBLIC 38fc38 0 pdb_sethexhours
PUBLIC 38fcac 0 pdb_gethexhours
PUBLIC 38fd44 0 algorithmic_rid_base
PUBLIC 38fe2c 0 algorithmic_pdb_user_rid_to_uid
PUBLIC 38fe44 0 max_algorithmic_uid
PUBLIC 38fe4c 0 algorithmic_pdb_uid_to_user_rid
PUBLIC 390260 0 samu_set_unix
PUBLIC 390270 0 samu_alloc_rid_unix
PUBLIC 390280 0 pdb_group_rid_to_gid
PUBLIC 39029c 0 max_algorithmic_gid
PUBLIC 3902a4 0 algorithmic_pdb_gid_to_group_rid
PUBLIC 3902bc 0 algorithmic_pdb_rid_is_user
PUBLIC 3902e4 0 lookup_global_sam_name
PUBLIC 3904e8 0 local_password_change
PUBLIC 390904 0 init_samu_from_buffer
PUBLIC 391528 0 init_buffer_from_samu
PUBLIC 391d6c 0 pdb_copy_sam_account
PUBLIC 391e40 0 pdb_update_bad_password_count
PUBLIC 392074 0 pdb_update_autolock_flag
PUBLIC 392350 0 pdb_increment_bad_password_count
PUBLIC 392564 0 is_dc_trusted_domain_situation
PUBLIC 3925ac 0 get_trust_pw_clear
PUBLIC 39271c 0 get_trust_pw_hash
PUBLIC 3930ec 0 pdb_find_backend_entry
PUBLIC 393128 0 smb_register_passdb
PUBLIC 39333c 0 pdb_get_event_context
PUBLIC 393350 0 make_pdb_method_name
PUBLIC 39380c 0 pdb_get_domain_info
PUBLIC 393828 0 pdb_create_user
PUBLIC 393860 0 pdb_delete_user
PUBLIC 3938cc 0 pdb_add_sam_account
PUBLIC 393ca8 0 pdb_update_sam_account
PUBLIC 393cd8 0 pdb_delete_sam_account
PUBLIC 393ecc 0 pdb_rename_sam_account
PUBLIC 393f44 0 pdb_update_login_attempts
PUBLIC 393f68 0 pdb_getgrsid
PUBLIC 393fdc 0 pdb_getgrgid
PUBLIC 394008 0 pdb_getgrnam
PUBLIC 394034 0 pdb_create_dom_group
PUBLIC 394060 0 pdb_delete_dom_group
PUBLIC 394084 0 pdb_add_group_mapping_entry
PUBLIC 3940a0 0 pdb_update_group_mapping_entry
PUBLIC 3940bc 0 pdb_delete_group_mapping_entry
PUBLIC 39427c 0 pdb_enum_group_mapping
PUBLIC 39443c 0 pdb_enum_group_members
PUBLIC 3944ac 0 pdb_enum_group_memberships
PUBLIC 394554 0 pdb_set_unix_primary_group
PUBLIC 394578 0 pdb_add_groupmem
PUBLIC 3945a4 0 pdb_del_groupmem
PUBLIC 3945d0 0 pdb_create_alias
PUBLIC 3945f4 0 pdb_delete_alias
PUBLIC 394610 0 pdb_get_aliasinfo
PUBLIC 394634 0 pdb_set_aliasinfo
PUBLIC 394658 0 pdb_add_aliasmem
PUBLIC 39467c 0 pdb_del_aliasmem
PUBLIC 3946a0 0 pdb_enum_aliasmem
PUBLIC 3946d8 0 pdb_enum_alias_memberships
PUBLIC 394724 0 pdb_lookup_rids
PUBLIC 394764 0 pdb_get_account_policy
PUBLIC 394a24 0 pdb_getsampwnam
PUBLIC 394b40 0 pdb_getsampwsid
PUBLIC 39584c 0 pdb_set_account_policy
PUBLIC 39588c 0 pdb_get_seq_num
PUBLIC 3958b0 0 pdb_uid_to_sid
PUBLIC 3958d4 0 pdb_gid_to_sid
PUBLIC 3958f8 0 pdb_sid_to_id
PUBLIC 395924 0 pdb_capabilities
PUBLIC 395938 0 pdb_new_rid
PUBLIC 395c98 0 initialize_password_db
PUBLIC 395cbc 0 pdb_search_init
PUBLIC 395d7c 0 pdb_search_users
PUBLIC 395de8 0 pdb_search_groups
PUBLIC 395e4c 0 pdb_search_aliases
PUBLIC 395eb8 0 pdb_search_entries
PUBLIC 395f70 0 pdb_get_trusteddom_pw
PUBLIC 395fa8 0 pdb_set_trusteddom_pw
PUBLIC 395fd4 0 pdb_del_trusteddom_pw
PUBLIC 395ff0 0 pdb_enum_trusteddoms
PUBLIC 39601c 0 pdb_get_trusted_domain
PUBLIC 396048 0 pdb_get_trusted_domain_by_sid
PUBLIC 396074 0 pdb_set_trusted_domain
PUBLIC 396098 0 pdb_del_trusted_domain
PUBLIC 3960b4 0 pdb_enum_trusted_domains
PUBLIC 3960e0 0 make_pdb_method
PUBLIC 39650c 0 sid_check_is_wellknown_domain
PUBLIC 396570 0 sid_check_is_in_wellknown_domain
PUBLIC 3965a8 0 lookup_wellknown_sid
PUBLIC 3967d4 0 lookup_wellknown_name
PUBLIC 3968f8 0 lookup_builtin_rid
PUBLIC 396948 0 lookup_builtin_name
PUBLIC 39699c 0 builtin_domain_name
PUBLIC 3969ac 0 sid_check_is_builtin
PUBLIC 3969bc 0 sid_check_is_in_builtin
PUBLIC 3969f0 0 pdb_get_user_rid
PUBLIC 396a38 0 pdb_get_group_rid
PUBLIC 396a80 0 pdb_set_user_sid_from_rid
PUBLIC 396bb8 0 pdb_set_group_sid_from_rid
PUBLIC 396cf8 0 sid_check_is_unix_users
PUBLIC 396d08 0 sid_check_is_in_unix_users
PUBLIC 396d3c 0 uid_to_unix_users_sid
PUBLIC 396d54 0 gid_to_unix_groups_sid
PUBLIC 396d6c 0 unix_users_domain_name
PUBLIC 396d7c 0 lookup_unix_user_name
PUBLIC 396ddc 0 sid_check_is_unix_groups
PUBLIC 396dec 0 sid_check_is_in_unix_groups
PUBLIC 396e20 0 unix_groups_domain_name
PUBLIC 396e30 0 lookup_unix_group_name
PUBLIC 397034 0 lookup_name
PUBLIC 397a98 0 lookup_name_smbconf
PUBLIC 397bd8 0 lookup_sids
PUBLIC 398844 0 lookup_sid
PUBLIC 398ad8 0 store_uid_sid_cache
PUBLIC 398df8 0 store_gid_sid_cache
PUBLIC 3991f8 0 uid_to_sid
PUBLIC 3994d4 0 gid_to_sid
PUBLIC 3997b0 0 sids_to_unix_ids
PUBLIC 399b48 0 sid_to_uid
PUBLIC 399d78 0 sid_to_gid
PUBLIC 399f9c 0 get_primary_group_sid
PUBLIC 39a328 0 delete_uid_cache
PUBLIC 39a45c 0 delete_gid_cache
PUBLIC 39a590 0 delete_sid_cache
PUBLIC 39a774 0 flush_gid_cache
PUBLIC 39a7f0 0 flush_uid_cache
PUBLIC 39a86c 0 login_cache_init
PUBLIC 39aa00 0 login_cache_shutdown
PUBLIC 39aa90 0 login_cache_read
PUBLIC 39acd0 0 login_cache_write
PUBLIC 39ae0c 0 login_cache_delentry
PUBLIC 39e958 0 pdb_smbpasswd_init
PUBLIC 3a1a58 0 pdb_tdbsam_init
PUBLIC 3a2288 0 pdb_wbc_sam_init
PUBLIC 3a22b0 0 account_policy_names_list
PUBLIC 3a2338 0 decode_account_policy_name
PUBLIC 3a2374 0 get_account_policy_attr
PUBLIC 3a23c0 0 account_policy_get_desc
PUBLIC 3a2408 0 account_policy_name_to_typenum
PUBLIC 3a245c 0 account_policy_get_default
PUBLIC 3a2514 0 account_policy_set
PUBLIC 3a2694 0 init_account_policy
PUBLIC 3a2b5c 0 account_policy_get
PUBLIC 3a2cec 0 cache_account_policy_set
PUBLIC 3a2edc 0 cache_account_policy_get
PUBLIC 3a304c 0 get_account_pol_db
PUBLIC 3a3820 0 get_privileges_for_sids
PUBLIC 3a3900 0 get_privileges_for_sid_as_set
PUBLIC 3a3968 0 privilege_enumerate_accounts
PUBLIC 3a39d0 0 privilege_enum_sids
PUBLIC 3a3a50 0 grant_privilege_by_name
PUBLIC 3a3af0 0 grant_privilege_set
PUBLIC 3a3b1c 0 revoke_privilege_set
PUBLIC 3a3b48 0 revoke_all_privileges
PUBLIC 3a3b54 0 revoke_privilege_by_name
PUBLIC 3a3bf4 0 privilege_create_account
PUBLIC 3a3c14 0 privilege_delete_account
PUBLIC 3a3ca8 0 is_privileged_sid
PUBLIC 3a3cbc 0 grant_all_privileges
PUBLIC 3a3ce0 0 smb_nscd_flush_user_cache
PUBLIC 3a3ce4 0 smb_nscd_flush_group_cache
PUBLIC 3a3ce8 0 winbind_getpwnam
PUBLIC 3a3cf0 0 winbind_getpwsid
PUBLIC 3a3cf8 0 winbind_lookup_name
PUBLIC 3a3d00 0 winbind_lookup_sid
PUBLIC 3a3d08 0 winbind_ping
PUBLIC 3a3d10 0 winbind_sid_to_uid
PUBLIC 3a3d18 0 winbind_uid_to_sid
PUBLIC 3a3d20 0 winbind_sid_to_gid
PUBLIC 3a3d28 0 winbind_gid_to_sid
PUBLIC 3a3d30 0 wb_is_trusted_domain
PUBLIC 3a3d38 0 winbind_lookup_rids
PUBLIC 3a3d40 0 winbind_allocate_uid
PUBLIC 3a3d48 0 winbind_allocate_gid
PUBLIC 3a3d50 0 winbind_get_groups
PUBLIC 3a3d58 0 winbind_get_sid_aliases
PUBLIC 3a3d80 0 grab_named_mutex
PUBLIC 3a41b8 0 create_builtin_users
PUBLIC 3a429c 0 create_builtin_administrators
PUBLIC 3a4464 0 add_initial_entry
PUBLIC 3a45a8 0 get_domain_group_from_sid
PUBLIC 3a491c 0 smb_create_group
PUBLIC 3a4a9c 0 smb_delete_group
PUBLIC 3a4b9c 0 smb_set_primary_group
PUBLIC 3a4cc8 0 smb_add_user_group
PUBLIC 3a4dfc 0 smb_delete_user_group
PUBLIC 3a4f30 0 pdb_default_getgrsid
PUBLIC 3a5010 0 pdb_default_getgrgid
PUBLIC 3a50b4 0 pdb_default_getgrnam
PUBLIC 3a5158 0 pdb_default_add_group_mapping_entry
PUBLIC 3a51f8 0 pdb_default_update_group_mapping_entry
PUBLIC 3a5298 0 pdb_default_delete_group_mapping_entry
PUBLIC 3a5348 0 pdb_default_enum_group_mapping
PUBLIC 3a5408 0 pdb_default_create_alias
PUBLIC 3a5704 0 pdb_default_delete_alias
PUBLIC 3a5748 0 pdb_default_get_aliasinfo
PUBLIC 3a5888 0 pdb_default_set_aliasinfo
PUBLIC 3a5930 0 pdb_default_add_aliasmem
PUBLIC 3a59c8 0 pdb_default_del_aliasmem
PUBLIC 3a5a64 0 pdb_default_enum_aliasmem
PUBLIC 3a5b0c 0 pdb_default_alias_memberships
PUBLIC 3a5cb0 0 pdb_nop_getgrsid
PUBLIC 3a5cc8 0 pdb_nop_getgrgid
PUBLIC 3a5cd0 0 pdb_nop_getgrnam
PUBLIC 3a5cd8 0 pdb_nop_add_group_mapping_entry
PUBLIC 3a5ce0 0 pdb_nop_update_group_mapping_entry
PUBLIC 3a5ce8 0 pdb_nop_delete_group_mapping_entry
PUBLIC 3a5d00 0 pdb_nop_enum_group_mapping
PUBLIC 3a5d08 0 pdb_get_dom_grp_info
PUBLIC 3a5dc0 0 pdb_set_dom_grp_info
PUBLIC 3a5e68 0 pdb_create_builtin_alias
PUBLIC 3a79e0 0 groupdb_tdb_init
PUBLIC 3a8dd8 0 dcerpc_srvsvc_NetCharDevEnum_r_send
PUBLIC 3a8ee0 0 dcerpc_srvsvc_NetCharDevEnum_r_recv
PUBLIC 3a906c 0 dcerpc_srvsvc_NetCharDevEnum_r
PUBLIC 3a9098 0 dcerpc_srvsvc_NetCharDevEnum_send
PUBLIC 3a91e8 0 dcerpc_srvsvc_NetCharDevEnum_recv
PUBLIC 3a9274 0 dcerpc_srvsvc_NetCharDevEnum
PUBLIC 3a92f4 0 dcerpc_srvsvc_NetCharDevGetInfo_r_send
PUBLIC 3a9404 0 dcerpc_srvsvc_NetCharDevGetInfo_r_recv
PUBLIC 3a9564 0 dcerpc_srvsvc_NetCharDevGetInfo_r
PUBLIC 3a9590 0 dcerpc_srvsvc_NetCharDevGetInfo_send
PUBLIC 3a96d0 0 dcerpc_srvsvc_NetCharDevGetInfo_recv
PUBLIC 3a975c 0 dcerpc_srvsvc_NetCharDevGetInfo
PUBLIC 3a97a0 0 dcerpc_srvsvc_NetCharDevControl_r_send
PUBLIC 3a9874 0 dcerpc_srvsvc_NetCharDevControl_r_recv
PUBLIC 3a99c4 0 dcerpc_srvsvc_NetCharDevControl_r
PUBLIC 3a99f0 0 dcerpc_srvsvc_NetCharDevControl_send
PUBLIC 3a9ad8 0 dcerpc_srvsvc_NetCharDevControl_recv
PUBLIC 3a9b64 0 dcerpc_srvsvc_NetCharDevControl
PUBLIC 3a9b94 0 dcerpc_srvsvc_NetCharDevQEnum_r_send
PUBLIC 3a9ca4 0 dcerpc_srvsvc_NetCharDevQEnum_r_recv
PUBLIC 3a9e30 0 dcerpc_srvsvc_NetCharDevQEnum_r
PUBLIC 3a9e5c 0 dcerpc_srvsvc_NetCharDevQEnum_send
PUBLIC 3a9fbc 0 dcerpc_srvsvc_NetCharDevQEnum_recv
PUBLIC 3aa048 0 dcerpc_srvsvc_NetCharDevQEnum
PUBLIC 3aa0c8 0 dcerpc_srvsvc_NetCharDevQGetInfo_r_send
PUBLIC 3aa1d8 0 dcerpc_srvsvc_NetCharDevQGetInfo_r_recv
PUBLIC 3aa338 0 dcerpc_srvsvc_NetCharDevQGetInfo_r
PUBLIC 3aa364 0 dcerpc_srvsvc_NetCharDevQGetInfo_send
PUBLIC 3aa4ac 0 dcerpc_srvsvc_NetCharDevQGetInfo_recv
PUBLIC 3aa538 0 dcerpc_srvsvc_NetCharDevQGetInfo
PUBLIC 3aa584 0 dcerpc_srvsvc_NetCharDevQSetInfo_r_send
PUBLIC 3aa694 0 dcerpc_srvsvc_NetCharDevQSetInfo_r_recv
PUBLIC 3aa800 0 dcerpc_srvsvc_NetCharDevQSetInfo_r
PUBLIC 3aa82c 0 dcerpc_srvsvc_NetCharDevQSetInfo_send
PUBLIC 3aa97c 0 dcerpc_srvsvc_NetCharDevQSetInfo_recv
PUBLIC 3aaa08 0 dcerpc_srvsvc_NetCharDevQSetInfo
PUBLIC 3aaa6c 0 dcerpc_srvsvc_NetCharDevQPurge_r_send
PUBLIC 3aab40 0 dcerpc_srvsvc_NetCharDevQPurge_r_recv
PUBLIC 3aac90 0 dcerpc_srvsvc_NetCharDevQPurge_r
PUBLIC 3aacbc 0 dcerpc_srvsvc_NetCharDevQPurge_send
PUBLIC 3aad98 0 dcerpc_srvsvc_NetCharDevQPurge_recv
PUBLIC 3aae24 0 dcerpc_srvsvc_NetCharDevQPurge
PUBLIC 3aae4c 0 dcerpc_srvsvc_NetCharDevQPurgeSelf_r_send
PUBLIC 3aaf20 0 dcerpc_srvsvc_NetCharDevQPurgeSelf_r_recv
PUBLIC 3ab070 0 dcerpc_srvsvc_NetCharDevQPurgeSelf_r
PUBLIC 3ab09c 0 dcerpc_srvsvc_NetCharDevQPurgeSelf_send
PUBLIC 3ab184 0 dcerpc_srvsvc_NetCharDevQPurgeSelf_recv
PUBLIC 3ab210 0 dcerpc_srvsvc_NetCharDevQPurgeSelf
PUBLIC 3ab240 0 dcerpc_srvsvc_NetConnEnum_r_send
PUBLIC 3ab350 0 dcerpc_srvsvc_NetConnEnum_r_recv
PUBLIC 3ab4dc 0 dcerpc_srvsvc_NetConnEnum_r
PUBLIC 3ab508 0 dcerpc_srvsvc_NetConnEnum_send
PUBLIC 3ab668 0 dcerpc_srvsvc_NetConnEnum_recv
PUBLIC 3ab6f4 0 dcerpc_srvsvc_NetConnEnum
PUBLIC 3ab774 0 dcerpc_srvsvc_NetFileEnum_r_send
PUBLIC 3ab884 0 dcerpc_srvsvc_NetFileEnum_r_recv
PUBLIC 3aba10 0 dcerpc_srvsvc_NetFileEnum_r
PUBLIC 3aba3c 0 dcerpc_srvsvc_NetFileEnum_send
PUBLIC 3abba4 0 dcerpc_srvsvc_NetFileEnum_recv
PUBLIC 3abc30 0 dcerpc_srvsvc_NetFileEnum
PUBLIC 3abcb8 0 dcerpc_srvsvc_NetFileGetInfo_r_send
PUBLIC 3abdc8 0 dcerpc_srvsvc_NetFileGetInfo_r_recv
PUBLIC 3abf28 0 dcerpc_srvsvc_NetFileGetInfo_r
PUBLIC 3abf54 0 dcerpc_srvsvc_NetFileGetInfo_send
PUBLIC 3ac094 0 dcerpc_srvsvc_NetFileGetInfo_recv
PUBLIC 3ac120 0 dcerpc_srvsvc_NetFileGetInfo
PUBLIC 3ac164 0 dcerpc_srvsvc_NetFileClose_r_send
PUBLIC 3ac238 0 dcerpc_srvsvc_NetFileClose_r_recv
PUBLIC 3ac388 0 dcerpc_srvsvc_NetFileClose_r
PUBLIC 3ac3b4 0 dcerpc_srvsvc_NetFileClose_send
PUBLIC 3ac490 0 dcerpc_srvsvc_NetFileClose_recv
PUBLIC 3ac51c 0 dcerpc_srvsvc_NetFileClose
PUBLIC 3ac544 0 dcerpc_srvsvc_NetSessEnum_r_send
PUBLIC 3ac654 0 dcerpc_srvsvc_NetSessEnum_r_recv
PUBLIC 3ac7e0 0 dcerpc_srvsvc_NetSessEnum_r
PUBLIC 3ac80c 0 dcerpc_srvsvc_NetSessEnum_send
PUBLIC 3ac974 0 dcerpc_srvsvc_NetSessEnum_recv
PUBLIC 3aca00 0 dcerpc_srvsvc_NetSessEnum
PUBLIC 3aca88 0 dcerpc_srvsvc_NetSessDel_r_send
PUBLIC 3acb5c 0 dcerpc_srvsvc_NetSessDel_r_recv
PUBLIC 3accac 0 dcerpc_srvsvc_NetSessDel_r
PUBLIC 3accd8 0 dcerpc_srvsvc_NetSessDel_send
PUBLIC 3acdc0 0 dcerpc_srvsvc_NetSessDel_recv
PUBLIC 3ace4c 0 dcerpc_srvsvc_NetSessDel
PUBLIC 3ace7c 0 dcerpc_srvsvc_NetShareAdd_r_send
PUBLIC 3acf8c 0 dcerpc_srvsvc_NetShareAdd_r_recv
PUBLIC 3ad0f8 0 dcerpc_srvsvc_NetShareAdd_r
PUBLIC 3ad124 0 dcerpc_srvsvc_NetShareAdd_send
PUBLIC 3ad26c 0 dcerpc_srvsvc_NetShareAdd_recv
PUBLIC 3ad2f8 0 dcerpc_srvsvc_NetShareAdd
PUBLIC 3ad354 0 dcerpc_srvsvc_NetShareEnumAll_r_send
PUBLIC 3ad464 0 dcerpc_srvsvc_NetShareEnumAll_r_recv
PUBLIC 3ad5f0 0 dcerpc_srvsvc_NetShareEnumAll_r
PUBLIC 3ad61c 0 dcerpc_srvsvc_NetShareEnumAll_send
PUBLIC 3ad76c 0 dcerpc_srvsvc_NetShareEnumAll_recv
PUBLIC 3ad7f8 0 dcerpc_srvsvc_NetShareEnumAll
PUBLIC 3ad878 0 dcerpc_srvsvc_NetShareGetInfo_r_send
PUBLIC 3ad988 0 dcerpc_srvsvc_NetShareGetInfo_r_recv
PUBLIC 3adae8 0 dcerpc_srvsvc_NetShareGetInfo_r
PUBLIC 3adb14 0 dcerpc_srvsvc_NetShareGetInfo_send
PUBLIC 3adc54 0 dcerpc_srvsvc_NetShareGetInfo_recv
PUBLIC 3adce0 0 dcerpc_srvsvc_NetShareGetInfo
PUBLIC 3add24 0 dcerpc_srvsvc_NetShareSetInfo_r_send
PUBLIC 3ade34 0 dcerpc_srvsvc_NetShareSetInfo_r_recv
PUBLIC 3adfa0 0 dcerpc_srvsvc_NetShareSetInfo_r
PUBLIC 3adfcc 0 dcerpc_srvsvc_NetShareSetInfo_send
PUBLIC 3ae11c 0 dcerpc_srvsvc_NetShareSetInfo_recv
PUBLIC 3ae1a8 0 dcerpc_srvsvc_NetShareSetInfo
PUBLIC 3ae20c 0 dcerpc_srvsvc_NetShareDel_r_send
PUBLIC 3ae2e0 0 dcerpc_srvsvc_NetShareDel_r_recv
PUBLIC 3ae430 0 dcerpc_srvsvc_NetShareDel_r
PUBLIC 3ae45c 0 dcerpc_srvsvc_NetShareDel_send
PUBLIC 3ae544 0 dcerpc_srvsvc_NetShareDel_recv
PUBLIC 3ae5d0 0 dcerpc_srvsvc_NetShareDel
PUBLIC 3ae600 0 dcerpc_srvsvc_NetShareDelSticky_r_send
PUBLIC 3ae6d4 0 dcerpc_srvsvc_NetShareDelSticky_r_recv
PUBLIC 3ae824 0 dcerpc_srvsvc_NetShareDelSticky_r
PUBLIC 3ae850 0 dcerpc_srvsvc_NetShareDelSticky_send
PUBLIC 3ae938 0 dcerpc_srvsvc_NetShareDelSticky_recv
PUBLIC 3ae9c4 0 dcerpc_srvsvc_NetShareDelSticky
PUBLIC 3ae9f4 0 dcerpc_srvsvc_NetShareCheck_r_send
PUBLIC 3aeb04 0 dcerpc_srvsvc_NetShareCheck_r_recv
PUBLIC 3aec64 0 dcerpc_srvsvc_NetShareCheck_r
PUBLIC 3aec90 0 dcerpc_srvsvc_NetShareCheck_send
PUBLIC 3aedbc 0 dcerpc_srvsvc_NetShareCheck_recv
PUBLIC 3aee48 0 dcerpc_srvsvc_NetShareCheck
PUBLIC 3aee84 0 dcerpc_srvsvc_NetSrvGetInfo_r_send
PUBLIC 3aef94 0 dcerpc_srvsvc_NetSrvGetInfo_r_recv
PUBLIC 3af0f4 0 dcerpc_srvsvc_NetSrvGetInfo_r
PUBLIC 3af120 0 dcerpc_srvsvc_NetSrvGetInfo_send
PUBLIC 3af24c 0 dcerpc_srvsvc_NetSrvGetInfo_recv
PUBLIC 3af2d8 0 dcerpc_srvsvc_NetSrvGetInfo
PUBLIC 3af314 0 dcerpc_srvsvc_NetSrvSetInfo_r_send
PUBLIC 3af424 0 dcerpc_srvsvc_NetSrvSetInfo_r_recv
PUBLIC 3af590 0 dcerpc_srvsvc_NetSrvSetInfo_r
PUBLIC 3af5bc 0 dcerpc_srvsvc_NetSrvSetInfo_send
PUBLIC 3af704 0 dcerpc_srvsvc_NetSrvSetInfo_recv
PUBLIC 3af790 0 dcerpc_srvsvc_NetSrvSetInfo
PUBLIC 3af7ec 0 dcerpc_srvsvc_NetDiskEnum_r_send
PUBLIC 3af8fc 0 dcerpc_srvsvc_NetDiskEnum_r_recv
PUBLIC 3afa88 0 dcerpc_srvsvc_NetDiskEnum_r
PUBLIC 3afab4 0 dcerpc_srvsvc_NetDiskEnum_send
PUBLIC 3afc14 0 dcerpc_srvsvc_NetDiskEnum_recv
PUBLIC 3afca0 0 dcerpc_srvsvc_NetDiskEnum
PUBLIC 3afd20 0 dcerpc_srvsvc_NetServerStatisticsGet_r_send
PUBLIC 3afe30 0 dcerpc_srvsvc_NetServerStatisticsGet_r_recv
PUBLIC 3aff90 0 dcerpc_srvsvc_NetServerStatisticsGet_r
PUBLIC 3affbc 0 dcerpc_srvsvc_NetServerStatisticsGet_send
PUBLIC 3b0104 0 dcerpc_srvsvc_NetServerStatisticsGet_recv
PUBLIC 3b0190 0 dcerpc_srvsvc_NetServerStatisticsGet
PUBLIC 3b01dc 0 dcerpc_srvsvc_NetTransportAdd_r_send
PUBLIC 3b02b0 0 dcerpc_srvsvc_NetTransportAdd_r_recv
PUBLIC 3b0400 0 dcerpc_srvsvc_NetTransportAdd_r
PUBLIC 3b042c 0 dcerpc_srvsvc_NetTransportAdd_send
PUBLIC 3b0528 0 dcerpc_srvsvc_NetTransportAdd_recv
PUBLIC 3b05b4 0 dcerpc_srvsvc_NetTransportAdd
PUBLIC 3b0600 0 dcerpc_srvsvc_NetTransportEnum_r_send
PUBLIC 3b0710 0 dcerpc_srvsvc_NetTransportEnum_r_recv
PUBLIC 3b089c 0 dcerpc_srvsvc_NetTransportEnum_r
PUBLIC 3b08c8 0 dcerpc_srvsvc_NetTransportEnum_send
PUBLIC 3b0a18 0 dcerpc_srvsvc_NetTransportEnum_recv
PUBLIC 3b0aa4 0 dcerpc_srvsvc_NetTransportEnum
PUBLIC 3b0b24 0 dcerpc_srvsvc_NetTransportDel_r_send
PUBLIC 3b0bf8 0 dcerpc_srvsvc_NetTransportDel_r_recv
PUBLIC 3b0d48 0 dcerpc_srvsvc_NetTransportDel_r
PUBLIC 3b0d74 0 dcerpc_srvsvc_NetTransportDel_send
PUBLIC 3b0e5c 0 dcerpc_srvsvc_NetTransportDel_recv
PUBLIC 3b0ee8 0 dcerpc_srvsvc_NetTransportDel
PUBLIC 3b0f18 0 dcerpc_srvsvc_NetRemoteTOD_r_send
PUBLIC 3b1028 0 dcerpc_srvsvc_NetRemoteTOD_r_recv
PUBLIC 3b1188 0 dcerpc_srvsvc_NetRemoteTOD_r
PUBLIC 3b11b4 0 dcerpc_srvsvc_NetRemoteTOD_send
PUBLIC 3b12d4 0 dcerpc_srvsvc_NetRemoteTOD_recv
PUBLIC 3b1360 0 dcerpc_srvsvc_NetRemoteTOD
PUBLIC 3b13a0 0 dcerpc_srvsvc_NetSetServiceBits_r_send
PUBLIC 3b1474 0 dcerpc_srvsvc_NetSetServiceBits_r_recv
PUBLIC 3b15c4 0 dcerpc_srvsvc_NetSetServiceBits_r
PUBLIC 3b15f0 0 dcerpc_srvsvc_NetSetServiceBits_send
PUBLIC 3b16ec 0 dcerpc_srvsvc_NetSetServiceBits_recv
PUBLIC 3b1778 0 dcerpc_srvsvc_NetSetServiceBits
PUBLIC 3b17b0 0 dcerpc_srvsvc_NetPathType_r_send
PUBLIC 3b18c0 0 dcerpc_srvsvc_NetPathType_r_recv
PUBLIC 3b1a20 0 dcerpc_srvsvc_NetPathType_r
PUBLIC 3b1a4c 0 dcerpc_srvsvc_NetPathType_send
PUBLIC 3b1b8c 0 dcerpc_srvsvc_NetPathType_recv
PUBLIC 3b1c18 0 dcerpc_srvsvc_NetPathType
PUBLIC 3b1c5c 0 dcerpc_srvsvc_NetPathCanonicalize_r_send
PUBLIC 3b1d6c 0 dcerpc_srvsvc_NetPathCanonicalize_r_recv
PUBLIC 3b1edc 0 dcerpc_srvsvc_NetPathCanonicalize_r
PUBLIC 3b1f08 0 dcerpc_srvsvc_NetPathCanonicalize_send
PUBLIC 3b2070 0 dcerpc_srvsvc_NetPathCanonicalize_recv
PUBLIC 3b20fc 0 dcerpc_srvsvc_NetPathCanonicalize
PUBLIC 3b216c 0 dcerpc_srvsvc_NetPathCompare_r_send
PUBLIC 3b2240 0 dcerpc_srvsvc_NetPathCompare_r_recv
PUBLIC 3b2390 0 dcerpc_srvsvc_NetPathCompare_r
PUBLIC 3b23bc 0 dcerpc_srvsvc_NetPathCompare_send
PUBLIC 3b24c0 0 dcerpc_srvsvc_NetPathCompare_recv
PUBLIC 3b254c 0 dcerpc_srvsvc_NetPathCompare
PUBLIC 3b258c 0 dcerpc_srvsvc_NetNameValidate_r_send
PUBLIC 3b2660 0 dcerpc_srvsvc_NetNameValidate_r_recv
PUBLIC 3b27b0 0 dcerpc_srvsvc_NetNameValidate_r
PUBLIC 3b27dc 0 dcerpc_srvsvc_NetNameValidate_send
PUBLIC 3b28d8 0 dcerpc_srvsvc_NetNameValidate_recv
PUBLIC 3b2964 0 dcerpc_srvsvc_NetNameValidate
PUBLIC 3b299c 0 dcerpc_srvsvc_NetPRNameCompare_r_send
PUBLIC 3b2a70 0 dcerpc_srvsvc_NetPRNameCompare_r_recv
PUBLIC 3b2bc0 0 dcerpc_srvsvc_NetPRNameCompare_r
PUBLIC 3b2bec 0 dcerpc_srvsvc_NetPRNameCompare_send
PUBLIC 3b2cf0 0 dcerpc_srvsvc_NetPRNameCompare_recv
PUBLIC 3b2d7c 0 dcerpc_srvsvc_NetPRNameCompare
PUBLIC 3b2dbc 0 dcerpc_srvsvc_NetShareEnum_r_send
PUBLIC 3b2ecc 0 dcerpc_srvsvc_NetShareEnum_r_recv
PUBLIC 3b3058 0 dcerpc_srvsvc_NetShareEnum_r
PUBLIC 3b3084 0 dcerpc_srvsvc_NetShareEnum_send
PUBLIC 3b31d4 0 dcerpc_srvsvc_NetShareEnum_recv
PUBLIC 3b3260 0 dcerpc_srvsvc_NetShareEnum
PUBLIC 3b32e0 0 dcerpc_srvsvc_NetShareDelStart_r_send
PUBLIC 3b33f0 0 dcerpc_srvsvc_NetShareDelStart_r_recv
PUBLIC 3b3564 0 dcerpc_srvsvc_NetShareDelStart_r
PUBLIC 3b3590 0 dcerpc_srvsvc_NetShareDelStart_send
PUBLIC 3b36d0 0 dcerpc_srvsvc_NetShareDelStart_recv
PUBLIC 3b375c 0 dcerpc_srvsvc_NetShareDelStart
PUBLIC 3b37c0 0 dcerpc_srvsvc_NetShareDelCommit_r_send
PUBLIC 3b38d0 0 dcerpc_srvsvc_NetShareDelCommit_r_recv
PUBLIC 3b3a44 0 dcerpc_srvsvc_NetShareDelCommit_r
PUBLIC 3b3a70 0 dcerpc_srvsvc_NetShareDelCommit_send
PUBLIC 3b3b8c 0 dcerpc_srvsvc_NetShareDelCommit_recv
PUBLIC 3b3c18 0 dcerpc_srvsvc_NetShareDelCommit
PUBLIC 3b3c70 0 dcerpc_srvsvc_NetGetFileSecurity_r_send
PUBLIC 3b3d80 0 dcerpc_srvsvc_NetGetFileSecurity_r_recv
PUBLIC 3b3ee0 0 dcerpc_srvsvc_NetGetFileSecurity_r
PUBLIC 3b3f0c 0 dcerpc_srvsvc_NetGetFileSecurity_send
PUBLIC 3b4054 0 dcerpc_srvsvc_NetGetFileSecurity_recv
PUBLIC 3b40e0 0 dcerpc_srvsvc_NetGetFileSecurity
PUBLIC 3b412c 0 dcerpc_srvsvc_NetSetFileSecurity_r_send
PUBLIC 3b4200 0 dcerpc_srvsvc_NetSetFileSecurity_r_recv
PUBLIC 3b4350 0 dcerpc_srvsvc_NetSetFileSecurity_r
PUBLIC 3b437c 0 dcerpc_srvsvc_NetSetFileSecurity_send
PUBLIC 3b4480 0 dcerpc_srvsvc_NetSetFileSecurity_recv
PUBLIC 3b450c 0 dcerpc_srvsvc_NetSetFileSecurity
PUBLIC 3b454c 0 dcerpc_srvsvc_NetServerTransportAddEx_r_send
PUBLIC 3b4620 0 dcerpc_srvsvc_NetServerTransportAddEx_r_recv
PUBLIC 3b4770 0 dcerpc_srvsvc_NetServerTransportAddEx_r
PUBLIC 3b479c 0 dcerpc_srvsvc_NetServerTransportAddEx_send
PUBLIC 3b4898 0 dcerpc_srvsvc_NetServerTransportAddEx_recv
PUBLIC 3b4924 0 dcerpc_srvsvc_NetServerTransportAddEx
PUBLIC 3b4970 0 dcerpc_srvsvc_NetServerSetServiceBitsEx_r_send
PUBLIC 3b4a44 0 dcerpc_srvsvc_NetServerSetServiceBitsEx_r_recv
PUBLIC 3b4b94 0 dcerpc_srvsvc_NetServerSetServiceBitsEx_r
PUBLIC 3b4bc0 0 dcerpc_srvsvc_NetServerSetServiceBitsEx_send
PUBLIC 3b4ccc 0 dcerpc_srvsvc_NetServerSetServiceBitsEx_recv
PUBLIC 3b4d58 0 dcerpc_srvsvc_NetServerSetServiceBitsEx
PUBLIC 3b6604 0 dcerpc_lsa_Close_r_send
PUBLIC 3b670c 0 dcerpc_lsa_Close_r_recv
PUBLIC 3b6874 0 dcerpc_lsa_Close_r
PUBLIC 3b68a0 0 dcerpc_lsa_Close_send
PUBLIC 3b69bc 0 dcerpc_lsa_Close_recv
PUBLIC 3b6a48 0 dcerpc_lsa_Close
PUBLIC 3b6a94 0 dcerpc_lsa_Delete_r_send
PUBLIC 3b6b68 0 dcerpc_lsa_Delete_r_recv
PUBLIC 3b6cb8 0 dcerpc_lsa_Delete_r
PUBLIC 3b6ce4 0 dcerpc_lsa_Delete_send
PUBLIC 3b6db4 0 dcerpc_lsa_Delete_recv
PUBLIC 3b6e40 0 dcerpc_lsa_Delete
PUBLIC 3b6e6c 0 dcerpc_lsa_EnumPrivs_r_send
PUBLIC 3b6f7c 0 dcerpc_lsa_EnumPrivs_r_recv
PUBLIC 3b70ec 0 dcerpc_lsa_EnumPrivs_r
PUBLIC 3b7118 0 dcerpc_lsa_EnumPrivs_send
PUBLIC 3b7260 0 dcerpc_lsa_EnumPrivs_recv
PUBLIC 3b72ec 0 dcerpc_lsa_EnumPrivs
PUBLIC 3b734c 0 dcerpc_lsa_QuerySecurity_r_send
PUBLIC 3b745c 0 dcerpc_lsa_QuerySecurity_r_recv
PUBLIC 3b75bc 0 dcerpc_lsa_QuerySecurity_r
PUBLIC 3b75e8 0 dcerpc_lsa_QuerySecurity_send
PUBLIC 3b7714 0 dcerpc_lsa_QuerySecurity_recv
PUBLIC 3b77a0 0 dcerpc_lsa_QuerySecurity
PUBLIC 3b77dc 0 dcerpc_lsa_SetSecObj_r_send
PUBLIC 3b78b0 0 dcerpc_lsa_SetSecObj_r_recv
PUBLIC 3b7a00 0 dcerpc_lsa_SetSecObj_r
PUBLIC 3b7a2c 0 dcerpc_lsa_SetSecObj_send
PUBLIC 3b7b14 0 dcerpc_lsa_SetSecObj_recv
PUBLIC 3b7ba0 0 dcerpc_lsa_SetSecObj
PUBLIC 3b7bd0 0 dcerpc_lsa_OpenPolicy_r_send
PUBLIC 3b7ce0 0 dcerpc_lsa_OpenPolicy_r_recv
PUBLIC 3b7e48 0 dcerpc_lsa_OpenPolicy_r
PUBLIC 3b7e74 0 dcerpc_lsa_OpenPolicy_send
PUBLIC 3b7fb4 0 dcerpc_lsa_OpenPolicy_recv
PUBLIC 3b8040 0 dcerpc_lsa_OpenPolicy
PUBLIC 3b8094 0 dcerpc_lsa_QueryInfoPolicy_r_send
PUBLIC 3b81a4 0 dcerpc_lsa_QueryInfoPolicy_r_recv
PUBLIC 3b8304 0 dcerpc_lsa_QueryInfoPolicy_r
PUBLIC 3b8330 0 dcerpc_lsa_QueryInfoPolicy_send
PUBLIC 3b845c 0 dcerpc_lsa_QueryInfoPolicy_recv
PUBLIC 3b84e8 0 dcerpc_lsa_QueryInfoPolicy
PUBLIC 3b8524 0 dcerpc_lsa_SetInfoPolicy_r_send
PUBLIC 3b85f8 0 dcerpc_lsa_SetInfoPolicy_r_recv
PUBLIC 3b8748 0 dcerpc_lsa_SetInfoPolicy_r
PUBLIC 3b8774 0 dcerpc_lsa_SetInfoPolicy_send
PUBLIC 3b885c 0 dcerpc_lsa_SetInfoPolicy_recv
PUBLIC 3b88e8 0 dcerpc_lsa_SetInfoPolicy
PUBLIC 3b8918 0 dcerpc_lsa_CreateAccount_r_send
PUBLIC 3b8a28 0 dcerpc_lsa_CreateAccount_r_recv
PUBLIC 3b8b90 0 dcerpc_lsa_CreateAccount_r
PUBLIC 3b8bbc 0 dcerpc_lsa_CreateAccount_send
PUBLIC 3b8cfc 0 dcerpc_lsa_CreateAccount_recv
PUBLIC 3b8d88 0 dcerpc_lsa_CreateAccount
PUBLIC 3b8ddc 0 dcerpc_lsa_EnumAccounts_r_send
PUBLIC 3b8eec 0 dcerpc_lsa_EnumAccounts_r_recv
PUBLIC 3b905c 0 dcerpc_lsa_EnumAccounts_r
PUBLIC 3b9088 0 dcerpc_lsa_EnumAccounts_send
PUBLIC 3b91d0 0 dcerpc_lsa_EnumAccounts_recv
PUBLIC 3b925c 0 dcerpc_lsa_EnumAccounts
PUBLIC 3b92bc 0 dcerpc_lsa_CreateTrustedDomain_r_send
PUBLIC 3b93cc 0 dcerpc_lsa_CreateTrustedDomain_r_recv
PUBLIC 3b9534 0 dcerpc_lsa_CreateTrustedDomain_r
PUBLIC 3b9560 0 dcerpc_lsa_CreateTrustedDomain_send
PUBLIC 3b96a0 0 dcerpc_lsa_CreateTrustedDomain_recv
PUBLIC 3b972c 0 dcerpc_lsa_CreateTrustedDomain
PUBLIC 3b9780 0 dcerpc_lsa_EnumTrustDom_r_send
PUBLIC 3b9890 0 dcerpc_lsa_EnumTrustDom_r_recv
PUBLIC 3b9a00 0 dcerpc_lsa_EnumTrustDom_r
PUBLIC 3b9a2c 0 dcerpc_lsa_EnumTrustDom_send
PUBLIC 3b9b74 0 dcerpc_lsa_EnumTrustDom_recv
PUBLIC 3b9c00 0 dcerpc_lsa_EnumTrustDom
PUBLIC 3b9c60 0 dcerpc_lsa_LookupNames_r_send
PUBLIC 3b9d70 0 dcerpc_lsa_LookupNames_r_recv
PUBLIC 3b9ef0 0 dcerpc_lsa_LookupNames_r
PUBLIC 3b9f1c 0 dcerpc_lsa_LookupNames_send
PUBLIC 3ba084 0 dcerpc_lsa_LookupNames_recv
PUBLIC 3ba110 0 dcerpc_lsa_LookupNames
PUBLIC 3ba18c 0 dcerpc_lsa_LookupSids_r_send
PUBLIC 3ba29c 0 dcerpc_lsa_LookupSids_r_recv
PUBLIC 3ba41c 0 dcerpc_lsa_LookupSids_r
PUBLIC 3ba448 0 dcerpc_lsa_LookupSids_send
PUBLIC 3ba5a8 0 dcerpc_lsa_LookupSids_recv
PUBLIC 3ba634 0 dcerpc_lsa_LookupSids
PUBLIC 3ba6a8 0 dcerpc_lsa_CreateSecret_r_send
PUBLIC 3ba7b8 0 dcerpc_lsa_CreateSecret_r_recv
PUBLIC 3ba920 0 dcerpc_lsa_CreateSecret_r
PUBLIC 3ba94c 0 dcerpc_lsa_CreateSecret_send
PUBLIC 3baa94 0 dcerpc_lsa_CreateSecret_recv
PUBLIC 3bab20 0 dcerpc_lsa_CreateSecret
PUBLIC 3baba4 0 dcerpc_lsa_OpenAccount_r_send
PUBLIC 3bacb4 0 dcerpc_lsa_OpenAccount_r_recv
PUBLIC 3bae1c 0 dcerpc_lsa_OpenAccount_r
PUBLIC 3bae48 0 dcerpc_lsa_OpenAccount_send
PUBLIC 3baf88 0 dcerpc_lsa_OpenAccount_recv
PUBLIC 3bb014 0 dcerpc_lsa_OpenAccount
PUBLIC 3bb068 0 dcerpc_lsa_EnumPrivsAccount_r_send
PUBLIC 3bb178 0 dcerpc_lsa_EnumPrivsAccount_r_recv
PUBLIC 3bb2d8 0 dcerpc_lsa_EnumPrivsAccount_r
PUBLIC 3bb304 0 dcerpc_lsa_EnumPrivsAccount_send
PUBLIC 3bb424 0 dcerpc_lsa_EnumPrivsAccount_recv
PUBLIC 3bb4b0 0 dcerpc_lsa_EnumPrivsAccount
PUBLIC 3bb4f0 0 dcerpc_lsa_AddPrivilegesToAccount_r_send
PUBLIC 3bb5c4 0 dcerpc_lsa_AddPrivilegesToAccount_r_recv
PUBLIC 3bb714 0 dcerpc_lsa_AddPrivilegesToAccount_r
PUBLIC 3bb740 0 dcerpc_lsa_AddPrivilegesToAccount_send
PUBLIC 3bb81c 0 dcerpc_lsa_AddPrivilegesToAccount_recv
PUBLIC 3bb8a8 0 dcerpc_lsa_AddPrivilegesToAccount
PUBLIC 3bb8d0 0 dcerpc_lsa_RemovePrivilegesFromAccount_r_send
PUBLIC 3bb9a4 0 dcerpc_lsa_RemovePrivilegesFromAccount_r_recv
PUBLIC 3bbaf4 0 dcerpc_lsa_RemovePrivilegesFromAccount_r
PUBLIC 3bbb20 0 dcerpc_lsa_RemovePrivilegesFromAccount_send
PUBLIC 3bbc08 0 dcerpc_lsa_RemovePrivilegesFromAccount_recv
PUBLIC 3bbc94 0 dcerpc_lsa_RemovePrivilegesFromAccount
PUBLIC 3bbcc8 0 dcerpc_lsa_GetSystemAccessAccount_r_send
PUBLIC 3bbdd8 0 dcerpc_lsa_GetSystemAccessAccount_r_recv
PUBLIC 3bbf38 0 dcerpc_lsa_GetSystemAccessAccount_r
PUBLIC 3bbf64 0 dcerpc_lsa_GetSystemAccessAccount_send
PUBLIC 3bc084 0 dcerpc_lsa_GetSystemAccessAccount_recv
PUBLIC 3bc110 0 dcerpc_lsa_GetSystemAccessAccount
PUBLIC 3bc150 0 dcerpc_lsa_SetSystemAccessAccount_r_send
PUBLIC 3bc224 0 dcerpc_lsa_SetSystemAccessAccount_r_recv
PUBLIC 3bc374 0 dcerpc_lsa_SetSystemAccessAccount_r
PUBLIC 3bc3a0 0 dcerpc_lsa_SetSystemAccessAccount_send
PUBLIC 3bc47c 0 dcerpc_lsa_SetSystemAccessAccount_recv
PUBLIC 3bc508 0 dcerpc_lsa_SetSystemAccessAccount
PUBLIC 3bc530 0 dcerpc_lsa_OpenTrustedDomain_r_send
PUBLIC 3bc640 0 dcerpc_lsa_OpenTrustedDomain_r_recv
PUBLIC 3bc7a8 0 dcerpc_lsa_OpenTrustedDomain_r
PUBLIC 3bc7d4 0 dcerpc_lsa_OpenTrustedDomain_send
PUBLIC 3bc914 0 dcerpc_lsa_OpenTrustedDomain_recv
PUBLIC 3bc9a0 0 dcerpc_lsa_OpenTrustedDomain
PUBLIC 3bc9f4 0 dcerpc_lsa_QueryTrustedDomainInfo_r_send
PUBLIC 3bcb04 0 dcerpc_lsa_QueryTrustedDomainInfo_r_recv
PUBLIC 3bcc64 0 dcerpc_lsa_QueryTrustedDomainInfo_r
PUBLIC 3bcc90 0 dcerpc_lsa_QueryTrustedDomainInfo_send
PUBLIC 3bcdbc 0 dcerpc_lsa_QueryTrustedDomainInfo_recv
PUBLIC 3bce48 0 dcerpc_lsa_QueryTrustedDomainInfo
PUBLIC 3bce84 0 dcerpc_lsa_SetInformationTrustedDomain_r_send
PUBLIC 3bcf58 0 dcerpc_lsa_SetInformationTrustedDomain_r_recv
PUBLIC 3bd0a8 0 dcerpc_lsa_SetInformationTrustedDomain_r
PUBLIC 3bd0d4 0 dcerpc_lsa_SetInformationTrustedDomain_send
PUBLIC 3bd1bc 0 dcerpc_lsa_SetInformationTrustedDomain_recv
PUBLIC 3bd248 0 dcerpc_lsa_SetInformationTrustedDomain
PUBLIC 3bd278 0 dcerpc_lsa_OpenSecret_r_send
PUBLIC 3bd388 0 dcerpc_lsa_OpenSecret_r_recv
PUBLIC 3bd4f0 0 dcerpc_lsa_OpenSecret_r
PUBLIC 3bd51c 0 dcerpc_lsa_OpenSecret_send
PUBLIC 3bd664 0 dcerpc_lsa_OpenSecret_recv
PUBLIC 3bd6f0 0 dcerpc_lsa_OpenSecret
PUBLIC 3bd774 0 dcerpc_lsa_SetSecret_r_send
PUBLIC 3bd848 0 dcerpc_lsa_SetSecret_r_recv
PUBLIC 3bd998 0 dcerpc_lsa_SetSecret_r
PUBLIC 3bd9c4 0 dcerpc_lsa_SetSecret_send
PUBLIC 3bdaac 0 dcerpc_lsa_SetSecret_recv
PUBLIC 3bdb38 0 dcerpc_lsa_SetSecret
PUBLIC 3bdb68 0 dcerpc_lsa_QuerySecret_r_send
PUBLIC 3bdc78 0 dcerpc_lsa_QuerySecret_r_recv
PUBLIC 3bde38 0 dcerpc_lsa_QuerySecret_r
PUBLIC 3bde64 0 dcerpc_lsa_QuerySecret_send
PUBLIC 3bdfc8 0 dcerpc_lsa_QuerySecret_recv
PUBLIC 3be054 0 dcerpc_lsa_QuerySecret
PUBLIC 3be104 0 dcerpc_lsa_LookupPrivValue_r_send
PUBLIC 3be214 0 dcerpc_lsa_LookupPrivValue_r_recv
PUBLIC 3be374 0 dcerpc_lsa_LookupPrivValue_r
PUBLIC 3be3a0 0 dcerpc_lsa_LookupPrivValue_send
PUBLIC 3be4cc 0 dcerpc_lsa_LookupPrivValue_recv
PUBLIC 3be558 0 dcerpc_lsa_LookupPrivValue
PUBLIC 3be598 0 dcerpc_lsa_LookupPrivName_r_send
PUBLIC 3be6a8 0 dcerpc_lsa_LookupPrivName_r_recv
PUBLIC 3be808 0 dcerpc_lsa_LookupPrivName_r
PUBLIC 3be834 0 dcerpc_lsa_LookupPrivName_send
PUBLIC 3be960 0 dcerpc_lsa_LookupPrivName_recv
PUBLIC 3be9ec 0 dcerpc_lsa_LookupPrivName
PUBLIC 3bea28 0 dcerpc_lsa_LookupPrivDisplayName_r_send
PUBLIC 3beb38 0 dcerpc_lsa_LookupPrivDisplayName_r_recv
PUBLIC 3beca8 0 dcerpc_lsa_LookupPrivDisplayName_r
PUBLIC 3becd4 0 dcerpc_lsa_LookupPrivDisplayName_send
PUBLIC 3bee24 0 dcerpc_lsa_LookupPrivDisplayName_recv
PUBLIC 3beeb0 0 dcerpc_lsa_LookupPrivDisplayName
PUBLIC 3bef0c 0 dcerpc_lsa_DeleteObject_r_send
PUBLIC 3bf01c 0 dcerpc_lsa_DeleteObject_r_recv
PUBLIC 3bf184 0 dcerpc_lsa_DeleteObject_r
PUBLIC 3bf1b0 0 dcerpc_lsa_DeleteObject_send
PUBLIC 3bf2cc 0 dcerpc_lsa_DeleteObject_recv
PUBLIC 3bf358 0 dcerpc_lsa_DeleteObject
PUBLIC 3bf3a4 0 dcerpc_lsa_EnumAccountsWithUserRight_r_send
PUBLIC 3bf4b4 0 dcerpc_lsa_EnumAccountsWithUserRight_r_recv
PUBLIC 3bf614 0 dcerpc_lsa_EnumAccountsWithUserRight_r
PUBLIC 3bf640 0 dcerpc_lsa_EnumAccountsWithUserRight_send
PUBLIC 3bf76c 0 dcerpc_lsa_EnumAccountsWithUserRight_recv
PUBLIC 3bf7f8 0 dcerpc_lsa_EnumAccountsWithUserRight
PUBLIC 3bf838 0 dcerpc_lsa_EnumAccountRights_r_send
PUBLIC 3bf948 0 dcerpc_lsa_EnumAccountRights_r_recv
PUBLIC 3bfaa8 0 dcerpc_lsa_EnumAccountRights_r
PUBLIC 3bfad4 0 dcerpc_lsa_EnumAccountRights_send
PUBLIC 3bfc00 0 dcerpc_lsa_EnumAccountRights_recv
PUBLIC 3bfc8c 0 dcerpc_lsa_EnumAccountRights
PUBLIC 3bfccc 0 dcerpc_lsa_AddAccountRights_r_send
PUBLIC 3bfda0 0 dcerpc_lsa_AddAccountRights_r_recv
PUBLIC 3bfef0 0 dcerpc_lsa_AddAccountRights_r
PUBLIC 3bff1c 0 dcerpc_lsa_AddAccountRights_send
PUBLIC 3c0004 0 dcerpc_lsa_AddAccountRights_recv
PUBLIC 3c0090 0 dcerpc_lsa_AddAccountRights
PUBLIC 3c00c0 0 dcerpc_lsa_RemoveAccountRights_r_send
PUBLIC 3c0194 0 dcerpc_lsa_RemoveAccountRights_r_recv
PUBLIC 3c02e4 0 dcerpc_lsa_RemoveAccountRights_r
PUBLIC 3c0310 0 dcerpc_lsa_RemoveAccountRights_send
PUBLIC 3c040c 0 dcerpc_lsa_RemoveAccountRights_recv
PUBLIC 3c0498 0 dcerpc_lsa_RemoveAccountRights
PUBLIC 3c04d0 0 dcerpc_lsa_QueryTrustedDomainInfoBySid_r_send
PUBLIC 3c05e0 0 dcerpc_lsa_QueryTrustedDomainInfoBySid_r_recv
PUBLIC 3c0740 0 dcerpc_lsa_QueryTrustedDomainInfoBySid_r
PUBLIC 3c076c 0 dcerpc_lsa_QueryTrustedDomainInfoBySid_send
PUBLIC 3c08ac 0 dcerpc_lsa_QueryTrustedDomainInfoBySid_recv
PUBLIC 3c0938 0 dcerpc_lsa_QueryTrustedDomainInfoBySid
PUBLIC 3c097c 0 dcerpc_lsa_SetTrustedDomainInfo_r_send
PUBLIC 3c0a50 0 dcerpc_lsa_SetTrustedDomainInfo_r_recv
PUBLIC 3c0ba0 0 dcerpc_lsa_SetTrustedDomainInfo_r
PUBLIC 3c0bcc 0 dcerpc_lsa_SetTrustedDomainInfo_send
PUBLIC 3c0cc8 0 dcerpc_lsa_SetTrustedDomainInfo_recv
PUBLIC 3c0d54 0 dcerpc_lsa_SetTrustedDomainInfo
PUBLIC 3c0d8c 0 dcerpc_lsa_DeleteTrustedDomain_r_send
PUBLIC 3c0e60 0 dcerpc_lsa_DeleteTrustedDomain_r_recv
PUBLIC 3c0fb0 0 dcerpc_lsa_DeleteTrustedDomain_r
PUBLIC 3c0fdc 0 dcerpc_lsa_DeleteTrustedDomain_send
PUBLIC 3c10b8 0 dcerpc_lsa_DeleteTrustedDomain_recv
PUBLIC 3c1144 0 dcerpc_lsa_DeleteTrustedDomain
PUBLIC 3c116c 0 dcerpc_lsa_StorePrivateData_r_send
PUBLIC 3c1240 0 dcerpc_lsa_StorePrivateData_r_recv
PUBLIC 3c1390 0 dcerpc_lsa_StorePrivateData_r
PUBLIC 3c13bc 0 dcerpc_lsa_StorePrivateData_send
PUBLIC 3c14a4 0 dcerpc_lsa_StorePrivateData_recv
PUBLIC 3c1530 0 dcerpc_lsa_StorePrivateData
PUBLIC 3c1560 0 dcerpc_lsa_RetrievePrivateData_r_send
PUBLIC 3c1670 0 dcerpc_lsa_RetrievePrivateData_r_recv
PUBLIC 3c17d0 0 dcerpc_lsa_RetrievePrivateData_r
PUBLIC 3c17fc 0 dcerpc_lsa_RetrievePrivateData_send
PUBLIC 3c1938 0 dcerpc_lsa_RetrievePrivateData_recv
PUBLIC 3c19c4 0 dcerpc_lsa_RetrievePrivateData
PUBLIC 3c1a04 0 dcerpc_lsa_OpenPolicy2_r_send
PUBLIC 3c1b14 0 dcerpc_lsa_OpenPolicy2_r_recv
PUBLIC 3c1c7c 0 dcerpc_lsa_OpenPolicy2_r
PUBLIC 3c1ca8 0 dcerpc_lsa_OpenPolicy2_send
PUBLIC 3c1de8 0 dcerpc_lsa_OpenPolicy2_recv
PUBLIC 3c1e74 0 dcerpc_lsa_OpenPolicy2
PUBLIC 3c1ec8 0 dcerpc_lsa_GetUserName_r_send
PUBLIC 3c1fd8 0 dcerpc_lsa_GetUserName_r_recv
PUBLIC 3c2154 0 dcerpc_lsa_GetUserName_r
PUBLIC 3c2180 0 dcerpc_lsa_GetUserName_send
PUBLIC 3c22c0 0 dcerpc_lsa_GetUserName_recv
PUBLIC 3c234c 0 dcerpc_lsa_GetUserName
PUBLIC 3c23b0 0 dcerpc_lsa_QueryInfoPolicy2_r_send
PUBLIC 3c24c0 0 dcerpc_lsa_QueryInfoPolicy2_r_recv
PUBLIC 3c2620 0 dcerpc_lsa_QueryInfoPolicy2_r
PUBLIC 3c264c 0 dcerpc_lsa_QueryInfoPolicy2_send
PUBLIC 3c2778 0 dcerpc_lsa_QueryInfoPolicy2_recv
PUBLIC 3c2804 0 dcerpc_lsa_QueryInfoPolicy2
PUBLIC 3c2840 0 dcerpc_lsa_SetInfoPolicy2_r_send
PUBLIC 3c2914 0 dcerpc_lsa_SetInfoPolicy2_r_recv
PUBLIC 3c2a64 0 dcerpc_lsa_SetInfoPolicy2_r
PUBLIC 3c2a90 0 dcerpc_lsa_SetInfoPolicy2_send
PUBLIC 3c2b78 0 dcerpc_lsa_SetInfoPolicy2_recv
PUBLIC 3c2c04 0 dcerpc_lsa_SetInfoPolicy2
PUBLIC 3c2c34 0 dcerpc_lsa_QueryTrustedDomainInfoByName_r_send
PUBLIC 3c2d44 0 dcerpc_lsa_QueryTrustedDomainInfoByName_r_recv
PUBLIC 3c2ea4 0 dcerpc_lsa_QueryTrustedDomainInfoByName_r
PUBLIC 3c2ed0 0 dcerpc_lsa_QueryTrustedDomainInfoByName_send
PUBLIC 3c3010 0 dcerpc_lsa_QueryTrustedDomainInfoByName_recv
PUBLIC 3c309c 0 dcerpc_lsa_QueryTrustedDomainInfoByName
PUBLIC 3c30e0 0 dcerpc_lsa_SetTrustedDomainInfoByName_r_send
PUBLIC 3c31b4 0 dcerpc_lsa_SetTrustedDomainInfoByName_r_recv
PUBLIC 3c3304 0 dcerpc_lsa_SetTrustedDomainInfoByName_r
PUBLIC 3c3330 0 dcerpc_lsa_SetTrustedDomainInfoByName_send
PUBLIC 3c342c 0 dcerpc_lsa_SetTrustedDomainInfoByName_recv
PUBLIC 3c34b8 0 dcerpc_lsa_SetTrustedDomainInfoByName
PUBLIC 3c34f0 0 dcerpc_lsa_EnumTrustedDomainsEx_r_send
PUBLIC 3c3600 0 dcerpc_lsa_EnumTrustedDomainsEx_r_recv
PUBLIC 3c3770 0 dcerpc_lsa_EnumTrustedDomainsEx_r
PUBLIC 3c379c 0 dcerpc_lsa_EnumTrustedDomainsEx_send
PUBLIC 3c38e4 0 dcerpc_lsa_EnumTrustedDomainsEx_recv
PUBLIC 3c3970 0 dcerpc_lsa_EnumTrustedDomainsEx
PUBLIC 3c39d0 0 dcerpc_lsa_CreateTrustedDomainEx_r_send
PUBLIC 3c3ae0 0 dcerpc_lsa_CreateTrustedDomainEx_r_recv
PUBLIC 3c3c48 0 dcerpc_lsa_CreateTrustedDomainEx_r
PUBLIC 3c3c74 0 dcerpc_lsa_CreateTrustedDomainEx_send
PUBLIC 3c3dbc 0 dcerpc_lsa_CreateTrustedDomainEx_recv
PUBLIC 3c3e48 0 dcerpc_lsa_CreateTrustedDomainEx
PUBLIC 3c3ea4 0 dcerpc_lsa_CloseTrustedDomainEx_r_send
PUBLIC 3c3fb4 0 dcerpc_lsa_CloseTrustedDomainEx_r_recv
PUBLIC 3c411c 0 dcerpc_lsa_CloseTrustedDomainEx_r
PUBLIC 3c4148 0 dcerpc_lsa_CloseTrustedDomainEx_send
PUBLIC 3c4264 0 dcerpc_lsa_CloseTrustedDomainEx_recv
PUBLIC 3c42f0 0 dcerpc_lsa_CloseTrustedDomainEx
PUBLIC 3c433c 0 dcerpc_lsa_QueryDomainInformationPolicy_r_send
PUBLIC 3c444c 0 dcerpc_lsa_QueryDomainInformationPolicy_r_recv
PUBLIC 3c45ac 0 dcerpc_lsa_QueryDomainInformationPolicy_r
PUBLIC 3c45d8 0 dcerpc_lsa_QueryDomainInformationPolicy_send
PUBLIC 3c4704 0 dcerpc_lsa_QueryDomainInformationPolicy_recv
PUBLIC 3c4790 0 dcerpc_lsa_QueryDomainInformationPolicy
PUBLIC 3c47d0 0 dcerpc_lsa_SetDomainInformationPolicy_r_send
PUBLIC 3c48a4 0 dcerpc_lsa_SetDomainInformationPolicy_r_recv
PUBLIC 3c49f4 0 dcerpc_lsa_SetDomainInformationPolicy_r
PUBLIC 3c4a20 0 dcerpc_lsa_SetDomainInformationPolicy_send
PUBLIC 3c4b08 0 dcerpc_lsa_SetDomainInformationPolicy_recv
PUBLIC 3c4b94 0 dcerpc_lsa_SetDomainInformationPolicy
PUBLIC 3c4bc8 0 dcerpc_lsa_OpenTrustedDomainByName_r_send
PUBLIC 3c4cd8 0 dcerpc_lsa_OpenTrustedDomainByName_r_recv
PUBLIC 3c4e40 0 dcerpc_lsa_OpenTrustedDomainByName_r
PUBLIC 3c4e6c 0 dcerpc_lsa_OpenTrustedDomainByName_send
PUBLIC 3c4fb4 0 dcerpc_lsa_OpenTrustedDomainByName_recv
PUBLIC 3c5040 0 dcerpc_lsa_OpenTrustedDomainByName
PUBLIC 3c50c4 0 dcerpc_lsa_LookupSids2_r_send
PUBLIC 3c51d4 0 dcerpc_lsa_LookupSids2_r_recv
PUBLIC 3c5354 0 dcerpc_lsa_LookupSids2_r
PUBLIC 3c5380 0 dcerpc_lsa_LookupSids2_send
PUBLIC 3c54f0 0 dcerpc_lsa_LookupSids2_recv
PUBLIC 3c557c 0 dcerpc_lsa_LookupSids2
PUBLIC 3c5600 0 dcerpc_lsa_LookupNames2_r_send
PUBLIC 3c5710 0 dcerpc_lsa_LookupNames2_r_recv
PUBLIC 3c5890 0 dcerpc_lsa_LookupNames2_r
PUBLIC 3c58bc 0 dcerpc_lsa_LookupNames2_send
PUBLIC 3c5a34 0 dcerpc_lsa_LookupNames2_recv
PUBLIC 3c5ac0 0 dcerpc_lsa_LookupNames2
PUBLIC 3c5b4c 0 dcerpc_lsa_CreateTrustedDomainEx2_r_send
PUBLIC 3c5c5c 0 dcerpc_lsa_CreateTrustedDomainEx2_r_recv
PUBLIC 3c5dc4 0 dcerpc_lsa_CreateTrustedDomainEx2_r
PUBLIC 3c5df0 0 dcerpc_lsa_CreateTrustedDomainEx2_send
PUBLIC 3c5f38 0 dcerpc_lsa_CreateTrustedDomainEx2_recv
PUBLIC 3c5fc4 0 dcerpc_lsa_CreateTrustedDomainEx2
PUBLIC 3c6020 0 dcerpc_lsa_LookupNames3_r_send
PUBLIC 3c6130 0 dcerpc_lsa_LookupNames3_r_recv
PUBLIC 3c62b0 0 dcerpc_lsa_LookupNames3_r
PUBLIC 3c62dc 0 dcerpc_lsa_LookupNames3_send
PUBLIC 3c6454 0 dcerpc_lsa_LookupNames3_recv
PUBLIC 3c64e0 0 dcerpc_lsa_LookupNames3
PUBLIC 3c656c 0 dcerpc_lsa_lsaRQueryForestTrustInformation_r_send
PUBLIC 3c667c 0 dcerpc_lsa_lsaRQueryForestTrustInformation_r_recv
PUBLIC 3c67dc 0 dcerpc_lsa_lsaRQueryForestTrustInformation_r
PUBLIC 3c6808 0 dcerpc_lsa_lsaRQueryForestTrustInformation_send
PUBLIC 3c6948 0 dcerpc_lsa_lsaRQueryForestTrustInformation_recv
PUBLIC 3c69d4 0 dcerpc_lsa_lsaRQueryForestTrustInformation
PUBLIC 3c6a18 0 dcerpc_lsa_lsaRSetForestTrustInformation_r_send
PUBLIC 3c6b28 0 dcerpc_lsa_lsaRSetForestTrustInformation_r_recv
PUBLIC 3c6c88 0 dcerpc_lsa_lsaRSetForestTrustInformation_r
PUBLIC 3c6cb4 0 dcerpc_lsa_lsaRSetForestTrustInformation_send
PUBLIC 3c6e04 0 dcerpc_lsa_lsaRSetForestTrustInformation_recv
PUBLIC 3c6e90 0 dcerpc_lsa_lsaRSetForestTrustInformation
PUBLIC 3c6ee8 0 dcerpc_lsa_LookupSids3_r_send
PUBLIC 3c6ff8 0 dcerpc_lsa_LookupSids3_r_recv
PUBLIC 3c7178 0 dcerpc_lsa_LookupSids3_r
PUBLIC 3c71a4 0 dcerpc_lsa_LookupSids3_send
PUBLIC 3c730c 0 dcerpc_lsa_LookupSids3_recv
PUBLIC 3c7398 0 dcerpc_lsa_LookupSids3
PUBLIC 3c741c 0 dcerpc_lsa_LookupNames4_r_send
PUBLIC 3c752c 0 dcerpc_lsa_LookupNames4_r_recv
PUBLIC 3c76ac 0 dcerpc_lsa_LookupNames4_r
PUBLIC 3c76d8 0 dcerpc_lsa_LookupNames4_send
PUBLIC 3c7848 0 dcerpc_lsa_LookupNames4_recv
PUBLIC 3c78d4 0 dcerpc_lsa_LookupNames4
PUBLIC 3c7958 0 dcerpc_lsa_open_policy
PUBLIC 3c79f4 0 rpccli_lsa_open_policy
PUBLIC 3c7a28 0 dcerpc_lsa_open_policy2
PUBLIC 3c7ac0 0 rpccli_lsa_open_policy2
PUBLIC 3c7b08 0 dcerpc_lsa_lookup_sids_generic
PUBLIC 3c8338 0 dcerpc_lsa_lookup_sids
PUBLIC 3c8378 0 rpccli_lsa_lookup_sids
PUBLIC 3c83d0 0 dcerpc_lsa_lookup_sids3
PUBLIC 3c8410 0 dcerpc_lsa_lookup_names_generic
PUBLIC 3c885c 0 dcerpc_lsa_lookup_names
PUBLIC 3c88a8 0 rpccli_lsa_lookup_names
PUBLIC 3c8900 0 dcerpc_lsa_lookup_names4
PUBLIC 3c894c 0 init_lsa_String
PUBLIC 3c8974 0 init_lsa_StringLarge
PUBLIC 3c897c 0 init_lsa_AsciiString
PUBLIC 3c8984 0 init_lsa_AsciiStringLarge
PUBLIC 3c898c 0 smbc_thread_impl
PUBLIC 3c8a98 0 smbc_thread_posix
PUBLIC 3c8b54 0 talloc_version_major
PUBLIC 3c8b5c 0 talloc_version_minor
PUBLIC 3c8b64 0 talloc_set_log_fn
PUBLIC 3c8b78 0 talloc_set_log_stderr
PUBLIC 3c8b88 0 talloc_set_abort_fn
PUBLIC 3c8b9c 0 talloc_is_parent
PUBLIC 3c8e58 0 talloc_unlink
PUBLIC 3c8f30 0 _talloc_free
PUBLIC 3c91f4 0 talloc_parent
PUBLIC 3c9208 0 talloc_parent_name
PUBLIC 3c9304 0 _talloc
PUBLIC 3c9308 0 talloc_pool
PUBLIC 3c9378 0 _talloc_set_destructor
PUBLIC 3c9430 0 talloc_named_const
PUBLIC 3c9434 0 talloc_enable_null_tracking_no_autofree
PUBLIC 3c946c 0 _talloc_zero
PUBLIC 3c9494 0 _talloc_zero_array
PUBLIC 3c94d4 0 _talloc_memdup
PUBLIC 3c9508 0 _talloc_array
PUBLIC 3c9548 0 talloc_autofree_context
PUBLIC 3c95ac 0 talloc_set_name_const
PUBLIC 3c95f4 0 talloc_strdup
PUBLIC 3c9624 0 talloc_strndup
PUBLIC 3c9658 0 talloc_vasprintf
PUBLIC 3c96d8 0 talloc_asprintf
PUBLIC 3c9700 0 _talloc_reference_loc
PUBLIC 3c9788 0 talloc_increase_ref_count
PUBLIC 3c9a10 0 talloc_reparent
PUBLIC 3c9a94 0 talloc_enable_null_tracking
PUBLIC 3c9ae8 0 talloc_enable_leak_report
PUBLIC 3c9b04 0 talloc_enable_leak_report_full
PUBLIC 3c9be4 0 talloc_set_name
PUBLIC 3c9c0c 0 talloc_get_name
PUBLIC 3c9c48 0 talloc_check_name
PUBLIC 3c9c84 0 _talloc_get_type_abort
PUBLIC 3c9d44 0 talloc_free_children
PUBLIC 3c9e44 0 talloc_total_size
PUBLIC 3c9ecc 0 talloc_total_blocks
PUBLIC 3c9f4c 0 talloc_reference_count
PUBLIC 3ca088 0 talloc_report_depth_cb
PUBLIC 3ca164 0 talloc_report_depth_file
PUBLIC 3ca19c 0 talloc_report_full
PUBLIC 3ca1e8 0 talloc_report
PUBLIC 3ca234 0 talloc_get_size
PUBLIC 3ca264 0 talloc_find_parent_byname
PUBLIC 3ca2c8 0 talloc_show_parents
PUBLIC 3ca368 0 _talloc_steal_loc
PUBLIC 3ca3f8 0 _talloc_move
PUBLIC 3ca420 0 talloc_disable_null_tracking
PUBLIC 3ca4ec 0 _talloc_realloc
PUBLIC 3ca804 0 _talloc_realloc_array
PUBLIC 3ca8c4 0 talloc_strdup_append
PUBLIC 3ca90c 0 talloc_strdup_append_buffer
PUBLIC 3ca958 0 talloc_strndup_append
PUBLIC 3ca9a8 0 talloc_strndup_append_buffer
PUBLIC 3caa88 0 talloc_vasprintf_append
PUBLIC 3caac0 0 talloc_asprintf_append
PUBLIC 3caae8 0 talloc_vasprintf_append_buffer
PUBLIC 3cab24 0 talloc_asprintf_append_buffer
PUBLIC 3cab4c 0 talloc_realloc_fn
PUBLIC 3cab54 0 talloc_named
PUBLIC 3cabb0 0 talloc_init
PUBLIC 3cae0c 0 tdb_increment_seqnum_nonblock
PUBLIC 3caea8 0 tdb_find_lock_hash
PUBLIC 3cb030 0 tdb_fetch
PUBLIC 3cb050 0 tdb_parse_record
PUBLIC 3cb0f8 0 tdb_exists
PUBLIC 3cb128 0 tdb_do_delete
PUBLIC 3cb968 0 tdb_delete
PUBLIC 3cb998 0 tdb_store
PUBLIC 3cbaac 0 tdb_append
PUBLIC 3cbbcc 0 tdb_name
PUBLIC 3cbbd4 0 tdb_fd
PUBLIC 3cbbdc 0 tdb_log_fn
PUBLIC 3cbbe4 0 tdb_get_seqnum
PUBLIC 3cbc08 0 tdb_hash_size
PUBLIC 3cbc10 0 tdb_map_size
PUBLIC 3cbc18 0 tdb_get_flags
PUBLIC 3cbc20 0 tdb_add_flags
PUBLIC 3cbc84 0 tdb_remove_flags
PUBLIC 3cbce8 0 tdb_enable_seqnum
PUBLIC 3cbcf8 0 tdb_wipe_all
PUBLIC 3cbef8 0 tdb_repack
PUBLIC 3cc0fc 0 tdb_write_all
PUBLIC 3ccc68 0 tdb_transaction_start
PUBLIC 3ccc70 0 tdb_transaction_start_nonblock
PUBLIC 3ccc78 0 tdb_transaction_cancel
PUBLIC 3ccc7c 0 tdb_recovery_area
PUBLIC 3cd444 0 tdb_transaction_prepare_commit
PUBLIC 3cd448 0 tdb_transaction_recover
PUBLIC 3cd7cc 0 tdb_transaction_commit
PUBLIC 3cda4c 0 tdb_needs_recovery
PUBLIC 3cdad0 0 tdb_error
PUBLIC 3cdad8 0 tdb_errorstr
PUBLIC 3cdef0 0 tdb_traverse_read
PUBLIC 3cdf78 0 tdb_traverse
PUBLIC 3ce034 0 tdb_firstkey
PUBLIC 3ce108 0 tdb_nextkey
PUBLIC 3ce390 0 tdb_rec_free_read
PUBLIC 3ce494 0 tdb_free
PUBLIC 3ce728 0 tdb_allocate
PUBLIC 3ce99c 0 tdb_freelist_size
PUBLIC 3cedbc 0 tdb_convert
PUBLIC 3ceed0 0 tdb_munmap
PUBLIC 3cef18 0 tdb_mmap
PUBLIC 3cf0ac 0 tdb_expand
PUBLIC 3cf26c 0 tdb_ofs_read
PUBLIC 3cf334 0 tdb_ofs_write
PUBLIC 3cf384 0 tdb_alloc_read
PUBLIC 3cf42c 0 tdb_parse_data
PUBLIC 3cf4f4 0 tdb_rec_read
PUBLIC 3cf5a0 0 tdb_rec_write
PUBLIC 3cf608 0 tdb_io_init
PUBLIC 3cf664 0 tdb_setalarm_sigptr
PUBLIC 3cf66c 0 tdb_brlock
PUBLIC 3cf7c8 0 tdb_brunlock
PUBLIC 3cf9f4 0 tdb_allrecord_upgrade
PUBLIC 3cfaec 0 tdb_nest_lock
PUBLIC 3cfbf0 0 tdb_nest_unlock
PUBLIC 3cfe0c 0 tdb_lock
PUBLIC 3cfe6c 0 tdb_lock_nonblock
PUBLIC 3cfe74 0 tdb_unlock
PUBLIC 3cfec4 0 tdb_transaction_lock
PUBLIC 3cfed8 0 tdb_transaction_unlock
PUBLIC 3cfee8 0 tdb_allrecord_unlock
PUBLIC 3cffb8 0 tdb_lockall_unmark
PUBLIC 3cffc4 0 tdb_unlockall
PUBLIC 3cffd0 0 tdb_unlockall_read
PUBLIC 3cffdc 0 tdb_chainlock
PUBLIC 3d0010 0 tdb_chainlock_nonblock
PUBLIC 3d0044 0 tdb_chainlock_mark
PUBLIC 3d0084 0 tdb_chainlock_unmark
PUBLIC 3d00c4 0 tdb_chainunlock
PUBLIC 3d00f8 0 tdb_chainlock_read
PUBLIC 3d012c 0 tdb_chainunlock_read
PUBLIC 3d0160 0 tdb_lock_record
PUBLIC 3d0198 0 tdb_write_lock_record
PUBLIC 3d0200 0 tdb_write_unlock_record
PUBLIC 3d0224 0 tdb_unlock_record
PUBLIC 3d026c 0 tdb_have_extra_locks
PUBLIC 3d02d4 0 tdb_allrecord_lock
PUBLIC 3d0458 0 tdb_lockall
PUBLIC 3d0468 0 tdb_lockall_mark
PUBLIC 3d0478 0 tdb_lockall_nonblock
PUBLIC 3d0488 0 tdb_lockall_read
PUBLIC 3d0498 0 tdb_lockall_read_nonblock
PUBLIC 3d04a8 0 tdb_release_transaction_locks
PUBLIC 3d055c 0 tdb_header_hash
PUBLIC 3d0768 0 tdb_open_ex
PUBLIC 3d10bc 0 tdb_open
PUBLIC 3d10e0 0 tdb_set_max_dead
PUBLIC 3d10e8 0 tdb_close
PUBLIC 3d129c 0 tdb_set_logging_function
PUBLIC 3d12ac 0 tdb_get_logging_private
PUBLIC 3d12b4 0 tdb_reopen
PUBLIC 3d12d0 0 tdb_reopen_all
PUBLIC 3d158c 0 tdb_dead_space
PUBLIC 3d1600 0 tdb_check
PUBLIC 3d1d1c 0 tdb_old_hash
PUBLIC 3d1d78 0 tdb_jenkins_hash
PUBLIC 3d21b4 0 wbcRequestResponse
PUBLIC 3d21e0 0 wbcRequestResponsePriv
PUBLIC 3d220c 0 wbcErrorString
PUBLIC 3d2340 0 wbcAllocateMemory
PUBLIC 3d2394 0 wbcFreeMemory
PUBLIC 3d23dc 0 wbcStrDup
PUBLIC 3d2418 0 wbcAllocateStringArray
PUBLIC 3d2430 0 wbcLibraryDetails
PUBLIC 3d2484 0 wbcSidToUid
PUBLIC 3d250c 0 wbcQuerySidToUid
PUBLIC 3d2514 0 wbcUidToSid
PUBLIC 3d2590 0 wbcQueryUidToSid
PUBLIC 3d2598 0 wbcSidToGid
PUBLIC 3d2620 0 wbcQuerySidToGid
PUBLIC 3d2628 0 wbcGidToSid
PUBLIC 3d26a4 0 wbcQueryGidToSid
PUBLIC 3d26ac 0 wbcAllocateUid
PUBLIC 3d2710 0 wbcAllocateGid
PUBLIC 3d2774 0 wbcSetUidMapping
PUBLIC 3d277c 0 wbcSetGidMapping
PUBLIC 3d2784 0 wbcRemoveUidMapping
PUBLIC 3d278c 0 wbcRemoveGidMapping
PUBLIC 3d2794 0 wbcSetUidHwm
PUBLIC 3d279c 0 wbcSetGidHwm
PUBLIC 3d27a4 0 wbcSidsToUnixIds
PUBLIC 3d29d8 0 wbcSidToStringBuf
PUBLIC 3d2a9c 0 wbcSidToString
PUBLIC 3d2b08 0 wbcStringToSid
PUBLIC 3d2c54 0 wbcLookupName
PUBLIC 3d2d10 0 wbcLookupSid
PUBLIC 3d2df8 0 wbcLookupSids
PUBLIC 3d3214 0 wbcLookupRids
PUBLIC 3d34a8 0 wbcLookupUserSids
PUBLIC 3d3604 0 wbcGetSidAliases
PUBLIC 3d3860 0 wbcListUsers
PUBLIC 3d399c 0 wbcListGroups
PUBLIC 3d3ad8 0 wbcGetDisplayName
PUBLIC 3d3b94 0 wbcSidTypeString
PUBLIC 3d4210 0 wbcAuthenticateUserEx
PUBLIC 3d4538 0 wbcAuthenticateUser
PUBLIC 3d4580 0 wbcCheckTrustCredentials
PUBLIC 3d4620 0 wbcChangeTrustCredentials
PUBLIC 3d46c0 0 wbcPingDc
PUBLIC 3d474c 0 wbcLogoffUserEx
PUBLIC 3d4908 0 wbcLogoffUser
PUBLIC 3d4994 0 wbcChangeUserPasswordEx
PUBLIC 3d4c70 0 wbcChangeUserPassword
PUBLIC 3d4cc4 0 wbcLogonUser
PUBLIC 3d50a8 0 wbcCredentialCache
PUBLIC 3d53b8 0 wbcCredentialSave
PUBLIC 3d572c 0 winbindd_free_response
PUBLIC 3d581c 0 winbindd_get_response
PUBLIC 3d590c 0 winbindd_request_response
PUBLIC 3d5c7c 0 winbindd_send_request
PUBLIC 3d5cf4 0 winbindd_priv_request_response
PUBLIC 3d5e30 0 wbcPing
PUBLIC 3d5e7c 0 wbcDomainInfo
PUBLIC 3d5fcc 0 wbcInterfaceDetails
PUBLIC 3d6178 0 wbcDcInfo
PUBLIC 3d636c 0 wbcResolveWinsByName
PUBLIC 3d63f8 0 wbcResolveWinsByIP
PUBLIC 3d6484 0 wbcListTrusts
PUBLIC 3d683c 0 wbcLookupDomainController
PUBLIC 3d6920 0 wbcLookupDomainControllerEx
PUBLIC 3d6b6c 0 wbcAddNamedBlob
PUBLIC 3d6e88 0 wbcGetpwnam
PUBLIC 3d6f2c 0 wbcGetpwuid
PUBLIC 3d6fb4 0 wbcGetpwsid
PUBLIC 3d7048 0 wbcGetgrnam
PUBLIC 3d70fc 0 wbcGetgrgid
PUBLIC 3d71a0 0 wbcSetpwent
PUBLIC 3d7200 0 wbcEndpwent
PUBLIC 3d7244 0 wbcGetpwent
PUBLIC 3d72fc 0 wbcSetgrent
PUBLIC 3d7364 0 wbcEndgrent
PUBLIC 3d73ac 0 wbcGetgrent
PUBLIC 3d747c 0 wbcGetgrlist
PUBLIC 3d7550 0 wbcGetGroups
PUBLIC 3d7634 0 wbcGuidToString
PUBLIC 3d76d8 0 wbcStringToGuid
PUBLIC 3d782c 0 __aeabi_uidiv
PUBLIC 3d78d4 0 __aeabi_uidivmod
PUBLIC 3d78f4 0 __aeabi_idiv
PUBLIC 3d79d0 0 __aeabi_idivmod
PUBLIC 3d79f0 0 __aeabi_drsub
PUBLIC 3d79f8 0 __subdf3
PUBLIC 3d79fc 0 __adddf3
PUBLIC 3d7ca8 0 __floatunsidf
PUBLIC 3d7ccc 0 __floatsidf
PUBLIC 3d7cf4 0 __extendsfdf2
PUBLIC 3d7d34 0 __floatundidf
PUBLIC 3d7d48 0 __aeabi_l2d
PUBLIC 3d7da8 0 __aeabi_frsub
PUBLIC 3d7db0 0 __subsf3
PUBLIC 3d7db4 0 __addsf3
PUBLIC 3d7f44 0 __floatunsisf
PUBLIC 3d7f4c 0 __floatsisf
PUBLIC 3d7f6c 0 __aeabi_ul2f
PUBLIC 3d7f7c 0 __floatdisf
PUBLIC 3d7ff8 0 __aeabi_ldivmod
PUBLIC 3d803c 0 __aeabi_uldivmod
PUBLIC 3d8078 0 __aeabi_idiv0
PUBLIC 3d8088 0 __aeabi_d2lz
PUBLIC 3d80cc 0 __aeabi_d2ulz
PUBLIC 3d8134 0 __gnu_ldivmod_helper
PUBLIC 3d8170 0 __gnu_uldivmod_helper
PUBLIC 3d85e0 0 _Unwind_GetCFA
PUBLIC 3d85e8 0 __gnu_Unwind_RaiseException
PUBLIC 3d868c 0 __gnu_Unwind_ForcedUnwind
PUBLIC 3d86a8 0 __gnu_Unwind_Resume
PUBLIC 3d871c 0 __gnu_Unwind_Resume_or_Rethrow
PUBLIC 3d873c 0 _Unwind_Complete
PUBLIC 3d8740 0 _Unwind_DeleteException
PUBLIC 3d8760 0 _Unwind_VRS_Get
PUBLIC 3d87e4 0 _Unwind_VRS_Set
PUBLIC 3d886c 0 __gnu_Unwind_Backtrace
PUBLIC 3d8d20 0 __aeabi_unwind_cpp_pr0
PUBLIC 3d8d28 0 __aeabi_unwind_cpp_pr1
PUBLIC 3d8d30 0 __aeabi_unwind_cpp_pr2
PUBLIC 3d8d38 0 _Unwind_VRS_Pop
PUBLIC 3d9084 0 restore_core_regs
PUBLIC 3d9098 0 __gnu_Unwind_Restore_VFP
PUBLIC 3d90a0 0 __gnu_Unwind_Save_VFP
PUBLIC 3d90a8 0 __gnu_Unwind_Restore_VFP_D
PUBLIC 3d90b0 0 __gnu_Unwind_Save_VFP_D
PUBLIC 3d90b8 0 __gnu_Unwind_Restore_VFP_D_16_to_31
PUBLIC 3d90c0 0 __gnu_Unwind_Save_VFP_D_16_to_31
PUBLIC 3d90c8 0 __gnu_Unwind_Restore_WMMXD
PUBLIC 3d910c 0 __gnu_Unwind_Save_WMMXD
PUBLIC 3d9150 0 __gnu_Unwind_Restore_WMMXC
PUBLIC 3d9164 0 __gnu_Unwind_Save_WMMXC
PUBLIC 3d9178 0 ___Unwind_RaiseException
PUBLIC 3d919c 0 ___Unwind_Resume
PUBLIC 3d91c0 0 ___Unwind_Resume_or_Rethrow
PUBLIC 3d91e4 0 ___Unwind_ForcedUnwind
PUBLIC 3d9208 0 ___Unwind_Backtrace
PUBLIC 3d92b8 0 __gnu_unwind_execute
PUBLIC 3d9634 0 __gnu_unwind_frame
PUBLIC 3d9674 0 _Unwind_GetRegionStart
PUBLIC 3d9684 0 _Unwind_GetLanguageSpecificData
PUBLIC 3d96a0 0 _Unwind_GetDataRelBase
PUBLIC 3d96a8 0 _Unwind_GetTextRelBase
PUBLIC 3d96b0 0 __aeabi_dmul
PUBLIC 3d991c 0 __divdf3
PUBLIC 3d9b20 0 __gtdf2
PUBLIC 3d9b28 0 __ltdf2
PUBLIC 3d9b30 0 __cmpdf2
PUBLIC 3d9bb8 0 __aeabi_cdrcmple
PUBLIC 3d9bd4 0 __aeabi_cdcmpeq
PUBLIC 3d9be8 0 __aeabi_dcmpeq
PUBLIC 3d9bfc 0 __aeabi_dcmplt
PUBLIC 3d9c10 0 __aeabi_dcmple
PUBLIC 3d9c24 0 __aeabi_dcmpge
PUBLIC 3d9c38 0 __aeabi_dcmpgt
PUBLIC 3d9c4c 0 __aeabi_d2uiz
PUBLIC 3d9ca0 0 __divdi3
PUBLIC 3da118 0 __udivdi3
STACK CFI INIT 3d782c a8 .cfa: sp 0 + .ra: lr
STACK CFI INIT 3d78f4 dc .cfa: sp 0 + .ra: lr
STACK CFI INIT 3d8088 44 .cfa: sp 0 + .ra: lr
STACK CFI 3d808c .cfa: sp 16 + .ra: .cfa -4 + ^ r3: .cfa -16 + ^ r4: .cfa -12 + ^ r5: .cfa -8 + ^
STACK CFI INIT 3d80cc 68 .cfa: sp 0 + .ra: lr
STACK CFI 3d80d0 .cfa: sp 16 + .ra: .cfa -4 + ^ r4: .cfa -16 + ^ r5: .cfa -12 + ^ r6: .cfa -8 + ^
STACK CFI INIT 3d8134 3c .cfa: sp 0 + .ra: lr
STACK CFI 3d8138 .cfa: sp 24 + .ra: .cfa -4 + ^ r3: .cfa -24 + ^ r4: .cfa -20 + ^ r5: .cfa -16 + ^ r6: .cfa -12 + ^ r7: .cfa -8 + ^
STACK CFI INIT 3d8170 3c .cfa: sp 0 + .ra: lr
STACK CFI 3d8174 .cfa: sp 24 + .ra: .cfa -4 + ^ r3: .cfa -24 + ^ r4: .cfa -20 + ^ r5: .cfa -16 + ^ r6: .cfa -12 + ^ r7: .cfa -8 + ^
STACK CFI INIT 3d81ac 18 .cfa: sp 0 + .ra: lr
STACK CFI INIT 3d81c4 ac .cfa: sp 0 + .ra: lr
STACK CFI 3d81c8 .cfa: sp 48 + .ra: .cfa -4 + ^ r0: .cfa -48 + ^ r1: .cfa -44 + ^ r10: .cfa -12 + ^ r11: .cfa -8 + ^ r2: .cfa -40 + ^ r4: .cfa -36 + ^ r5: .cfa -32 + ^ r6: .cfa -28 + ^ r7: .cfa -24 + ^ r8: .cfa -20 + ^ r9: .cfa -16 + ^
STACK CFI INIT 3d8270 50 .cfa: sp 0 + .ra: lr
STACK CFI INIT 3d82c0 10c .cfa: sp 0 + .ra: lr
STACK CFI 3d82c8 .cfa: sp 24 + .ra: .cfa -4 + ^ r0: .cfa -24 + ^ r1: .cfa -20 + ^ r2: .cfa -16 + ^ r4: .cfa -12 + ^ r5: .cfa -8 + ^
STACK CFI INIT 3d83cc 6c .cfa: sp 0 + .ra: lr
STACK CFI 3d83d4 .cfa: sp 8 + .ra: .cfa -4 + ^ r4: .cfa -8 + ^
STACK CFI INIT 3d8438 14 .cfa: sp 0 + .ra: lr
STACK CFI INIT 3d844c 8 .cfa: sp 0 + .ra: lr
STACK CFI INIT 3d8454 4 .cfa: sp 0 + .ra: lr
STACK CFI INIT 3d8458 64 .cfa: sp 0 + .ra: lr
STACK CFI 3d845c .cfa: sp 16 + .ra: .cfa -4 + ^ r4: .cfa -16 + ^ r5: .cfa -12 + ^ r6: .cfa -8 + ^
STACK CFI INIT 3d84bc 124 .cfa: sp 0 + .ra: lr
STACK CFI 3d84c0 .cfa: sp 36 + .ra: .cfa -4 + ^ r10: .cfa -12 + ^ r11: .cfa -8 + ^ r4: .cfa -36 + ^ r5: .cfa -32 + ^ r6: .cfa -28 + ^ r7: .cfa -24 + ^ r8: .cfa -20 + ^ r9: .cfa -16 + ^
STACK CFI 3d84dc .cfa: sp 1008 +
STACK CFI INIT 3d85e0 8 .cfa: sp 0 + .ra: lr
STACK CFI INIT 3d85e8 a4 .cfa: sp 0 + .ra: lr
STACK CFI 3d85f0 .cfa: sp 20 + .ra: .cfa -4 + ^ r4: .cfa -20 + ^ r5: .cfa -16 + ^ r6: .cfa -12 + ^ r7: .cfa -8 + ^
STACK CFI 3d8604 .cfa: sp 504 +
STACK CFI INIT 3d868c 1c .cfa: sp 0 + .ra: lr
STACK CFI INIT 3d86a8 74 .cfa: sp 0 + .ra: lr
STACK CFI 3d86ac .cfa: sp 16 + .ra: .cfa -4 + ^ r4: .cfa -16 + ^ r5: .cfa -12 + ^ r6: .cfa -8 + ^
STACK CFI INIT 3d871c 20 .cfa: sp 0 + .ra: lr
STACK CFI INIT 3d873c 4 .cfa: sp 0 + .ra: lr
STACK CFI INIT 3d8740 20 .cfa: sp 0 + .ra: lr
STACK CFI 3d8744 .cfa: sp 8 + .ra: .cfa -4 + ^ r3: .cfa -8 + ^
STACK CFI INIT 3d8760 5c .cfa: sp 0 + .ra: lr
STACK CFI INIT 3d87bc 28 .cfa: sp 0 + .ra: lr
STACK CFI 3d87c0 .cfa: sp 24 + .ra: .cfa -4 + ^ r0: .cfa -24 + ^ r1: .cfa -20 + ^ r2: .cfa -16 + ^ r3: .cfa -12 + ^ r4: .cfa -8 + ^
STACK CFI INIT 3d87e4 5c .cfa: sp 0 + .ra: lr
STACK CFI INIT 3d8840 2c .cfa: sp 0 + .ra: lr
STACK CFI 3d8844 .cfa: sp 24 + .ra: .cfa -4 + ^ r0: .cfa -24 + ^ r1: .cfa -20 + ^ r2: .cfa -16 + ^ r3: .cfa -12 + ^ r4: .cfa -8 + ^
STACK CFI INIT 3d886c c4 .cfa: sp 0 + .ra: lr
STACK CFI 3d8874 .cfa: sp 24 + .ra: .cfa -4 + ^ r4: .cfa -24 + ^ r5: .cfa -20 + ^ r6: .cfa -16 + ^ r7: .cfa -12 + ^ r8: .cfa -8 + ^
STACK CFI 3d8888 .cfa: sp 592 +
STACK CFI INIT 3d8930 3f0 .cfa: sp 0 + .ra: lr
STACK CFI 3d8934 .cfa: sp 36 + .ra: .cfa -4 + ^ r10: .cfa -12 + ^ r11: .cfa -8 + ^ r4: .cfa -36 + ^ r5: .cfa -32 + ^ r6: .cfa -28 + ^ r7: .cfa -24 + ^ r8: .cfa -20 + ^ r9: .cfa -16 + ^
STACK CFI 3d8940 .cfa: sp 72 +
STACK CFI INIT 3d8d20 8 .cfa: sp 0 + .ra: lr
STACK CFI INIT 3d8d28 8 .cfa: sp 0 + .ra: lr
STACK CFI INIT 3d8d30 8 .cfa: sp 0 + .ra: lr
STACK CFI INIT 3d8d38 34c .cfa: sp 0 + .ra: lr
STACK CFI 3d8d3c .cfa: sp 28 + .ra: .cfa -4 + ^ r4: .cfa -28 + ^ r5: .cfa -24 + ^ r6: .cfa -20 + ^ r7: .cfa -16 + ^ r8: .cfa -12 + ^ r9: .cfa -8 + ^
STACK CFI 3d8d44 .cfa: sp 296 +
STACK CFI INIT 3d922c 60 .cfa: sp 0 + .ra: lr
STACK CFI INIT 3d928c 28 .cfa: sp 0 + .ra: lr
STACK CFI 3d9290 .cfa: sp 24 + .ra: .cfa -4 + ^ r0: .cfa -24 + ^ r1: .cfa -20 + ^ r2: .cfa -16 + ^ r3: .cfa -12 + ^ r4: .cfa -8 + ^
STACK CFI INIT 3d92b4 4 .cfa: sp 0 + .ra: lr
STACK CFI INIT 3d92b8 37c .cfa: sp 0 + .ra: lr
STACK CFI 3d92bc .cfa: sp 48 + .ra: .cfa -4 + ^ r0: .cfa -48 + ^ r1: .cfa -44 + ^ r10: .cfa -8 + ^ r2: .cfa -40 + ^ r3: .cfa -36 + ^ r4: .cfa -32 + ^ r5: .cfa -28 + ^ r6: .cfa -24 + ^ r7: .cfa -20 + ^ r8: .cfa -16 + ^ r9: .cfa -12 + ^
STACK CFI INIT 3d9634 40 .cfa: sp 0 + .ra: lr
STACK CFI 3d9638 .cfa: sp 24 + .ra: .cfa -4 + ^ r0: .cfa -24 + ^ r1: .cfa -20 + ^ r2: .cfa -16 + ^ r3: .cfa -12 + ^ r4: .cfa -8 + ^
STACK CFI INIT 3d9674 10 .cfa: sp 0 + .ra: lr
STACK CFI 3d9678 .cfa: sp 8 + .ra: .cfa -4 + ^ r3: .cfa -8 + ^
STACK CFI INIT 3d9684 1c .cfa: sp 0 + .ra: lr
STACK CFI 3d9688 .cfa: sp 8 + .ra: .cfa -4 + ^ r3: .cfa -8 + ^
STACK CFI INIT 3d96a0 8 .cfa: sp 0 + .ra: lr
STACK CFI 3d96a4 .cfa: sp 8 + .ra: .cfa -4 + ^ r3: .cfa -8 + ^
STACK CFI INIT 3d96a8 8 .cfa: sp 0 + .ra: lr
STACK CFI 3d96ac .cfa: sp 8 + .ra: .cfa -4 + ^ r3: .cfa -8 + ^
STACK CFI INIT 3d9ca0 478 .cfa: sp 0 + .ra: lr
STACK CFI 3d9cac .cfa: sp 36 + .ra: .cfa -4 + ^ r10: .cfa -12 + ^ r11: .cfa -8 + ^ r4: .cfa -36 + ^ r5: .cfa -32 + ^ r6: .cfa -28 + ^ r7: .cfa -24 + ^ r8: .cfa -20 + ^ r9: .cfa -16 + ^
STACK CFI 3d9cb4 .cfa: sp 56 +
STACK CFI INIT 3da118 3e4 .cfa: sp 0 + .ra: lr
STACK CFI 3da120 .cfa: sp 48 + .ra: .cfa -4 + ^ r0: .cfa -48 + ^ r1: .cfa -44 + ^ r10: .cfa -12 + ^ r11: .cfa -8 + ^ r2: .cfa -40 + ^ r4: .cfa -36 + ^ r5: .cfa -32 + ^ r6: .cfa -28 + ^ r7: .cfa -24 + ^ r8: .cfa -20 + ^ r9: .cfa -16 + ^
